 PhysXCooking_64

 Timestamp is 640869f1 (Wed Mar  8 11:56:49 2023)

 Preferred load address is 0000000180000000

 Start         Length     Name                   Class
 0001:00000000 000003c0H .text$di                CODE
 0001:000003c0 00046930H .text$mn                CODE
 0001:00046cf0 00000040H .text$mn$00             CODE
 0001:00046d30 00000620H .text$x                 CODE
 0002:00000000 00000278H .idata$5                DATA
 0002:00000278 00000028H .00cfg                  DATA
 0002:000002a0 00000008H .CRT$XCA                DATA
 0002:000002a8 000001e0H .CRT$XCU                DATA
 0002:00000488 00000008H .CRT$XCZ                DATA
 0002:00000490 00000008H .CRT$XIA                DATA
 0002:00000498 00000018H .CRT$XIC                DATA
 0002:000004b0 00000008H .CRT$XIZ                DATA
 0002:000004b8 00000008H .CRT$XPA                DATA
 0002:000004c0 00000010H .CRT$XPX                DATA
 0002:000004d0 00000008H .CRT$XPXA               DATA
 0002:000004d8 00000008H .CRT$XPZ                DATA
 0002:000004e0 00000008H .CRT$XTA                DATA
 0002:000004e8 00000008H .CRT$XTZ                DATA
 0002:000004f0 00000000H .gehcont$y              DATA
 0002:000004f0 00000000H .gfids$y                DATA
 0002:000004f0 0000b710H .rdata                  DATA
 0002:0000bc00 00000000H .rdata$CastGuardVftablesA DATA
 0002:0000bc00 00000000H .rdata$CastGuardVftablesC DATA
 0002:0000bc00 0000043cH .rdata$r                DATA
 0002:0000c03c 00000024H .rdata$voltmd           DATA
 0002:0000c060 00000440H .rdata$zzzdbg           DATA
 0002:0000c4a0 00000008H .rtc$IAA                DATA
 0002:0000c4a8 00000008H .rtc$IZZ                DATA
 0002:0000c4b0 00000008H .rtc$TAA                DATA
 0002:0000c4b8 00000008H .rtc$TZZ                DATA
 0002:0000c4c0 00004040H .xdata                  DATA
 0002:00010500 00000084H .xdata$x                DATA
 0002:00010584 00000040H .didat$2                DATA
 0002:000105c4 00000024H .didat$3                DATA
 0002:000105e8 00000188H .didat$4                DATA
 0002:00010770 00000950H .didat$6                DATA
 0002:000110c0 00000190H .didat$7                DATA
 0002:00011250 00001d00H .edata                  DATA
 0002:00012f50 00000014H .idata$2                DATA
 0002:00012f64 00000014H .idata$3                DATA
 0002:00012f78 00000278H .idata$4                DATA
 0002:000131f0 000005aeH .idata$6                DATA
 0003:00000000 00000a30H .data                   DATA
 0003:00000a30 000005e8H .data$r                 DATA
 0003:00001018 000000f0H .data$rs                DATA
 0003:00001108 00000188H .didat$5                DATA
 0003:00001290 000015c0H .bss                    DATA
 0004:00000000 00003498H .pdata                  DATA
 0005:00000000 0000230cH _RDATA                  DATA
 0006:00000000 000000a0H .rsrc$01                DATA
 0006:000000a0 000004b0H .rsrc$02                DATA

  Address         Publics by Value              Rva+Base               Lib:Object

 0000:00000000       __x64_code_ranges_to_entry_points_count 0000000000000000     <absolute>
 0000:00000000       __x64_code_ranges_to_entry_points 0000000000000000     <absolute>
 0000:00000000       __arm64x_redirection_metadata 0000000000000000     <absolute>
 0000:00000000       __guard_fids_count         0000000000000000     <absolute>
 0000:00000000       __guard_iat_table          0000000000000000     <absolute>
 0000:00000000       __arm64x_extra_rfe_table   0000000000000000     <absolute>
 0000:00000000       ___safe_se_handler_table   0000000000000000     <absolute>
 0000:00000000       __guard_iat_count          0000000000000000     <absolute>
 0000:00000000       __guard_longjmp_count      0000000000000000     <absolute>
 0000:00000000       __hybrid_code_map          0000000000000000     <absolute>
 0000:00000000       __dynamic_value_reloc_table 0000000000000000     <absolute>
 0000:00000000       __arm64x_extra_rfe_table_size 0000000000000000     <absolute>
 0000:00000000       ___safe_se_handler_count   0000000000000000     <absolute>
 0000:00000000       __guard_longjmp_table      0000000000000000     <absolute>
 0000:00000000       __hybrid_auxiliary_iat     0000000000000000     <absolute>
 0000:00000000       __hybrid_auxiliary_iat_copy 0000000000000000     <absolute>
 0000:00000000       __AbsoluteZero             0000000000000000     <absolute>
 0000:00000000       __guard_check_icall_a64n_fptr 0000000000000000     <absolute>
 0000:00000000       __guard_eh_cont_count      0000000000000000     <absolute>
 0000:00000000       __guard_fids_table         0000000000000000     <absolute>
 0000:00000000       __arm64x_redirection_metadata_count 0000000000000000     <absolute>
 0000:00000000       __enclave_config           0000000000000000     <absolute>
 0000:00000000       __guard_eh_cont_table      0000000000000000     <absolute>
 0000:00000000       __arm64x_native_entrypoint 0000000000000000     <absolute>
 0000:00000000       __hybrid_code_map_count    0000000000000000     <absolute>
 0000:00000100       __guard_flags              0000000000000100     <absolute>
 0000:00000000       __ImageBase                0000000180000000     <linker-defined>
 0001:000003c0       ??$?_UV?$ReflectionAllocator@VAdjTriangle@physx@@@shdfnd@physx@@@UserAllocated@shdfnd@physx@@SAPEAX_KV?$ReflectionAllocator@VAdjTriangle@physx@@@12@PEBDH@Z 00000001800013c0 f i Adjacencies.obj
 0001:00000460       ??0AdjacenciesBuilder@physx@@QEAA@XZ 0000000180001460 f   Adjacencies.obj
 0001:00000470       ??4Allocator@shdfnd@physx@@QEAAAEAV012@$$QEAV012@@Z 0000000180001470 f i Adjacencies.obj
 0001:00000470       ??0Box@Gu@physx@@QEAA@XZ   0000000180001470 f i ConvexHullUtils.obj
 0001:00000470       ??0AABBTreeBuildNode@Gu@physx@@QEAA@XZ 0000000180001470 f i BVHStructureBuilder.obj
 0001:00000470       ??0HeightFieldData@Gu@physx@@QEAA@W4PxEMPTY@2@@Z 0000000180001470 f i Cooking.obj
 0001:00000470       ?getAABB@AABBTreeBuildNode@Gu@physx@@QEBAAEBVPxBounds3@3@XZ 0000000180001470 f i BVHStructureBuilder.obj
 0001:00000470       ?getPaddedBounds@HeightFieldData@Gu@physx@@QEBAAEBVCenterExtentsPadded@23@XZ 0000000180001470 f i Cooking.obj
 0001:00000470       ??0Allocator@shdfnd@physx@@QEAA@PEBD@Z 0000000180001470 f i Adjacencies.obj
 0001:00000470       ??4Allocator@shdfnd@physx@@QEAAAEAV012@AEBV012@@Z 0000000180001470 f i Adjacencies.obj
 0001:00000470       ??0BigConvexData@physx@@QEAA@W4PxEMPTY@1@@Z 0000000180001470 f i BigConvexDataBuilder.obj
 0001:00000470       ??$forward@_K@std@@YA$$QEA_KAEA_K@Z 0000000180001470 f i libvcruntime:undname.obj
 0001:00000470       ??4PxFoundation@physx@@QEAAAEAV01@AEBV01@@Z 0000000180001470 f i Adjacencies.obj
 0001:00000470       ??4MutexImpl@shdfnd@physx@@QEAAAEAV012@AEBV012@@Z 0000000180001470 f i Adjacencies.obj
 0001:00000480       ??0PxFoundation@physx@@QEAA@AEBV01@@Z 0000000180001480 f i Adjacencies.obj
 0001:00000480       ??0PxFoundation@physx@@QEAA@XZ 0000000180001480 f i Adjacencies.obj
 0001:00000490       ??1Adjacencies@physx@@QEAA@XZ 0000000180001490 f   Adjacencies.obj
 0001:00000500       ??1AdjacenciesBuilder@physx@@QEAA@XZ 0000000180001500 f   Adjacencies.obj
 0001:00000510       ??1PxFoundation@physx@@MEAA@XZ 0000000180001510 f i Adjacencies.obj
 0001:00000520       ??_EPxFoundation@physx@@MEAAPEAXI@Z 0000000180001520 f i Adjacencies.obj
 0001:000005b0       _guard_check_icall_nop     00000001800015b0 f i LIBCMT:guard_support.obj
 0001:000005b0       ??1BigConvexDataBuilder@physx@@QEAA@XZ 00000001800015b0 f i BigConvexDataBuilder.obj
 0001:000005b0       ??1HeightFieldData@Gu@physx@@QEAA@XZ 00000001800015b0 f i Cooking.obj
 0001:000005b0       ??_FAllocator@shdfnd@physx@@QEAAXXZ 00000001800015b0 f i Adjacencies.obj
 0001:000005b0       ?onMeshIndexFormatChange@TriangleMeshBuilder@physx@@UEAAXXZ 00000001800015b0 f i TriangleMeshBuilder.obj
 0001:000005b0       ??1Box@Gu@physx@@QEAA@XZ   00000001800015b0 f i ConvexHullUtils.obj
 0001:000005b0       ??1AABBTreeBuildNode@Gu@physx@@QEAA@XZ 00000001800015b0 f i BVHStructureBuilder.obj
 0001:000005c0       ?ComputeNbBoundaryEdges@Adjacencies@physx@@QEBAIXZ 00000001800015c0 f   Adjacencies.obj
 0001:000008a0       ?GetNbHits@RadixSort@Cm@physx@@QEBAIXZ 00000001800018a0 f i Adjacencies.obj
 0001:000008b0       ?GetNbTotalCalls@RadixSort@Cm@physx@@QEBAIXZ 00000001800018b0 f i Adjacencies.obj
 0001:000008c0       ?GetRanks@RadixSort@Cm@physx@@QEBAPEBIXZ 00000001800018c0 f i Adjacencies.obj
 0001:000008c0       ?getErrorCallback@Foundation@shdfnd@physx@@UEAAAEAVPxErrorCallback@3@XZ 00000001800018c0 f i Adjacencies.obj
 0001:000008d0       ?getPos@AABBTreeBuildNode@Gu@physx@@QEBAPEBV123@XZ 00000001800018d0 f i BVHStructureBuilder.obj
 0001:000008d0       ?GetValencies@BigConvexData@physx@@QEBAPEBUValency@Gu@2@XZ 00000001800018d0 f i BigConvexDataBuilder.obj
 0001:000008d0       ?GetRecyclable@RadixSort@Cm@physx@@QEBAPEAIXZ 00000001800018d0 f i Adjacencies.obj
 0001:000008e0       ?Init@AdjacenciesBuilder@physx@@QEAA_NAEBUADJACENCIESCREATE@2@@Z 00000001800018e0 f   Adjacencies.obj
 0001:00000e90       ?getAllocator@Foundation@shdfnd@physx@@QEAAAEAVPxAllocatorCallback@3@XZ 0000000180001e90 f i Adjacencies.obj
 0001:00000ea0       ?getAllocatorCallback@Foundation@shdfnd@physx@@UEAAAEAVPxAllocatorCallback@3@XZ 0000000180001ea0 f i Adjacencies.obj
 0001:00000eb0       ?getErrorLevel@Foundation@shdfnd@physx@@UEBA?AW4Enum@PxErrorCode@3@XZ 0000000180001eb0 f i Adjacencies.obj
 0001:00000ec0       ?getInternalErrorCallback@Foundation@shdfnd@physx@@QEAAAEAVPxErrorCallback@3@XZ 0000000180001ec0 f i Adjacencies.obj
 0001:00000ed0       ?getNamedAllocMap@Foundation@shdfnd@physx@@QEAAAEAV?$HashMap@PEBVNamedAllocator@shdfnd@physx@@PEBDU?$Hash@PEBVNamedAllocator@shdfnd@physx@@@23@VNonTrackingAllocator@23@@23@XZ 0000000180001ed0 f i Adjacencies.obj
 0001:00000ee0       ?getNamedAllocMutex@Foundation@shdfnd@physx@@QEAAAEAV?$MutexT@VAllocator@shdfnd@physx@@@23@XZ 0000000180001ee0 f i Adjacencies.obj
 0001:00000ef0       ?getReportAllocationNames@Foundation@shdfnd@physx@@UEBA_NXZ 0000000180001ef0 f i Adjacencies.obj
 0001:00000f00       ?getTempAllocFreeTable@Foundation@shdfnd@physx@@QEAAAEAV?$Array@PEATTempAllocatorChunk@shdfnd@physx@@VAllocator@23@@23@XZ 0000000180001f00 f i Adjacencies.obj
 0001:00000f10       ?getTempAllocMutex@Foundation@shdfnd@physx@@QEAAAEAV?$MutexT@VAllocator@shdfnd@physx@@@23@XZ 0000000180001f10 f i Adjacencies.obj
 0001:00000f20       ?invalidateRanks@RadixSort@Cm@physx@@QEAAXXZ 0000000180001f20 f i Adjacencies.obj
 0001:00000f30       ?setErrorLevel@Foundation@shdfnd@physx@@UEAAXW4Enum@PxErrorCode@3@@Z 0000000180001f30 f i Adjacencies.obj
 0001:00000f40       ?setReportAllocationNames@Foundation@shdfnd@physx@@UEAAX_N@Z 0000000180001f40 f i Adjacencies.obj
 0001:00000f50       ??0DebugText@Cm@physx@@QEAA@$$QEAU012@@Z 0000000180001f50 f i Cooking.obj
 0001:00000f50       ??0DebugText@Cm@physx@@QEAA@AEBU012@@Z 0000000180001f50 f i Cooking.obj
 0001:00001030       ??4HeightFieldData@Gu@physx@@QEAAAEAU012@AEBU012@@Z 0000000180002030 f i Cooking.obj
 0001:00001030       ??0HeightFieldData@Gu@physx@@QEAA@$$QEAU012@@Z 0000000180002030 f i Cooking.obj
 0001:00001030       ??4HeightFieldData@Gu@physx@@QEAAAEAU012@$$QEAU012@@Z 0000000180002030 f i Cooking.obj
 0001:00001030       ??0HeightFieldData@Gu@physx@@QEAA@AEBU012@@Z 0000000180002030 f i Cooking.obj
 0001:00001090       ??0HeightFieldData@Gu@physx@@QEAA@XZ 0000000180002090 f i Cooking.obj
 0001:000010a0       ??0RenderOutput@Cm@physx@@QEAA@AEAVRenderBuffer@12@@Z 00000001800020a0 f i Cooking.obj
 0001:000010f0       ??0RenderOutput@Cm@physx@@QEAA@AEBV012@@Z 00000001800020f0 f i Cooking.obj
 0001:00001190       ??1PxConvexMesh@physx@@MEAA@XZ 0000000180002190 f i Cooking.obj
 0001:00001190       ??1PxHeightField@physx@@MEAA@XZ 0000000180002190 f i Cooking.obj
 0001:000011a0       ??4DebugText@Cm@physx@@QEAAAEAU012@$$QEAU012@@Z 00000001800021a0 f i Cooking.obj
 0001:000011a0       ??4DebugText@Cm@physx@@QEAAAEAU012@AEBU012@@Z 00000001800021a0 f i Cooking.obj
 0001:000012d0       ??4FPUGuard@shdfnd@physx@@QEAAAEAV012@AEBV012@@Z 00000001800022d0 f i Cooking.obj
 0001:000012f0       ??_GCooking@physx@@UEAAPEAXI@Z 00000001800022f0 f i Cooking.obj
 0001:000012f0       ??_ECooking@physx@@UEAAPEAXI@Z 00000001800022f0 f i Cooking.obj
 0001:00001340       ??_EPxBase@physx@@MEAAPEAXI@Z 0000000180002340 f i Cooking.obj
 0001:00001340       ??_GPxBase@physx@@MEAAPEAXI@Z 0000000180002340 f i Cooking.obj
 0001:00001370       ??_EPxCooking@physx@@MEAAPEAXI@Z 0000000180002370 f i Cooking.obj
 0001:00001370       ??_GPxCooking@physx@@MEAAPEAXI@Z 0000000180002370 f i Cooking.obj
 0001:000013a0       ?allocate@?$Array@UPxDebugLine@physx@@V?$ReflectionAllocator@UPxDebugLine@physx@@@shdfnd@2@@shdfnd@physx@@IEAAPEAUPxDebugLine@3@I@Z 00000001800023a0 f i Cooking.obj
 0001:00001440       ?computeHullPolygons@Cooking@physx@@UEBA_NAEBVPxSimpleTriangleMesh@2@AEAVPxAllocatorCallback@2@AEAIAEAPEAVPxVec3@2@2AEAPEAI2AEAPEAUPxHullPolygon@2@@Z 0000000180002440 f   Cooking.obj
 0001:00001620       ?cookBVHStructure@Cooking@physx@@UEBA_NAEBVPxBVHStructureDesc@2@AEAVPxOutputStream@2@@Z 0000000180002620 f   Cooking.obj
 0001:000016d0       ?cookConvexMesh@Cooking@physx@@UEBA_NAEBVPxConvexMeshDesc@2@AEAVPxOutputStream@2@PEAW4Enum@PxConvexMeshCookingResult@2@@Z 00000001800026d0 f   Cooking.obj
 0001:000018b0       ?cookConvexMeshInternal@Cooking@physx@@AEBA_NAEBVPxConvexMeshDesc@2@AEAVConvexMeshBuilder@2@PEAVConvexHullLib@2@PEAW4Enum@PxConvexMeshCookingResult@2@@Z 00000001800028b0 f   Cooking.obj
 0001:00001b20       ?cookHeightField@Cooking@physx@@UEBA_NAEBVPxHeightFieldDesc@2@AEAVPxOutputStream@2@@Z 0000000180002b20 f   Cooking.obj
 0001:00001bf0       ?cookTriangleMesh@Cooking@physx@@UEBA_NAEBVPxTriangleMeshDesc@2@AEAVPxOutputStream@2@PEAW4Enum@PxTriangleMeshCookingResult@2@@Z 0000000180002bf0 f   Cooking.obj
 0001:00001d30       ?copy@?$Array@UPxDebugLine@physx@@V?$ReflectionAllocator@UPxDebugLine@physx@@@shdfnd@2@@shdfnd@physx@@KAXPEAUPxDebugLine@3@0PEBU43@@Z 0000000180002d30 f i Cooking.obj
 0001:00001ee0       ?createBVHStructure@Cooking@physx@@UEBAPEAVPxBVHStructure@2@AEBVPxBVHStructureDesc@2@AEAVPxPhysicsInsertionCallback@2@@Z 0000000180002ee0 f   Cooking.obj
 0001:00001f90       ?createConvexMesh@Cooking@physx@@UEBAPEAVPxConvexMesh@2@AEBVPxConvexMeshDesc@2@AEAVPxPhysicsInsertionCallback@2@PEAW4Enum@PxConvexMeshCookingResult@2@@Z 0000000180002f90 f   Cooking.obj
 0001:00002190       ?createHeightField@Cooking@physx@@UEBAPEAVPxHeightField@2@AEBVPxHeightFieldDesc@2@AEAVPxPhysicsInsertionCallback@2@@Z 0000000180003190 f   Cooking.obj
 0001:000022f0       ?createTriangleMesh@Cooking@physx@@UEBAPEAVPxTriangleMesh@2@AEBVPxTriangleMeshDesc@2@AEAVPxPhysicsInsertionCallback@2@PEAW4Enum@PxTriangleMeshCookingResult@2@@Z 00000001800032f0 f   Cooking.obj
 0001:00002440       ?getConcreteTypeName@PxConvexMesh@physx@@UEBAPEBDXZ 0000000180003440 f i Cooking.obj
 0001:00002450       ?getConcreteTypeName@PxHeightField@physx@@UEBAPEBDXZ 0000000180003450 f i Cooking.obj
 0001:00002460       ?getConvexEdgeThreshold@HeightField@Gu@physx@@UEBAMXZ 0000000180003460 f i Cooking.obj
 0001:00002470       ?getFlags@HeightField@Gu@physx@@UEBA?AV?$PxFlags@W4Enum@PxHeightFieldFlag@physx@@G@3@XZ 0000000180003470 f i Cooking.obj
 0001:00002480       ?getFormat@HeightField@Gu@physx@@UEBA?AW4Enum@PxHeightFieldFormat@3@XZ 0000000180003480 f i Cooking.obj
 0001:00002490       ?getHeight@HeightField@Gu@physx@@UEBAMMM@Z 0000000180003490 f i Cooking.obj
 0001:000024d0       ?getHeightInternal2@HeightField@Gu@physx@@QEBAMIMM@Z 00000001800034d0 f i Cooking.obj
 0001:00002640       ?getIndexBuffer@ConvexMesh@Gu@physx@@UEBAPEBEXZ 0000000180003640 f i Cooking.obj
 0001:00002680       ?getNbColumns@HeightField@Gu@physx@@UEBAIXZ 0000000180003680 f i Cooking.obj
 0001:00002690       ?getNbPolygons@ConvexMesh@Gu@physx@@UEBAIXZ 0000000180003690 f i Cooking.obj
 0001:000026a0       ?getNbRows@HeightField@Gu@physx@@UEBAIXZ 00000001800036a0 f i Cooking.obj
 0001:000026b0       ?getNbVertices@ConvexMesh@Gu@physx@@UEBAIXZ 00000001800036b0 f i Cooking.obj
 0001:000026c0       ?getParams@Cooking@physx@@UEBAAEBUPxCookingParams@2@XZ 00000001800036c0 f   Cooking.obj
 0001:000026c0       ?getDenormalizeScale@QuantizerImpl@@UEBAAEBVPxVec3@physx@@XZ 00000001800036c0 f   Quantizer.obj
 0001:000026d0       ?getSample@HeightField@Gu@physx@@UEBAAEBUPxHeightFieldSample@3@II@Z 00000001800036d0 f i Cooking.obj
 0001:000026e0       ?getSampleStride@HeightField@Gu@physx@@UEBAIXZ 00000001800036e0 f i Cooking.obj
 0001:000026f0       ?getTimestamp@HeightField@Gu@physx@@UEBAIXZ 00000001800036f0 f i Cooking.obj
 0001:00002700       ?getTriangleMaterialIndex@HeightField@Gu@physx@@UEBAGI@Z 0000000180003700 f i Cooking.obj
 0001:00002730       ?getTriangleNormal@HeightField@Gu@physx@@UEBA?AVPxVec3@3@I@Z 0000000180003730 f i Cooking.obj
 0001:00002830       ?getVertices@ConvexMesh@Gu@physx@@UEBAPEBVPxVec3@3@XZ 0000000180003830 f i Cooking.obj
 0001:00002850       ?isKindOf@PxBase@physx@@MEBA_NPEBD@Z 0000000180003850 f i Cooking.obj
 0001:00002880       ?isKindOf@PxConvexMesh@physx@@MEBA_NPEBD@Z 0000000180003880 f i Cooking.obj
 0001:000028d0       ?isKindOf@PxHeightField@physx@@MEBA_NPEBD@Z 00000001800038d0 f i Cooking.obj
 0001:00002920       ?isReleasable@PxBase@physx@@UEBA_NXZ 0000000180003920 f i Cooking.obj
 0001:00002930       ?outputSegment@RenderOutput@Cm@physx@@QEAAXAEBVPxVec3@3@0@Z 0000000180003930 f i Cooking.obj
 0001:000029f0       ?platformMismatch@Cooking@physx@@UEBA_NXZ 00000001800039f0 f   Cooking.obj
 0001:00002a00       ?preExportDataReset@HeightField@Gu@physx@@QEAAXXZ 0000000180003a00 f i Cooking.obj
 0001:00002a00       ?preExportDataReset@ConvexMesh@Gu@physx@@QEAAXXZ 0000000180003a00 f i Cooking.obj
 0001:00002a10       ?recreate@?$Array@UPxDebugLine@physx@@V?$ReflectionAllocator@UPxDebugLine@physx@@@shdfnd@2@@shdfnd@physx@@IEAAXI@Z 0000000180003a10 f i Cooking.obj
 0001:00002aa0       ?release@Cooking@physx@@UEAAXXZ 0000000180003aa0 f   Cooking.obj
 0001:00002ac0       ?reserveSegments@RenderOutput@Cm@physx@@QEAAPEAUPxDebugLine@3@I@Z 0000000180003ac0 f i Cooking.obj
 0001:00002b30       ?setParams@Cooking@physx@@UEAAXAEBUPxCookingParams@2@@Z 0000000180003b30 f   Cooking.obj
 0001:00002b90       ?validateConvexMesh@Cooking@physx@@UEBA_NAEBVPxConvexMeshDesc@2@@Z 0000000180003b90 f   Cooking.obj
 0001:00002bf0       ?validateTriangleMesh@Cooking@physx@@UEBA_NAEBVPxTriangleMeshDesc@2@@Z 0000000180003bf0 f   Cooking.obj
 0001:00002d00       PxCreateCooking            0000000180003d00 f   Cooking.obj
 0001:00002df0       ??0ReducedVertexCloud@physx@@QEAA@PEBVPxVec3@1@I@Z 0000000180003df0 f   CookingUtils.obj
 0001:00002e10       ??1ReducedVertexCloud@physx@@QEAA@XZ 0000000180003e10 f   CookingUtils.obj
 0001:00002e20       ?Clean@ReducedVertexCloud@physx@@QEAAAEAV12@XZ 0000000180003e20 f   CookingUtils.obj
 0001:00002e90       ?Reduce@ReducedVertexCloud@physx@@QEAA_NPEAUREDUCEDCLOUD@2@@Z 0000000180003e90 f   CookingUtils.obj
 0001:000031b0       ??$?_UI@@YAPEAX_KV?$ReflectionAllocator@I@shdfnd@physx@@PEBDH@Z 00000001800041b0 f i EdgeList.obj
 0001:00003250       ??0EdgeListBuilder@Gu@physx@@QEAA@XZ 0000000180004250 f   EdgeList.obj
 0001:00003270       ??1EdgeList@Gu@physx@@QEAA@XZ 0000000180004270 f   EdgeList.obj
 0001:00003310       ??1EdgeListBuilder@Gu@physx@@QEAA@XZ 0000000180004310 f   EdgeList.obj
 0001:00003320       ?computeActiveEdges@EdgeListBuilder@Gu@physx@@AEAA_NIPEBIPEBGPEBVPxVec3@3@M@Z 0000000180004320 f   EdgeList.obj
 0001:00004960       ?createEdgesToFaces@EdgeListBuilder@Gu@physx@@AEAA_NIPEBIPEBG@Z 0000000180005960 f   EdgeList.obj
 0001:00004bc0       ?createFacesToEdges@EdgeListBuilder@Gu@physx@@AEAA_NIPEBIPEBG@Z 0000000180005bc0 f   EdgeList.obj
 0001:00005030       ?init@EdgeListBuilder@Gu@physx@@QEAA_NAEBUEDGELISTCREATE@23@@Z 0000000180006030 f   EdgeList.obj
 0001:00005160       ??0MeshCleaner@physx@@QEAA@IPEBVPxVec3@1@IPEBIM@Z 0000000180006160 f   MeshCleaner.obj
 0001:00005b00       ??1MeshCleaner@physx@@QEAA@XZ 0000000180006b00 f   MeshCleaner.obj
 0001:00005b90       ??$kmeans_cluster@VPxVec3@physx@@M@@YAIPEBVPxVec3@physx@@IIPEAV01@PEAIMM@Z 0000000180006b90 f i Quantizer.obj
 0001:000064b0       ??_EQuantizer@physx@@MEAAPEAXI@Z 00000001800074b0 f i Quantizer.obj
 0001:000064b0       ??_GQuantizer@physx@@MEAAPEAXI@Z 00000001800074b0 f i Quantizer.obj
 0001:000064e0       ??_EQuantizerImpl@@EEAAPEAXI@Z 00000001800074e0 f i Quantizer.obj
 0001:000064e0       ??_GQuantizerImpl@@EEAAPEAXI@Z 00000001800074e0 f i Quantizer.obj
 0001:000065b0       ?createQuantizer@physx@@YAPEAVQuantizer@1@XZ 00000001800075b0 f   Quantizer.obj
 0001:00006660       ?getDenormalizeCenter@QuantizerImpl@@UEBAAEBVPxVec3@physx@@XZ 0000000180007660 f i Quantizer.obj
 0001:00006670       ?growAndPushBack@?$Array@VPxVec3@physx@@V?$ReflectionAllocator@VPxVec3@physx@@@shdfnd@2@@shdfnd@physx@@IEAAAEAVPxVec3@3@AEBV43@@Z 0000000180007670 f i Quantizer.obj
 0001:00006840       ?kmeansQuantize3D@QuantizerImpl@@UEAAPEBVPxVec3@physx@@IPEBV23@I_NIAEAI@Z 0000000180007840 f i Quantizer.obj
 0001:00006aa0       ?normalizeInput@QuantizerImpl@@AEAAXIPEBVPxVec3@physx@@I@Z 0000000180007aa0 f i Quantizer.obj
 0001:00006ed0       ?release@QuantizerImpl@@UEAAXXZ 0000000180007ed0 f i Quantizer.obj
 0001:00006ef0       ??$copy@V?$ReflectionAllocator@USlab@NodeAllocator@Gu@physx@@@shdfnd@physx@@@?$Array@USlab@NodeAllocator@Gu@physx@@V?$ReflectionAllocator@USlab@NodeAllocator@Gu@physx@@@shdfnd@4@@shdfnd@physx@@IEAAXAEBV012@@Z 0000000180007ef0 f i BVHStructureBuilder.obj
 0001:00006f70       ??4AABBTreeBuildNode@Gu@physx@@QEAAAEAV012@AEBV012@@Z 0000000180007f70 f i BVHStructureBuilder.obj
 0001:00006f70       ??0AABBTreeBuildNode@Gu@physx@@QEAA@AEBV012@@Z 0000000180007f70 f i BVHStructureBuilder.obj
 0001:00006fb0       ??0AABBTreeBuildParams@Gu@physx@@QEAA@IIPEBVPxBounds3@2@@Z 0000000180007fb0 f i BVHStructureBuilder.obj
 0001:00006fd0       ??0BVHStructureBuilder@physx@@QEAA@XZ 0000000180007fd0 f   BVHStructureBuilder.obj
 0001:00006ff0       ??0BuildStats@Gu@physx@@QEAA@XZ 0000000180007ff0 f i BVHStructureBuilder.obj
 0001:00007000       ??0NodeAllocator@Gu@physx@@QEAA@AEBV012@@Z 0000000180008000 f i BVHStructureBuilder.obj
 0001:00007040       ??1AABBTreeBuildParams@Gu@physx@@QEAA@XZ 0000000180008040 f i BVHStructureBuilder.obj
 0001:00007040       ?reset@AABBTreeBuildParams@Gu@physx@@QEAAXXZ 0000000180008040 f i BVHStructureBuilder.obj
 0001:000070a0       ??1BVHStructureBuilder@physx@@QEAA@XZ 00000001800080a0 f   BVHStructureBuilder.obj
 0001:00007120       ??4AABBTreeBuildParams@Gu@physx@@QEAAAEAV012@AEBV012@@Z 0000000180008120 f i BVHStructureBuilder.obj
 0001:00007140       ??4BuildStats@Gu@physx@@QEAAAEAU012@$$QEAU012@@Z 0000000180008140 f i BVHStructureBuilder.obj
 0001:00007150       ??4BuildStats@Gu@physx@@QEAAAEAU012@AEBU012@@Z 0000000180008150 f i BVHStructureBuilder.obj
 0001:00007160       ??4NodeAllocator@Gu@physx@@QEAAAEAV012@AEBV012@@Z 0000000180008160 f i BVHStructureBuilder.obj
 0001:00007210       ??_FAABBTreeBuildParams@Gu@physx@@QEAAXXZ 0000000180008210 f i BVHStructureBuilder.obj
 0001:00007230       ?__global_delete@@YAXPEAX_K@Z 0000000180008230 f i BVHStructureBuilder.obj
 0001:00007230       ??_V@YAXPEAX_K@Z           0000000180008230 f i LIBCMT:delete_array_size.obj
 0001:00007240       ?allocate@?$Array@USlab@NodeAllocator@Gu@physx@@V?$ReflectionAllocator@USlab@NodeAllocator@Gu@physx@@@shdfnd@4@@shdfnd@physx@@IEAAPEAUSlab@NodeAllocator@Gu@3@I@Z 0000000180008240 f i BVHStructureBuilder.obj
 0001:000072e0       ?getCount@BuildStats@Gu@physx@@QEBAIXZ 00000001800082e0 f i BVHStructureBuilder.obj
 0001:000072f0       ?getNbRuntimePrimitives@AABBTreeBuildNode@Gu@physx@@QEBAIXZ 00000001800082f0 f i BVHStructureBuilder.obj
 0001:000072f0       ?getNbPrimitives@AABBTreeBuildNode@Gu@physx@@QEBAIXZ 00000001800082f0 f i BVHStructureBuilder.obj
 0001:00007300       ?getNeg@AABBTreeBuildNode@Gu@physx@@QEBAPEBV123@XZ 0000000180008300 f i BVHStructureBuilder.obj
 0001:00007320       ?getPrimitives@AABBTreeBuildNode@Gu@physx@@QEAAPEAIPEAI@Z 0000000180008320 f i BVHStructureBuilder.obj
 0001:00007320       ?getPrimitives@AABBTreeBuildNode@Gu@physx@@QEBAPEBIPEBI@Z 0000000180008320 f i BVHStructureBuilder.obj
 0001:00007330       ?increaseCount@BuildStats@Gu@physx@@QEAAXI@Z 0000000180008330 f i BVHStructureBuilder.obj
 0001:00007340       ?isLeaf@AABBTreeBuildNode@Gu@physx@@QEBA_NXZ 0000000180008340 f i BVHStructureBuilder.obj
 0001:00007350       ?loadFromDesc@BVHStructureBuilder@physx@@QEAA_NAEBVPxBVHStructureDesc@2@@Z 0000000180008350 f   BVHStructureBuilder.obj
 0001:00007820       ?moveData@BVHStructureBuilder@physx@@QEAAXAEAUBVHStructureData@Gu@2@@Z 0000000180008820 f   BVHStructureBuilder.obj
 0001:00007860       ?recreate@?$Array@USlab@NodeAllocator@Gu@physx@@V?$ReflectionAllocator@USlab@NodeAllocator@Gu@physx@@@shdfnd@4@@shdfnd@physx@@IEAAXI@Z 0000000180008860 f i BVHStructureBuilder.obj
 0001:00007910       ?reset@BuildStats@Gu@physx@@QEAAXXZ 0000000180008910 f i BVHStructureBuilder.obj
 0001:00007920       ?save@BVHStructureBuilder@physx@@QEBA_NAEAVPxOutputStream@2@_N@Z 0000000180008920 f   BVHStructureBuilder.obj
 0001:00007aa0       ?setCount@BuildStats@Gu@physx@@QEAAXI@Z 0000000180008aa0 f i BVHStructureBuilder.obj
 0001:00007ab0       ?setNbRunTimePrimitives@AABBTreeBuildNode@Gu@physx@@QEAAXI@Z 0000000180008ab0 f i BVHStructureBuilder.obj
 0001:00007ac0       ?saveHeightField@physx@@YA_NAEBVHeightField@Gu@1@AEAVPxOutputStream@1@_N@Z 0000000180008ac0 f   HeightFieldCooking.obj
 0001:00007d00       ??$quickSelectFirstK@UBoundsLTE@physx@@@quickSelect@physx@@YAXPEIAIIIIAEBUBoundsLTE@1@@Z 0000000180008d00 f i RTreeCooking.obj
 0001:00007ee0       ??$smallSort@I$$CBUSortBoundsPredicate@physx@@@internal@shdfnd@physx@@YAXPEAIHHAEBUSortBoundsPredicate@2@@Z 0000000180008ee0 f i RTreeCooking.obj
 0001:000081b0       ??$sort@IU?$Less@I@shdfnd@physx@@V?$ReflectionAllocator@I@23@@shdfnd@physx@@YAXPEAIIAEBU?$Less@I@01@AEBV?$ReflectionAllocator@I@01@I@Z 00000001800091b0 f i RTreeCooking.obj
 0001:00008600       ??$sort@IUSortBoundsPredicate@physx@@V?$ReflectionAllocator@I@shdfnd@2@@shdfnd@physx@@YAXPEAIIAEBUSortBoundsPredicate@1@AEBV?$ReflectionAllocator@I@01@I@Z 0000000180009600 f i RTreeCooking.obj
 0001:00008b00       ?allocate@?$Array@UInterval@physx@@V?$InlineAllocator@$0CAAA@V?$ReflectionAllocator@UInterval@physx@@@shdfnd@physx@@@shdfnd@2@@shdfnd@physx@@IEAAPEAUInterval@3@I@Z 0000000180009b00 f i RTreeCooking.obj
 0001:00008bc0       ?allocate@?$Array@UPxBounds3V@physx@@V?$ReflectionAllocator@UPxBounds3V@physx@@@shdfnd@2@@shdfnd@physx@@IEAAPEAUPxBounds3V@3@I@Z 0000000180009bc0 f i RTreeCooking.obj
 0001:00008c60       ?allocate@?$Array@URTreeNodeNQ@physx@@V?$ReflectionAllocator@URTreeNodeNQ@physx@@@shdfnd@2@@shdfnd@physx@@IEAAPEAURTreeNodeNQ@3@I@Z 0000000180009c60 f i RTreeCooking.obj
 0001:00008d00       ?allocate@?$Array@URTreeNodeQ@Gu@physx@@V?$ReflectionAllocator@URTreeNodeQ@Gu@physx@@@shdfnd@3@@shdfnd@physx@@IEAAPEAURTreeNodeQ@Gu@3@I@Z 0000000180009d00 f i RTreeCooking.obj
 0001:00008da0       ?allocate@?$Array@VPxVec3@physx@@V?$ReflectionAllocator@VPxVec3@physx@@@shdfnd@2@@shdfnd@physx@@IEAAPEAVPxVec3@3@I@Z 0000000180009da0 f i RTreeCooking.obj
 0001:00008e40       ?allocate@?$ReflectionAllocator@I@shdfnd@physx@@QEAAPEAX_KPEBDH@Z 0000000180009e40 f i RTreeCooking.obj
 0001:00009b10       ?buildFromTriangles@RTreeCooker@physx@@SAXAEAURTree@Gu@2@PEBVPxVec3@2@IPEBGPEBIIAEAV?$Array@IV?$ReflectionAllocator@I@shdfnd@physx@@@shdfnd@2@PEAURemapCallback@12@MW4Enum@PxMeshCookingHint@2@@Z 000000018000ab10 f   RTreeCooking.obj
 0001:00009db0       ?copy@?$Array@URTreeNodeNQ@physx@@V?$ReflectionAllocator@URTreeNodeNQ@physx@@@shdfnd@2@@shdfnd@physx@@KAXPEAURTreeNodeNQ@3@0PEBU43@@Z 000000018000adb0 f i RTreeCooking.obj
 0001:00009f70       ?copy@?$Array@VPxVec3@physx@@V?$ReflectionAllocator@VPxVec3@physx@@@shdfnd@2@@shdfnd@physx@@KAXPEAVPxVec3@3@0PEBV43@@Z 000000018000af70 f i RTreeCooking.obj
 0001:0000a040       ?growAndPushBack@?$Array@IV?$ReflectionAllocator@I@shdfnd@physx@@@shdfnd@physx@@IEAAAEAIAEBI@Z 000000018000b040 f i RTreeCooking.obj
 0001:0000a110       ?growAndPushBack@?$Array@UInterval@physx@@V?$InlineAllocator@$0CAAA@V?$ReflectionAllocator@UInterval@physx@@@shdfnd@physx@@@shdfnd@2@@shdfnd@physx@@IEAAAEAUInterval@3@AEBU43@@Z 000000018000b110 f i RTreeCooking.obj
 0001:0000a1f0       ?growAndPushBack@?$Array@UPxBounds3V@physx@@V?$ReflectionAllocator@UPxBounds3V@physx@@@shdfnd@2@@shdfnd@physx@@IEAAAEAUPxBounds3V@3@AEBU43@@Z 000000018000b1f0 f i RTreeCooking.obj
 0001:0000a2c0       ?growAndPushBack@?$Array@URTreeNodeNQ@physx@@V?$ReflectionAllocator@URTreeNodeNQ@physx@@@shdfnd@2@@shdfnd@physx@@IEAAAEAURTreeNodeNQ@3@AEBU43@@Z 000000018000b2c0 f i RTreeCooking.obj
 0001:0000a390       ?growAndPushBack@?$Array@URTreeNodeQ@Gu@physx@@V?$ReflectionAllocator@URTreeNodeQ@Gu@physx@@@shdfnd@3@@shdfnd@physx@@IEAAAEAURTreeNodeQ@Gu@3@AEBU453@@Z 000000018000b390 f i RTreeCooking.obj
 0001:0000a470       ?recreate@?$Array@IV?$ReflectionAllocator@I@shdfnd@physx@@@shdfnd@physx@@IEAAXI@Z 000000018000b470 f i RTreeCooking.obj
 0001:0000a530       ?recreate@?$Array@UPxBounds3V@physx@@V?$ReflectionAllocator@UPxBounds3V@physx@@@shdfnd@2@@shdfnd@physx@@IEAAXI@Z 000000018000b530 f i RTreeCooking.obj
 0001:0000a5e0       ?recreate@?$Array@URTreeNodeNQ@physx@@V?$ReflectionAllocator@URTreeNodeNQ@physx@@@shdfnd@2@@shdfnd@physx@@IEAAXI@Z 000000018000b5e0 f i RTreeCooking.obj
 0001:0000a670       ?recreate@?$Array@URTreeNodeQ@Gu@physx@@V?$ReflectionAllocator@URTreeNodeQ@Gu@physx@@@shdfnd@3@@shdfnd@physx@@IEAAXI@Z 000000018000b670 f i RTreeCooking.obj
 0001:0000a730       ?recreate@?$Array@VPxVec3@physx@@V?$ReflectionAllocator@VPxVec3@physx@@@shdfnd@2@@shdfnd@physx@@IEAAXI@Z 000000018000b730 f i RTreeCooking.obj
 0001:0000a7c0       ?resize@?$Array@IV?$ReflectionAllocator@I@shdfnd@physx@@@shdfnd@physx@@QEAAXIAEBI@Z 000000018000b7c0 f i RTreeCooking.obj
 0001:0000a880       ?resizeUninitialized@?$Array@URTreeNodeNQ@physx@@V?$ReflectionAllocator@URTreeNodeNQ@physx@@@shdfnd@2@@shdfnd@physx@@QEAAXI@Z 000000018000b880 f i RTreeCooking.obj
 0001:0000a8c0       ?sort4@SubSortQuick@physx@@QEAAXPEIAIIAEAV?$Array@URTreeNodeNQ@physx@@V?$ReflectionAllocator@URTreeNodeNQ@physx@@@shdfnd@2@@shdfnd@2@AEAIAEAUPxBounds3V@2@I@Z 000000018000b8c0 f i RTreeCooking.obj
 0001:0000ac50       ?sort4@SubSortSAH@physx@@QEAAXPEAIIAEAV?$Array@URTreeNodeNQ@physx@@V?$ReflectionAllocator@URTreeNodeNQ@physx@@@shdfnd@2@@shdfnd@2@AEAIIPEAURTreeNodeNQ@2@@Z 000000018000bc50 f i RTreeCooking.obj
 0001:0000b4a0       ?split@SubSortSAH@physx@@QEAAIPEAII@Z 000000018000c4a0 f i RTreeCooking.obj
 0001:0000bea0       ?computeLocalBounds@MeshBulider@physx@@IEAAXAEAVMeshDataBase@Gu@2@@Z 000000018000cea0 f   MeshBuilder.obj
 0001:0000bf30       ??$?_UG@@YAPEAX_KV?$ReflectionAllocator@G@shdfnd@physx@@PEBDH@Z 000000018000cf30 f i TriangleMeshBuilder.obj
 0001:0000bfd0       ??$sort@UEdgeTriLookup@physx@@U?$Less@UEdgeTriLookup@physx@@@shdfnd@2@V?$ReflectionAllocator@UEdgeTriLookup@physx@@@42@@shdfnd@physx@@YAXPEAUEdgeTriLookup@1@IAEBU?$Less@UEdgeTriLookup@physx@@@01@AEBV?$ReflectionAllocator@UEdgeTriLookup@physx@@@01@I@Z 000000018000cfd0 f i TriangleMeshBuilder.obj
 0001:0000c550       ??0BV4TriangleMeshBuilder@physx@@QEAA@AEBUPxCookingParams@1@@Z 000000018000d550 f   TriangleMeshBuilder.obj
 0001:0000c620       ??0RTreeTriangleMeshBuilder@physx@@QEAA@AEBUPxCookingParams@1@@Z 000000018000d620 f   TriangleMeshBuilder.obj
 0001:0000c6e0       ??1BV4TriangleMeshBuilder@physx@@UEAA@XZ 000000018000d6e0 f   TriangleMeshBuilder.obj
 0001:0000c740       ??1MeshDataBase@Gu@physx@@UEAA@XZ 000000018000d740 f i TriangleMeshBuilder.obj
 0001:0000c820       ??1RTreeTriangleData@Gu@physx@@UEAA@XZ 000000018000d820 f i TriangleMeshBuilder.obj
 0001:0000c890       ??1RTreeTriangleMeshBuilder@physx@@UEAA@XZ 000000018000d890 f   TriangleMeshBuilder.obj
 0001:0000c8c0       ??1TriangleMeshBuilder@physx@@UEAA@XZ 000000018000d8c0 f   TriangleMeshBuilder.obj
 0001:0000c920       ??1TriangleMeshData@Gu@physx@@UEAA@XZ 000000018000d920 f i TriangleMeshBuilder.obj
 0001:0000c9f0       ??_GBV4TriangleData@Gu@physx@@UEAAPEAXI@Z 000000018000d9f0 f i TriangleMeshBuilder.obj
 0001:0000c9f0       ??_EBV4TriangleData@Gu@physx@@UEAAPEAXI@Z 000000018000d9f0 f i TriangleMeshBuilder.obj
 0001:0000ca70       ??_GBV4TriangleMeshBuilder@physx@@UEAAPEAXI@Z 000000018000da70 f i TriangleMeshBuilder.obj
 0001:0000ca70       ??_EBV4TriangleMeshBuilder@physx@@UEAAPEAXI@Z 000000018000da70 f i TriangleMeshBuilder.obj
 0001:0000caf0       ??_EMeshDataBase@Gu@physx@@UEAAPEAXI@Z 000000018000daf0 f i TriangleMeshBuilder.obj
 0001:0000caf0       ??_GMeshDataBase@Gu@physx@@UEAAPEAXI@Z 000000018000daf0 f i TriangleMeshBuilder.obj
 0001:0000cb50       ??_ERTreeCookerRemap@physx@@UEAAPEAXI@Z 000000018000db50 f i TriangleMeshBuilder.obj
 0001:0000cb50       ??_GRTreeCookerRemap@physx@@UEAAPEAXI@Z 000000018000db50 f i TriangleMeshBuilder.obj
 0001:0000cb80       ??_GRTreeTriangleData@Gu@physx@@UEAAPEAXI@Z 000000018000db80 f i TriangleMeshBuilder.obj
 0001:0000cb80       ??_ERTreeTriangleData@Gu@physx@@UEAAPEAXI@Z 000000018000db80 f i TriangleMeshBuilder.obj
 0001:0000cbe0       ??_ERTreeTriangleMeshBuilder@physx@@UEAAPEAXI@Z 000000018000dbe0 f i TriangleMeshBuilder.obj
 0001:0000cbe0       ??_GRTreeTriangleMeshBuilder@physx@@UEAAPEAXI@Z 000000018000dbe0 f i TriangleMeshBuilder.obj
 0001:0000cc30       ??_ERemapCallback@RTreeCooker@physx@@UEAAPEAXI@Z 000000018000dc30 f i TriangleMeshBuilder.obj
 0001:0000cc30       ??_GRemapCallback@RTreeCooker@physx@@UEAAPEAXI@Z 000000018000dc30 f i TriangleMeshBuilder.obj
 0001:0000cc60       ??_GTriangleMeshBuilder@physx@@UEAAPEAXI@Z 000000018000dc60 f i TriangleMeshBuilder.obj
 0001:0000cc60       ??_ETriangleMeshBuilder@physx@@UEAAPEAXI@Z 000000018000dc60 f i TriangleMeshBuilder.obj
 0001:0000cca0       ??_GTriangleMeshData@Gu@physx@@UEAAPEAXI@Z 000000018000dca0 f i TriangleMeshBuilder.obj
 0001:0000cca0       ??_ETriangleMeshData@Gu@physx@@UEAAPEAXI@Z 000000018000dca0 f i TriangleMeshBuilder.obj
 0001:0000cd00       ?allocateTriangles@TriangleMeshData@Gu@physx@@QEAAPEAXI_NI@Z 000000018000dd00 f i TriangleMeshBuilder.obj
 0001:0000cde0       ?allocateVertices@MeshDataBase@Gu@physx@@QEAAPEAVPxVec3@3@I@Z 000000018000dde0 f i TriangleMeshBuilder.obj
 0001:0000d320       ?checkMeshIndicesSize@TriangleMeshBuilder@physx@@QEAAXXZ 000000018000e320 f   TriangleMeshBuilder.obj
 0001:0000d430       ?cleanMesh@TriangleMeshBuilder@physx@@QEAA_N_NPEAW4Enum@PxTriangleMeshCookingResult@2@@Z 000000018000e430 f   TriangleMeshBuilder.obj
 0001:0000d920       ?createGRBMidPhaseAndData@TriangleMeshBuilder@physx@@QEAAXI@Z 000000018000e920 f   TriangleMeshBuilder.obj
 0001:0000dba0       ?createMidPhaseStructure@BV32TriangleMeshBuilder@physx@@SAXAEBUPxCookingParams@2@AEAVTriangleMeshData@Gu@2@AEAVBV32Tree@52@@Z 000000018000eba0 f   TriangleMeshBuilder.obj
 0001:0000dd70       ?createMidPhaseStructure@BV4TriangleMeshBuilder@physx@@UEAAXXZ 000000018000ed70 f   TriangleMeshBuilder.obj
 0001:0000e030       ?createMidPhaseStructure@RTreeTriangleMeshBuilder@physx@@UEAAXXZ 000000018000f030 f   TriangleMeshBuilder.obj
 0001:0000e110       ?createSharedEdgeData@TriangleMeshBuilder@physx@@QEAAX_N0@Z 000000018000f110 f   TriangleMeshBuilder.obj
 0001:0000e7c0       DllMain                    000000018000f7c0 f i LIBCMT:dll_dllmain_stub.obj
 0001:0000e7c0       ?getMidphaseID@BV4TriangleMeshBuilder@physx@@UEBA?AW4Enum@PxMeshMidPhase@2@XZ 000000018000f7c0 f i TriangleMeshBuilder.obj
 0001:0000e7c0       ?length@charNode@@UEBAHXZ  000000018000f7c0 f i libvcruntime:undname.obj
 0001:0000e7c0       ?raw_length@charNode@@UEBAHXZ 000000018000f7c0 f i libvcruntime:undname.obj
 0001:0000e7c0       _get_startup_argv_mode     000000018000f7c0 f i LIBCMT:argv_mode.obj
 0001:0000e7d0       ?getMidphaseID@RTreeTriangleMeshBuilder@physx@@UEBA?AW4Enum@PxMeshMidPhase@2@XZ 000000018000f7d0 f i TriangleMeshBuilder.obj
 0001:0000e7e0       ?importMesh@TriangleMeshBuilder@physx@@IEAA_NAEBVPxTriangleMeshDesc@2@AEBUPxCookingParams@2@PEAW4Enum@PxTriangleMeshCookingResult@2@_N@Z 000000018000f7e0 f   TriangleMeshBuilder.obj
 0001:0000eb60       ?loadFromDesc@TriangleMeshBuilder@physx@@QEAA_NAEBVPxTriangleMeshDesc@2@PEAW4Enum@PxTriangleMeshCookingResult@2@_N@Z 000000018000fb60 f   TriangleMeshBuilder.obj
 0001:0000efe0       ?onMeshIndexFormatChange@BV4TriangleMeshBuilder@physx@@UEAAXXZ 000000018000ffe0 f   TriangleMeshBuilder.obj
 0001:0000f020       ?remap@RTreeCookerRemap@physx@@UEAAXPEAIII@Z 0000000180010020 f i TriangleMeshBuilder.obj
 0001:0000f040       ?remapTopology@TriangleMeshBuilder@physx@@QEAAXPEBI@Z 0000000180010040 f   TriangleMeshBuilder.obj
 0001:0000f340       ?save@TriangleMeshBuilder@physx@@QEBA_NAEAVPxOutputStream@2@_NAEBUPxCookingParams@2@@Z 0000000180010340 f   TriangleMeshBuilder.obj
 0001:0000f910       ?saveMidPhaseStructure@BV4TriangleMeshBuilder@physx@@UEBAXAEAVPxOutputStream@2@_N@Z 0000000180010910 f   TriangleMeshBuilder.obj
 0001:0000fab0       ?saveMidPhaseStructure@RTreeTriangleMeshBuilder@physx@@UEBAXAEAVPxOutputStream@2@_N@Z 0000000180010ab0 f   TriangleMeshBuilder.obj
 0001:0000fcf0       ??0BigConvexDataBuilder@physx@@QEAA@PEBUConvexHullData@Gu@1@PEAVBigConvexData@1@PEBVPxVec3@1@@Z 0000000180010cf0 f   BigConvexDataBuilder.obj
 0001:0000fd00       ??4BigConvexData@physx@@QEAAAEAV01@AEBV01@@Z 0000000180010d00 f i BigConvexDataBuilder.obj
 0001:0000fd20       ?GetAdjacentVerts@BigConvexData@physx@@QEBAPEBEXZ 0000000180010d20 f i BigConvexDataBuilder.obj
 0001:0000fd30       ?GetNbNeighbors@BigConvexData@physx@@QEBAGI@Z 0000000180010d30 f i BigConvexDataBuilder.obj
 0001:0000fd30       ?GetValency@BigConvexData@physx@@QEBAGI@Z 0000000180010d30 f i BigConvexDataBuilder.obj
 0001:0000fd40       ?GetNbSamples@BigConvexData@physx@@QEBAIXZ 0000000180010d40 f i BigConvexDataBuilder.obj
 0001:0000fd50       ?raw_length@pcharNode@@UEBAHXZ 0000000180010d50 f i libvcruntime:undname.obj
 0001:0000fd50       ?length@pcharNode@@UEBAHXZ 0000000180010d50 f i libvcruntime:undname.obj
 0001:0000fd50       ?GetNbVerts@BigConvexData@physx@@QEBAIXZ 0000000180010d50 f i BigConvexDataBuilder.obj
 0001:0000fd60       ?GetNeighbors@BigConvexData@physx@@QEBAPEBEI@Z 0000000180010d60 f i BigConvexDataBuilder.obj
 0001:0000fd70       ?GetOffset@BigConvexData@physx@@QEBAGI@Z 0000000180010d70 f i BigConvexDataBuilder.obj
 0001:0000fd80       ?GetSubdiv@BigConvexData@physx@@QEBAIXZ 0000000180010d80 f i BigConvexDataBuilder.obj
 0001:0000fd90       ?computeValencies@BigConvexDataBuilder@physx@@QEAA_NAEBVConvexHullBuilder@2@@Z 0000000180010d90 f   BigConvexDataBuilder.obj
 0001:00010180       ?precompute@BigConvexDataBuilder@physx@@QEAA_NI@Z 0000000180011180 f   BigConvexDataBuilder.obj
 0001:00010dc0       ?save@BigConvexDataBuilder@physx@@QEBA_NAEAVPxOutputStream@2@_N@Z 0000000180011dc0 f   BigConvexDataBuilder.obj
 0001:00011000       ??$?_UE@@YAPEAX_KV?$ReflectionAllocator@E@shdfnd@physx@@PEBDH@Z 0000000180012000 f i ConvexHullBuilder.obj
 0001:000110a0       ??0ConvexHullBuilder@physx@@QEAA@PEAUConvexHullData@Gu@1@_N@Z 00000001800120a0 f   ConvexHullBuilder.obj
 0001:000110d0       ??1ConvexHullBuilder@physx@@QEAA@XZ 00000001800120d0 f   ConvexHullBuilder.obj
 0001:000111d0       ?calculateVertexMapTable@ConvexHullBuilder@physx@@QEAA_NI_N@Z 00000001800121d0 f   ConvexHullBuilder.obj
 0001:000113e0       ?checkHullPolygons@ConvexHullBuilder@physx@@QEBA_NXZ 00000001800123e0 f   ConvexHullBuilder.obj
 0001:000119c0       ?computeGeomCenter@ConvexHullBuilder@physx@@IEBA_NAEAVPxVec3@2@IPEAUHullTriangleData@2@@Z 00000001800129c0 f   ConvexHullBuilder.obj
 0001:00011c80       ?copy@ConvexHullBuilder@physx@@QEAA_NAEAUConvexHullData@Gu@2@AEAI@Z 0000000180012c80 f   ConvexHullBuilder.obj
 0001:00011f00       ?createEdgeList@ConvexHullBuilder@physx@@QEAA_N_NI@Z 0000000180012f00 f   ConvexHullBuilder.obj
 0001:00012770       ?init@ConvexHullBuilder@physx@@QEAA_NIPEBVPxVec3@2@PEBIIIPEBUPxHullPolygon@2@_NPEAVConvexHullLib@2@@Z 0000000180013770 f   ConvexHullBuilder.obj
 0001:000130d0       ?save@ConvexHullBuilder@physx@@QEBA_NAEAVPxOutputStream@2@_N@Z 00000001800140d0 f   ConvexHullBuilder.obj
 0001:000133f0       ??1ConvexHullLib@physx@@UEAA@XZ 00000001800143f0 f   ConvexHullLib.obj
 0001:00013450       ??_GConvexHullLib@physx@@UEAAPEAXI@Z 0000000180014450 f i ConvexHullLib.obj
 0001:00013450       ??_EConvexHullLib@physx@@UEAAPEAXI@Z 0000000180014450 f i ConvexHullLib.obj
 0001:000139c0       ?cleanupVertices@ConvexHullLib@physx@@IEAA_NIPEBVPxVec3@2@IAEAIPEAV32@AEAV32@3@Z 00000001800149c0 f   ConvexHullLib.obj
 0001:00013e40       ?shiftAndcleanupVertices@ConvexHullLib@physx@@IEAA_NIPEBVPxVec3@2@IAEAIPEAV32@AEAV32@3@Z 0000000180014e40 f   ConvexHullLib.obj
 0001:00014320       ?shiftConvexMeshDesc@ConvexHullLib@physx@@IEAAXAEAVPxConvexMeshDesc@2@@Z 0000000180015320 f   ConvexHullLib.obj
 0001:000143e0       ?swapLargestFace@ConvexHullLib@physx@@IEAAXAEAVPxConvexMeshDesc@2@@Z 00000001800153e0 f   ConvexHullLib.obj
 0001:000145d0       ??0Box@Gu@physx@@QEAA@AEBV012@@Z 00000001800155d0 f i ConvexHullUtils.obj
 0001:000145d0       ??4Box@Gu@physx@@QEAAAEBV012@AEBV012@@Z 00000001800155d0 f i ConvexHullUtils.obj
 0001:00014630       ??0Box@Gu@physx@@QEAA@AEBVPxVec3@2@0AEBVPxMat33@2@@Z 0000000180015630 f i ConvexHullUtils.obj
 0001:000146a0       ??0ConvexHull@physx@@QEAA@AEBVPxVec3@1@AEBVPxTransform@1@AEBV?$Array@VPxPlane@physx@@V?$ReflectionAllocator@VPxPlane@physx@@@shdfnd@2@@shdfnd@1@@Z 00000001800156a0 f   ConvexHullUtils.obj
 0001:00015800       ??0PxQuat@physx@@QEAA@AEBVPxMat33@1@@Z 0000000180016800 f i ConvexHullUtils.obj
 0001:000159e0       ?allocate@?$Array@VHalfEdge@ConvexHull@physx@@V?$ReflectionAllocator@VHalfEdge@ConvexHull@physx@@@shdfnd@3@@shdfnd@physx@@IEAAPEAVHalfEdge@ConvexHull@3@I@Z 00000001800169e0 f i ConvexHullUtils.obj
 0001:00015a80       ?allocate@?$Array@VPxPlane@physx@@V?$ReflectionAllocator@VPxPlane@physx@@@shdfnd@2@@shdfnd@physx@@IEAAPEAVPxPlane@3@I@Z 0000000180016a80 f i ConvexHullUtils.obj
 0001:00015b20       ?assertIntact@ConvexHull@physx@@QEBA_NM@Z 0000000180016b20 f   ConvexHullUtils.obj
 0001:00015e30       ?computeAABBExtent@Box@Gu@physx@@QEBA?AVPxVec3@3@XZ 0000000180016e30 f i ConvexHullUtils.obj
 0001:00015ef0       ?computeBoxPoints@Box@Gu@physx@@QEBAXPEIAVPxVec3@3@@Z 0000000180016ef0 f i ConvexHullUtils.obj
 0001:00015f30       ?computeOBBFromConvex@physx@@YA_NAEBVPxConvexMeshDesc@1@AEAVPxVec3@1@AEAVPxTransform@1@@Z 0000000180016f30 f   ConvexHullUtils.obj
 0001:00016640       ?computeOBBSIMD@local@@YAXIPEBT__m128@@AEAT2@AEBT2@1@Z 0000000180017640 f   ConvexHullUtils.obj
 0001:00016a50       ?convexHullCrop@physx@@YAPEAVConvexHull@1@AEBV21@AEBVPxPlane@1@M@Z 0000000180017a50 f   ConvexHullUtils.obj
 0001:00017830       ?copy@?$Array@VPxPlane@physx@@V?$ReflectionAllocator@VPxPlane@physx@@@shdfnd@2@@shdfnd@physx@@KAXPEAVPxPlane@3@0PEBV43@@Z 0000000180018830 f i ConvexHullUtils.obj
 0001:00017930       ?findCandidatePlane@ConvexHull@physx@@QEBAHMM@Z 0000000180018930 f   ConvexHullUtils.obj
 0001:00017da0       ?getInverse@PxMat33@physx@@QEBA?BV12@XZ 0000000180018da0 f i ConvexHullUtils.obj
 0001:00017ff0       ?getTransform@Box@Gu@physx@@QEBA?AVPxTransform@3@XZ 0000000180018ff0 f i ConvexHullUtils.obj
 0001:00018050       ?growAndPushBack@?$Array@VHalfEdge@ConvexHull@physx@@V?$ReflectionAllocator@VHalfEdge@ConvexHull@physx@@@shdfnd@3@@shdfnd@physx@@IEAAAEAVHalfEdge@ConvexHull@3@AEBV453@@Z 0000000180019050 f i ConvexHullUtils.obj
 0001:00018110       ?growAndPushBack@?$Array@VPxPlane@physx@@V?$ReflectionAllocator@VPxPlane@physx@@@shdfnd@2@@shdfnd@physx@@IEAAAEAVPxPlane@3@AEBV43@@Z 0000000180019110 f i ConvexHullUtils.obj
 0001:000181d0       ?isValid@Box@Gu@physx@@QEBA_NXZ 00000001800191d0 f i ConvexHullUtils.obj
 0001:000181f0       ?maxNumVertsPerFace@ConvexHull@physx@@QEBAIXZ 00000001800191f0 f   ConvexHullUtils.obj
 0001:00018260       ?recreate@?$Array@VHalfEdge@ConvexHull@physx@@V?$ReflectionAllocator@VHalfEdge@ConvexHull@physx@@@shdfnd@3@@shdfnd@physx@@IEAAXI@Z 0000000180019260 f i ConvexHullUtils.obj
 0001:00018300       ?recreate@?$Array@VPxPlane@physx@@V?$ReflectionAllocator@VPxPlane@physx@@@shdfnd@2@@shdfnd@physx@@IEAAXI@Z 0000000180019300 f i ConvexHullUtils.obj
 0001:00018390       ?resize@?$Array@VHalfEdge@ConvexHull@physx@@V?$ReflectionAllocator@VHalfEdge@ConvexHull@physx@@@shdfnd@3@@shdfnd@physx@@QEAAXIAEBVHalfEdge@ConvexHull@3@@Z 0000000180019390 f i ConvexHullUtils.obj
 0001:00018450       ?resize@?$Array@VPxPlane@physx@@V?$ReflectionAllocator@VPxPlane@physx@@@shdfnd@2@@shdfnd@physx@@QEAAXIAEBVPxPlane@3@@Z 0000000180019450 f i ConvexHullUtils.obj
 0001:00018570       ?resize@?$Array@VPxVec3@physx@@V?$ReflectionAllocator@VPxVec3@physx@@@shdfnd@2@@shdfnd@physx@@QEAAXIAEBVPxVec3@3@@Z 0000000180019570 f i ConvexHullUtils.obj
 0001:00018660       ?rotate@Box@Gu@physx@@QEBA?AVPxVec3@3@AEBV43@@Z 0000000180019660 f i ConvexHullUtils.obj
 0001:000186f0       ?rotateInv@Box@Gu@physx@@QEBA?AVPxVec3@3@AEBV43@@Z 00000001800196f0 f i ConvexHullUtils.obj
 0001:00018780       ?setAxes@Box@Gu@physx@@QEAAXAEBVPxVec3@3@00@Z 0000000180019780 f i ConvexHullUtils.obj
 0001:000187c0       ?setEmpty@Box@Gu@physx@@QEAAXXZ 00000001800197c0 f i ConvexHullUtils.obj
 0001:00018800       ?transform@Box@Gu@physx@@QEBA?AVPxVec3@3@AEBV43@@Z 0000000180019800 f i ConvexHullUtils.obj
 0001:000188a0       ??0ConvexMeshBuilder@physx@@QEAA@_N@Z 00000001800198a0 f   ConvexMeshBuilder.obj
 0001:00018900       ??1ConvexMeshBuilder@physx@@QEAA@XZ 0000000180019900 f   ConvexMeshBuilder.obj
 0001:00018d50       ?build@ConvexMeshBuilder@physx@@QEAA_NAEBVPxConvexMeshDesc@2@I_NPEAVConvexHullLib@2@@Z 0000000180019d50 f   ConvexMeshBuilder.obj
 0001:00019060       ?computeHullPolygons@ConvexMeshBuilder@physx@@QEAA_NAEBIPEBVPxVec3@2@0PEBIAEAVPxAllocatorCallback@2@AEAIAEAPEAV32@4AEAPEAI4AEAPEAUPxHullPolygon@2@@Z 000000018001a060 f   ConvexMeshBuilder.obj
 0001:00019280       ?computeMassInfo@ConvexMeshBuilder@physx@@QEAAX_N@Z 000000018001a280 f   ConvexMeshBuilder.obj
 0001:00019650       ?copy@ConvexMeshBuilder@physx@@QEAA_NAEAUConvexHullInitData@Gu@2@@Z 000000018001a650 f   ConvexMeshBuilder.obj
 0001:00019770       ?isFinite@PxVec3@physx@@QEBA_NXZ 000000018001a770 f i ConvexMeshBuilder.obj
 0001:000197d0       ?loadConvexHull@ConvexMeshBuilder@physx@@QEAA_NAEBVPxConvexMeshDesc@2@PEAVConvexHullLib@2@@Z 000000018001a7d0 f   ConvexMeshBuilder.obj
 0001:00019a50       ?save@ConvexMeshBuilder@physx@@QEBA_NAEAVPxOutputStream@2@_N@Z 000000018001aa50 f   ConvexMeshBuilder.obj
 0001:00019c60       ??$copy@V?$ReflectionAllocator@VPair@@@shdfnd@physx@@@?$Array@VPair@@V?$ReflectionAllocator@VPair@@@shdfnd@physx@@@shdfnd@physx@@IEAAXAEBV012@@Z 000000018001ac60 f i ConvexPolygonsBuilder.obj
 0001:00019ce0       ??0ConvexPolygonsBuilder@physx@@QEAA@PEAUConvexHullData@Gu@1@_N@Z 000000018001ace0 f   ConvexPolygonsBuilder.obj
 0001:00019d00       ??1ConvexPolygonsBuilder@physx@@QEAA@XZ 000000018001ad00 f   ConvexPolygonsBuilder.obj
 0001:0001a550       ?allocate@?$Array@VPair@@V?$ReflectionAllocator@VPair@@@shdfnd@physx@@@shdfnd@physx@@IEAAPEAVPair@@I@Z 000000018001b550 f i ConvexPolygonsBuilder.obj
 0001:0001ad70       ?computeHullPolygons@ConvexPolygonsBuilder@physx@@QEAA_NAEBIPEBVPxVec3@2@0PEBI@Z 000000018001bd70 f   ConvexPolygonsBuilder.obj
 0001:0001be10       ?createPolygonData@ConvexPolygonsBuilder@physx@@AEAA_NXZ 000000018001ce10 f   ConvexPolygonsBuilder.obj
 0001:0001c9f0       ?createTrianglesFromPolygons@ConvexPolygonsBuilder@physx@@AEAA_NXZ 000000018001d9f0 f   ConvexPolygonsBuilder.obj
 0001:0001e070       ?growAndPushBack@?$Array@VPair@@V?$ReflectionAllocator@VPair@@@shdfnd@physx@@@shdfnd@physx@@IEAAAEAVPair@@AEBV4@@Z 000000018001f070 f i ConvexPolygonsBuilder.obj
 0001:0001e130       ??0QuickHull@local@@QEAA@AEBUPxCookingParams@physx@@AEBVPxConvexMeshDesc@3@@Z 000000018001f130 f   QuickHullConvexHullLib.obj
 0001:0001e1e0       ??0QuickHullConvexHullLib@physx@@QEAA@AEBVPxConvexMeshDesc@1@AEBUPxCookingParams@1@@Z 000000018001f1e0 f   QuickHullConvexHullLib.obj
 0001:0001e2d0       ??1?$MemBlock@UQuickHullFace@local@@$00@local@@QEAA@XZ 000000018001f2d0 f i QuickHullConvexHullLib.obj
 0001:0001e2d0       ??1?$MemBlock@UQuickHullHalfEdge@local@@$0A@@local@@QEAA@XZ 000000018001f2d0 f i QuickHullConvexHullLib.obj
 0001:0001e360       ??1QuickHull@local@@QEAA@XZ 000000018001f360 f   QuickHullConvexHullLib.obj
 0001:0001e4a0       ??_GConvexHull@physx@@QEAAPEAXI@Z 000000018001f4a0 f i QuickHullConvexHullLib.obj
 0001:0001e580       ??_GQuickHullConvexHullLib@physx@@UEAAPEAXI@Z 000000018001f580 f i QuickHullConvexHullLib.obj
 0001:0001e580       ??_EQuickHullConvexHullLib@physx@@UEAAPEAXI@Z 000000018001f580 f i QuickHullConvexHullLib.obj
 0001:0001e680       ?addPointToHull@QuickHull@local@@IEAA_NPEBUQuickHullVertex@2@AEAUQuickHullFace@2@AEA_N@Z 000000018001f680 f   QuickHullConvexHullLib.obj
 0001:0001e950       ?addSimplex@QuickHull@local@@IEAAXPEAUQuickHullVertex@2@_N@Z 000000018001f950 f   QuickHullConvexHullLib.obj
 0001:0001ee20       ?allocate@?$Array@PEAUQuickHullFace@local@@V?$ReflectionAllocator@PEAUQuickHullFace@local@@@shdfnd@physx@@@shdfnd@physx@@IEAAPEAPEAUQuickHullFace@local@@I@Z 000000018001fe20 f i QuickHullConvexHullLib.obj
 0001:0001eec0       ?allocate@?$Array@PEAUQuickHullHalfEdge@local@@V?$ReflectionAllocator@PEAUQuickHullHalfEdge@local@@@shdfnd@physx@@@shdfnd@physx@@IEAAPEAPEAUQuickHullHalfEdge@local@@I@Z 000000018001fec0 f i QuickHullConvexHullLib.obj
 0001:0001ef60       ?allocate@?$Array@PEAUQuickHullVertex@local@@V?$ReflectionAllocator@PEAUQuickHullVertex@local@@@shdfnd@physx@@@shdfnd@physx@@IEAAPEAPEAUQuickHullVertex@local@@I@Z 000000018001ff60 f i QuickHullConvexHullLib.obj
 0001:0001f000       ?allocate@?$Array@UExpandPoint@local@@V?$ReflectionAllocator@UExpandPoint@local@@@shdfnd@physx@@@shdfnd@physx@@IEAAPEAUExpandPoint@local@@I@Z 0000000180020000 f i QuickHullConvexHullLib.obj
 0001:0001f0a0       ?buildHull@QuickHull@local@@QEAA?AW4Enum@QuickHullResult@2@XZ 00000001800200a0 f   QuickHullConvexHullLib.obj
 0001:0001f2b0       ?calculateHorizon@QuickHull@local@@IEAAXAEBVPxVec3@physx@@PEAUQuickHullHalfEdge@2@AEAUQuickHullFace@2@AEAV?$Array@PEAUQuickHullHalfEdge@local@@V?$ReflectionAllocator@PEAUQuickHullHalfEdge@local@@@shdfnd@physx@@@shdfnd@4@AEAV?$Array@PEAUQuickHullFace@local@@V?$ReflectionAllocator@PEAUQuickHullFace@local@@@shdfnd@physx@@@84@@Z 00000001800202b0 f   QuickHullConvexHullLib.obj
 0001:0001f460       ?canMergeFaces@QuickHull@local@@IEAA_NAEBUQuickHullHalfEdge@2@@Z 0000000180020460 f   QuickHullConvexHullLib.obj
 0001:0001fc90       ?cleanupForSimplex@QuickHullConvexHullLib@physx@@IEAA_NPEAVPxVec3@2@IPEAUQuickHullVertex@local@@1AEAM2@Z 0000000180020c90 f   QuickHullConvexHullLib.obj
 0001:00020860       ?computeMinMaxVerts@QuickHull@local@@IEAAXXZ 0000000180021860 f   QuickHullConvexHullLib.obj
 0001:00020c30       ?connectHalfEdges@QuickHullFace@local@@AEAAPEAU12@PEAUQuickHullHalfEdge@2@0@Z 0000000180021c30 f   QuickHullConvexHullLib.obj
 0001:00020f90       ?copy@?$Array@UExpandPoint@local@@V?$ReflectionAllocator@UExpandPoint@local@@@shdfnd@physx@@@shdfnd@physx@@KAXPEAUExpandPoint@local@@0PEBU45@@Z 0000000180021f90 f i QuickHullConvexHullLib.obj
 0001:00021040       ?createConvexHull@QuickHullConvexHullLib@physx@@UEAA?AW4Enum@PxConvexMeshCookingResult@2@XZ 0000000180022040 f   QuickHullConvexHullLib.obj
 0001:00021440       ?createEdgeList@QuickHullConvexHullLib@physx@@UEAA_NIPEBEPEAPEAEPEAPEAG2@Z 0000000180022440 f   QuickHullConvexHullLib.obj
 0001:00021670       ?createTriangle@QuickHull@local@@IEAAPEAUQuickHullFace@2@AEBUQuickHullVertex@2@00@Z 0000000180022670 f   QuickHullConvexHullLib.obj
 0001:00021a00       ?doAdjacentMerge@QuickHull@local@@IEAA_NAEAUQuickHullFace@2@_NAEA_N@Z 0000000180022a00 f   QuickHullConvexHullLib.obj
 0001:00021d40       ?expandHull@QuickHullConvexHullLib@physx@@IEAA?AW4Enum@PxConvexMeshCookingResult@2@XZ 0000000180022d40 f   QuickHullConvexHullLib.obj
 0001:00022a20       ?expandHullOBB@QuickHullConvexHullLib@physx@@IEAA?AW4Enum@PxConvexMeshCookingResult@2@XZ 0000000180023a20 f   QuickHullConvexHullLib.obj
 0001:00022e40       ?fillConvexMeshDesc@QuickHullConvexHullLib@physx@@UEAAXAEAVPxConvexMeshDesc@2@@Z 0000000180023e40 f   QuickHullConvexHullLib.obj
 0001:00022e90       ?fillConvexMeshDescFromCroppedHull@QuickHullConvexHullLib@physx@@IEAAXAEAVPxConvexMeshDesc@2@@Z 0000000180023e90 f   QuickHullConvexHullLib.obj
 0001:00023090       ?fillConvexMeshDescFromQuickHull@QuickHullConvexHullLib@physx@@IEAAXAEAVPxConvexMeshDesc@2@@Z 0000000180024090 f   QuickHullConvexHullLib.obj
 0001:00023420       ?findSimplex@QuickHull@local@@IEAA_NXZ 0000000180024420 f   QuickHullConvexHullLib.obj
 0001:000240d0       ?getFreeItem@?$MemBlock@UQuickHullFace@local@@$00@local@@QEAAPEAUQuickHullFace@2@XZ 00000001800250d0 f i QuickHullConvexHullLib.obj
 0001:00024200       ?getFreeItem@?$MemBlock@UQuickHullHalfEdge@local@@$0A@@local@@QEAAPEAUQuickHullHalfEdge@2@XZ 0000000180025200 f i QuickHullConvexHullLib.obj
 0001:000242d0       ?growAndPushBack@?$Array@PEAUQuickHullFace@local@@V?$ReflectionAllocator@PEAUQuickHullFace@local@@@shdfnd@physx@@@shdfnd@physx@@IEAAAEAPEAUQuickHullFace@local@@AEBQEAU45@@Z 00000001800252d0 f i QuickHullConvexHullLib.obj
 0001:00024390       ?growAndPushBack@?$Array@PEAUQuickHullHalfEdge@local@@V?$ReflectionAllocator@PEAUQuickHullHalfEdge@local@@@shdfnd@physx@@@shdfnd@physx@@IEAAAEAPEAUQuickHullHalfEdge@local@@AEBQEAU45@@Z 0000000180025390 f i QuickHullConvexHullLib.obj
 0001:00024450       ?growAndPushBack@?$Array@PEAUQuickHullVertex@local@@V?$ReflectionAllocator@PEAUQuickHullVertex@local@@@shdfnd@physx@@@shdfnd@physx@@IEAAAEAPEAUQuickHullVertex@local@@AEBQEAU45@@Z 0000000180025450 f i QuickHullConvexHullLib.obj
 0001:00024510       ?growAndPushBack@?$Array@UExpandPoint@local@@V?$ReflectionAllocator@UExpandPoint@local@@@shdfnd@physx@@@shdfnd@physx@@IEAAAEAUExpandPoint@local@@AEBU45@@Z 0000000180025510 f i QuickHullConvexHullLib.obj
 0001:00024610       ?init@?$MemBlock@UQuickHullFace@local@@$00@local@@QEAAXI@Z 0000000180025610 f i QuickHullConvexHullLib.obj
 0001:00024710       ?init@?$MemBlock@UQuickHullHalfEdge@local@@$0A@@local@@QEAAXI@Z 0000000180025710 f i QuickHullConvexHullLib.obj
 0001:000247b0       ?mergeAdjacentFace@QuickHullFace@local@@QEAA_NPEAUQuickHullHalfEdge@2@AEAV?$Array@PEAUQuickHullFace@local@@V?$ReflectionAllocator@PEAUQuickHullFace@local@@@shdfnd@physx@@@shdfnd@physx@@@Z 00000001800257b0 f   QuickHullConvexHullLib.obj
 0001:00024c00       ?nextPointToAdd@QuickHull@local@@IEAAPEAUQuickHullVertex@2@AEAPEAUQuickHullFace@2@@Z 0000000180025c00 f   QuickHullConvexHullLib.obj
 0001:00024d80       ?parseInputVertices@QuickHull@local@@QEAAXPEBVPxVec3@physx@@I@Z 0000000180025d80 f   QuickHullConvexHullLib.obj
 0001:00024f10       ?postMergeHull@QuickHull@local@@IEAAXXZ 0000000180025f10 f   QuickHullConvexHullLib.obj
 0001:00025160       ?preallocate@QuickHull@local@@QEAAXI@Z 0000000180026160 f   QuickHullConvexHullLib.obj
 0001:000252a0       ?recreate@?$Array@PEAUQuickHullFace@local@@V?$ReflectionAllocator@PEAUQuickHullFace@local@@@shdfnd@physx@@@shdfnd@physx@@IEAAXI@Z 00000001800262a0 f i QuickHullConvexHullLib.obj
 0001:00025340       ?recreate@?$Array@PEAUQuickHullHalfEdge@local@@V?$ReflectionAllocator@PEAUQuickHullHalfEdge@local@@@shdfnd@physx@@@shdfnd@physx@@IEAAXI@Z 0000000180026340 f i QuickHullConvexHullLib.obj
 0001:000253e0       ?recreate@?$Array@PEAUQuickHullVertex@local@@V?$ReflectionAllocator@PEAUQuickHullVertex@local@@@shdfnd@physx@@@shdfnd@physx@@IEAAXI@Z 00000001800263e0 f i QuickHullConvexHullLib.obj
 0001:00025480       ?recreate@?$Array@UExpandPoint@local@@V?$ReflectionAllocator@UExpandPoint@local@@@shdfnd@physx@@@shdfnd@physx@@IEAAXI@Z 0000000180026480 f i QuickHullConvexHullLib.obj
 0001:00025510       ?resolveUnclaimedPoints@QuickHull@local@@IEAAXAEBV?$Array@PEAUQuickHullFace@local@@V?$ReflectionAllocator@PEAUQuickHullFace@local@@@shdfnd@physx@@@shdfnd@physx@@@Z 0000000180026510 f   QuickHullConvexHullLib.obj
 0001:00026210       ?computeVolumeIntegralsEberly@physx@@YA_NAEBVPxConvexMeshDesc@1@MAEAUPxIntegrals@1@AEBVPxVec3@1@@Z 0000000180027210 f   VolumeIntegration.obj
 0001:00026250       ?computeVolumeIntegralsEberlySIMD@physx@@YA_NAEBVPxConvexMeshDesc@1@MAEAUPxIntegrals@1@AEBVPxVec3@1@@Z 0000000180027250 f   VolumeIntegration.obj
 0001:00026890       ?cookingDelayHook@@YAP6A_JXZIPEAUDelayLoadInfo@@@Z 0000000180027890 f   WindowsCookingDelayLoadHook.obj
 0001:00026970       PxSetPhysXCookingDelayLoadHook 0000000180027970 f   WindowsCookingDelayLoadHook.obj
 0001:00026978       __imp_load_??0RadixSortBuffered@Cm@physx@@QEAA@XZ 0000000180027978 f   PhysXCommon_64:PhysXCommon_64.dll
 0001:00026984       ??0RadixSortBuffered@Cm@physx@@QEAA@XZ 0000000180027984 f   PhysXCommon_64:PhysXCommon_64.dll
 0001:0002698a       __tailMerge_physxcommon_64_dll 000000018002798a     PhysXCommon_64:PhysXCommon_64.dll
 0001:00026a03       __imp_load_??1RadixSortBuffered@Cm@physx@@UEAA@XZ 0000000180027a03 f   PhysXCommon_64:PhysXCommon_64.dll
 0001:00026a0f       ??1RadixSortBuffered@Cm@physx@@UEAA@XZ 0000000180027a0f f   PhysXCommon_64:PhysXCommon_64.dll
 0001:00026a15       __imp_load_?Sort@RadixSortBuffered@Cm@physx@@QEAAAEAV123@PEBIIW4RadixHint@23@@Z 0000000180027a15 f   PhysXCommon_64:PhysXCommon_64.dll
 0001:00026a21       ?Sort@RadixSortBuffered@Cm@physx@@QEAAAEAV123@PEBIIW4RadixHint@23@@Z 0000000180027a21 f   PhysXCommon_64:PhysXCommon_64.dll
 0001:00026a27       __imp_load_??0HeightField@Gu@physx@@QEAA@PEAVGuMeshFactory@2@@Z 0000000180027a27 f   PhysXCommon_64:PhysXCommon_64.dll
 0001:00026a33       ??0HeightField@Gu@physx@@QEAA@PEAVGuMeshFactory@2@@Z 0000000180027a33 f   PhysXCommon_64:PhysXCommon_64.dll
 0001:00026a39       __imp_load_?loadFromDesc@HeightField@Gu@physx@@QEAA_NAEBVPxHeightFieldDesc@3@@Z 0000000180027a39 f   PhysXCommon_64:PhysXCommon_64.dll
 0001:00026a45       ?loadFromDesc@HeightField@Gu@physx@@QEAA_NAEBVPxHeightFieldDesc@3@@Z 0000000180027a45 f   PhysXCommon_64:PhysXCommon_64.dll
 0001:00026a4b       __imp_load_?computeCellCoordinates@HeightField@Gu@physx@@QEBAIMMAEAM0@Z 0000000180027a4b f   PhysXCommon_64:PhysXCommon_64.dll
 0001:00026a57       ?computeCellCoordinates@HeightField@Gu@physx@@QEBAIMMAEAM0@Z 0000000180027a57 f   PhysXCommon_64:PhysXCommon_64.dll
 0001:00026a5d       __imp_load_?releaseMemory@HeightField@Gu@physx@@QEAAXXZ 0000000180027a5d f   PhysXCommon_64:PhysXCommon_64.dll
 0001:00026a69       ?releaseMemory@HeightField@Gu@physx@@QEAAXXZ 0000000180027a69 f   PhysXCommon_64:PhysXCommon_64.dll
 0001:00026a6f       __imp_load_??1HeightField@Gu@physx@@UEAA@XZ 0000000180027a6f f   PhysXCommon_64:PhysXCommon_64.dll
 0001:00026a7b       ??1HeightField@Gu@physx@@UEAA@XZ 0000000180027a7b f   PhysXCommon_64:PhysXCommon_64.dll
 0001:00026a81       __imp_load_??0NodeAllocator@Gu@physx@@QEAA@XZ 0000000180027a81 f   PhysXCommon_64:PhysXCommon_64.dll
 0001:00026a8d       ??0NodeAllocator@Gu@physx@@QEAA@XZ 0000000180027a8d f   PhysXCommon_64:PhysXCommon_64.dll
 0001:00026a93       __imp_load_??1NodeAllocator@Gu@physx@@QEAA@XZ 0000000180027a93 f   PhysXCommon_64:PhysXCommon_64.dll
 0001:00026a9f       ??1NodeAllocator@Gu@physx@@QEAA@XZ 0000000180027a9f f   PhysXCommon_64:PhysXCommon_64.dll
 0001:00026aa5       __imp_load_?release@NodeAllocator@Gu@physx@@QEAAXXZ 0000000180027aa5 f   PhysXCommon_64:PhysXCommon_64.dll
 0001:00026ab1       ?release@NodeAllocator@Gu@physx@@QEAAXXZ 0000000180027ab1 f   PhysXCommon_64:PhysXCommon_64.dll
 0001:00026ab7       __imp_load_?buildAABBTree@Gu@physx@@YA_NAEAVAABBTreeBuildParams@12@AEAVNodeAllocator@12@AEAUBuildStats@12@AEAPEAI@Z 0000000180027ab7 f   PhysXCommon_64:PhysXCommon_64.dll
 0001:00026ac3       ?buildAABBTree@Gu@physx@@YA_NAEAVAABBTreeBuildParams@12@AEAVNodeAllocator@12@AEAUBuildStats@12@AEAPEAI@Z 0000000180027ac3 f   PhysXCommon_64:PhysXCommon_64.dll
 0001:00026ac9       __imp_load_?writeDword@physx@@YAXI_NAEAVPxOutputStream@1@@Z 0000000180027ac9 f   PhysXCommon_64:PhysXCommon_64.dll
 0001:00026ad5       ?writeDword@physx@@YAXI_NAEAVPxOutputStream@1@@Z 0000000180027ad5 f   PhysXCommon_64:PhysXCommon_64.dll
 0001:00026adb       __imp_load_?writeFloatBuffer@physx@@YAXPEBMI_NAEAVPxOutputStream@1@@Z 0000000180027adb f   PhysXCommon_64:PhysXCommon_64.dll
 0001:00026ae7       ?writeFloatBuffer@physx@@YAXPEBMI_NAEAVPxOutputStream@1@@Z 0000000180027ae7 f   PhysXCommon_64:PhysXCommon_64.dll
 0001:00026aed       __imp_load_?writeHeader@physx@@YA_NCCCCI_NAEAVPxOutputStream@1@@Z 0000000180027aed f   PhysXCommon_64:PhysXCommon_64.dll
 0001:00026af9       ?writeHeader@physx@@YA_NCCCCI_NAEAVPxOutputStream@1@@Z 0000000180027af9 f   PhysXCommon_64:PhysXCommon_64.dll
 0001:00026aff       __imp_load_?writeWord@physx@@YAXG_NAEAVPxOutputStream@1@@Z 0000000180027aff f   PhysXCommon_64:PhysXCommon_64.dll
 0001:00026b0b       ?writeWord@physx@@YAXG_NAEAVPxOutputStream@1@@Z 0000000180027b0b f   PhysXCommon_64:PhysXCommon_64.dll
 0001:00026b11       __imp_load_?writeFloat@physx@@YAXM_NAEAVPxOutputStream@1@@Z 0000000180027b11 f   PhysXCommon_64:PhysXCommon_64.dll
 0001:00026b1d       ?writeFloat@physx@@YAXM_NAEAVPxOutputStream@1@@Z 0000000180027b1d f   PhysXCommon_64:PhysXCommon_64.dll
 0001:00026b23       __imp_load_?computeBoundsAroundVertices@Gu@physx@@YAXAEAVPxBounds3@2@IPEIBVPxVec3@2@@Z 0000000180027b23 f   PhysXCommon_64:PhysXCommon_64.dll
 0001:00026b2f       ?computeBoundsAroundVertices@Gu@physx@@YAXAEAVPxBounds3@2@IPEIBVPxVec3@2@@Z 0000000180027b2f f   PhysXCommon_64:PhysXCommon_64.dll
 0001:00026b35       __imp_load_??0SourceMesh@Gu@physx@@QEAA@XZ 0000000180027b35 f   PhysXCommon_64:PhysXCommon_64.dll
 0001:00026b41       ??0SourceMesh@Gu@physx@@QEAA@XZ 0000000180027b41 f   PhysXCommon_64:PhysXCommon_64.dll
 0001:00026b47       __imp_load_??1SourceMesh@Gu@physx@@QEAA@XZ 0000000180027b47 f   PhysXCommon_64:PhysXCommon_64.dll
 0001:00026b53       ??1SourceMesh@Gu@physx@@QEAA@XZ 0000000180027b53 f   PhysXCommon_64:PhysXCommon_64.dll
 0001:00026b59       __imp_load_??0BV4Tree@Gu@physx@@QEAA@XZ 0000000180027b59 f   PhysXCommon_64:PhysXCommon_64.dll
 0001:00026b65       ??0BV4Tree@Gu@physx@@QEAA@XZ 0000000180027b65 f   PhysXCommon_64:PhysXCommon_64.dll
 0001:00026b6b       __imp_load_??1BV4Tree@Gu@physx@@QEAA@XZ 0000000180027b6b f   PhysXCommon_64:PhysXCommon_64.dll
 0001:00026b77       ??1BV4Tree@Gu@physx@@QEAA@XZ 0000000180027b77 f   PhysXCommon_64:PhysXCommon_64.dll
 0001:00026b7d       __imp_load_??0BV32Tree@Gu@physx@@QEAA@XZ 0000000180027b7d f   PhysXCommon_64:PhysXCommon_64.dll
 0001:00026b89       ??0BV32Tree@Gu@physx@@QEAA@XZ 0000000180027b89 f   PhysXCommon_64:PhysXCommon_64.dll
 0001:00026b8f       __imp_load_??1BV32Tree@Gu@physx@@QEAA@XZ 0000000180027b8f f   PhysXCommon_64:PhysXCommon_64.dll
 0001:00026b9b       ??1BV32Tree@Gu@physx@@QEAA@XZ 0000000180027b9b f   PhysXCommon_64:PhysXCommon_64.dll
 0001:00026ba1       __imp_load_?writeWordBuffer@physx@@YAXPEBGI_NAEAVPxOutputStream@1@@Z 0000000180027ba1 f   PhysXCommon_64:PhysXCommon_64.dll
 0001:00026bad       ?writeWordBuffer@physx@@YAXPEBGI_NAEAVPxOutputStream@1@@Z 0000000180027bad f   PhysXCommon_64:PhysXCommon_64.dll
 0001:00026bb3       __imp_load_?computeMaxIndex@physx@@YAIPEBII@Z 0000000180027bb3 f   PhysXCommon_64:PhysXCommon_64.dll
 0001:00026bbf       ?computeMaxIndex@physx@@YAIPEBII@Z 0000000180027bbf f   PhysXCommon_64:PhysXCommon_64.dll
 0001:00026bc5       __imp_load_?storeIndices@physx@@YAXIIPEBIAEAVPxOutputStream@1@_N@Z 0000000180027bc5 f   PhysXCommon_64:PhysXCommon_64.dll
 0001:00026bd1       ?storeIndices@physx@@YAXIIPEBIAEAVPxOutputStream@1@_N@Z 0000000180027bd1 f   PhysXCommon_64:PhysXCommon_64.dll
 0001:00026bd7       __imp_load_?BuildBV4Ex@Gu@physx@@YA_NAEAVBV4Tree@12@AEAVSourceMesh@12@MI@Z 0000000180027bd7 f   PhysXCommon_64:PhysXCommon_64.dll
 0001:00026be3       ?BuildBV4Ex@Gu@physx@@YA_NAEAVBV4Tree@12@AEAVSourceMesh@12@MI@Z 0000000180027be3 f   PhysXCommon_64:PhysXCommon_64.dll
 0001:00026be9       __imp_load_?BuildBV32Ex@Gu@physx@@YA_NAEAVBV32Tree@12@AEAVSourceMesh@12@MI@Z 0000000180027be9 f   PhysXCommon_64:PhysXCommon_64.dll
 0001:00026bf5       ?BuildBV32Ex@Gu@physx@@YA_NAEAVBV32Tree@12@AEAVSourceMesh@12@MI@Z 0000000180027bf5 f   PhysXCommon_64:PhysXCommon_64.dll
 0001:00026bfb       __imp_load_?computeMaxIndex@physx@@YAGPEBGI@Z 0000000180027bfb f   PhysXCommon_64:PhysXCommon_64.dll
 0001:00026c07       ?computeMaxIndex@physx@@YAGPEBGI@Z 0000000180027c07 f   PhysXCommon_64:PhysXCommon_64.dll
 0001:00026c0d       __imp_load_?WriteHeader@Gu@physx@@YA_NEEEEI_NAEAVPxOutputStream@2@@Z 0000000180027c0d f   PhysXCommon_64:PhysXCommon_64.dll
 0001:00026c19       ?WriteHeader@Gu@physx@@YA_NEEEEI_NAEAVPxOutputStream@2@@Z 0000000180027c19 f   PhysXCommon_64:PhysXCommon_64.dll
 0001:00026c1f       __imp_load_?StoreIndices@Gu@physx@@YAXGIPEBGAEAVPxOutputStream@2@_N@Z 0000000180027c1f f   PhysXCommon_64:PhysXCommon_64.dll
 0001:00026c2b       ?StoreIndices@Gu@physx@@YAXGIPEBGAEAVPxOutputStream@2@_N@Z 0000000180027c2b f   PhysXCommon_64:PhysXCommon_64.dll
 0001:00026c31       __imp_load_?CreateOffsets@BigConvexData@physx@@IEAAXXZ 0000000180027c31 f   PhysXCommon_64:PhysXCommon_64.dll
 0001:00026c3d       ?CreateOffsets@BigConvexData@physx@@IEAAXXZ 0000000180027c3d f   PhysXCommon_64:PhysXCommon_64.dll
 0001:00026c43       __imp_load_?computeOBBPoints@Gu@physx@@YAXPEIAVPxVec3@2@AEBV32@1111@Z 0000000180027c43 f   PhysXCommon_64:PhysXCommon_64.dll
 0001:00026c4f       ?computeOBBPoints@Gu@physx@@YAXPEIAVPxVec3@2@AEBV32@1111@Z 0000000180027c4f f   PhysXCommon_64:PhysXCommon_64.dll
 0001:00026c55       __imp_load_??0BigConvexData@physx@@QEAA@XZ 0000000180027c55 f   PhysXCommon_64:PhysXCommon_64.dll
 0001:00026c61       ??0BigConvexData@physx@@QEAA@XZ 0000000180027c61 f   PhysXCommon_64:PhysXCommon_64.dll
 0001:00026c67       __imp_load_??1BigConvexData@physx@@QEAA@XZ 0000000180027c67 f   PhysXCommon_64:PhysXCommon_64.dll
 0001:00026c73       ??1BigConvexData@physx@@QEAA@XZ 0000000180027c73 f   PhysXCommon_64:PhysXCommon_64.dll
 0001:00026c79       __imp_load_PxGetFoundation 0000000180027c79 f   PhysXFoundation_64:PhysXFoundation_64.dll
 0001:00026c85       PxGetFoundation            0000000180027c85 f   PhysXFoundation_64:PhysXFoundation_64.dll
 0001:00026c8b       __tailMerge_physxfoundation_64_dll 0000000180027c8b     PhysXFoundation_64:PhysXFoundation_64.dll
 0001:00026d04       __imp_load_?getAllocator@shdfnd@physx@@YAAEAVPxAllocatorCallback@2@XZ 0000000180027d04 f   PhysXFoundation_64:PhysXFoundation_64.dll
 0001:00026d10       ?getAllocator@shdfnd@physx@@YAAEAVPxAllocatorCallback@2@XZ 0000000180027d10 f   PhysXFoundation_64:PhysXFoundation_64.dll
 0001:00026d16       __imp_load_?getInstance@Foundation@shdfnd@physx@@SAAEAV123@XZ 0000000180027d16 f   PhysXFoundation_64:PhysXFoundation_64.dll
 0001:00026d22       ?getInstance@Foundation@shdfnd@physx@@SAAEAV123@XZ 0000000180027d22 f   PhysXFoundation_64:PhysXFoundation_64.dll
 0001:00026d28       __imp_load_?error@Foundation@shdfnd@physx@@QEAAXW4Enum@PxErrorCode@3@PEBDH1ZZ 0000000180027d28 f   PhysXFoundation_64:PhysXFoundation_64.dll
 0001:00026d34       ?error@Foundation@shdfnd@physx@@QEAAXW4Enum@PxErrorCode@3@PEBDH1ZZ 0000000180027d34 f   PhysXFoundation_64:PhysXFoundation_64.dll
 0001:00026d3a       __imp_load_?incRefCount@Foundation@shdfnd@physx@@SAXXZ 0000000180027d3a f   PhysXFoundation_64:PhysXFoundation_64.dll
 0001:00026d46       ?incRefCount@Foundation@shdfnd@physx@@SAXXZ 0000000180027d46 f   PhysXFoundation_64:PhysXFoundation_64.dll
 0001:00026d4c       __imp_load_?decRefCount@Foundation@shdfnd@physx@@SAXXZ 0000000180027d4c f   PhysXFoundation_64:PhysXFoundation_64.dll
 0001:00026d58       ?decRefCount@Foundation@shdfnd@physx@@SAXXZ 0000000180027d58 f   PhysXFoundation_64:PhysXFoundation_64.dll
 0001:00026d5e       __imp_load_??0FPUGuard@shdfnd@physx@@QEAA@XZ 0000000180027d5e f   PhysXFoundation_64:PhysXFoundation_64.dll
 0001:00026d6a       ??0FPUGuard@shdfnd@physx@@QEAA@XZ 0000000180027d6a f   PhysXFoundation_64:PhysXFoundation_64.dll
 0001:00026d70       __imp_load_??1FPUGuard@shdfnd@physx@@QEAA@XZ 0000000180027d70 f   PhysXFoundation_64:PhysXFoundation_64.dll
 0001:00026d7c       ??1FPUGuard@shdfnd@physx@@QEAA@XZ 0000000180027d7c f   PhysXFoundation_64:PhysXFoundation_64.dll
 0001:00026d82       __imp_load_?allocate@TempAllocator@shdfnd@physx@@QEAAPEAX_KPEBDH@Z 0000000180027d82 f   PhysXFoundation_64:PhysXFoundation_64.dll
 0001:00026d8e       ?allocate@TempAllocator@shdfnd@physx@@QEAAPEAX_KPEBDH@Z 0000000180027d8e f   PhysXFoundation_64:PhysXFoundation_64.dll
 0001:00026d94       __imp_load_?deallocate@TempAllocator@shdfnd@physx@@QEAAXPEAX@Z 0000000180027d94 f   PhysXFoundation_64:PhysXFoundation_64.dll
 0001:00026da0       ?deallocate@TempAllocator@shdfnd@physx@@QEAAXPEAX@Z 0000000180027da0 f   PhysXFoundation_64:PhysXFoundation_64.dll
 0001:00026da6       __imp_load_?PxDiagonalize@physx@@YA?AVPxVec3@1@AEBVPxMat33@1@AEAVPxQuat@1@@Z 0000000180027da6 f   PhysXFoundation_64:PhysXFoundation_64.dll
 0001:00026db2       ?PxDiagonalize@physx@@YA?AVPxVec3@1@AEBVPxMat33@1@AEAVPxQuat@1@@Z 0000000180027db2 f   PhysXFoundation_64:PhysXFoundation_64.dll
 0001:00026db8       ?DloadAcquireSectionWriteAccess@@YAXXZ 0000000180027db8 f i Delayimp:delayhlp.obj
 0001:00026e64       ?DloadGetSRWLockFunctionPointers@@YAEXZ 0000000180027e64 f i Delayimp:delayhlp.obj
 0001:00026f00       ?DloadMakePermanentImageCommit@@YAXPEAX_K@Z 0000000180027f00 f i Delayimp:delayhlp.obj
 0001:00026f98       ?DloadObtainSection@@YAPEAXPEAK0@Z 0000000180027f98 f i Delayimp:delayhlp.obj
 0001:00027034       ?DloadProtectSection@@YAXKPEAK@Z 0000000180028034 f i Delayimp:delayhlp.obj
 0001:000270c4       ?DloadReleaseSectionWriteAccess@@YAXXZ 00000001800280c4 f i Delayimp:delayhlp.obj
 0001:00027158       __delayLoadHelper2         0000000180028158 f   Delayimp:delayhlp.obj
 0001:0002742c       ??_V@YAXPEAX@Z             000000018002842c f   LIBCMT:delete_array.obj
 0001:0002742c       ??3@YAXPEAX_K@Z            000000018002842c f   LIBCMT:delete_scalar_size.obj
 0001:00027434       ??_Gtype_info@@UEAAPEAXI@Z 0000000180028434 f i LIBCMT:std_type_info_static.obj
 0001:00027434       ??_Etype_info@@UEAAPEAXI@Z 0000000180028434 f i LIBCMT:std_type_info_static.obj
 0001:00027460       ?__scrt_initialize_type_info@@YAXXZ 0000000180028460 f   LIBCMT:tncleanup.obj
 0001:00027470       ?__scrt_uninitialize_type_info@@YAXXZ 0000000180028470 f   LIBCMT:tncleanup.obj
 0001:00027490       _alloca_probe              0000000180028490 f   LIBCMT:chkstk.obj
 0001:00027490       __chkstk                   0000000180028490 f   LIBCMT:chkstk.obj
 0001:000274e0       ??3@YAXPEAX@Z              00000001800284e0 f   LIBCMT:delete_scalar.obj
 0001:000274f0       __vdecl_sinf4              00000001800284f0 f   LIBCMT:svml_ssinf4_dispatch.obj
 0001:00027510       __libm_sse2_sincosf_       0000000180028510 f   LIBCMT:svml_ssinf4_dispatch.obj
 0001:00027553       __libm_sse2_sincosf4_      0000000180028553 f   LIBCMT:svml_ssinf4_dispatch.obj
 0001:00027880       _DllMainCRTStartup         0000000180028880 f   LIBCMT:dll_dllmain.obj
 0001:000278c0       __isa_available_init       00000001800288c0 f   LIBCMT:cpu_disp.obj
 0001:00027a70       __sse2_sinf4@@16           0000000180028a70 f   LIBCMT:svml_ssinf4_sse2.obj
 0001:000283b0       __sse4_sinf4@@16           00000001800293b0 f   LIBCMT:svml_ssinf4_sse4.obj
 0001:00028b24       __security_init_cookie     0000000180029b24 f   LIBCMT:gs_support.obj
 0001:00028bd0       __local_stdio_printf_options 0000000180029bd0 f i LIBCMT:default_local_stdio_options.obj
 0001:00028bd8       __local_stdio_scanf_options 0000000180029bd8 f i LIBCMT:default_local_stdio_options.obj
 0001:00028be0       __scrt_initialize_default_local_stdio_options 0000000180029be0 f   LIBCMT:default_local_stdio_options.obj
 0001:00028bfc       __scrt_acquire_startup_lock 0000000180029bfc f   LIBCMT:utility.obj
 0001:00028c38       __scrt_dllmain_after_initialize_c 0000000180029c38 f   LIBCMT:utility.obj
 0001:00028c6c       __scrt_dllmain_before_initialize_c 0000000180029c6c f   LIBCMT:utility.obj
 0001:00028c84       __scrt_dllmain_crt_thread_attach 0000000180029c84 f   LIBCMT:utility.obj
 0001:00028cac       __scrt_dllmain_crt_thread_detach 0000000180029cac f   LIBCMT:utility.obj
 0001:00028cc4       __scrt_dllmain_exception_filter 0000000180029cc4 f   LIBCMT:utility.obj
 0001:00028d24       __scrt_dllmain_uninitialize_c 0000000180029d24 f   LIBCMT:utility.obj
 0001:00028d54       __scrt_dllmain_uninitialize_critical 0000000180029d54 f   LIBCMT:utility.obj
 0001:00028d68       __scrt_initialize_crt      0000000180029d68 f   LIBCMT:utility.obj
 0001:00028db4       __scrt_initialize_onexit_tables 0000000180029db4 f   LIBCMT:utility.obj
 0001:00028e40       __scrt_is_nonwritable_in_current_image 0000000180029e40 f   LIBCMT:utility.obj
 0001:00028ed8       __scrt_release_startup_lock 0000000180029ed8 f   LIBCMT:utility.obj
 0001:00028efc       __scrt_uninitialize_crt    0000000180029efc f   LIBCMT:utility.obj
 0001:00028f28       __scrt_get_dyn_tls_init_callback 0000000180029f28 f   LIBCMT:dyn_tls_init.obj
 0001:00028f30       __crt_debugger_hook        0000000180029f30 f   LIBCMT:utility_desktop.obj
 0001:00028f38       __scrt_fastfail            0000000180029f38 f   LIBCMT:utility_desktop.obj
 0001:00029084       _RTC_Initialize            000000018002a084 f   LIBCMT:initsect.obj
 0001:000290c0       _RTC_Terminate             000000018002a0c0 f   LIBCMT:initsect.obj
 0001:00029100       __common_ssin_cout_rare    000000018002a100 f   LIBCMT:svml_s_sin_cout.obj
 0001:00029170       __scrt_is_ucrt_dll_in_use  000000018002a170 f   LIBCMT:ucrt_detection.obj
 0001:0002917c       _get_purecall_handler      000000018002a17c f   libvcruntime:purevirt.obj
 0001:00029188       _purecall                  000000018002a188 f   libvcruntime:purevirt.obj
 0001:000291ac       __std_type_info_compare    000000018002a1ac f   libvcruntime:std_type_info.obj
 0001:000291d4       __std_type_info_destroy_list 000000018002a1d4 f   libvcruntime:std_type_info.obj
 0001:00029200       __std_type_info_name       000000018002a200 f   libvcruntime:std_type_info.obj
 0001:00029330       memset_repmovs             000000018002a330 f   libvcruntime:memset.obj
 0001:00029350       memset                     000000018002a350 f   libvcruntime:memset.obj
 0001:000294f0       memcpy_repmovs             000000018002a4f0 f   libvcruntime:memcpy.obj
 0001:00029510       memcpy                     000000018002a510 f   libvcruntime:memcpy.obj
 0001:00029510       memmove                    000000018002a510 f   libvcruntime:memcpy.obj
 0001:00029b88       strstr                     000000018002ab88 f   libvcruntime:strstr.obj
 0001:00029d84       __C_specific_handler       000000018002ad84 f   libvcruntime:riscchandler.obj
 0001:00029f90       __vcrt_initialize          000000018002af90 f   libvcruntime:initialization.obj
 0001:00029fb8       __vcrt_thread_attach       000000018002afb8 f   libvcruntime:initialization.obj
 0001:00029fcc       __vcrt_thread_detach       000000018002afcc f   libvcruntime:initialization.obj
 0001:00029fe0       __vcrt_uninitialize        000000018002afe0 f   libvcruntime:initialization.obj
 0001:00029ffc       __vcrt_uninitialize_critical 000000018002affc f   libvcruntime:initialization.obj
 0001:0002a00c       __DestructExceptionObject  000000018002b00c f   libvcruntime:ehhelpers.obj
 0001:0002a07c       ?_CallMemberFunction0@@YAXQEAX0@Z 000000018002b07c f i libvcruntime:ehhelpers.obj
 0001:0002a080       _IsExceptionObjectToBeDestroyed 000000018002b080 f   libvcruntime:ehhelpers.obj
 0001:0002a0b0       __AdjustPointer            000000018002b0b0 f   libvcruntime:ehhelpers.obj
 0001:0002a0d4       __FrameUnwindFilter        000000018002b0d4 f   libvcruntime:ehhelpers.obj
 0001:0002a13c       __std_terminate            000000018002b13c f   libvcruntime:ehhelpers.obj
 0001:0002a148       ??$?0$00@DName@@QEAA@PEBDU?$StringLifeSelector@$00@@@Z 000000018002b148 f i libvcruntime:undname.obj
 0001:0002a188       ??$?0$01@DName@@QEAA@PEBDU?$StringLifeSelector@$01@@@Z 000000018002b188 f i libvcruntime:undname.obj
 0001:0002a188       ??$?0$0A@@DName@@QEAA@PEBDU?$StringLifeSelector@$0A@@@@Z 000000018002b188 f i libvcruntime:undname.obj
 0001:0002a1c8       ??$?0$01@pcharNode@@QEAA@PEBDHU?$StringLifeSelector@$01@@@Z 000000018002b1c8 f i libvcruntime:undname.obj
 0001:0002a1c8       ??$?0$0A@@pcharNode@@QEAA@PEBDHU?$StringLifeSelector@$0A@@@@Z 000000018002b1c8 f i libvcruntime:undname.obj
 0001:0002a23c       ??$append@VDNameStatusNode@@@DName@@AEAAXPEBVDNameStatusNode@@@Z 000000018002b23c f i libvcruntime:undname.obj
 0001:0002a23c       ??$append@VpcharNode@@@DName@@AEAAXPEBVpcharNode@@@Z 000000018002b23c f i libvcruntime:undname.obj
 0001:0002a23c       ??$append@VDNameNode@@@DName@@AEAAXPEBVDNameNode@@@Z 000000018002b23c f i libvcruntime:undname.obj
 0001:0002a23c       ??$append@VcharNode@@@DName@@AEAAXPEBVcharNode@@@Z 000000018002b23c f i libvcruntime:undname.obj
 0001:0002a2a0       ??$doPchar@$00@DName@@AEAAXPEBDH@Z 000000018002b2a0 f i libvcruntime:undname.obj
 0001:0002a344       ??$doPchar@$01@DName@@AEAAXPEBDH@Z 000000018002b344 f i libvcruntime:undname.obj
 0001:0002a344       ??$doPchar@$0A@@DName@@AEAAXPEBDH@Z 000000018002b344 f i libvcruntime:undname.obj
 0001:0002a3dc       ??0DName@@QEAA@AEAPEBDD@Z  000000018002b3dc f   libvcruntime:undname.obj
 0001:0002a48c       ??0DName@@QEAA@AEBUStringLiteral@@@Z 000000018002b48c f   libvcruntime:undname.obj
 0001:0002a4b8       ??0DName@@QEAA@PEAV0@@Z    000000018002b4b8 f   libvcruntime:undname.obj
 0001:0002a53c       ??0DName@@QEAA@_J@Z        000000018002b53c f   libvcruntime:undname.obj
 0001:0002a5e4       ??0DName@@QEAA@_K@Z        000000018002b5e4 f   libvcruntime:undname.obj
 0001:0002a674       ??2@YAPEAX_KAEAV_HeapManager@@H@Z 000000018002b674 f   libvcruntime:undname.obj
 0001:0002a6a0       ??AReplicator@@QEBA?AVDName@@H@Z 000000018002b6a0 f   libvcruntime:undname.obj
 0001:0002a6e0       ??HDName@@QEBA?AV0@AEBUStringLiteral@@@Z 000000018002b6e0 f   libvcruntime:undname.obj
 0001:0002a70c       ??HDName@@QEBA?AV0@AEBV0@@Z 000000018002b70c f   libvcruntime:undname.obj
 0001:0002a738       ??HDName@@QEBA?AV0@D@Z     000000018002b738 f   libvcruntime:undname.obj
 0001:0002a764       ??HDName@@QEBA?AV0@W4DNameStatus@@@Z 000000018002b764 f   libvcruntime:undname.obj
 0001:0002a790       ??YDName@@QEAAAEAV0@AEBUStringLiteral@@@Z 000000018002b790 f   libvcruntime:undname.obj
 0001:0002a810       ??YDName@@QEAAAEAV0@AEBV0@@Z 000000018002b810 f   libvcruntime:undname.obj
 0001:0002a8c4       ??YDName@@QEAAAEAV0@D@Z    000000018002b8c4 f   libvcruntime:undname.obj
 0001:0002a930       ??YDName@@QEAAAEAV0@W4DNameStatus@@@Z 000000018002b930 f   libvcruntime:undname.obj
 0001:0002a99c       ??YReplicator@@QEAAAEAV0@AEBVDName@@@Z 000000018002b99c f   libvcruntime:undname.obj
 0001:0002a9f4       ?UScore@UnDecorator@@SA?AUStringLiteral@@W4Tokens@@@Z 000000018002b9f4 f   libvcruntime:undname.obj
 0001:0002aa40       ?composeDeclaration@UnDecorator@@CA?AVDName@@AEBV2@@Z 000000018002ba40 f i libvcruntime:undname.obj
 0001:0002b8e8       ?doPchar@DName@@AEAAXD@Z   000000018002c8e8 f   libvcruntime:undname.obj
 0001:0002b938       ?getAddressOf@UnDecorator@@CA?AVDName@@XZ 000000018002c938 f   libvcruntime:undname.obj
 0001:0002b9c8       ?getArgumentList@UnDecorator@@CA?AVDName@@XZ 000000018002c9c8 f   libvcruntime:undname.obj
 0001:0002bb5c       ?getArgumentTypes@UnDecorator@@CA?AVDName@@XZ 000000018002cb5c f   libvcruntime:undname.obj
 0001:0002bcb8       ?getArrayAccess@UnDecorator@@CA?AVDName@@XZ 000000018002ccb8 f   libvcruntime:undname.obj
 0001:0002bd54       ?getArrayObject@UnDecorator@@CA?AVDName@@XZ 000000018002cd54 f   libvcruntime:undname.obj
 0001:0002be1c       ?getArrayType@UnDecorator@@CA?AVDName@@AEBV2@@Z 000000018002ce1c f i libvcruntime:undname.obj
 0001:0002c064       ?getBasedType@UnDecorator@@CA?AVDName@@XZ 000000018002d064 f   libvcruntime:undname.obj
 0001:0002c15c       ?getBasicDataType@UnDecorator@@CA?AVDName@@AEBV2@@Z 000000018002d15c f   libvcruntime:undname.obj
 0001:0002c70c       ?getCallingConvention@UnDecorator@@CA?AVDName@@XZ 000000018002d70c f   libvcruntime:undname.obj
 0001:0002c84c       ?getDataIndirectType@UnDecorator@@CA?AVDName@@AEBV2@W4IndirectionKind@@0H@Z 000000018002d84c f   libvcruntime:undname.obj
 0001:0002d0e4       ?getDataType@UnDecorator@@CA?AVDName@@PEAV2@@Z 000000018002e0e4 f   libvcruntime:undname.obj
 0001:0002d1f8       ?getDecoratedName@UnDecorator@@CA?AVDName@@XZ 000000018002e1f8 f   libvcruntime:undname.obj
 0001:0002d4dc       ?getDimension@UnDecorator@@CA?AVDName@@_N@Z 000000018002e4dc f   libvcruntime:undname.obj
 0001:0002d628       ?getDispatchTarget@UnDecorator@@CA?AVDName@@XZ 000000018002e628 f   libvcruntime:undname.obj
 0001:0002d674       ?getECSUDataType@UnDecorator@@CA?AVDName@@XZ 000000018002e674 f   libvcruntime:undname.obj
 0001:0002d854       ?getEnumType@UnDecorator@@CA?AVDName@@XZ 000000018002e854 f i libvcruntime:undname.obj
 0001:0002d984       ?getExtendedDataIndirectType@UnDecorator@@CA?AVDName@@AEAW4IndirectionKind@@AEA_NH@Z 000000018002e984 f   libvcruntime:undname.obj
 0001:0002db8c       ?getExternalDataType@UnDecorator@@CA?AVDName@@AEBV2@@Z 000000018002eb8c f i libvcruntime:undname.obj
 0001:0002dc4c       ?getFloatingPoint@UnDecorator@@CA?AVDName@@H@Z 000000018002ec4c f   libvcruntime:undname.obj
 0001:0002dd74       ?getFunctionIndirectType@UnDecorator@@CA?AVDName@@AEBV2@@Z 000000018002ed74 f   libvcruntime:undname.obj
 0001:0002e2ac       ?getLastChar@DNameStatusNode@@UEBADXZ 000000018002f2ac f i libvcruntime:undname.obj
 0001:0002e2b8       ?getLastChar@charNode@@UEBADXZ 000000018002f2b8 f i libvcruntime:undname.obj
 0001:0002e2bc       ?getLastChar@pDNameNode@@UEBADXZ 000000018002f2bc f i libvcruntime:undname.obj
 0001:0002e2e8       ?getLastChar@pairNode@@UEBADXZ 000000018002f2e8 f i libvcruntime:undname.obj
 0001:0002e320       ?getLastChar@pcharNode@@UEBADXZ 000000018002f320 f i libvcruntime:undname.obj
 0001:0002e334       ?getLexicalFrame@UnDecorator@@CA?AVDName@@XZ 000000018002f334 f i libvcruntime:undname.obj
 0001:0002e398       ?getMemberAccess@UnDecorator@@CA?AVDName@@XZ 000000018002f398 f   libvcruntime:undname.obj
 0001:0002e42c       ?getMemoryWithBuffer@_HeapManager@@QEAAPEAX_K@Z 000000018002f42c f   libvcruntime:undname.obj
 0001:0002e4bc       ?getNoexcept@UnDecorator@@CA?AVDName@@XZ 000000018002f4bc f   libvcruntime:undname.obj
 0001:0002e520       ?getNumberOfDimensions@UnDecorator@@CAHXZ 000000018002f520 f   libvcruntime:undname.obj
 0001:0002e594       ?getOperatorName@UnDecorator@@CA?AVDName@@_NPEA_N@Z 000000018002f594 f i libvcruntime:undname.obj
 0001:0002ef88       ?getPointerToMember@UnDecorator@@CA?AVDName@@XZ 000000018002ff88 f   libvcruntime:undname.obj
 0001:0002f080       ?getPrimaryDataType@UnDecorator@@CA?AVDName@@AEBV2@@Z 0000000180030080 f   libvcruntime:undname.obj
 0001:0002f334       ?getPtrRefDataType@UnDecorator@@CA?AVDName@@AEBV2@H@Z 0000000180030334 f   libvcruntime:undname.obj
 0001:0002f500       ?getPtrRefType@UnDecorator@@CA?AVDName@@AEBV2@0W4IndirectionKind@@@Z 0000000180030500 f   libvcruntime:undname.obj
 0001:0002f6d8       ?getRestrictionSpec@UnDecorator@@CA?AVDName@@XZ 00000001800306d8 f   libvcruntime:undname.obj
 0001:0002f8a4       ?getReturnType@UnDecorator@@CA?AVDName@@PEAV2@@Z 00000001800308a4 f   libvcruntime:undname.obj
 0001:0002f8d8       ?getScope@UnDecorator@@CA?AVDName@@XZ 00000001800308d8 f   libvcruntime:undname.obj
 0001:0002fd8c       ?getScopedName@UnDecorator@@CA?AVDName@@XZ 0000000180030d8c f   libvcruntime:undname.obj
 0001:0002fec8       ?getSignedDimension@UnDecorator@@CA?AVDName@@XZ 0000000180030ec8 f   libvcruntime:undname.obj
 0001:0002ff50       ?getString@DNameStatusNode@@UEBAPEADPEAD0@Z 0000000180030f50 f i libvcruntime:undname.obj
 0001:0002ff98       ?getString@charNode@@UEBAPEADPEAD0@Z 0000000180030f98 f i libvcruntime:undname.obj
 0001:0002ffac       ?getString@pDNameNode@@UEBAPEADPEAD0@Z 0000000180030fac f i libvcruntime:undname.obj
 0001:0002ffdc       ?getString@pairNode@@UEBAPEADPEAD0@Z 0000000180030fdc f i libvcruntime:undname.obj
 0001:00030028       ?getString@pcharNode@@UEBAPEADPEAD0@Z 0000000180031028 f i libvcruntime:undname.obj
 0001:00030060       ?getStringEncoding@UnDecorator@@CA?AVDName@@W4PrefixKind@@H@Z 0000000180031060 f   libvcruntime:undname.obj
 0001:00030144       ?getStringObject@UnDecorator@@CA?AVDName@@XZ 0000000180031144 f   libvcruntime:undname.obj
 0001:000301ac       ?getSymbolName@UnDecorator@@CA?AVDName@@XZ 00000001800311ac f i libvcruntime:undname.obj
 0001:000301f8       ?getTemplateArgumentList@UnDecorator@@CA?AVDName@@XZ 00000001800311f8 f   libvcruntime:undname.obj
 0001:0003046c       ?getTemplateName@UnDecorator@@CA?AVDName@@_N@Z 000000018003146c f   libvcruntime:undname.obj
 0001:00030700       ?getTemplateNonTypeArgument@UnDecorator@@CA?AVDName@@XZ 0000000180031700 f   libvcruntime:undname.obj
 0001:00030c34       ?getTemplateTypeArgument@UnDecorator@@CA?AVDName@@XZ 0000000180031c34 f   libvcruntime:undname.obj
 0001:00030d9c       ?getThrowTypes@UnDecorator@@CA?AVDName@@XZ 0000000180031d9c f   libvcruntime:undname.obj
 0001:00030dc0       ?getTypeEncoding@UnDecorator@@CAHXZ 0000000180031dc0 f i libvcruntime:undname.obj
 0001:00031150       ?getUndecoratedName@UnDecorator@@QEAAPEADPEADH@Z 0000000180032150 f i libvcruntime:undname.obj
 0001:000312a4       ?getUnionObject@UnDecorator@@CA?AVDName@@XZ 00000001800322a4 f   libvcruntime:undname.obj
 0001:0003137c       ?getVCallThunkType@UnDecorator@@CA?AVDName@@XZ 000000018003237c f i libvcruntime:undname.obj
 0001:000313f4       ?getValue@UnDecorator@@CA?AV?$optional@_K@std@@XZ 00000001800323f4 f   libvcruntime:undname.obj
 0001:00031468       ?getValueObject@UnDecorator@@CA?AVDName@@XZ 0000000180032468 f   libvcruntime:undname.obj
 0001:000315c0       ?getVdispMapType@UnDecorator@@CA?AVDName@@AEBV2@@Z 00000001800325c0 f i libvcruntime:undname.obj
 0001:0003163c       ?getVfTableType@UnDecorator@@CA?AVDName@@AEBV2@@Z 000000018003263c f i libvcruntime:undname.obj
 0001:00031844       ?getZName@UnDecorator@@CA?AVDName@@_N0@Z 0000000180032844 f   libvcruntime:undname.obj
 0001:00031b2c       ?length@DNameStatusNode@@UEBAHXZ 0000000180032b2c f i libvcruntime:undname.obj
 0001:00031b2c       ?raw_length@DNameStatusNode@@UEBAHXZ 0000000180032b2c f i libvcruntime:undname.obj
 0001:00031b30       ?length@pDNameNode@@UEBAHXZ 0000000180032b30 f i libvcruntime:undname.obj
 0001:00031b58       ?length@pairNode@@UEBAHXZ  0000000180032b58 f i libvcruntime:undname.obj
 0001:00031ba0       ?parseDecoratedName@UnDecorator@@CA?AVDName@@XZ 0000000180032ba0 f   libvcruntime:undname.obj
 0001:00031cb4       ?raw_length@pDNameNode@@UEBAHXZ 0000000180032cb4 f i libvcruntime:undname.obj
 0001:00031cb8       ?raw_length@pairNode@@UEBAHXZ 0000000180032cb8 f i libvcruntime:undname.obj
 0001:00031cbc       __unDName                  0000000180032cbc f   libvcruntime:undname.obj
 0001:00031ce4       __unDNameEx                0000000180032ce4 f   libvcruntime:undname.obj
 0001:00031e18       sprintf_s                  0000000180032e18 f i libvcruntime:undname.obj
 0001:00031e80       _NLG_Notify                0000000180032e80 f   libvcruntime:notify.obj
 0001:00031ea0       __NLG_Dispatch2            0000000180032ea0 f   libvcruntime:notify.obj
 0001:00031eb0       __NLG_Return2              0000000180032eb0 f   libvcruntime:notify.obj
 0001:00031eb4       __except_validate_context_record 0000000180032eb4 f   libvcruntime:jbcxrval.obj
 0001:00031eec       __vcrt_freefls             0000000180032eec f   libvcruntime:per_thread_data.obj
 0001:00031f0c       __vcrt_freeptd             0000000180032f0c f   libvcruntime:per_thread_data.obj
 0001:00031f5c       __vcrt_getptd              0000000180032f5c f   libvcruntime:per_thread_data.obj
 0001:00031f78       __vcrt_getptd_noexit       0000000180032f78 f   libvcruntime:per_thread_data.obj
 0001:00032038       __vcrt_initialize_ptd      0000000180033038 f   libvcruntime:per_thread_data.obj
 0001:00032080       __vcrt_uninitialize_ptd    0000000180033080 f   libvcruntime:per_thread_data.obj
 0001:000320a4       __vcrt_initialize_locks    00000001800330a4 f   libvcruntime:locks.obj
 0001:000320d8       __vcrt_lock                00000001800330d8 f   libvcruntime:locks.obj
 0001:000320f4       __vcrt_uninitialize_locks  00000001800330f4 f   libvcruntime:locks.obj
 0001:0003212c       __vcrt_unlock              000000018003312c f   libvcruntime:locks.obj
 0001:00032148       ??$_CallSETranslator@V__FrameHandler3@@@@YAHPEAUEHExceptionRecord@@PEA_KPEAU_CONTEXT@@PEAU_xDISPATCHER_CONTEXT@@PEBU_s_FuncInfo@@K1H@Z 0000000180033148 f i libvcruntime:risctrnsctrl.obj
 0001:0003219c       ??$_CallSETranslator@V__FrameHandler4@@@@YAHPEAUEHExceptionRecord@@PEA_KPEAU_CONTEXT@@PEAU_xDISPATCHER_CONTEXT@@PEAUFuncInfo4@FH4@@K1H@Z 000000018003319c f i libvcruntime:risctrnsctrl.obj
 0001:000321f0       ?CatchTryBlock@__FrameHandler3@@SAPEBU_s_TryBlockMapEntry@@PEBU_s_FuncInfo@@H@Z 00000001800331f0 f   libvcruntime:risctrnsctrl.obj
 0001:00032244       ?DecompFuncInfo@FH4@@YA_JPEAEAEAUFuncInfo4@1@_KH_N@Z 0000000180033244 f i libvcruntime:risctrnsctrl.obj
 0001:00032368       ?ExecutionInCatch@__FrameHandler3@@SA_NPEAU_xDISPATCHER_CONTEXT@@PEBU_s_FuncInfo@@@Z 0000000180033368 f   libvcruntime:risctrnsctrl.obj
 0001:00032394       ?ExecutionInCatch@__FrameHandler4@@SA_NPEAU_xDISPATCHER_CONTEXT@@PEAUFuncInfo4@FH4@@@Z 0000000180033394 f   libvcruntime:risctrnsctrl.obj
 0001:0003239c       ?FrameUnwindToEmptyState@__FrameHandler3@@SAXPEA_KPEAU_xDISPATCHER_CONTEXT@@PEBU_s_FuncInfo@@@Z 000000018003339c f   libvcruntime:risctrnsctrl.obj
 0001:00032400       ?FrameUnwindToEmptyState@__FrameHandler4@@SAXPEA_KPEAU_xDISPATCHER_CONTEXT@@PEAUFuncInfo4@FH4@@@Z 0000000180033400 f   libvcruntime:risctrnsctrl.obj
 0001:00032434       ?GetEstablisherFrame@__FrameHandler3@@SAPEA_KPEA_KPEAU_xDISPATCHER_CONTEXT@@PEBU_s_FuncInfo@@0@Z 0000000180033434 f   libvcruntime:risctrnsctrl.obj
 0001:00032500       ?GetEstablisherFrame@__FrameHandler4@@SAPEA_KPEA_KPEAU_xDISPATCHER_CONTEXT@@PEAUFuncInfo4@FH4@@0@Z 0000000180033500 f   libvcruntime:risctrnsctrl.obj
 0001:00032524       ?GetRangeOfTrysToCheck@__FrameHandler3@@SA?AU?$pair@Viterator@TryBlockMap@__FrameHandler3@@V123@@std@@AEAVTryBlockMap@1@HPEAU_xDISPATCHER_CONTEXT@@PEBU_s_FuncInfo@@H@Z 0000000180033524 f   libvcruntime:risctrnsctrl.obj
 0001:00032664       ?GetRangeOfTrysToCheck@__FrameHandler4@@SA?AU?$pair@Viterator@TryBlockMap4@FH4@@V123@@std@@AEAVTryBlockMap4@FH4@@HPEAU_xDISPATCHER_CONTEXT@@PEAUFuncInfo4@5@H@Z 0000000180033664 f   libvcruntime:risctrnsctrl.obj
 0001:000327cc       ?UnwindNestedFrames@__FrameHandler3@@SAXPEA_KPEAUEHExceptionRecord@@PEAU_CONTEXT@@0PEAXPEBU_s_FuncInfo@@HHPEBU_s_HandlerType@@PEAU_xDISPATCHER_CONTEXT@@E@Z 00000001800337cc f   libvcruntime:risctrnsctrl.obj
 0001:000328d0       ?UnwindNestedFrames@__FrameHandler4@@SAXPEA_KPEAUEHExceptionRecord@@PEAU_CONTEXT@@0PEAXPEAUFuncInfo4@FH4@@HHPEAUHandlerType4@5@PEAU_xDISPATCHER_CONTEXT@@E@Z 00000001800338d0 f   libvcruntime:risctrnsctrl.obj
 0001:000329f0       ?setBuffer@TryBlockMap4@FH4@@QEAAXViterator@12@@Z 00000001800339f0 f i libvcruntime:risctrnsctrl.obj
 0001:00032bb0       _CreateFrameInfo           0000000180033bb0 f   libvcruntime:risctrnsctrl.obj
 0001:00032bec       _FindAndUnlinkFrame        0000000180033bec f   libvcruntime:risctrnsctrl.obj
 0001:00032c40       _GetImageBase              0000000180033c40 f   libvcruntime:risctrnsctrl.obj
 0001:00032c54       _GetThrowImageBase         0000000180033c54 f   libvcruntime:risctrnsctrl.obj
 0001:00032c68       _SetImageBase              0000000180033c68 f   libvcruntime:risctrnsctrl.obj
 0001:00032c80       _SetThrowImageBase         0000000180033c80 f   libvcruntime:risctrnsctrl.obj
 0001:00032c98       __CxxFrameHandler3         0000000180033c98 f   libvcruntime:risctrnsctrl.obj
 0001:00032d20       __CxxFrameHandler4         0000000180033d20 f   libvcruntime:risctrnsctrl.obj
 0001:00032f30       __vcrt_FlsAlloc            0000000180033f30 f   libvcruntime:winapi_downlevel.obj
 0001:00032f78       __vcrt_FlsFree             0000000180033f78 f   libvcruntime:winapi_downlevel.obj
 0001:00032fc0       __vcrt_FlsGetValue         0000000180033fc0 f   libvcruntime:winapi_downlevel.obj
 0001:00033008       __vcrt_FlsSetValue         0000000180034008 f   libvcruntime:winapi_downlevel.obj
 0001:0003305c       __vcrt_InitializeCriticalSectionEx 000000018003405c f   libvcruntime:winapi_downlevel.obj
 0001:000330c0       ?GetCurrentState@__FrameHandler3@@SAHPEA_KPEAU_xDISPATCHER_CONTEXT@@PEBU_s_FuncInfo@@@Z 00000001800340c0 f   libvcruntime:ehstate.obj
 0001:000330e8       ?GetUnwindTryBlock@__FrameHandler3@@SAHPEA_KPEAU_xDISPATCHER_CONTEXT@@PEBU_s_FuncInfo@@@Z 00000001800340e8 f   libvcruntime:ehstate.obj
 0001:00033114       ?SetState@__FrameHandler3@@SAXPEA_KPEBU_s_FuncInfo@@H@Z 0000000180034114 f   libvcruntime:ehstate.obj
 0001:00033120       ?SetUnwindTryBlock@__FrameHandler3@@SAXPEA_KPEAU_xDISPATCHER_CONTEXT@@PEBU_s_FuncInfo@@H@Z 0000000180034120 f   libvcruntime:ehstate.obj
 0001:0003315c       ?StateFromControlPc@__FrameHandler3@@SAHPEBU_s_FuncInfo@@PEAU_xDISPATCHER_CONTEXT@@@Z 000000018003415c f   libvcruntime:ehstate.obj
 0001:00033164       ?StateFromControlPc@__FrameHandler4@@SAHPEAUFuncInfo4@FH4@@PEAU_xDISPATCHER_CONTEXT@@@Z 0000000180034164 f   libvcruntime:ehstate.obj
 0001:0003316c       ?StateFromIp@__FrameHandler3@@SAHPEBU_s_FuncInfo@@PEAU_xDISPATCHER_CONTEXT@@_K@Z 000000018003416c f   libvcruntime:ehstate.obj
 0001:000331d4       ?StateFromIp@__FrameHandler4@@SAHPEAUFuncInfo4@FH4@@PEAU_xDISPATCHER_CONTEXT@@_K@Z 00000001800341d4 f   libvcruntime:ehstate.obj
 0001:000348b8       ??$TypeMatchHelper@V__FrameHandler3@@@@YAHPEBU_s_HandlerType@@PEBU_s_CatchableType@@PEBU_s_ThrowInfo@@@Z 00000001800358b8 f i libvcruntime:frame.obj
 0001:000349f8       ??$TypeMatchHelper@V__FrameHandler4@@@@YAHPEAUHandlerType4@FH4@@PEBU_s_CatchableType@@PEBU_s_ThrowInfo@@@Z 00000001800359f8 f i libvcruntime:frame.obj
 0001:00034b3c       ??$__InternalCxxFrameHandler@V__FrameHandler3@@@@YA?AW4_EXCEPTION_DISPOSITION@@PEAUEHExceptionRecord@@PEA_KPEAU_CONTEXT@@PEAU_xDISPATCHER_CONTEXT@@PEBU_s_FuncInfo@@H1E@Z 0000000180035b3c f i libvcruntime:frame.obj
 0001:00034d74       ??$__InternalCxxFrameHandler@V__FrameHandler4@@@@YA?AW4_EXCEPTION_DISPOSITION@@PEAUEHExceptionRecord@@PEA_KPEAU_CONTEXT@@PEAU_xDISPATCHER_CONTEXT@@PEAUFuncInfo4@FH4@@H1E@Z 0000000180035d74 f i libvcruntime:frame.obj
 0001:00035008       ??0HandlerMap4@FH4@@QEAA@PEBUTryBlockMapEntry4@1@_KH@Z 0000000180036008 f i libvcruntime:frame.obj
 0001:00035084       ??0TryBlockMap4@FH4@@QEAA@PEBUFuncInfo4@1@_K@Z 0000000180036084 f i libvcruntime:frame.obj
 0001:0003515c       ??0bad_exception@std@@QEAA@AEBV01@@Z 000000018003615c f i libvcruntime:frame.obj
 0001:00035198       ??0bad_exception@std@@QEAA@XZ 0000000180036198 f i libvcruntime:frame.obj
 0001:000351b8       ??0exception@std@@QEAA@AEBV01@@Z 00000001800361b8 f i libvcruntime:frame.obj
 0001:000351ec       ??1bad_exception@std@@UEAA@XZ 00000001800361ec f i libvcruntime:frame.obj
 0001:00035200       ??_Ebad_exception@std@@UEAAPEAXI@Z 0000000180036200 f i libvcruntime:frame.obj
 0001:00035200       ??_Gexception@std@@UEAAPEAXI@Z 0000000180036200 f i libvcruntime:frame.obj
 0001:00035200       ??_Eexception@std@@UEAAPEAXI@Z 0000000180036200 f i libvcruntime:frame.obj
 0001:00035200       ??_Gbad_exception@std@@UEAAPEAXI@Z 0000000180036200 f i libvcruntime:frame.obj
 0001:00035244       ?CxxCallCatchBlock@__FrameHandler3@@SAPEAXPEAU_EXCEPTION_RECORD@@@Z 0000000180036244 f   libvcruntime:frame.obj
 0001:00035430       ?CxxCallCatchBlock@__FrameHandler4@@SAPEAXPEAU_EXCEPTION_RECORD@@@Z 0000000180036430 f   libvcruntime:frame.obj
 0001:00035680       ?DecompHandler@HandlerMap4@FH4@@AEAAXXZ 0000000180036680 f i libvcruntime:frame.obj
 0001:000358c0       ?FrameUnwindToState@__FrameHandler3@@SAXPEA_KPEAU_xDISPATCHER_CONTEXT@@PEBU_s_FuncInfo@@H@Z 00000001800368c0 f   libvcruntime:frame.obj
 0001:00035a4c       ?FrameUnwindToState@__FrameHandler4@@SAXPEA_KPEAU_xDISPATCHER_CONTEXT@@PEAUFuncInfo4@FH4@@H@Z 0000000180036a4c f   libvcruntime:frame.obj
 0001:00035d34       ?GetHandlerSearchState@__FrameHandler3@@SAHPEA_KPEAU_xDISPATCHER_CONTEXT@@PEBU_s_FuncInfo@@@Z 0000000180036d34 f i libvcruntime:frame.obj
 0001:00035f44       ?ReadEntry@UWMap4@FH4@@AEAAXPEAPEAE@Z 0000000180036f44 f i libvcruntime:frame.obj
 0001:00035fe4       ?_CallMemberFunction1@@YAXQEAX00@Z 0000000180036fe4 f i libvcruntime:frame.obj
 0001:00035ff0       ?_CallMemberFunction2@@YAXQEAX00H@Z 0000000180036ff0 f i libvcruntime:frame.obj
 0001:00036000       ?getStartStop@UWMap4@FH4@@QEAAXHHAEAViterator@12@0@Z 0000000180037000 f i libvcruntime:frame.obj
 0001:000360d0       ?getStateFromIterators@UWMap4@FH4@@SAHAEBViterator@12@H0H0@Z 00000001800370d0 f i libvcruntime:frame.obj
 0001:00036198       ?what@exception@std@@UEBAPEBDXZ 0000000180037198 f i libvcruntime:frame.obj
 0001:000361c0       _CallSettingFrame          00000001800371c0 f   libvcruntime:handlers.obj
 0001:00036210       _CallSettingFrame_LookupContinuationIndex 0000000180037210 f   libvcruntime:handlers.obj
 0001:00036240       _CallSettingFrame_NotifyContinuationAddr 0000000180037240 f   libvcruntime:handlers.obj
 0001:00036270       _CallSettingFrameEncoded   0000000180037270 f   libvcruntime:handlers.obj
 0001:000362b8       __std_exception_copy       00000001800372b8 f   libvcruntime:std_exception.obj
 0001:00036348       __std_exception_destroy    0000000180037348 f   libvcruntime:std_exception.obj
 0001:00036370       _CxxThrowException         0000000180037370 f   libvcruntime:throw.obj
 0001:00036420       strcmp                     0000000180037420 f   libucrt:strcmp.obj
 0001:00036488       atan2f                     0000000180037488 f   libucrt:atan2f.obj
 0001:00036880       cosf                       0000000180037880 f   libucrt:cosf.obj
 0001:00036d80       sinf                       0000000180037d80 f   libucrt:sinf.obj
 0001:00037478       _fpclass                   0000000180038478 f   libucrt:ieeemisc.obj
 0001:00037500       free                       0000000180038500 f   libucrt:free.obj
 0001:00037514       _initterm                  0000000180038514 f   libucrt:initterm.obj
 0001:00037558       _initterm_e                0000000180038558 f   libucrt:initterm.obj
 0001:000375a0       _seh_filter_dll            00000001800385a0 f   libucrt:exception_filter.obj
 0001:000375b4       _seh_filter_exe            00000001800385b4 f   libucrt:exception_filter.obj
 0001:000379d8       __acrt_initialize_thread_local_exit_callback 00000001800389d8 f   libucrt:exit.obj
 0001:000379e0       _cexit                     00000001800389e0 f   libucrt:exit.obj
 0001:000379f0       _exit                      00000001800389f0 f   libucrt:exit.obj
 0001:000379fc       _is_c_termination_complete 00000001800389fc f   libucrt:exit.obj
 0001:00037bc4       __acrt_allocate_buffer_for_argv 0000000180038bc4 f   libucrt:argv_parsing.obj
 0001:00037c24       _configure_narrow_argv     0000000180038c24 f   libucrt:argv_parsing.obj
 0001:00037fac       __dcrt_uninitialize_environments_nolock 0000000180038fac f   libucrt:environment_initialization.obj
 0001:00037ff0       _initialize_narrow_environment 0000000180038ff0 f   libucrt:environment_initialization.obj
 0001:00038154       _execute_onexit_table      0000000180039154 f   libucrt:onexit.obj
 0001:00038198       _initialize_onexit_table   0000000180039198 f   libucrt:onexit.obj
 0001:000381f8       __acrt_uninitialize_command_line 00000001800391f8 f   libucrt:argv_data.obj
 0001:000382f0       __acrt_initialize          00000001800392f0 f   libucrt:initialization.obj
 0001:00038304       __acrt_thread_attach       0000000180039304 f   libucrt:initialization.obj
 0001:00038318       __acrt_thread_detach       0000000180039318 f   libucrt:initialization.obj
 0001:00038328       __acrt_uninitialize        0000000180039328 f   libucrt:initialization.obj
 0001:00038360       __acrt_uninitialize_critical 0000000180039360 f   libucrt:initialization.obj
 0001:00038370       terminate                  0000000180039370 f   libucrt:terminate.obj
 0001:0003839c       abort                      000000018003939c f   libucrt:abort.obj
 0001:000383f4       malloc                     00000001800393f4 f   libucrt:malloc.obj
 0001:000383fc       strcpy_s                   00000001800393fc f   libucrt:strcpy_s.obj
 0001:0003860c       ??$ensure_buffer_is_big_enough@D@formatting_buffer@__crt_stdio_output@@QEAA_N_KAEAV__crt_cached_ptd_host@@@Z 000000018003960c f i libucrt:output.obj
 0001:000386b4       ??$parse_integer@KV?$c_string_character_source@D@__crt_strtox@@$0A@@__crt_strtox@@YAKAEAV__crt_cached_ptd_host@@V?$c_string_character_source@D@0@H_N@Z 00000001800396b4 f i libucrt:output.obj
 0001:00038964       ??$type_case_integer@$07@?$output_processor@DV?$string_output_adapter@D@__crt_stdio_output@@V?$format_validation_base@DV?$string_output_adapter@D@__crt_stdio_output@@@2@@__crt_stdio_output@@AEAA_N_N@Z 0000000180039964 f i libucrt:output.obj
 0001:00038b4c       ??$type_case_integer@$09@?$output_processor@DV?$string_output_adapter@D@__crt_stdio_output@@V?$format_validation_base@DV?$string_output_adapter@D@__crt_stdio_output@@@2@@__crt_stdio_output@@AEAA_N_N@Z 0000000180039b4c f i libucrt:output.obj
 0001:00038d34       ??$type_case_integer@$0BA@@?$output_processor@DV?$string_output_adapter@D@__crt_stdio_output@@V?$format_validation_base@DV?$string_output_adapter@D@__crt_stdio_output@@@2@@__crt_stdio_output@@AEAA_N_N@Z 0000000180039d34 f i libucrt:output.obj
 0001:00038f1c       ??$type_case_integer_parse_into_buffer@I$07@?$output_processor@DV?$string_output_adapter@D@__crt_stdio_output@@V?$format_validation_base@DV?$string_output_adapter@D@__crt_stdio_output@@@2@@__crt_stdio_output@@AEAAXI_N@Z 0000000180039f1c f i libucrt:output.obj
 0001:00038f98       ??$type_case_integer_parse_into_buffer@I$09@?$output_processor@DV?$string_output_adapter@D@__crt_stdio_output@@V?$format_validation_base@DV?$string_output_adapter@D@__crt_stdio_output@@@2@@__crt_stdio_output@@AEAAXI_N@Z 0000000180039f98 f i libucrt:output.obj
 0001:00039040       ??$type_case_integer_parse_into_buffer@I$0BA@@?$output_processor@DV?$string_output_adapter@D@__crt_stdio_output@@V?$format_validation_base@DV?$string_output_adapter@D@__crt_stdio_output@@@2@@__crt_stdio_output@@AEAAXI_N@Z 000000018003a040 f i libucrt:output.obj
 0001:000390cc       ??$type_case_integer_parse_into_buffer@_K$07@?$output_processor@DV?$string_output_adapter@D@__crt_stdio_output@@V?$format_validation_base@DV?$string_output_adapter@D@__crt_stdio_output@@@2@@__crt_stdio_output@@AEAAX_K_N@Z 000000018003a0cc f i libucrt:output.obj
 0001:00039148       ??$type_case_integer_parse_into_buffer@_K$09@?$output_processor@DV?$string_output_adapter@D@__crt_stdio_output@@V?$format_validation_base@DV?$string_output_adapter@D@__crt_stdio_output@@@2@@__crt_stdio_output@@AEAAX_K_N@Z 000000018003a148 f i libucrt:output.obj
 0001:000391f4       ??$type_case_integer_parse_into_buffer@_K$0BA@@?$output_processor@DV?$string_output_adapter@D@__crt_stdio_output@@V?$format_validation_base@DV?$string_output_adapter@D@__crt_stdio_output@@@2@@__crt_stdio_output@@AEAAX_K_N@Z 000000018003a1f4 f i libucrt:output.obj
 0001:00039280       ?crop_zeroes@__crt_stdio_output@@YAXPEADQEAU__crt_locale_pointers@@@Z 000000018003a280 f i libucrt:output.obj
 0001:000392f0       ?get_raw_ptd@__crt_cached_ptd_host@@QEAAPEAU__acrt_ptd@@XZ 000000018003a2f0 f i libucrt:output.obj
 0001:00039358       ?parse_int_from_format_string@?$output_processor@DV?$string_output_adapter@D@__crt_stdio_output@@V?$format_validation_base@DV?$string_output_adapter@D@__crt_stdio_output@@@2@@__crt_stdio_output@@AEAA_NQEAH@Z 000000018003a358 f i libucrt:output.obj
 0001:000393e8       ?process@?$output_processor@DV?$string_output_adapter@D@__crt_stdio_output@@V?$format_validation_base@DV?$string_output_adapter@D@__crt_stdio_output@@@2@@__crt_stdio_output@@QEAAHXZ 000000018003a3e8 f i libucrt:output.obj
 0001:00039778       ?state_case_size@?$output_processor@DV?$string_output_adapter@D@__crt_stdio_output@@V?$format_validation_base@DV?$string_output_adapter@D@__crt_stdio_output@@@2@@__crt_stdio_output@@AEAA_NXZ 000000018003a778 f i libucrt:output.obj
 0001:000398fc       ?state_case_type@?$output_processor@DV?$string_output_adapter@D@__crt_stdio_output@@V?$format_validation_base@DV?$string_output_adapter@D@__crt_stdio_output@@@2@@__crt_stdio_output@@AEAA_NXZ 000000018003a8fc f i libucrt:output.obj
 0001:00039cc8       ?type_case_Z@?$output_processor@DV?$string_output_adapter@D@__crt_stdio_output@@V?$format_validation_base@DV?$string_output_adapter@D@__crt_stdio_output@@@2@@__crt_stdio_output@@AEAA_NXZ 000000018003acc8 f i libucrt:output.obj
 0001:00039d40       ?type_case_a@?$output_processor@DV?$string_output_adapter@D@__crt_stdio_output@@V?$format_validation_base@DV?$string_output_adapter@D@__crt_stdio_output@@@2@@__crt_stdio_output@@AEAA_NXZ 000000018003ad40 f i libucrt:output.obj
 0001:00039f8c       ?type_case_c_tchar@?$output_processor@DV?$string_output_adapter@D@__crt_stdio_output@@V?$format_validation_base@DV?$string_output_adapter@D@__crt_stdio_output@@@2@@__crt_stdio_output@@AEAA_ND@Z 000000018003af8c f i libucrt:output.obj
 0001:0003a050       ?type_case_n@?$output_processor@DV?$string_output_adapter@D@__crt_stdio_output@@V?$format_validation_base@DV?$string_output_adapter@D@__crt_stdio_output@@@2@@__crt_stdio_output@@AEAA_NXZ 000000018003b050 f i libucrt:output.obj
 0001:0003a104       ?type_case_s@?$output_processor@DV?$string_output_adapter@D@__crt_stdio_output@@V?$format_validation_base@DV?$string_output_adapter@D@__crt_stdio_output@@@2@@__crt_stdio_output@@AEAA_NXZ 000000018003b104 f i libucrt:output.obj
 0001:0003a1a0       ?update_locale_slow@__crt_cached_ptd_host@@AEAAXXZ 000000018003b1a0 f i libucrt:output.obj
 0001:0003a218       ?write_string@?$string_output_adapter@D@__crt_stdio_output@@QEBAXQEBDHQEAHAEAV__crt_cached_ptd_host@@@Z 000000018003b218 f i libucrt:output.obj
 0001:0003a2bc       __stdio_common_vsprintf_s  000000018003b2bc f   libucrt:output.obj
 0001:0003a3d0       ??$parse_integer@KV?$c_string_character_source@D@__crt_strtox@@$00@__crt_strtox@@YAKAEAV__crt_cached_ptd_host@@V?$c_string_character_source@D@0@H_N@Z 000000018003b3d0 f i libucrt:atox.obj
 0001:0003a6b0       _ischartype_l              000000018003b6b0 f i libucrt:atox.obj
 0001:0003a728       atol                       000000018003b728 f   libucrt:atox.obj
 0001:0003a7f0       strncmp                    000000018003b7f0 f   libucrt:strncmp.obj
 0001:0003a870       calloc                     000000018003b870 f   libucrt:calloc.obj
 0001:0003a878       wcsncmp                    000000018003b878 f   libucrt:wcsncmp.obj
 0001:0003a8a4       _clrfp                     000000018003b8a4 f   libucrt:fpctrl.obj
 0001:0003a8c4       _ctrlfp                    000000018003b8c4 f   libucrt:fpctrl.obj
 0001:0003a940       _set_statfp                000000018003b940 f   libucrt:fpctrl.obj
 0001:0003a960       _statfp                    000000018003b960 f   libucrt:fpctrl.obj
 0001:0003aa98       _handle_error              000000018003ba98 f   libucrt:libm_error.obj
 0001:0003abc0       _handle_errorf             000000018003bbc0 f   libucrt:libm_error.obj
 0001:0003acf4       _handle_nan                000000018003bcf4 f   libucrt:libm_error.obj
 0001:0003ad10       _handle_nanf               000000018003bd10 f   libucrt:libm_error.obj
 0001:0003ad20       __remainder_piby2d2f_forAsm 000000018003bd20 f   libucrt:remainder_piby2f_forasm.obj
 0001:0003ae70       __remainder_piby2_fma3     000000018003be70 f   libucrt:remainder_piby2_forfma3.obj
 0001:0003b060       __remainder_piby2_fma3_bdl 000000018003c060 f   libucrt:remainder_piby2_forfma3.obj
 0001:0003b0d8       _cosf_special              000000018003c0d8 f   libucrt:sincos_special.obj
 0001:0003b178       _sinf_special              000000018003c178 f   libucrt:sincos_special.obj
 0001:0003b190       __acrt_initialize_fma3     000000018003c190 f   libucrt:fma3_available.obj
 0001:0003b200       __remainder_piby2d2f_forC  000000018003c200 f   libucrt:remainder_piby2f_forc.obj
 0001:0003b38c       _free_base                 000000018003c38c f   libucrt:free_base.obj
 0001:0003b740       __acrt_freeptd             000000018003c740 f   libucrt:per_thread_data.obj
 0001:0003b784       __acrt_getptd              000000018003c784 f   libucrt:per_thread_data.obj
 0001:0003b858       __acrt_getptd_head         000000018003c858 f   libucrt:per_thread_data.obj
 0001:0003b8fc       __acrt_getptd_noexit       000000018003c8fc f   libucrt:per_thread_data.obj
 0001:0003b9c4       __acrt_getptd_noexit_explicit 000000018003c9c4 f   libucrt:per_thread_data.obj
 0001:0003ba84       __acrt_initialize_ptd      000000018003ca84 f   libucrt:per_thread_data.obj
 0001:0003bac0       __acrt_uninitialize_ptd    000000018003cac0 f   libucrt:per_thread_data.obj
 0001:0003bae4       __acrt_initialize_locks    000000018003cae4 f   libucrt:locks.obj
 0001:0003bb2c       __acrt_lock                000000018003cb2c f   libucrt:locks.obj
 0001:0003bb48       __acrt_uninitialize_locks  000000018003cb48 f   libucrt:locks.obj
 0001:0003bb80       __acrt_unlock              000000018003cb80 f   libucrt:locks.obj
 0001:0003bb9c       __acrt_get_process_end_policy 000000018003cb9c f   libucrt:win_policies.obj
 0001:0003bbd8       ?get_raw_ptd_noexit@__crt_cached_ptd_host@@QEAAPEAU__acrt_ptd@@XZ 000000018003cbd8 f i libucrt:invalid_parameter.obj
 0001:0003bc44       ?value@?$dual_state_global@P6AXPEB_W00I_K@Z@__crt_state_management@@QEAAAEAP6AXPEB_W00I_K@ZAEAV__crt_cached_ptd_host@@@Z 000000018003cc44 f i libucrt:invalid_parameter.obj
 0001:0003bc90       __acrt_call_reportfault    000000018003cc90 f   libucrt:invalid_parameter.obj
 0001:0003bdec       __acrt_initialize_invalid_parameter_handler 000000018003cdec f   libucrt:invalid_parameter.obj
 0001:0003bdf4       _invalid_parameter         000000018003cdf4 f   libucrt:invalid_parameter.obj
 0001:0003be90       _invalid_parameter_internal 000000018003ce90 f   libucrt:invalid_parameter.obj
 0001:0003bf60       _invalid_parameter_noinfo  000000018003cf60 f   libucrt:invalid_parameter.obj
 0001:0003bf80       _invoke_watson             000000018003cf80 f   libucrt:invalid_parameter.obj
 0001:0003bfc8       __acrt_errno_from_os_error 000000018003cfc8 f   libucrt:errno.obj
 0001:0003c010       __acrt_errno_map_os_error  000000018003d010 f   libucrt:errno.obj
 0001:0003c058       __acrt_errno_map_os_error_ptd 000000018003d058 f   libucrt:errno.obj
 0001:0003c07c       __doserrno                 000000018003d07c f   libucrt:errno.obj
 0001:0003c09c       _errno                     000000018003d09c f   libucrt:errno.obj
 0001:0003c0bc       _calloc_base               000000018003d0bc f   libucrt:calloc_base.obj
 0001:0003c148       ??$__acrt_convert_wcs_mbs_cp@D_WV<lambda_7c9dea7b4ca7285d2cdb541a38da6275>@@U__crt_win32_buffer_internal_dynamic_resizing@@@@YAHQEBDAEAV?$__crt_win32_buffer@_WU__crt_win32_buffer_internal_dynamic_resizing@@@@AEBV<lambda_7c9dea7b4ca7285d2cdb541a38da6275>@@I@Z 000000018003d148 f i libucrt:argv_wildcards.obj
 0001:0003c2c4       ??$__acrt_convert_wcs_mbs_cp@_WDV<lambda_d8593a27d1aa8c02be35c86a17d324c4>@@U__crt_win32_buffer_internal_dynamic_resizing@@@@YAHQEB_WAEAV?$__crt_win32_buffer@DU__crt_win32_buffer_internal_dynamic_resizing@@@@AEBV<lambda_d8593a27d1aa8c02be35c86a17d324c4>@@I@Z 000000018003d2c4 f i libucrt:argv_wildcards.obj
 0001:0003cb6c       ??0_LocaleUpdate@@QEAA@QEAU__crt_locale_pointers@@@Z 000000018003db6c f i libucrt:argv_wildcards.obj
 0001:0003cc08       __acrt_expand_narrow_argv_wildcards 000000018003dc08 f   libucrt:argv_wildcards.obj
 0001:0003cc10       ??$__acrt_convert_wcs_mbs_cp@_WDV<lambda_f788ae46380686e8b737efdd8c720d07>@@U__crt_win32_buffer_no_resizing@@@@YAHQEB_WAEAV?$__crt_win32_buffer@DU__crt_win32_buffer_no_resizing@@@@AEBV<lambda_f788ae46380686e8b737efdd8c720d07>@@I@Z 000000018003dc10 f i libucrt:getmodulefilenamea.obj
 0001:0003cd2c       __acrt_GetModuleFileNameA  000000018003dd2c f   libucrt:getmodulefilenamea.obj
 0001:0003d648       __acrt_initialize_multibyte 000000018003e648 f   libucrt:mbctype.obj
 0001:0003d6a8       __acrt_update_thread_multibyte_data 000000018003e6a8 f   libucrt:mbctype.obj
 0001:0003d6c4       _setmbcp_nolock            000000018003e6c4 f   libucrt:mbctype.obj
 0001:0003d9f8       _ismbblead                 000000018003e9f8 f   libucrt:ismbbyte.obj
 0001:0003da0c       __acrt_initialize_command_line 000000018003ea0c f   libucrt:argv_data.obj
 0001:0003da34       __acrt_MultiByteToWideChar 000000018003ea34 f   libucrt:multibytetowidechar.obj
 0001:0003da90       __acrt_WideCharToMultiByte 000000018003ea90 f   libucrt:widechartomultibyte.obj
 0001:0003db40       __dcrt_get_narrow_environment_from_os 000000018003eb40 f   libucrt:get_environment_from_os.obj
 0001:0003dc50       _recalloc_base             000000018003ec50 f   libucrt:recalloc.obj
 0001:0003dea8       __acrt_AppPolicyGetProcessTerminationMethodInternal 000000018003eea8 f   libucrt:winapi_thunks.obj
 0001:0003df00       __acrt_AreFileApisANSI     000000018003ef00 f   libucrt:winapi_thunks.obj
 0001:0003df44       __acrt_FlsAlloc            000000018003ef44 f   libucrt:winapi_thunks.obj
 0001:0003df4c       __acrt_FlsFree             000000018003ef4c f   libucrt:winapi_thunks.obj
 0001:0003df54       __acrt_FlsGetValue         000000018003ef54 f   libucrt:winapi_thunks.obj
 0001:0003df5c       __acrt_FlsSetValue         000000018003ef5c f   libucrt:winapi_thunks.obj
 0001:0003df64       __acrt_InitializeCriticalSectionEx 000000018003ef64 f   libucrt:winapi_thunks.obj
 0001:0003dfd4       __acrt_LCMapStringEx       000000018003efd4 f   libucrt:winapi_thunks.obj
 0001:0003e0c0       __acrt_LocaleNameToLCID    000000018003f0c0 f   libucrt:winapi_thunks.obj
 0001:0003e120       __acrt_initialize_winapi_thunks 000000018003f120 f   libucrt:winapi_thunks.obj
 0001:0003e144       __acrt_uninitialize_winapi_thunks 000000018003f144 f   libucrt:winapi_thunks.obj
 0001:0003e188       __acrt_initialize_heap     000000018003f188 f   libucrt:heap_handle.obj
 0001:0003e1a4       __acrt_uninitialize_heap   000000018003f1a4 f   libucrt:heap_handle.obj
 0001:0003e3a8       __acrt_initialize_lowio    000000018003f3a8 f   libucrt:ioinit.obj
 0001:0003e3e4       __acrt_uninitialize_lowio  000000018003f3e4 f   libucrt:ioinit.obj
 0001:0003e424       __acrt_execute_initializers 000000018003f424 f   libucrt:shared_initialization.obj
 0001:0003e4b8       __acrt_execute_uninitializers 000000018003f4b8 f   libucrt:shared_initialization.obj
 0001:0003e500       __acrt_initialize_new_handler 000000018003f500 f   libucrt:new_handler.obj
 0001:0003e508       _callnewh                  000000018003f508 f   libucrt:new_handler.obj
 0001:0003e544       _query_new_handler         000000018003f544 f   libucrt:new_handler.obj
 0001:0003e5c0       __acrt_get_sigabrt_handler 000000018003f5c0 f   libucrt:signal.obj
 0001:0003e5f0       __acrt_initialize_signal_handlers 000000018003f5f0 f   libucrt:signal.obj
 0001:0003e610       raise                      000000018003f610 f   libucrt:signal.obj
 0001:0003e890       __acrt_has_user_matherr    000000018003f890 f   libucrt:matherr.obj
 0001:0003e8b0       __acrt_initialize_user_matherr 000000018003f8b0 f   libucrt:matherr.obj
 0001:0003e8b8       __acrt_invoke_user_matherr 000000018003f8b8 f   libucrt:matherr.obj
 0001:0003eacc       __acrt_stdio_flush_nolock  000000018003facc f   libucrt:fflush.obj
 0001:0003eb58       _fflush_nolock             000000018003fb58 f   libucrt:fflush.obj
 0001:0003ec2c       _flushall                  000000018003fc2c f   libucrt:fflush.obj
 0001:0003ec34       __acrt_initialize_stdio    000000018003fc34 f   libucrt:_file.obj
 0001:0003ed54       __acrt_uninitialize_stdio  000000018003fd54 f   libucrt:_file.obj
 0001:0003edb0       _lock_file                 000000018003fdb0 f   libucrt:_file.obj
 0001:0003edbc       _unlock_file               000000018003fdbc f   libucrt:_file.obj
 0001:0003edc8       _malloc_base               000000018003fdc8 f   libucrt:malloc_base.obj
 0001:0003ee28       strnlen                    000000018003fe28 f   libucrt:strnlen.obj
 0001:0003ef78       wcsnlen                    000000018003ff78 f   libucrt:strnlen.obj
 0001:0003f150       __acrt_update_locale_info  0000000180040150 f   libucrt:locale_update.obj
 0001:0003f184       __acrt_update_locale_info_explicit 0000000180040184 f   libucrt:locale_update.obj
 0001:0003f1bc       __acrt_update_multibyte_info 00000001800401bc f   libucrt:locale_update.obj
 0001:0003f1f0       __acrt_update_multibyte_info_explicit 00000001800401f0 f   libucrt:locale_update.obj
 0001:0003fd58       __acrt_fp_format           0000000180040d58 f   libucrt:cvt.obj
 0001:00040040       _wctomb_internal           0000000180041040 f   libucrt:wctomb.obj
 0001:000401f0       _mbtowc_internal           00000001800411f0 f   libucrt:mbtowc.obj
 0001:00040368       _fileno                    0000000180041368 f   libucrt:fileno.obj
 0001:00040390       _get_printf_count_output   0000000180041390 f   libucrt:printf_count_output.obj
 0001:00040418       __acrt_set_locale_changed  0000000180041418 f   libucrt:wsetlocale.obj
 0001:00040424       __acrt_uninitialize_locale 0000000180041424 f   libucrt:wsetlocale.obj
 0001:00040454       __pctype_func              0000000180041454 f   libucrt:ctype.obj
 0001:00040484       _isctype_l                 0000000180041484 f   libucrt:isctype.obj
 0001:000405a0       _get_fpsr                  00000001800415a0 f   libucrt:fpsr.obj
 0001:000405b0       _set_fpsr                  00000001800415b0 f   libucrt:fpsr.obj
 0001:000405ba       _fclrf                     00000001800415ba f   libucrt:fpsr.obj
 0001:000405ce       _frnd                      00000001800415ce f   libucrt:fpsr.obj
 0001:000405f0       _raise_exc                 00000001800415f0 f   libucrt:fpexcept.obj
 0001:00040618       _raise_exc_ex              0000000180041618 f   libucrt:fpexcept.obj
 0001:00040928       _raise_excf                0000000180041928 f   libucrt:fpexcept.obj
 0001:00040954       _set_errno_from_matherr    0000000180041954 f   libucrt:fpexcept.obj
 0001:00040984       __acrt_add_locale_ref      0000000180041984 f   libucrt:locale_refcounting.obj
 0001:00040a10       __acrt_free_locale         0000000180041a10 f   libucrt:locale_refcounting.obj
 0001:00040b88       __acrt_locale_add_lc_time_reference 0000000180041b88 f   libucrt:locale_refcounting.obj
 0001:00040bb0       __acrt_locale_free_lc_time_if_unreferenced 0000000180041bb0 f   libucrt:locale_refcounting.obj
 0001:00040be8       __acrt_locale_release_lc_time_reference 0000000180041be8 f   libucrt:locale_refcounting.obj
 0001:00040c10       __acrt_release_locale_ref  0000000180041c10 f   libucrt:locale_refcounting.obj
 0001:00040cb8       __acrt_update_thread_locale_data 0000000180041cb8 f   libucrt:locale_refcounting.obj
 0001:00040d28       _updatetlocinfoEx_nolock   0000000180041d28 f   libucrt:locale_refcounting.obj
 0001:00040d90       _query_new_mode            0000000180041d90 f   libucrt:new_mode.obj
 0001:00040da0       qsort                      0000000180041da0 f   libucrt:qsort.obj
 0001:000411b0       strncpy_s                  00000001800421b0 f   libucrt:strncpy_s.obj
 0001:00041340       strpbrk                    0000000180042340 f   libucrt:strpbrk.obj
 0001:00041708       _mbsdec                    0000000180042708 f   libucrt:mbsdec.obj
 0001:00041710       _mbsdec_l                  0000000180042710 f   libucrt:mbsdec.obj
 0001:000417a4       __acrt_GetStringTypeA      00000001800427a4 f   libucrt:getstringtypea.obj
 0001:00041c60       __acrt_LCMapStringA        0000000180042c60 f   libucrt:lcmapstringa.obj
 0001:00041d10       _msize_base                0000000180042d10 f   libucrt:msize.obj
 0001:00041d4c       _realloc_base              0000000180042d4c f   libucrt:realloc_base.obj
 0001:00041dc8       __acrt_DownlevelLocaleNameToLCID 0000000180042dc8 f   libucrt:lcidtoname_downlevel.obj
 0001:00041e70       __acrt_lowio_create_handle_array 0000000180042e70 f   libucrt:osfinfo.obj
 0001:00041f18       __acrt_lowio_destroy_handle_array 0000000180042f18 f   libucrt:osfinfo.obj
 0001:00041f68       __acrt_lowio_ensure_fh_exists 0000000180042f68 f   libucrt:osfinfo.obj
 0001:00042010       __acrt_lowio_lock_fh       0000000180043010 f   libucrt:osfinfo.obj
 0001:00042038       __acrt_lowio_unlock_fh     0000000180043038 f   libucrt:osfinfo.obj
 0001:00042060       _free_osfhnd               0000000180043060 f   libucrt:osfinfo.obj
 0001:0004211c       _get_osfhandle             000000018004311c f   libucrt:osfinfo.obj
 0001:00042220       _commit                    0000000180043220 f   libucrt:commit.obj
 0001:00042ad0       _write_internal            0000000180043ad0 f   libucrt:write.obj
 0001:00042bf8       _write_nolock              0000000180043bf8 f   libucrt:write.obj
 0001:00042f08       _fcloseall                 0000000180043f08 f   libucrt:closeall.obj
 0001:00042fbc       __acrt_stdio_free_buffer_nolock 0000000180043fbc f   libucrt:_freebuf.obj
 0001:00042ffc       _isatty                    0000000180043ffc f   libucrt:isatty.obj
 0001:0004305c       __acrt_fp_strflt_to_string 000000018004405c f   libucrt:_fptostr.obj
 0001:000431e0       ?divide@__crt_strtox@@YA_KAEAUbig_integer@1@AEBU21@@Z 00000001800441e0 f i libucrt:cfout.obj
 0001:0004366c       __acrt_fltout              000000018004466c f   libucrt:cfout.obj
 0001:00044934       fegetround                 0000000180045934 f   libucrt:fegetround.obj
 0001:00044948       ?__c32rtomb_utf8@__crt_mbstring@@YA_KPEAD_UPEAU_Mbstatet@@AEAV__crt_cached_ptd_host@@@Z 0000000180045948 f   libucrt:c32rtomb.obj
 0001:000449ec       ?__mbrtowc_utf8@__crt_mbstring@@YA_KPEA_WPEBD_KPEAU_Mbstatet@@AEAV__crt_cached_ptd_host@@@Z 00000001800459ec f   libucrt:mbrtowc.obj
 0001:00044a30       ?__mbsrtowcs_utf8@__crt_mbstring@@YA_KPEA_WPEAPEBD_KPEAU_Mbstatet@@AEAV__crt_cached_ptd_host@@@Z 0000000180045a30 f   libucrt:mbrtowc.obj
 0001:00044bd4       __acrt_locale_free_monetary 0000000180045bd4 f   libucrt:initmon.obj
 0001:00044ce0       __acrt_locale_free_numeric 0000000180045ce0 f   libucrt:initnum.obj
 0001:00044d80       __acrt_locale_free_time    0000000180045d80 f   libucrt:inittime.obj
 0001:00044e88       __strncnt                  0000000180045e88 f   libucrt:strncnt.obj
 0001:00044ea0       __ascii_wcsnicmp           0000000180045ea0 f   libucrt:wcsnicmp.obj
 0001:00044eec       _query_app_type            0000000180045eec f   libucrt:report_runtime_error.obj
 0001:00044fa0       _lseeki64_nolock_internal  0000000180045fa0 f   libucrt:lseek.obj
 0001:00044fa8       _putwch_nolock             0000000180045fa8 f   libucrt:putwch.obj
 0001:00045104       fclose                     0000000180046104 f   libucrt:fclose.obj
 0001:0004519c       _controlfp_s               000000018004619c f   libucrt:contrlfp.obj
 0001:00045200       fegetenv                   0000000180046200 f   libucrt:fegetenv.obj
 0001:00045220       fesetenv                   0000000180046220 f   libucrt:fesetenv.obj
 0001:0004526c       feholdexcept               000000018004626c f   libucrt:feholdexcept.obj
 0001:000452bc       ceil                       00000001800462bc f   libucrt:ceil.obj
 0001:00045380       log10                      0000000180046380 f   libucrt:log10.obj
 0001:0004592c       __acrt_fenv_get_common_round_control 000000018004692c f   libucrt:_fenvutils.obj
 0001:00045938       __acrt_fenv_get_control    0000000180046938 f   libucrt:_fenvutils.obj
 0001:00045a1c       __acrt_fenv_get_status     0000000180046a1c f   libucrt:_fenvutils.obj
 0001:00045a74       __acrt_fenv_set_control    0000000180046a74 f   libucrt:_fenvutils.obj
 0001:00045bb0       __acrt_fenv_set_status     0000000180046bb0 f   libucrt:_fenvutils.obj
 0001:00045c24       ?reset_and_return@__crt_mbstring@@YA_K_KPEAU_Mbstatet@@@Z 0000000180046c24 f   libucrt:common_utf8.obj
 0001:00045c2c       ?return_illegal_sequence@__crt_mbstring@@YA_KPEAU_Mbstatet@@AEAV__crt_cached_ptd_host@@@Z 0000000180046c2c f   libucrt:common_utf8.obj
 0001:00045c40       ?__mbrtoc32_utf8@__crt_mbstring@@YA_KPEA_UPEBD_KPEAU_Mbstatet@@AEAV__crt_cached_ptd_host@@@Z 0000000180046c40 f   libucrt:mbrtoc32.obj
 0001:00045e1c       __dcrt_lowio_ensure_console_output_initialized 0000000180046e1c f   libucrt:initcon.obj
 0001:00045e70       __dcrt_terminate_console_output 0000000180046e70 f   libucrt:initcon.obj
 0001:00045e8c       __dcrt_write_console       0000000180046e8c f   libucrt:initcon.obj
 0001:00045fc4       _close_internal            0000000180046fc4 f   libucrt:close.obj
 0001:00046088       _close_nolock_internal     0000000180047088 f   libucrt:close.obj
 0001:00046158       ?__acrt_stdio_free_stream@@YAXV__crt_stdio_stream@@@Z 0000000180047158 f   libucrt:stream.obj
 0001:00046174       _clearfp                   0000000180047174 f   libucrt:ieee.obj
 0001:000461e4       _control87                 00000001800471e4 f   libucrt:ieee.obj
 0001:000464b0       _log10_special             00000001800474b0 f   libucrt:log_special.obj
 0001:00046570       _FindPESection             0000000180047570 f   LIBCMT:pesect.obj
 0001:000465c0       _IsNonwritableInCurrentImage 00000001800475c0 f   LIBCMT:pesect.obj
 0001:00046610       _ValidateImageBase         0000000180047610 f   LIBCMT:pesect.obj
 0001:00046640       __GSHandlerCheck           0000000180047640 f   LIBCMT:gshandler.obj
 0001:00046660       __GSHandlerCheckCommon     0000000180047660 f   LIBCMT:gshandler.obj
 0001:000466d0       __security_check_cookie    00000001800476d0 f   LIBCMT:amdsecgs.obj
 0001:000466f0       __GSHandlerCheck_SEH       00000001800476f0 f   LIBCMT:gshandlerseh.obj
 0001:00046778       __raise_securityfailure    0000000180047778 f   LIBCMT:gs_report.obj
 0001:000467ac       __report_gsfailure         00000001800477ac f   LIBCMT:gs_report.obj
 0001:00046880       __report_rangecheckfailure 0000000180047880 f   LIBCMT:gs_report.obj
 0001:00046894       __report_securityfailure   0000000180047894 f   LIBCMT:gs_report.obj
 0001:00046a14       __GSHandlerCheck_EH        0000000180047a14 f   LIBCMT:gshandlereh.obj
 0001:00046a94       __C_specific_handler_noexcept 0000000180047a94 f   libvcruntime:chandler_noexcept.obj
 0001:00046ae0       strrchr                    0000000180047ae0 f   libvcruntime:strrchr.obj
 0001:00046c20       memcmp                     0000000180047c20 f   libvcruntime:memcmp.obj
 0001:00046d00       _guard_dispatch_icall_nop  0000000180047d00 f   LIBCMT:guard_dispatch.obj
 0001:00046d20       _guard_xfg_dispatch_icall_nop 0000000180047d20 f   LIBCMT:guard_xfg_dispatch.obj
 0002:00000000       __imp_LoadLibraryA         0000000180049000     kernel32:KERNEL32.dll
 0002:00000008       __imp_WriteConsoleW        0000000180049008     kernel32:KERNEL32.dll
 0002:00000010       __imp_RaiseException       0000000180049010     kernel32:KERNEL32.dll
 0002:00000018       __imp_GetLastError         0000000180049018     kernel32:KERNEL32.dll
 0002:00000020       __imp_GetSystemInfo        0000000180049020     kernel32:KERNEL32.dll
 0002:00000028       __imp_VirtualProtect       0000000180049028     kernel32:KERNEL32.dll
 0002:00000030       __imp_VirtualQuery         0000000180049030     kernel32:KERNEL32.dll
 0002:00000038       __imp_FreeLibrary          0000000180049038     kernel32:KERNEL32.dll
 0002:00000040       __imp_GetModuleHandleW     0000000180049040     kernel32:KERNEL32.dll
 0002:00000048       __imp_GetProcAddress       0000000180049048     kernel32:KERNEL32.dll
 0002:00000050       __imp_LoadLibraryExA       0000000180049050     kernel32:KERNEL32.dll
 0002:00000058       __imp_InitializeSListHead  0000000180049058     kernel32:KERNEL32.dll
 0002:00000060       __imp_QueryPerformanceCounter 0000000180049060     kernel32:KERNEL32.dll
 0002:00000068       __imp_GetCurrentProcessId  0000000180049068     kernel32:KERNEL32.dll
 0002:00000070       __imp_GetCurrentThreadId   0000000180049070     kernel32:KERNEL32.dll
 0002:00000078       __imp_GetSystemTimeAsFileTime 0000000180049078     kernel32:KERNEL32.dll
 0002:00000080       __imp_RtlCaptureContext    0000000180049080     kernel32:KERNEL32.dll
 0002:00000088       __imp_RtlLookupFunctionEntry 0000000180049088     kernel32:KERNEL32.dll
 0002:00000090       __imp_RtlVirtualUnwind     0000000180049090     kernel32:KERNEL32.dll
 0002:00000098       __imp_IsDebuggerPresent    0000000180049098     kernel32:KERNEL32.dll
 0002:000000a0       __imp_UnhandledExceptionFilter 00000001800490a0     kernel32:KERNEL32.dll
 0002:000000a8       __imp_SetUnhandledExceptionFilter 00000001800490a8     kernel32:KERNEL32.dll
 0002:000000b0       __imp_GetStartupInfoW      00000001800490b0     kernel32:KERNEL32.dll
 0002:000000b8       __imp_IsProcessorFeaturePresent 00000001800490b8     kernel32:KERNEL32.dll
 0002:000000c0       __imp_InterlockedPushEntrySList 00000001800490c0     kernel32:KERNEL32.dll
 0002:000000c8       __imp_InterlockedFlushSList 00000001800490c8     kernel32:KERNEL32.dll
 0002:000000d0       __imp_RtlUnwindEx          00000001800490d0     kernel32:KERNEL32.dll
 0002:000000d8       __imp_SetLastError         00000001800490d8     kernel32:KERNEL32.dll
 0002:000000e0       __imp_EnterCriticalSection 00000001800490e0     kernel32:KERNEL32.dll
 0002:000000e8       __imp_LeaveCriticalSection 00000001800490e8     kernel32:KERNEL32.dll
 0002:000000f0       __imp_DeleteCriticalSection 00000001800490f0     kernel32:KERNEL32.dll
 0002:000000f8       __imp_InitializeCriticalSectionAndSpinCount 00000001800490f8     kernel32:KERNEL32.dll
 0002:00000100       __imp_TlsAlloc             0000000180049100     kernel32:KERNEL32.dll
 0002:00000108       __imp_TlsGetValue          0000000180049108     kernel32:KERNEL32.dll
 0002:00000110       __imp_TlsSetValue          0000000180049110     kernel32:KERNEL32.dll
 0002:00000118       __imp_TlsFree              0000000180049118     kernel32:KERNEL32.dll
 0002:00000120       __imp_LoadLibraryExW       0000000180049120     kernel32:KERNEL32.dll
 0002:00000128       __imp_EncodePointer        0000000180049128     kernel32:KERNEL32.dll
 0002:00000130       __imp_RtlPcToFileHeader    0000000180049130     kernel32:KERNEL32.dll
 0002:00000138       __imp_GetCurrentProcess    0000000180049138     kernel32:KERNEL32.dll
 0002:00000140       __imp_ExitProcess          0000000180049140     kernel32:KERNEL32.dll
 0002:00000148       __imp_TerminateProcess     0000000180049148     kernel32:KERNEL32.dll
 0002:00000150       __imp_GetModuleHandleExW   0000000180049150     kernel32:KERNEL32.dll
 0002:00000158       __imp_GetModuleFileNameW   0000000180049158     kernel32:KERNEL32.dll
 0002:00000160       __imp_HeapFree             0000000180049160     kernel32:KERNEL32.dll
 0002:00000168       __imp_HeapAlloc            0000000180049168     kernel32:KERNEL32.dll
 0002:00000170       __imp_FindClose            0000000180049170     kernel32:KERNEL32.dll
 0002:00000178       __imp_FindFirstFileExW     0000000180049178     kernel32:KERNEL32.dll
 0002:00000180       __imp_FindNextFileW        0000000180049180     kernel32:KERNEL32.dll
 0002:00000188       __imp_IsValidCodePage      0000000180049188     kernel32:KERNEL32.dll
 0002:00000190       __imp_GetACP               0000000180049190     kernel32:KERNEL32.dll
 0002:00000198       __imp_GetOEMCP             0000000180049198     kernel32:KERNEL32.dll
 0002:000001a0       __imp_GetCPInfo            00000001800491a0     kernel32:KERNEL32.dll
 0002:000001a8       __imp_GetCommandLineA      00000001800491a8     kernel32:KERNEL32.dll
 0002:000001b0       __imp_GetCommandLineW      00000001800491b0     kernel32:KERNEL32.dll
 0002:000001b8       __imp_MultiByteToWideChar  00000001800491b8     kernel32:KERNEL32.dll
 0002:000001c0       __imp_WideCharToMultiByte  00000001800491c0     kernel32:KERNEL32.dll
 0002:000001c8       __imp_GetEnvironmentStringsW 00000001800491c8     kernel32:KERNEL32.dll
 0002:000001d0       __imp_FreeEnvironmentStringsW 00000001800491d0     kernel32:KERNEL32.dll
 0002:000001d8       __imp_FlsAlloc             00000001800491d8     kernel32:KERNEL32.dll
 0002:000001e0       __imp_FlsGetValue          00000001800491e0     kernel32:KERNEL32.dll
 0002:000001e8       __imp_FlsSetValue          00000001800491e8     kernel32:KERNEL32.dll
 0002:000001f0       __imp_FlsFree              00000001800491f0     kernel32:KERNEL32.dll
 0002:000001f8       __imp_LCMapStringW         00000001800491f8     kernel32:KERNEL32.dll
 0002:00000200       __imp_GetProcessHeap       0000000180049200     kernel32:KERNEL32.dll
 0002:00000208       __imp_GetStdHandle         0000000180049208     kernel32:KERNEL32.dll
 0002:00000210       __imp_GetFileType          0000000180049210     kernel32:KERNEL32.dll
 0002:00000218       __imp_GetStringTypeW       0000000180049218     kernel32:KERNEL32.dll
 0002:00000220       __imp_HeapSize             0000000180049220     kernel32:KERNEL32.dll
 0002:00000228       __imp_HeapReAlloc          0000000180049228     kernel32:KERNEL32.dll
 0002:00000230       __imp_SetStdHandle         0000000180049230     kernel32:KERNEL32.dll
 0002:00000238       __imp_FlushFileBuffers     0000000180049238     kernel32:KERNEL32.dll
 0002:00000240       __imp_WriteFile            0000000180049240     kernel32:KERNEL32.dll
 0002:00000248       __imp_GetConsoleOutputCP   0000000180049248     kernel32:KERNEL32.dll
 0002:00000250       __imp_GetConsoleMode       0000000180049250     kernel32:KERNEL32.dll
 0002:00000258       __imp_SetFilePointerEx     0000000180049258     kernel32:KERNEL32.dll
 0002:00000260       __imp_CreateFileW          0000000180049260     kernel32:KERNEL32.dll
 0002:00000268       __imp_CloseHandle          0000000180049268     kernel32:KERNEL32.dll
 0002:00000270       \177KERNEL32_NULL_THUNK_DATA 0000000180049270     kernel32:KERNEL32.dll
 0002:00000278       __guard_check_icall_fptr   0000000180049278     LIBCMT:guard_support.obj
 0002:00000280       __guard_xfg_check_icall_fptr 0000000180049280     LIBCMT:guard_support.obj
 0002:00000288       __guard_dispatch_icall_fptr 0000000180049288     LIBCMT:guard_support.obj
 0002:00000290       __guard_xfg_dispatch_icall_fptr 0000000180049290     LIBCMT:guard_support.obj
 0002:00000298       __guard_xfg_table_dispatch_icall_fptr 0000000180049298     LIBCMT:guard_support.obj
 0002:000002a0       __xc_a                     00000001800492a0     LIBCMT:initializers.obj
 0002:00000488       __xc_z                     0000000180049488     LIBCMT:initializers.obj
 0002:00000490       __xi_a                     0000000180049490     LIBCMT:initializers.obj
 0002:00000498       __acrt_tran_fma3_initializer 0000000180049498     libucrt:fma3_initializer.obj
 0002:000004a0       __acrt_multibyte_initializer 00000001800494a0     libucrt:multibyte_initializer.obj
 0002:000004a8       __acrt_stdio_initializer   00000001800494a8     libucrt:stdio_initializer.obj
 0002:000004b0       __xi_z                     00000001800494b0     LIBCMT:initializers.obj
 0002:000004b8       __xp_a                     00000001800494b8     LIBCMT:initializers.obj
 0002:000004c0       __acrt_locale_terminator   00000001800494c0     libucrt:locale_initializer.obj
 0002:000004c8       __dcrt_console_output_terminator 00000001800494c8     libucrt:console_output_initializer.obj
 0002:000004d0       __acrt_stdio_terminator    00000001800494d0     libucrt:stdio_initializer.obj
 0002:000004d8       __xp_z                     00000001800494d8     LIBCMT:initializers.obj
 0002:000004e0       __xt_a                     00000001800494e0     LIBCMT:initializers.obj
 0002:000004e8       __xt_z                     00000001800494e8     LIBCMT:initializers.obj
 0002:000004f0       ??_7PxFoundation@physx@@6B@ 00000001800494f0     Adjacencies.obj
 0002:00000530       ??_C@_0HC@KMIPGKMB@C?3?2Users?2Melli?2Documents?2Uni?2Co@ 0000000180049530     Adjacencies.obj
 0002:000005a8       ??_C@_0DA@FMEHLBKI@Adjacencies?3?3UpdateLink?3?5invali@ 00000001800495a8     Adjacencies.obj
 0002:000005e0       ??_C@_0EA@CPHOACLK@Adjacencies?3?3CreateDatabase?3?5ca@ 00000001800495e0     Adjacencies.obj
 0002:00000620       ??_C@_0BM@OIFKLHDN@?$DMallocation?5names?5disabled?$DO@ 0000000180049620     Adjacencies.obj
 0002:00000660       ?sBufferSize@DebugText@Cm@physx@@2HB 0000000180049660     Cooking.obj
 0002:00000664       ??_C@_06EJKDJEDO@PxBase@   0000000180049664     Cooking.obj
 0002:00000670       ??_C@_0N@CDGINLLF@PxConvexMesh@ 0000000180049670     Cooking.obj
 0002:00000680       ??_C@_0O@PBAKPCEC@PxHeightField@ 0000000180049680     Cooking.obj
 0002:00000690       ??_7PxBase@physx@@6B@      0000000180049690     Cooking.obj
 0002:000006b8       ??_7PxCooking@physx@@6B@   00000001800496b8     Cooking.obj
 0002:00000738       ??_7Cooking@physx@@6B@     0000000180049738     Cooking.obj
 0002:000007c0       ??_C@_0FC@PJIHAFK@Cooking?3?3validateTriangleMesh?3?5@ 00000001800497c0     Cooking.obj
 0002:00000820       ??_C@_0GO@CAPGMCGE@C?3?2Users?2Melli?2Documents?2Uni?2Co@ 0000000180049820     Cooking.obj
 0002:00000890       ??_C@_0EK@EKAIJEBL@Cooking?3?3cookConvexMesh?3?5user?9p@ 0000000180049890     Cooking.obj
 0002:000008e0       ??_C@_0FA@GFFGAPML@Cooking?3?3cookConvexMesh?3?5provid@ 00000001800498e0     Cooking.obj
 0002:00000930       ??_C@_0EP@PKDCPNNO@Cooking?3?3cookConvexMesh?3?5provid@ 0000000180049930     Cooking.obj
 0002:00000980       ??_C@_0EO@LKFMMDE@Cooking?3?3cookConvexMesh?3?5user?9p@ 0000000180049980     Cooking.obj
 0002:000009d0       ??_C@_0GO@CLJOKGAJ@C?3?2Users?2Melli?2Documents?2Uni?2Co@ 00000001800499d0     Cooking.obj
 0002:00000a40       __real@3f800000            0000000180049a40     Cooking.obj
 0002:00000a50       __xmm@000000003a83126f3a83126f3a83126f 0000000180049a50     Cooking.obj
 0002:00000a60       __xmm@00000000ba83126fba83126fba83126f 0000000180049a60     Cooking.obj
 0002:00000a70       __xmm@3a83126f3a83126f3a83126f3a83126f 0000000180049a70     Cooking.obj
 0002:00000a80       __xmm@80000000800000008000000080000000 0000000180049a80     Cooking.obj
 0002:00000a90       __xmm@ba83126fba83126fba83126fba83126f 0000000180049a90     Cooking.obj
 0002:00000aa0       ??_C@_0BA@DLCJDKDM@NonTrackedAlloc@ 0000000180049aa0     CookingUtils.obj
 0002:00000ab0       ??_C@_0HD@DAKDPGOM@C?3?2Users?2Melli?2Documents?2Uni?2Co@ 0000000180049ab0     CookingUtils.obj
 0002:00000b30       ??_C@_0GP@OFFLJGA@C?3?2Users?2Melli?2Documents?2Uni?2Co@ 0000000180049b30     EdgeList.obj
 0002:00000ba0       ??_C@_0CO@GBNJFPN@EdgeList?3?3CreateFacesToEdges?3?5N@ 0000000180049ba0     EdgeList.obj
 0002:00000bd0       ??_C@_0CO@EHJBBMNK@EdgeList?3?3ComputeActiveEdges?3?5N@ 0000000180049bd0     EdgeList.obj
 0002:00000c00       ??_C@_0DI@GBHLFOFP@ActiveEdges?3?3ComputeConvexEdges@ 0000000180049c00     EdgeList.obj
 0002:00000c38       ??_C@_0DM@JOGBLHDI@ActiveEdges?3?3ComputeConvexEdges@ 0000000180049c38     EdgeList.obj
 0002:00000c80       ??_C@_0ED@FEMJKPEL@ActiveEdges?3?3ComputeConvexEdges@ 0000000180049c80     EdgeList.obj
 0002:00000cd0       ??_C@_0EB@BFDPMFCD@ActiveEdges?3?3ComputeConvexEdges@ 0000000180049cd0     EdgeList.obj
 0002:00000d14       __real@bf7fbe77            0000000180049d14     EdgeList.obj
 0002:00000d20       __xmm@7fffffff7fffffff7fffffff7fffffff 0000000180049d20     EdgeList.obj
 0002:00000d30       ??_C@_0HC@IJNEEHJF@C?3?2Users?2Melli?2Documents?2Uni?2Co@ 0000000180049d30     MeshCleaner.obj
 0002:00000da4       __real@3f000000            0000000180049da4     MeshCleaner.obj
 0002:00000da8       ??_7Quantizer@physx@@6B@   0000000180049da8     Quantizer.obj
 0002:00000dd0       ??_7QuantizerImpl@@6B@     0000000180049dd0     Quantizer.obj
 0002:00000e00       ??_C@_0HA@IEFBEBAD@C?3?2Users?2Melli?2Documents?2Uni?2Co@ 0000000180049e00     Quantizer.obj
 0002:00000e70       __real@38d1b717            0000000180049e70     Quantizer.obj
 0002:00000e74       __real@3c23d70a            0000000180049e74     Quantizer.obj
 0002:00000e78       __real@3f0020c5            0000000180049e78     Quantizer.obj
 0002:00000e7c       __real@3f8020c5            0000000180049e7c     Quantizer.obj
 0002:00000e80       __real@7f7fffff            0000000180049e80     Quantizer.obj
 0002:00000e84       __real@fe7fffff            0000000180049e84     Quantizer.obj
 0002:00000e90       __xmm@fe7fffff7e7fffff7e7fffff7e7fffff 0000000180049e90     Quantizer.obj
 0002:00000ec0       ??_C@_0HK@HIELPJFA@C?3?2Users?2Melli?2Documents?2Uni?2Co@ 0000000180049ec0     BVHStructureBuilder.obj
 0002:00000f40       __xmm@3ba3d70a3ba3d70a3ba3d70a3ba3d70a 0000000180049f40     BVHStructureBuilder.obj
 0002:00000f70       ?reductionFactors@SubSortQuick@physx@@2QBMB 0000000180049f70     RTreeCooking.obj
 0002:00000f80       ?stopAtTrisPerLeaf1@SubSortQuick@physx@@2QBIB 0000000180049f80     RTreeCooking.obj
 0002:00001030       ??_C@_0HI@KAKLFEHB@C?3?2Users?2Melli?2Documents?2Uni?2Co@ 000000018004a030     RTreeCooking.obj
 0002:000010b0       ??_C@_0GN@IOILJJGJ@C?3?2Users?2Melli?2Documents?2Uni?2Co@ 000000018004a0b0     RTreeCooking.obj
 0002:00001120       ??_C@_0HG@HPGGJPJJ@C?3?2Users?2Melli?2Documents?2Uni?2Co@ 000000018004a120     RTreeCooking.obj
 0002:00001198       __real@37800080            000000018004a198     RTreeCooking.obj
 0002:0000119c       __real@41100000            000000018004a19c     RTreeCooking.obj
 0002:000011a0       __real@41700000            000000018004a1a0     RTreeCooking.obj
 0002:000011a4       __real@42200000            000000018004a1a4     RTreeCooking.obj
 0002:000011a8       __real@ff7fffff            000000018004a1a8     RTreeCooking.obj
 0002:000011b0       __xmm@00000004000000030000000200000001 000000018004a1b0     RTreeCooking.obj
 0002:000011c0       __xmm@3a03126f3a03126f3a03126f3a03126f 000000018004a1c0     RTreeCooking.obj
 0002:000011d0       __xmm@7f7fffff7f7fffff7f7fffff7f7fffff 000000018004a1d0     RTreeCooking.obj
 0002:000011e0       __xmm@ff7fffffff7fffffff7fffffff7fffff 000000018004a1e0     RTreeCooking.obj
 0002:00001210       __real@34800000            000000018004a210     MeshBuilder.obj
 0002:00001240       ??_7MeshDataBase@Gu@physx@@6B@ 000000018004a240     TriangleMeshBuilder.obj
 0002:00001250       ??_C@_0HB@BCLACHFJ@C?3?2Users?2Melli?2Documents?2Uni?2Co@ 000000018004a250     TriangleMeshBuilder.obj
 0002:000012c8       ??_7TriangleMeshData@Gu@physx@@6B@ 000000018004a2c8     TriangleMeshBuilder.obj
 0002:000012d0       ??_7RTreeTriangleData@Gu@physx@@6B@ 000000018004a2d0     TriangleMeshBuilder.obj
 0002:000012d8       ??_7BV4TriangleData@Gu@physx@@6B@ 000000018004a2d8     TriangleMeshBuilder.obj
 0002:000012e0       ??_7RemapCallback@RTreeCooker@physx@@6B@ 000000018004a2e0     TriangleMeshBuilder.obj
 0002:000012f0       ??_7TriangleMeshBuilder@physx@@6B@ 000000018004a2f0     TriangleMeshBuilder.obj
 0002:00001318       ??_7RTreeTriangleMeshBuilder@physx@@6B@ 000000018004a318     TriangleMeshBuilder.obj
 0002:00001340       ??_7BV4TriangleMeshBuilder@physx@@6B@ 000000018004a340     TriangleMeshBuilder.obj
 0002:00001370       ??_C@_0IA@DLFNFNP@C?3?2Users?2Melli?2Documents?2Uni?2Co@ 000000018004a370     TriangleMeshBuilder.obj
 0002:000013f0       ??_C@_0HP@DMNBICJP@C?3?2Users?2Melli?2Documents?2Uni?2Co@ 000000018004a3f0     TriangleMeshBuilder.obj
 0002:00001470       ??_C@_0DJ@IGODLHLP@TriangleMesh?3?5Enable?5mesh?5weldi@ 000000018004a470     TriangleMeshBuilder.obj
 0002:000014b0       ??_C@_0FJ@HHJLKGDF@TriangleMesh?3?5triangles?5are?5too@ 000000018004a4b0     TriangleMeshBuilder.obj
 0002:00001510       ??_C@_0CN@KGPHHHLK@TriangleMesh?3?5mesh?5is?5too?5big?5f@ 000000018004a510     TriangleMeshBuilder.obj
 0002:00001540       ??_C@_0DD@CMJGDCNN@TriangleMesh?3?3loadFromDesc?3?5des@ 000000018004a540     TriangleMeshBuilder.obj
 0002:00001580       ??_C@_0ED@ILJJNHIP@TriangleMesh?3?3loadFromDesc?3?5mPa@ 000000018004a580     TriangleMeshBuilder.obj
 0002:000015c8       ??_C@_0BJ@BKHDBBHO@cleaning?5the?5mesh?5failed@ 000000018004a5c8     TriangleMeshBuilder.obj
 0002:000015e8       ??_C@_0BK@JIDHMMCE@BV4?5tree?5failed?5to?5build?4@ 000000018004a5e8     TriangleMeshBuilder.obj
 0002:00001608       ??_C@_0BL@DHNECNBE@BV32?5tree?5failed?5to?5build?4@ 000000018004a608     TriangleMeshBuilder.obj
 0002:00001628       ??_7RTreeCookerRemap@physx@@6B@ 000000018004a628     TriangleMeshBuilder.obj
 0002:00001638       __real@3951b717            000000018004a638     TriangleMeshBuilder.obj
 0002:0000163c       __real@3dcccccd            000000018004a63c     TriangleMeshBuilder.obj
 0002:00001640       __real@48742400            000000018004a640     TriangleMeshBuilder.obj
 0002:00001650       __xmm@00000003000000020000000100000000 000000018004a650     TriangleMeshBuilder.obj
 0002:00001680       ??_C@_0IC@DDEJLIEK@C?3?2Users?2Melli?2Documents?2Uni?2Co@ 000000018004a680     BigConvexDataBuilder.obj
 0002:00001704       __real@40000000            000000018004a704     BigConvexDataBuilder.obj
 0002:00001730       ??_C@_0HP@KOGPGAPK@C?3?2Users?2Melli?2Documents?2Uni?2Co@ 000000018004a730     ConvexHullBuilder.obj
 0002:000017b0       ??_C@_0EB@DCEIFDGC@ConvexHullBuilder?3?3init?3?5convex@ 000000018004a7b0     ConvexHullBuilder.obj
 0002:00001800       ??_C@_0FM@KICBLCBH@Gu?3?3ConvexMesh?3?3checkHullPolygo@ 000000018004a800     ConvexHullBuilder.obj
 0002:00001860       ??_C@_0GO@HBFIOGLL@Gu?3?3ConvexMesh?3?3checkHullPolygo@ 000000018004a860     ConvexHullBuilder.obj
 0002:000018d0       ??_C@_0HF@OLJFBIEL@ConvexHullBuilder?3?5convex?5hull?5@ 000000018004a8d0     ConvexHullBuilder.obj
 0002:00001950       ??_C@_0OG@JNHFOIL@ConvexHullBuilder?3?5convex?5hull?5@ 000000018004a950     ConvexHullBuilder.obj
 0002:00001a40       ??_C@_0EJ@NIOIBAKH@Cooking?3?3cookConvexMesh?3?5non?9ma@ 000000018004aa40     ConvexHullBuilder.obj
 0002:00001a8c       __real@3ca3d70a            000000018004aa8c     ConvexHullBuilder.obj
 0002:00001a90       __real@3eaaaaab            000000018004aa90     ConvexHullBuilder.obj
 0002:00001a98       ??_7ConvexHullLib@physx@@6B@ 000000018004aa98     ConvexHullLib.obj
 0002:00001ac0       ??_C@_0HL@KMPFLGKE@C?3?2Users?2Melli?2Documents?2Uni?2Co@ 000000018004aac0     ConvexHullLib.obj
 0002:00001b40       ??_C@_0JE@PABBNGEL@ConvexHullLib?3?3cleanupVertices?3@ 000000018004ab40     ConvexHullLib.obj
 0002:00001bd4       __real@358637bd            000000018004abd4     ConvexHullLib.obj
 0002:00001bd8       __real@3d4ccccd            000000018004abd8     ConvexHullLib.obj
 0002:00001c00       ??_C@_0HN@FNDECOEF@C?3?2Users?2Melli?2Documents?2Uni?2Co@ 000000018004ac00     ConvexHullUtils.obj
 0002:00001c80       __real@3e20d97c            000000018004ac80     ConvexHullUtils.obj
 0002:00001c90       __xmm@00800000008000000080000000800000 000000018004ac90     ConvexHullUtils.obj
 0002:00001ca0       __xmm@3f0000003f0000003f0000003f000000 000000018004aca0     ConvexHullUtils.obj
 0002:00001cb0       __xmm@bf000000bf000000bf000000bf000000 000000018004acb0     ConvexHullUtils.obj
 0002:00001ce0       ??_C@_0DF@LLFJIJGM@Gu?3?3ConvexMesh?3?3loadFromDesc?3?5d@ 000000018004ace0     ConvexMeshBuilder.obj
 0002:00001d20       ??_C@_0HP@GAMLMAKP@C?3?2Users?2Melli?2Documents?2Uni?2Co@ 000000018004ad20     ConvexMeshBuilder.obj
 0002:00001da0       ??_C@_0HK@JOGKIEAA@Gu?3?3ConvexMesh?3?5Mesh?5has?5a?5nega@ 000000018004ada0     ConvexMeshBuilder.obj
 0002:00001e20       ??_C@_0DH@NJPPHFFD@Gu?3?3ConvexMesh?3?5Error?5computing@ 000000018004ae20     ConvexMeshBuilder.obj
 0002:00001e58       ??_C@_0DJ@LJDLGLDJ@Gu?3?3ConvexMesh?3?3loadConvexHull?3@ 000000018004ae58     ConvexMeshBuilder.obj
 0002:00001ea0       ??_C@_0HJ@KJANPPOE@ConvexMeshBuilder?3?3computeHullP@ 000000018004aea0     ConvexMeshBuilder.obj
 0002:00001f1c       ??_C@_06KDGGGLIJ@PxVec3@   000000018004af1c     ConvexMeshBuilder.obj
 0002:00001f24       ??_C@_05LMJPANIN@PxU32@    000000018004af24     ConvexMeshBuilder.obj
 0002:00001f30       ??_C@_0O@JMAGMMGG@PxHullPolygon@ 000000018004af30     ConvexMeshBuilder.obj
 0002:00001f40       __real@33d6bf95            000000018004af40     ConvexMeshBuilder.obj
 0002:00001f44       __real@3f13cd3a            000000018004af44     ConvexMeshBuilder.obj
 0002:00001f48       __real@b3d6bf95            000000018004af48     ConvexMeshBuilder.obj
 0002:00001f4c       __real@bf800000            000000018004af4c     ConvexMeshBuilder.obj
 0002:00001f50       __xmm@80000000000000008000000000000000 000000018004af50     ConvexMeshBuilder.obj
 0002:00001f60       ??_C@_0DP@PJBJBEGF@Meshmerizer?3?3extractHullPolygon@ 000000018004af60     ConvexPolygonsBuilder.obj
 0002:00001fa0       ??_C@_0ID@BCJEFJHJ@C?3?2Users?2Melli?2Documents?2Uni?2Co@ 000000018004afa0     ConvexPolygonsBuilder.obj
 0002:00002028       ??_C@_0DL@IAFKOCCK@ConvexHullBuilder?3?5convex?5hull?5@ 000000018004b028     ConvexPolygonsBuilder.obj
 0002:00002070       ??_C@_0GF@OJLJHAMH@ConvexHullBuilder?3?3CreateTriang@ 000000018004b070     ConvexPolygonsBuilder.obj
 0002:000020d8       __real@3ba3d70a            000000018004b0d8     ConvexPolygonsBuilder.obj
 0002:000020e0       ??_7QuickHullConvexHullLib@physx@@6B@ 000000018004b0e0     QuickHullConvexHullLib.obj
 0002:00002100       ??_C@_0IE@MCEKHGNF@C?3?2Users?2Melli?2Documents?2Uni?2Co@ 000000018004b100     QuickHullConvexHullLib.obj
 0002:00002190       ??_C@_0GA@EPPAEJPM@QuickHullConvexHullLib?3?3findSim@ 000000018004b190     QuickHullConvexHullLib.obj
 0002:000021f0       ??_C@_0FB@NEBIJMML@QuickHullConvexHullLib?3?3findSim@ 000000018004b1f0     QuickHullConvexHullLib.obj
 0002:00002250       ??_C@_0FB@CLLCBEMM@QuickHullConvexHullLib?3?3findSim@ 000000018004b250     QuickHullConvexHullLib.obj
 0002:000022a4       __real@34c00000            000000018004b2a4     QuickHullConvexHullLib.obj
 0002:000022a8       __real@3e800000            000000018004b2a8     QuickHullConvexHullLib.obj
 0002:000022d0       __real@00000000            000000018004b2d0     VolumeIntegration.obj
 0002:000022d8       __real@3fe0000000000000    000000018004b2d8     VolumeIntegration.obj
 0002:000022e0       __real@3ff0000000000000    000000018004b2e0     VolumeIntegration.obj
 0002:000022f0       __xmm@3c0888893c0888893c0888893c088889 000000018004b2f0     VolumeIntegration.obj
 0002:00002300       __xmm@3c8888893c8888893c8888893c888889 000000018004b300     VolumeIntegration.obj
 0002:00002310       __xmm@3d2aaaab3d2aaaab3d2aaaab3d2aaaab 000000018004b310     VolumeIntegration.obj
 0002:00002320       __xmm@3e2aaaab3e2aaaab3e2aaaab3e2aaaab 000000018004b320     VolumeIntegration.obj
 0002:00002330       __xmm@3f811111111111113f81111111111111 000000018004b330     VolumeIntegration.obj
 0002:00002340       __xmm@3f811111111111113f91111111111111 000000018004b340     VolumeIntegration.obj
 0002:00002350       __xmm@3f911111111111113f91111111111111 000000018004b350     VolumeIntegration.obj
 0002:00002360       __xmm@3fa55555555555553fa5555555555555 000000018004b360     VolumeIntegration.obj
 0002:00002370       __xmm@3fa55555555555553fc5555555555555 000000018004b370     VolumeIntegration.obj
 0002:00002380       ??_C@_0BA@EGLNOO@PhysXFoundation@ 000000018004b380     WindowsCookingDelayLoadHook.obj
 0002:00002390       ??_C@_0M@ILKNCJKN@PhysXCommon@ 000000018004b390     WindowsCookingDelayLoadHook.obj
 0002:000023a0       __sz_PhysXCommon_64_dll    000000018004b3a0     PhysXCommon_64:PhysXCommon_64.dll
 0002:000023c0       __sz_PhysXFoundation_64_dll 000000018004b3c0     PhysXFoundation_64:PhysXFoundation_64.dll
 0002:000023d8       ??_C@_1BK@DBDEIDLH@?$AAK?$AAE?$AAR?$AAN?$AAE?$AAL?$AA3?$AA2?$AA?4?$AAD?$AAL?$AAL@ 000000018004b3d8     Delayimp:delayhlp.obj
 0002:000023f8       ??_C@_0BI@OMNLIJDB@AcquireSRWLockExclusive@ 000000018004b3f8     Delayimp:delayhlp.obj
 0002:00002410       ??_C@_0BI@HMIEPCNJ@ReleaseSRWLockExclusive@ 000000018004b410     Delayimp:delayhlp.obj
 0002:00002428       __pfnDliFailureHook2       000000018004b428     Delayimp:delayhk1.obj
 0002:00002438       ??_7type_info@@6B@         000000018004b438     LIBCMT:std_type_info_static.obj
 0002:000024a0       _pDefaultRawDllMain        000000018004b4a0     LIBCMT:dll_dllmain.obj
 0002:000024a0       _pRawDllMain               000000018004b4a0     LIBCMT:dll_dllmain.obj
 0002:000024b0       _load_config_used          000000018004b4b0     LIBCMT:loadcfg.obj
 0002:000025f0       __xmm@ffffffffffffffffffffffffffffffff 000000018004b5f0     LIBCMT:utility.obj
 0002:00002600       _pDestructExceptionObject  000000018004b600     libvcruntime:ehhelpers.obj
 0002:00002d10       ??_C@_08EHJDFFNH@__based?$CI@ 000000018004bd10     libvcruntime:undname.obj
 0002:00002d20       ??_C@_07KOLFKCDI@__cdecl@  000000018004bd20     libvcruntime:undname.obj
 0002:00002d28       ??_C@_08GHMPAG@__pascal@   000000018004bd28     libvcruntime:undname.obj
 0002:00002d38       ??_C@_09IFJBGAPI@__stdcall@ 000000018004bd38     libvcruntime:undname.obj
 0002:00002d48       ??_C@_0L@NPHFGOKO@__thiscall@ 000000018004bd48     libvcruntime:undname.obj
 0002:00002d58       ??_C@_0L@JMKHOMEK@__fastcall@ 000000018004bd58     libvcruntime:undname.obj
 0002:00002d68       ??_C@_0N@BCKKPABJ@__vectorcall@ 000000018004bd68     libvcruntime:undname.obj
 0002:00002d78       ??_C@_09HIJEGCPM@__clrcall@ 000000018004bd78     libvcruntime:undname.obj
 0002:00002d84       ??_C@_06GHPCKEAG@__eabi@   000000018004bd84     libvcruntime:undname.obj
 0002:00002d90       ??_C@_09IOPIDJLG@__swift_1@ 000000018004bd90     libvcruntime:undname.obj
 0002:00002da0       ??_C@_09KFNFGKHF@__swift_2@ 000000018004bda0     libvcruntime:undname.obj
 0002:00002db0       ??_C@_07JOMMBBKO@__ptr64@  000000018004bdb0     libvcruntime:undname.obj
 0002:00002db8       ??_C@_0L@PILCLIHE@__restrict@ 000000018004bdb8     libvcruntime:undname.obj
 0002:00002dc8       ??_C@_0M@GFIIJFMG@__unaligned@ 000000018004bdc8     libvcruntime:undname.obj
 0002:00002dd8       ??_C@_09DHDLOLLB@restrict?$CI@ 000000018004bdd8     libvcruntime:undname.obj
 0002:00002de2       ??_C@_00CNPNBAHC@@         000000018004bde2     libvcruntime:undname.obj
 0002:00002de4       ??_C@_04NIHEBCM@?5new@     000000018004bde4     libvcruntime:undname.obj
 0002:00002df0       ??_C@_07FPCDHGMM@?5delete@ 000000018004bdf0     libvcruntime:undname.obj
 0002:00002df8       ??_C@_01NEMOKFLO@?$DN@     000000018004bdf8     libvcruntime:undname.obj
 0002:00002dfc       ??_C@_02GPIOPFAK@?$DO?$DO@ 000000018004bdfc     libvcruntime:undname.obj
 0002:00002e00       ??_C@_02FODMEDOG@?$DM?$DM@ 000000018004be00     libvcruntime:undname.obj
 0002:00002e04       ??_C@_01DCLJPIOD@?$CB@     000000018004be04     libvcruntime:undname.obj
 0002:00002e08       ??_C@_02EGOFBIJA@?$DN?$DN@ 000000018004be08     libvcruntime:undname.obj
 0002:00002e0c       ??_C@_02FDNJECIE@?$CB?$DN@ 000000018004be0c     libvcruntime:undname.obj
 0002:00002e10       ??_C@_02GPECMEKF@?$FL?$FN@ 000000018004be10     libvcruntime:undname.obj
 0002:00002e18       ??_C@_08LHJFAFGD@operator@ 000000018004be18     libvcruntime:undname.obj
 0002:00002e24       ??_C@_02HBOOOICD@?9?$DO@   000000018004be24     libvcruntime:undname.obj
 0002:00002e28       ??_C@_01NBENCBCI@?$CK@     000000018004be28     libvcruntime:undname.obj
 0002:00002e2c       ??_C@_02ECNGHCIF@?$CL?$CL@ 000000018004be2c     libvcruntime:undname.obj
 0002:00002e30       ??_C@_02BAABKJLB@?9?9@     000000018004be30     libvcruntime:undname.obj
 0002:00002e34       ??_C@_01JOAMLHOP@?9@       000000018004be34     libvcruntime:undname.obj
 0002:00002e38       ??_C@_01MIFGBAGJ@?$CL@     000000018004be38     libvcruntime:undname.obj
 0002:00002e3c       ??_C@_01HNPIGOCE@?$CG@     000000018004be3c     libvcruntime:undname.obj
 0002:00002e40       ??_C@_03MNHNFDLC@?9?$DO?$CK@ 000000018004be40     libvcruntime:undname.obj
 0002:00002e44       ??_C@_01KMDKNFGN@?1@       000000018004be44     libvcruntime:undname.obj
 0002:00002e48       ??_C@_01FGNFDNOH@?$CF@     000000018004be48     libvcruntime:undname.obj
 0002:00002e4c       ??_C@_01MNNFJEPP@?$DM@     000000018004be4c     libvcruntime:undname.obj
 0002:00002e50       ??_C@_02EHCHHCKH@?$DM?$DN@ 000000018004be50     libvcruntime:undname.obj
 0002:00002e54       ??_C@_01PPODPGHN@?$DO@     000000018004be54     libvcruntime:undname.obj
 0002:00002e58       ??_C@_02EEKDKGMJ@?$DO?$DN@ 000000018004be58     libvcruntime:undname.obj
 0002:00002e5c       ??_C@_01IHBHIGKO@?0@       000000018004be5c     libvcruntime:undname.obj
 0002:00002e60       ??_C@_02HCKGKOFO@?$CI?$CJ@ 000000018004be60     libvcruntime:undname.obj
 0002:00002e64       ??_C@_01PJKLJHI@?$HO@      000000018004be64     libvcruntime:undname.obj
 0002:00002e68       ??_C@_01JKBOJNNK@?$FO@     000000018004be68     libvcruntime:undname.obj
 0002:00002e6c       ??_C@_01DNKMNLPK@?$HM@     000000018004be6c     libvcruntime:undname.obj
 0002:00002e70       ??_C@_02PPKAJPJL@?$CG?$CG@ 000000018004be70     libvcruntime:undname.obj
 0002:00002e74       ??_C@_02NONPIBCD@?$HM?$HM@ 000000018004be74     libvcruntime:undname.obj
 0002:00002e78       ??_C@_02FPIMKNGF@?$CK?$DN@ 000000018004be78     libvcruntime:undname.obj
 0002:00002e7c       ??_C@_02FOEOMHFC@?$CL?$DN@ 000000018004be7c     libvcruntime:undname.obj
 0002:00002e80       ??_C@_02FKMDLLOA@?9?$DN@   000000018004be80     libvcruntime:undname.obj
 0002:00002e84       ??_C@_02FJEHGPIO@?1?$DN@   000000018004be84     libvcruntime:undname.obj
 0002:00002e88       ??_C@_02FENAOKFI@?$CF?$DN@ 000000018004be88     libvcruntime:undname.obj
 0002:00002e8c       ??_C@_03IKFCCPFF@?$DO?$DO?$DN@ 000000018004be8c     libvcruntime:undname.obj
 0002:00002e90       ??_C@_03CDNPDDLA@?$DM?$DM?$DN@ 000000018004be90     libvcruntime:undname.obj
 0002:00002e94       ??_C@_02FGJGFEAB@?$CG?$DN@ 000000018004be94     libvcruntime:undname.obj
 0002:00002e98       ??_C@_02DHLNPPGH@?$HM?$DN@ 000000018004be98     libvcruntime:undname.obj
 0002:00002e9c       ??_C@_02MHEGNOJ@?$FO?$DN@  000000018004be9c     libvcruntime:undname.obj
 0002:00002ea0       ??_C@_09IFPLHPGF@?$GAvftable?8@ 000000018004bea0     libvcruntime:undname.obj
 0002:00002eb0       ??_C@_09BLBHBJP@?$GAvbtable?8@ 000000018004beb0     libvcruntime:undname.obj
 0002:00002ec0       ??_C@_07FEEIOKP@?$GAvcall?8@ 000000018004bec0     libvcruntime:undname.obj
 0002:00002ec8       ??_C@_08LLFFHHDJ@?$GAtypeof?8@ 000000018004bec8     libvcruntime:undname.obj
 0002:00002ed8       ??_C@_0BF@KDPPACIK@?$GAlocal?5static?5guard?8@ 000000018004bed8     libvcruntime:undname.obj
 0002:00002ef0       ??_C@_08OBABFOLI@?$GAstring?8@ 000000018004bef0     libvcruntime:undname.obj
 0002:00002f00       ??_C@_0BD@JDLKDPAB@?$GAvbase?5destructor?8@ 000000018004bf00     libvcruntime:undname.obj
 0002:00002f18       ??_C@_0BN@DEGPLNFK@?$GAvector?5deleting?5destructor?8@ 000000018004bf18     libvcruntime:undname.obj
 0002:00002f38       ??_C@_0BO@OBMKPJIG@?$GAdefault?5constructor?5closure?8@ 000000018004bf38     libvcruntime:undname.obj
 0002:00002f58       ??_C@_0BN@IMDCHIKM@?$GAscalar?5deleting?5destructor?8@ 000000018004bf58     libvcruntime:undname.obj
 0002:00002f78       ??_C@_0BO@PFGOCPJJ@?$GAvector?5constructor?5iterator?8@ 000000018004bf78     libvcruntime:undname.obj
 0002:00002f98       ??_C@_0BN@LFPFMEDL@?$GAvector?5destructor?5iterator?8@ 000000018004bf98     libvcruntime:undname.obj
 0002:00002fb8       ??_C@_0CE@IKBNEHA@?$GAvector?5vbase?5constructor?5itera@ 000000018004bfb8     libvcruntime:undname.obj
 0002:00002fe0       ??_C@_0BL@NILFHHPC@?$GAvirtual?5displacement?5map?8@ 000000018004bfe0     libvcruntime:undname.obj
 0002:00003000       ??_C@_0CB@JONCMFFK@?$GAeh?5vector?5constructor?5iterator@ 000000018004c000     libvcruntime:undname.obj
 0002:00003028       ??_C@_0CA@GCEOPDGL@?$GAeh?5vector?5destructor?5iterator?8@ 000000018004c028     libvcruntime:undname.obj
 0002:00003048       ??_C@_0CH@OOJPLCPH@?$GAeh?5vector?5vbase?5constructor?5it@ 000000018004c048     libvcruntime:undname.obj
 0002:00003070       ??_C@_0BL@LLKPOHJI@?$GAcopy?5constructor?5closure?8@ 000000018004c070     libvcruntime:undname.obj
 0002:00003090       ??_C@_0BA@KBCDOMBN@?$GAudt?5returning?8@ 000000018004c090     libvcruntime:undname.obj
 0002:000030a0       ??_C@_03KLGMFNMG@?$GAEH@   000000018004c0a0     libvcruntime:undname.obj
 0002:000030a4       ??_C@_05KHLCHHI@?$GARTTI@  000000018004c0a4     libvcruntime:undname.obj
 0002:000030b0       ??_C@_0BA@KKLDJDLB@?$GAlocal?5vftable?8@ 000000018004c0b0     libvcruntime:undname.obj
 0002:000030c0       ??_C@_0CE@IIHCMGGL@?$GAlocal?5vftable?5constructor?5clos@ 000000018004c0c0     libvcruntime:undname.obj
 0002:000030e4       ??_C@_06FHBGPFGH@?5new?$FL?$FN@ 000000018004c0e4     libvcruntime:undname.obj
 0002:000030f0       ??_C@_09LBNFPBCA@?5delete?$FL?$FN@ 000000018004c0f0     libvcruntime:undname.obj
 0002:00003100       ??_C@_0P@HJKNJFNN@?$GAomni?5callsig?8@ 000000018004c100     libvcruntime:undname.obj
 0002:00003110       ??_C@_0BL@CNOONJFP@?$GAplacement?5delete?5closure?8@ 000000018004c110     libvcruntime:undname.obj
 0002:00003130       ??_C@_0BN@CKNJLHMB@?$GAplacement?5delete?$FL?$FN?5closure?8@ 000000018004c130     libvcruntime:undname.obj
 0002:00003150       ??_C@_0CG@CFDHKGGD@?$GAmanaged?5vector?5constructor?5ite@ 000000018004c150     libvcruntime:undname.obj
 0002:00003178       ??_C@_0CF@IMGKMJNO@?$GAmanaged?5vector?5destructor?5iter@ 000000018004c178     libvcruntime:undname.obj
 0002:000031a0       ??_C@_0CG@HLDDJMAG@?$GAeh?5vector?5copy?5constructor?5ite@ 000000018004c1a0     libvcruntime:undname.obj
 0002:000031c8       ??_C@_0CM@FCBBDIGB@?$GAeh?5vector?5vbase?5copy?5construct@ 000000018004c1c8     libvcruntime:undname.obj
 0002:000031f8       ??_C@_0BL@CLIPGLGB@?$GAdynamic?5initializer?5for?5?8@ 000000018004c1f8     libvcruntime:undname.obj
 0002:00003218       ??_C@_0CB@PDBIFEP@?$GAdynamic?5atexit?5destructor?5for?5@ 000000018004c218     libvcruntime:undname.obj
 0002:00003240       ??_C@_0CD@CGAJBKEJ@?$GAvector?5copy?5constructor?5iterat@ 000000018004c240     libvcruntime:undname.obj
 0002:00003268       ??_C@_0CJ@GJELGAMM@?$GAvector?5vbase?5copy?5constructor?5@ 000000018004c268     libvcruntime:undname.obj
 0002:00003298       ??_C@_0CL@FGIJHLCE@?$GAmanaged?5vector?5copy?5constructo@ 000000018004c298     libvcruntime:undname.obj
 0002:000032c8       ??_C@_0BM@PMGGMLDN@?$GAlocal?5static?5thread?5guard?8@ 000000018004c2c8     libvcruntime:undname.obj
 0002:000032e8       ??_C@_0N@BDNMDMOL@operator?5?$CC?$CC?5@ 000000018004c2e8     libvcruntime:undname.obj
 0002:000032f8       ??_C@_0BC@GGEBGALA@operator?5co_await@ 000000018004c2f8     libvcruntime:undname.obj
 0002:00003310       ??_C@_0M@GAAIMMOH@operator?$DM?$DN?$DO@ 000000018004c310     libvcruntime:undname.obj
 0002:00003320       ??_C@_0BC@DAFEJGAK@?5Type?5Descriptor?8@ 000000018004c320     libvcruntime:undname.obj
 0002:00003338       ??_C@_0BM@LDKODKLH@?5Base?5Class?5Descriptor?5at?5?$CI@ 000000018004c338     libvcruntime:undname.obj
 0002:00003358       ??_C@_0BD@LGICGFMM@?5Base?5Class?5Array?8@ 000000018004c358     libvcruntime:undname.obj
 0002:00003370       ??_C@_0BN@MECKDCOJ@?5Class?5Hierarchy?5Descriptor?8@ 000000018004c370     libvcruntime:undname.obj
 0002:00003390       ??_C@_0BK@CFCOFLF@?5Complete?5Object?5Locator?8@ 000000018004c390     libvcruntime:undname.obj
 0002:000033b0       ??_C@_0BG@JNJLAMPM@?$GAanonymous?5namespace?8@ 000000018004c3b0     libvcruntime:undname.obj
 0002:000033c8       ??_C@_04HEJADOOB@CV?3?5@   000000018004c3c8     libvcruntime:undname.obj
 0002:000033d0       ??_C@_02MOLJINC@?3?3@      000000018004c3d0     libvcruntime:undname.obj
 0002:000033d8       ??_C@_0BE@JAEOCHPE@template?9parameter?9@ 000000018004c3d8     libvcruntime:undname.obj
 0002:000033f0       ??_C@_0BF@LNLGBBNL@?$GAtemplate?9parameter?9@ 000000018004c3f0     libvcruntime:undname.obj
 0002:00003408       ??_C@_0O@KHGCOMHP@generic?9type?9@ 000000018004c408     libvcruntime:undname.obj
 0002:00003418       ??_C@_0P@ODDENDLM@?$GAgeneric?9type?9@ 000000018004c418     libvcruntime:undname.obj
 0002:00003428       ??_C@_02OHHJMEON@?8?8@     000000018004c428     libvcruntime:undname.obj
 0002:00003430       ??_C@_0BN@IBLMMFAP@?$GAnon?9type?9template?9parameter@ 000000018004c430     libvcruntime:undname.obj
 0002:00003450       ??_C@_03DLDNIBIK@?$CFlf@   000000018004c450     libvcruntime:undname.obj
 0002:00003454       ??_C@_04OFALKAJ@?$DP?$DP_C@ 000000018004c454     libvcruntime:undname.obj
 0002:0000345c       ??_C@_03KHICJKCI@?4?4?4@   000000018004c45c     libvcruntime:undname.obj
 0002:00003460       ??_C@_04HIBGFPH@NULL@      000000018004c460     libvcruntime:undname.obj
 0002:00003468       ??_C@_02DPKJAMEF@?$CFd@    000000018004c468     libvcruntime:undname.obj
 0002:00003470       ??_C@_0BK@IHCCFNEL@?$GAtemplate?9type?9parameter?9@ 000000018004c470     libvcruntime:undname.obj
 0002:00003490       ??_C@_0BK@OFCNNNKO@?$GAgeneric?9class?9parameter?9@ 000000018004c490     libvcruntime:undname.obj
 0002:000034b0       ??_C@_0BL@NGJBLFIL@?$GAgeneric?9method?9parameter?9@ 000000018004c4b0     libvcruntime:undname.obj
 0002:000034d0       ??_C@_07OHNGEDJK@nullptr@  000000018004c4d0     libvcruntime:undname.obj
 0002:000034d8       ??_C@_04GKJNKENE@void@     000000018004c4d8     libvcruntime:undname.obj
 0002:000034e0       ??_C@_0BE@EODMJLIF@?$GAtemplate?9parameter@ 000000018004c4e0     libvcruntime:undname.obj
 0002:000034f4       ??_C@_03OPGICMGF@?$HN?8?5@ 000000018004c4f4     libvcruntime:undname.obj
 0002:000034f8       ??_C@_02IGFCGPIL@?$HN?8@   000000018004c4f8     libvcruntime:undname.obj
 0002:00003500       ??_C@_0N@CBHHHENL@?$GAvtordispex?$HL@ 000000018004c500     libvcruntime:undname.obj
 0002:00003510       ??_C@_0L@GHPFDFH@?$GAvtordisp?$HL@ 000000018004c510     libvcruntime:undname.obj
 0002:00003520       ??_C@_0L@HNGCOGAE@?$GAadjustor?$HL@ 000000018004c520     libvcruntime:undname.obj
 0002:00003530       ??_C@_0CB@KJDOOODE@?$GAlocal?5static?5destructor?5helper@ 000000018004c530     libvcruntime:undname.obj
 0002:00003558       ??_C@_0DB@ILEFOCIJ@?$GAtemplate?5static?5data?5member?5co@ 000000018004c558     libvcruntime:undname.obj
 0002:00003590       ??_C@_0DA@HGFJFBBE@?$GAtemplate?5static?5data?5member?5de@ 000000018004c590     libvcruntime:undname.obj
 0002:000035c0       ??_C@_07PGOEDBHP@static?5@ 000000018004c5c0     libvcruntime:undname.obj
 0002:000035c8       ??_C@_08NIEOINHE@virtual?5@ 000000018004c5c8     libvcruntime:undname.obj
 0002:000035d8       ??_C@_09LAPHOOG@private?3?5@ 000000018004c5d8     libvcruntime:undname.obj
 0002:000035e8       ??_C@_0M@GAIFPFIP@protected?3?5@ 000000018004c5e8     libvcruntime:undname.obj
 0002:000035f8       ??_C@_08GPDDCMKI@public?3?5@ 000000018004c5f8     libvcruntime:undname.obj
 0002:00003608       ??_C@_08KJLFOPNE@?$FLthunk?$FN?3@ 000000018004c608     libvcruntime:undname.obj
 0002:00003618       ??_C@_0M@DHNBOJMP@extern?5?$CCC?$CC?5@ 000000018004c618     libvcruntime:undname.obj
 0002:00003624       ??_C@_02KCKGHPCA@?$CJ?5@   000000018004c624     libvcruntime:undname.obj
 0002:00003628       ??_C@_05CIHEBHNO@char?5@   000000018004c628     libvcruntime:undname.obj
 0002:00003630       ??_C@_06EHJMALKF@short?5@  000000018004c630     libvcruntime:undname.obj
 0002:00003638       ??_C@_04LAHKHJMA@int?5@    000000018004c638     libvcruntime:undname.obj
 0002:00003640       ??_C@_05CJIMAING@long?5@   000000018004c640     libvcruntime:undname.obj
 0002:00003648       ??_C@_09EBBEKKIH@unsigned?5@ 000000018004c648     libvcruntime:undname.obj
 0002:00003654       ??_C@_05BEFAKPML@void?5@   000000018004c654     libvcruntime:undname.obj
 0002:00003660       ??_C@_09GAIEOBLP@volatile?5@ 000000018004c660     libvcruntime:undname.obj
 0002:00003670       ??_C@_08PABEKFH@volatile@  000000018004c670     libvcruntime:undname.obj
 0002:00003680       ??_C@_0BA@LKIJLKPP@std?3?3nullptr_t?5@ 000000018004c680     libvcruntime:undname.obj
 0002:00003690       ??_C@_0P@GCOCNKDM@std?3?3nullptr_t@ 000000018004c690     libvcruntime:undname.obj
 0002:000036a0       ??_C@_0L@EGPHHEKN@?$DMellipsis?$DO@ 000000018004c6a0     libvcruntime:undname.obj
 0002:000036ac       ??_C@_04EENFHACM@?0?4?4?4@ 000000018004c6ac     libvcruntime:undname.obj
 0002:000036b8       ??_C@_0M@ELJOJFFH@?0?$DMellipsis?$DO@ 000000018004c6b8     libvcruntime:undname.obj
 0002:000036c8       ??_C@_09DNHFEOJI@?5noexcept@ 000000018004c6c8     libvcruntime:undname.obj
 0002:000036d4       ??_C@_03PBJBJNON@cpu@      000000018004c6d4     libvcruntime:undname.obj
 0002:000036d8       ??_C@_03DCBBJBAA@amp@      000000018004c6d8     libvcruntime:undname.obj
 0002:000036dc       ??_C@_02KEGNLNML@?0?5@     000000018004c6dc     libvcruntime:undname.obj
 0002:000036e0       ??_C@_04ENMBGAPA@char@     000000018004c6e0     libvcruntime:undname.obj
 0002:000036e8       ??_C@_05BFKKPKCG@short@    000000018004c6e8     libvcruntime:undname.obj
 0002:000036f0       ??_C@_03JBIPMCLC@int@      000000018004c6f0     libvcruntime:undname.obj
 0002:000036f4       ??_C@_04GOKPGOLB@long@     000000018004c6f4     libvcruntime:undname.obj
 0002:000036fc       ??_C@_05KNFBNCOH@float@    000000018004c6fc     libvcruntime:undname.obj
 0002:00003704       ??_C@_06BNJCAIGJ@double@   000000018004c704     libvcruntime:undname.obj
 0002:0000370c       ??_C@_04DDKJGDCM@bool@     000000018004c70c     libvcruntime:undname.obj
 0002:00003714       ??_C@_06EBGKOKIG@__int8@   000000018004c714     libvcruntime:undname.obj
 0002:00003720       ??_C@_07ICFHOGAF@__int16@  000000018004c720     libvcruntime:undname.obj
 0002:00003728       ??_C@_07OFLPPHGP@__int32@  000000018004c728     libvcruntime:undname.obj
 0002:00003730       ??_C@_07LFCOJCAC@__int64@  000000018004c730     libvcruntime:undname.obj
 0002:00003738       ??_C@_08GAHOLHEO@__int128@ 000000018004c738     libvcruntime:undname.obj
 0002:00003748       ??_C@_09EEKGDCPH@?$DMunknown?$DO@ 000000018004c748     libvcruntime:undname.obj
 0002:00003758       ??_C@_07CFHGOPCN@char8_t@  000000018004c758     libvcruntime:undname.obj
 0002:00003760       ??_C@_08HBIPOFJB@char16_t@ 000000018004c760     libvcruntime:undname.obj
 0002:00003770       ??_C@_08IECNCBKG@char32_t@ 000000018004c770     libvcruntime:undname.obj
 0002:00003780       ??_C@_07CLGGIAMF@wchar_t@  000000018004c780     libvcruntime:undname.obj
 0002:00003788       ??_C@_04HAPDLBFF@auto@     000000018004c788     libvcruntime:undname.obj
 0002:00003790       ??_C@_0P@LHCGKIGK@decltype?$CIauto?$CJ@ 000000018004c790     libvcruntime:undname.obj
 0002:000037a0       ??_C@_06GCICPBLB@__w64?5@  000000018004c7a0     libvcruntime:undname.obj
 0002:000037a8       ??_C@_07NFANNNEC@UNKNOWN@  000000018004c7a8     libvcruntime:undname.obj
 0002:000037b0       ??_C@_07EDHNAJHC@signed?5@ 000000018004c7b0     libvcruntime:undname.obj
 0002:000037b8       ??_C@_05BNCCCJPP@const@    000000018004c7b8     libvcruntime:undname.obj
 0002:000037c0       ??_C@_09EFNPDFFP@?5volatile@ 000000018004c7c0     libvcruntime:undname.obj
 0002:000037d0       ??_C@_0P@GCIFDJCJ@?$GAunknown?5ecsu?8@ 000000018004c7d0     libvcruntime:undname.obj
 0002:000037e0       ??_C@_06MOJHIBMG@union?5@  000000018004c7e0     libvcruntime:undname.obj
 0002:000037e8       ??_C@_07DIBCDNGL@struct?5@ 000000018004c7e8     libvcruntime:undname.obj
 0002:000037f0       ??_C@_06LJBABKPM@class?5@  000000018004c7f0     libvcruntime:undname.obj
 0002:000037f8       ??_C@_08KOFANOFK@coclass?5@ 000000018004c7f8     libvcruntime:undname.obj
 0002:00003808       ??_C@_0N@DLIEFKNA@cointerface?5@ 000000018004c808     libvcruntime:undname.obj
 0002:00003818       ??_C@_05LJGMCFOG@enum?5@   000000018004c818     libvcruntime:undname.obj
 0002:00003820       ??_C@_06LIJLOJAG@const?5@  000000018004c820     libvcruntime:undname.obj
 0002:00003828       ??_C@_02KJPKDIBN@?$CG?5@   000000018004c828     libvcruntime:undname.obj
 0002:0000382c       ??_C@_03PCKGMOPB@?$CG?$CG?5@ 000000018004c82c     libvcruntime:undname.obj
 0002:00003830       ??_C@_0M@EALIELKG@cli?3?3array?$DM@ 000000018004c830     libvcruntime:undname.obj
 0002:00003840       ??_C@_0O@GKABPPIF@cli?3?3pin_ptr?$DM@ 000000018004c840     libvcruntime:undname.obj
 0002:00003850       ??_C@_02GOGNNPBN@?$CJ?$FL@ 000000018004c850     libvcruntime:undname.obj
 0002:00003854       ??_C@_06EEGAIFAK@?$HLflat?$HN@ 000000018004c854     libvcruntime:undname.obj
 0002:0000385c       ??_C@_05JIBOFOHK@?$HLfor?5@ 000000018004c85c     libvcruntime:undname.obj
 0002:00003864       ??_C@_02MDINNEEG@s?5@      000000018004c864     libvcruntime:undname.obj
 0002:00003870       ??_7charNode@@6B@          000000018004c870     libvcruntime:undname.obj
 0002:00003898       ??_7pcharNode@@6B@         000000018004c898     libvcruntime:undname.obj
 0002:000038c0       ??_7pDNameNode@@6B@        000000018004c8c0     libvcruntime:undname.obj
 0002:000038e8       ??_7DNameStatusNode@@6B@   000000018004c8e8     libvcruntime:undname.obj
 0002:00003910       ??_7pairNode@@6B@          000000018004c910     libvcruntime:undname.obj
 0002:00003a30       ??_C@_04OKOHEJBO@?5?$DP?$DP?5@ 000000018004ca30     libvcruntime:undname.obj
 0002:00003a40       ?nodes@?1??make@DNameStatusNode@@SAPEBV2@W4DNameStatus@@@Z@4QBV2@B 000000018004ca40     libvcruntime:undname.obj
 0002:00003a80       ?s_negLengthTab@FH4@@3QBCB 000000018004ca80     libvcruntime:risctrnsctrl.obj
 0002:00003a90       ?s_shiftTab@FH4@@3QBEB     000000018004ca90     libvcruntime:risctrnsctrl.obj
 0002:00003bf0       ??_C@_1DM@KHCHBNEB@?$AAa?$AAp?$AAi?$AA?9?$AAm?$AAs?$AA?9?$AAw?$AAi?$AAn?$AA?9?$AAc?$AAo?$AAr?$AAe@ 000000018004cbf0     libvcruntime:winapi_downlevel.obj
 0002:00003c30       ??_C@_1DK@LPPGFMPP@?$AAa?$AAp?$AAi?$AA?9?$AAm?$AAs?$AA?9?$AAw?$AAi?$AAn?$AA?9?$AAc?$AAo?$AAr?$AAe@ 000000018004cc30     libvcruntime:winapi_downlevel.obj
 0002:00003c70       ??_C@_1BC@GDMECMAK@?$AAk?$AAe?$AAr?$AAn?$AAe?$AAl?$AA3?$AA2@ 000000018004cc70     libvcruntime:winapi_downlevel.obj
 0002:00003c88       ??_C@_1BA@PFFKHIOG@?$AAa?$AAp?$AAi?$AA?9?$AAm?$AAs?$AA?9@ 000000018004cc88     libvcruntime:winapi_downlevel.obj
 0002:00003ca0       ??_C@_08KNHFBNJ@FlsAlloc@  000000018004cca0     libvcruntime:winapi_downlevel.obj
 0002:00003cb8       ??_C@_07PEJMOBNF@FlsFree@  000000018004ccb8     libvcruntime:winapi_downlevel.obj
 0002:00003cc8       ??_C@_0M@GDNOONDI@FlsGetValue@ 000000018004ccc8     libvcruntime:winapi_downlevel.obj
 0002:00003ce0       ??_C@_0M@JCPCPOEF@FlsSetValue@ 000000018004cce0     libvcruntime:winapi_downlevel.obj
 0002:00003cf8       ??_C@_0BM@HCFOFFN@InitializeCriticalSectionEx@ 000000018004ccf8     libvcruntime:winapi_downlevel.obj
 0002:00003d20       ??_7exception@std@@6B@     000000018004cd20     libvcruntime:frame.obj
 0002:00003d30       ??_C@_0BC@EOODALEL@Unknown?5exception@ 000000018004cd30     libvcruntime:frame.obj
 0002:00003d50       ??_7bad_exception@std@@6B@ 000000018004cd50     libvcruntime:frame.obj
 0002:00003d60       ??_C@_0O@DPKOEFFH@bad?5exception@ 000000018004cd60     libvcruntime:frame.obj
 0002:000044f8       __real@3f1a36e2eb1c432d    000000018004d4f8     libucrt:atan2f.obj
 0002:00004500       __real@3f490fdb            000000018004d500     libucrt:atan2f.obj
 0002:00004508       __real@3fb0000000000000    000000018004d508     libucrt:atan2f.obj
 0002:00004510       __real@3fc2492482bd6be1    000000018004d510     libucrt:atan2f.obj
 0002:00004518       __real@3fc90fdb            000000018004d518     libucrt:atan2f.obj
 0002:00004520       __real@3fc99999999643a3    000000018004d520     libucrt:atan2f.obj
 0002:00004528       __real@3fd5555555550877    000000018004d528     libucrt:atan2f.obj
 0002:00004530       __real@3fd5555555555538    000000018004d530     libucrt:atan2f.obj
 0002:00004538       __real@3ff921fb54442d18    000000018004d538     libucrt:atan2f.obj
 0002:00004540       __real@400921fb54442d18    000000018004d540     libucrt:atan2f.obj
 0002:00004548       __real@4016cbe4            000000018004d548     libucrt:atan2f.obj
 0002:0000454c       __real@40490fdb            000000018004d54c     libucrt:atan2f.obj
 0002:00004550       __real@4070000000000000    000000018004d550     libucrt:atan2f.obj
 0002:00004558       __real@80000000            000000018004d558     libucrt:atan2f.obj
 0002:0000455c       __real@bf490fdb            000000018004d55c     libucrt:atan2f.obj
 0002:00004560       __real@bfc90fdb            000000018004d560     libucrt:atan2f.obj
 0002:00004564       __real@c016cbe4            000000018004d564     libucrt:atan2f.obj
 0002:00004568       __real@c0490fdb            000000018004d568     libucrt:atan2f.obj
 0002:000047c0       __acrt_exception_action_table 000000018004d7c0     libucrt:exception_filter.obj
 0002:00004880       __acrt_signal_action_table_count 000000018004d880     libucrt:exception_filter.obj
 0002:00004888       __acrt_signal_action_first_fpe_index 000000018004d888     libucrt:exception_filter.obj
 0002:00004890       __acrt_signal_action_fpe_count 000000018004d890     libucrt:exception_filter.obj
 0002:000048e8       ??_C@_1BI@BGOHAHKC@?$AAm?$AAs?$AAc?$AAo?$AAr?$AAe?$AAe?$AA?4?$AAd?$AAl?$AAl@ 000000018004d8e8     libucrt:exit.obj
 0002:00004900       ??_C@_0P@MIGLKIOC@CorExitProcess@ 000000018004d900     libucrt:exit.obj
 0002:00004a60       ?format_validation_lookup_table_spectre@__crt_stdio_output@@3V?$spectre_mitigated_lookup_table@Ustate_transition_pair@__crt_stdio_output@@$0IA@@1@B 000000018004da60     libucrt:output.obj
 0002:00004b60       ??_C@_1O@CEDCILHN@?$AA?$CI?$AAn?$AAu?$AAl?$AAl?$AA?$CJ@ 000000018004db60     libucrt:output.obj
 0002:00004b70       ??_C@_06OJHGLDPL@?$CInull?$CJ@ 000000018004db70     libucrt:output.obj
 0002:00004cf0       ??_C@_04LAGPAAHP@sinf@     000000018004dcf0     libucrt:sincos_special.obj
 0002:00004cf8       ??_C@_04OBBKPIAC@cosf@     000000018004dcf8     libucrt:sincos_special.obj
 0002:00004d00       __Lcosfarray               000000018004dd00     libucrt:lsincosf_array.obj
 0002:00004d30       __Lsinfarray               000000018004dd30     libucrt:lsincosf_array.obj
 0002:00004d50       __L_2_by_pi_bits           000000018004dd50     libucrt:l2_by_pi_bits.obj
 0002:00005028       ??_C@_1M@HPNHIDJI@?$AAj?$AAa?$AA?9?$AAJ?$AAP@ 000000018004e028     libucrt:mbctype.obj
 0002:00005038       ??_C@_1M@BIBDDEMK@?$AAz?$AAh?$AA?9?$AAC?$AAN@ 000000018004e038     libucrt:mbctype.obj
 0002:00005048       ??_C@_1M@JLOOOEGK@?$AAk?$AAo?$AA?9?$AAK?$AAR@ 000000018004e048     libucrt:mbctype.obj
 0002:00005058       ??_C@_1M@CLNBBOPM@?$AAz?$AAh?$AA?9?$AAT?$AAW@ 000000018004e058     libucrt:mbctype.obj
 0002:00005110       ??_C@_1EA@JGEFHKEI@?$AAa?$AAp?$AAi?$AA?9?$AAm?$AAs?$AA?9?$AAw?$AAi?$AAn?$AA?9?$AAc?$AAo?$AAr?$AAe@ 000000018004e110     libucrt:winapi_thunks.obj
 0002:00005150       ??_C@_1DI@IJCEHOCB@?$AAa?$AAp?$AAi?$AA?9?$AAm?$AAs?$AA?9?$AAw?$AAi?$AAn?$AA?9?$AAc?$AAo?$AAr?$AAe@ 000000018004e150     libucrt:winapi_thunks.obj
 0002:00005190       ??_C@_1EI@MPIAOHOC@?$AAa?$AAp?$AAi?$AA?9?$AAm?$AAs?$AA?9?$AAw?$AAi?$AAn?$AA?9?$AAc?$AAo?$AAr?$AAe@ 000000018004e190     libucrt:winapi_thunks.obj
 0002:000051e0       ??_C@_1FK@FPHCKFIE@?$AAa?$AAp?$AAi?$AA?9?$AAm?$AAs?$AA?9?$AAw?$AAi?$AAn?$AA?9?$AAc?$AAo?$AAr?$AAe@ 000000018004e1e0     libucrt:winapi_thunks.obj
 0002:00005240       ??_C@_1EM@DILCGIIO@?$AAa?$AAp?$AAi?$AA?9?$AAm?$AAs?$AA?9?$AAw?$AAi?$AAn?$AA?9?$AAc?$AAo?$AAr?$AAe@ 000000018004e240     libucrt:winapi_thunks.obj
 0002:00005290       ??_C@_1DM@LNCGDDPN@?$AAa?$AAp?$AAi?$AA?9?$AAm?$AAs?$AA?9?$AAw?$AAi?$AAn?$AA?9?$AAc?$AAo?$AAr?$AAe@ 000000018004e290     libucrt:winapi_thunks.obj
 0002:000052d0       ??_C@_1DO@FPAPJEMD@?$AAa?$AAp?$AAi?$AA?9?$AAm?$AAs?$AA?9?$AAw?$AAi?$AAn?$AA?9?$AAc?$AAo?$AAr?$AAe@ 000000018004e2d0     libucrt:winapi_thunks.obj
 0002:00005310       ??_C@_1DK@NDHNAHIO@?$AAa?$AAp?$AAi?$AA?9?$AAm?$AAs?$AA?9?$AAw?$AAi?$AAn?$AA?9?$AAc?$AAo?$AAr?$AAe@ 000000018004e310     libucrt:winapi_thunks.obj
 0002:00005350       ??_C@_1DM@KGHDGBCM@?$AAa?$AAp?$AAi?$AA?9?$AAm?$AAs?$AA?9?$AAw?$AAi?$AAn?$AA?9?$AAc?$AAo?$AAr?$AAe@ 000000018004e350     libucrt:winapi_thunks.obj
 0002:00005390       ??_C@_1EO@IJIOEFOH@?$AAa?$AAp?$AAi?$AA?9?$AAm?$AAs?$AA?9?$AAw?$AAi?$AAn?$AA?9?$AAr?$AAt?$AAc?$AAo@ 000000018004e390     libucrt:winapi_thunks.obj
 0002:000053e0       ??_C@_1FG@HHGEKANL@?$AAa?$AAp?$AAi?$AA?9?$AAm?$AAs?$AA?9?$AAw?$AAi?$AAn?$AA?9?$AAs?$AAe?$AAc?$AAu@ 000000018004e3e0     libucrt:winapi_thunks.obj
 0002:00005440       ??_C@_1EG@DBIOJECG@?$AAe?$AAx?$AAt?$AA?9?$AAm?$AAs?$AA?9?$AAw?$AAi?$AAn?$AA?9?$AAn?$AAt?$AAu?$AAs@ 000000018004e440     libucrt:winapi_thunks.obj
 0002:00005490       ??_C@_1EO@FIHMJCLF@?$AAe?$AAx?$AAt?$AA?9?$AAm?$AAs?$AA?9?$AAw?$AAi?$AAn?$AA?9?$AAn?$AAt?$AAu?$AAs@ 000000018004e490     libucrt:winapi_thunks.obj
 0002:000054e0       ??_C@_1BC@DNHGCMLG@?$AAa?$AAd?$AAv?$AAa?$AAp?$AAi?$AA3?$AA2@ 000000018004e4e0     libucrt:winapi_thunks.obj
 0002:000054f8       ??_C@_1M@OAIMIKLP@?$AAn?$AAt?$AAd?$AAl?$AAl@ 000000018004e4f8     libucrt:winapi_thunks.obj
 0002:00005510       ??_C@_1EG@DPGNFKGC@?$AAa?$AAp?$AAi?$AA?9?$AAm?$AAs?$AA?9?$AAw?$AAi?$AAn?$AA?9?$AAa?$AAp?$AAp?$AAm@ 000000018004e510     libucrt:winapi_thunks.obj
 0002:00005558       ??_C@_1O@BCCLBEOE@?$AAu?$AAs?$AAe?$AAr?$AA3?$AA2@ 000000018004e558     libucrt:winapi_thunks.obj
 0002:00005568       ??_C@_1BA@IAIFMGEF@?$AAe?$AAx?$AAt?$AA?9?$AAm?$AAs?$AA?9@ 000000018004e568     libucrt:winapi_thunks.obj
 0002:00005580       ??_C@_0BA@FHFNEAED@AreFileApisANSI@ 000000018004e580     libucrt:winapi_thunks.obj
 0002:000055a0       ??_C@_0O@KKBNKAPF@LCMapStringEx@ 000000018004e5a0     libucrt:winapi_thunks.obj
 0002:000055b8       ??_C@_0BB@HBDEELFH@LocaleNameToLCID@ 000000018004e5b8     libucrt:winapi_thunks.obj
 0002:000055d0       ??_C@_0CF@OJOFEIGO@AppPolicyGetProcessTerminationM@ 000000018004e5d0     libucrt:winapi_thunks.obj
 0002:00005600       __lc_time_c                000000018004e600     libucrt:nlsdata.obj
 0002:000058c0       ??_C@_03KOEHGMDN@Sun@      000000018004e8c0     libucrt:nlsdata.obj
 0002:000058c4       ??_C@_03PDAGKDH@Mon@       000000018004e8c4     libucrt:nlsdata.obj
 0002:000058c8       ??_C@_03NAGEINEP@Tue@      000000018004e8c8     libucrt:nlsdata.obj
 0002:000058cc       ??_C@_03MHOMLAJA@Wed@      000000018004e8cc     libucrt:nlsdata.obj
 0002:000058d0       ??_C@_03IOFIKPDN@Thu@      000000018004e8d0     libucrt:nlsdata.obj
 0002:000058d4       ??_C@_03IDIOELNC@Fri@      000000018004e8d4     libucrt:nlsdata.obj
 0002:000058d8       ??_C@_03FEFJNEK@Sat@       000000018004e8d8     libucrt:nlsdata.obj
 0002:000058dc       ??_C@_06OOPIFAJ@Sunday@    000000018004e8dc     libucrt:nlsdata.obj
 0002:000058e4       ??_C@_06JLEDEDGH@Monday@   000000018004e8e4     libucrt:nlsdata.obj
 0002:000058f0       ??_C@_07BAAGCFCM@Tuesday@  000000018004e8f0     libucrt:nlsdata.obj
 0002:000058f8       ??_C@_09DLIGFAKA@Wednesday@ 000000018004e8f8     libucrt:nlsdata.obj
 0002:00005908       ??_C@_08HACCIKIA@Thursday@ 000000018004e908     libucrt:nlsdata.obj
 0002:00005914       ??_C@_06JECMNKMI@Friday@   000000018004e914     libucrt:nlsdata.obj
 0002:00005920       ??_C@_08INBOOONO@Saturday@ 000000018004e920     libucrt:nlsdata.obj
 0002:0000592c       ??_C@_03JIHJHPIE@Jan@      000000018004e92c     libucrt:nlsdata.obj
 0002:00005930       ??_C@_03HJBDCHOM@Feb@      000000018004e930     libucrt:nlsdata.obj
 0002:00005934       ??_C@_03ODNJBKGA@Mar@      000000018004e934     libucrt:nlsdata.obj
 0002:00005938       ??_C@_03LEOLGMJP@Apr@      000000018004e938     libucrt:nlsdata.obj
 0002:0000593c       ??_C@_03CNMDKL@May@        000000018004e93c     libucrt:nlsdata.obj
 0002:00005940       ??_C@_03IDFGHECI@Jun@      000000018004e940     libucrt:nlsdata.obj
 0002:00005944       ??_C@_03LBGABGKK@Jul@      000000018004e944     libucrt:nlsdata.obj
 0002:00005948       ??_C@_03IFJFEIGA@Aug@      000000018004e948     libucrt:nlsdata.obj
 0002:0000594c       ??_C@_03GGCAPAJC@Sep@      000000018004e94c     libucrt:nlsdata.obj
 0002:00005950       ??_C@_03BMAOKBAD@Oct@      000000018004e950     libucrt:nlsdata.obj
 0002:00005954       ??_C@_03JPJOFNIA@Nov@      000000018004e954     libucrt:nlsdata.obj
 0002:00005958       ??_C@_03MKABNOCG@Dec@      000000018004e958     libucrt:nlsdata.obj
 0002:00005960       ??_C@_07CGJPFGJA@January@  000000018004e960     libucrt:nlsdata.obj
 0002:00005968       ??_C@_08GNJGEPFN@February@ 000000018004e968     libucrt:nlsdata.obj
 0002:00005974       ??_C@_05HPCKOFNC@March@    000000018004e974     libucrt:nlsdata.obj
 0002:0000597c       ??_C@_05DMJDNLEJ@April@    000000018004e97c     libucrt:nlsdata.obj
 0002:00005984       ??_C@_04CNLMGBGM@June@     000000018004e984     libucrt:nlsdata.obj
 0002:0000598c       ??_C@_04MIEPOIFP@July@     000000018004e98c     libucrt:nlsdata.obj
 0002:00005994       ??_C@_06LBBHFDDG@August@   000000018004e994     libucrt:nlsdata.obj
 0002:000059a0       ??_C@_09BHHEALKD@September@ 000000018004e9a0     libucrt:nlsdata.obj
 0002:000059b0       ??_C@_07JJNFCEND@October@  000000018004e9b0     libucrt:nlsdata.obj
 0002:000059b8       ??_C@_08HCHEGEOA@November@ 000000018004e9b8     libucrt:nlsdata.obj
 0002:000059c8       ??_C@_08EDHMEBNP@December@ 000000018004e9c8     libucrt:nlsdata.obj
 0002:000059d4       ??_C@_02DEDBPAFC@AM@       000000018004e9d4     libucrt:nlsdata.obj
 0002:000059d8       ??_C@_02CJNFDJBF@PM@       000000018004e9d8     libucrt:nlsdata.obj
 0002:000059e0       ??_C@_08BPBNCDIB@MM?1dd?1yy@ 000000018004e9e0     libucrt:nlsdata.obj
 0002:000059f0       ??_C@_0BE@CKGJFCPC@dddd?0?5MMMM?5dd?0?5yyyy@ 000000018004e9f0     libucrt:nlsdata.obj
 0002:00005a08       ??_C@_08JCCMCCIL@HH?3mm?3ss@ 000000018004ea08     libucrt:nlsdata.obj
 0002:00005a18       ??_C@_17MBGCMIPB@?$AAS?$AAu?$AAn@ 000000018004ea18     libucrt:nlsdata.obj
 0002:00005a20       ??_C@_17KBOMKBF@?$AAM?$AAo?$AAn@ 000000018004ea20     libucrt:nlsdata.obj
 0002:00005a28       ??_C@_17BMKGEGOJ@?$AAT?$AAu?$AAe@ 000000018004ea28     libucrt:nlsdata.obj
 0002:00005a30       ??_C@_17CJEDCEPE@?$AAW?$AAe?$AAd@ 000000018004ea30     libucrt:nlsdata.obj
 0002:00005a38       ??_C@_17PDPHAADD@?$AAT?$AAh?$AAu@ 000000018004ea38     libucrt:nlsdata.obj
 0002:00005a40       ??_C@_17HFOLPPLP@?$AAF?$AAr?$AAi@ 000000018004ea40     libucrt:nlsdata.obj
 0002:00005a48       ??_C@_17GGIBDPIH@?$AAS?$AAa?$AAt@ 000000018004ea48     libucrt:nlsdata.obj
 0002:00005a50       ??_C@_1O@IHNHDHPB@?$AAS?$AAu?$AAn?$AAd?$AAa?$AAy@ 000000018004ea50     libucrt:nlsdata.obj
 0002:00005a60       ??_C@_1O@MMNBFLIA@?$AAM?$AAo?$AAn?$AAd?$AAa?$AAy@ 000000018004ea60     libucrt:nlsdata.obj
 0002:00005a70       ??_C@_1BA@ENFBFFEK@?$AAT?$AAu?$AAe?$AAs?$AAd?$AAa?$AAy@ 000000018004ea70     libucrt:nlsdata.obj
 0002:00005a80       ??_C@_1BE@EBOGMDOH@?$AAW?$AAe?$AAd?$AAn?$AAe?$AAs?$AAd?$AAa?$AAy@ 000000018004ea80     libucrt:nlsdata.obj
 0002:00005a98       ??_C@_1BC@HHMNLIHE@?$AAT?$AAh?$AAu?$AAr?$AAs?$AAd?$AAa?$AAy@ 000000018004ea98     libucrt:nlsdata.obj
 0002:00005ab0       ??_C@_1O@PDICJHAG@?$AAF?$AAr?$AAi?$AAd?$AAa?$AAy@ 000000018004eab0     libucrt:nlsdata.obj
 0002:00005ac0       ??_C@_1BC@ENMNNPAJ@?$AAS?$AAa?$AAt?$AAu?$AAr?$AAd?$AAa?$AAy@ 000000018004eac0     libucrt:nlsdata.obj
 0002:00005ad8       ??_C@_17DKNBKCHM@?$AAJ?$AAa?$AAn@ 000000018004ead8     libucrt:nlsdata.obj
 0002:00005ae0       ??_C@_17LMDJEKJN@?$AAF?$AAe?$AAb@ 000000018004eae0     libucrt:nlsdata.obj
 0002:00005ae8       ??_C@_17CKNLEDEC@?$AAM?$AAa?$AAr@ 000000018004eae8     libucrt:nlsdata.obj
 0002:00005af0       ??_C@_17LFPOIHDD@?$AAA?$AAp?$AAr@ 000000018004eaf0     libucrt:nlsdata.obj
 0002:00005af8       ??_C@_17PNNKMEED@?$AAM?$AAa?$AAy@ 000000018004eaf8     libucrt:nlsdata.obj
 0002:00005b00       ??_C@_17KCJGOCPB@?$AAJ?$AAu?$AAn@ 000000018004eb00     libucrt:nlsdata.obj
 0002:00005b08       ??_C@_17IJPCKHK@?$AAJ?$AAu?$AAl@ 000000018004eb08     libucrt:nlsdata.obj
 0002:00005b10       ??_C@_17ICPELBCN@?$AAA?$AAu?$AAg@ 000000018004eb10     libucrt:nlsdata.obj
 0002:00005b18       ??_C@_17HCHCOKMG@?$AAS?$AAe?$AAp@ 000000018004eb18     libucrt:nlsdata.obj
 0002:00005b20       ??_C@_17FNLKOI@?$AAO?$AAc?$AAt@ 000000018004eb20     libucrt:nlsdata.obj
 0002:00005b28       ??_C@_17BBDMLCIG@?$AAN?$AAo?$AAv@ 000000018004eb28     libucrt:nlsdata.obj
 0002:00005b30       ??_C@_17EGKACKIF@?$AAD?$AAe?$AAc@ 000000018004eb30     libucrt:nlsdata.obj
 0002:00005b38       ??_C@_1BA@EFMEIEBA@?$AAJ?$AAa?$AAn?$AAu?$AAa?$AAr?$AAy@ 000000018004eb38     libucrt:nlsdata.obj
 0002:00005b48       ??_C@_1BC@JGDDFFAM@?$AAF?$AAe?$AAb?$AAr?$AAu?$AAa?$AAr?$AAy@ 000000018004eb48     libucrt:nlsdata.obj
 0002:00005b60       ??_C@_1M@IKEENEDF@?$AAM?$AAa?$AAr?$AAc?$AAh@ 000000018004eb60     libucrt:nlsdata.obj
 0002:00005b70       ??_C@_1M@GJNLMHFD@?$AAA?$AAp?$AAr?$AAi?$AAl@ 000000018004eb70     libucrt:nlsdata.obj
 0002:00005b80       ??_C@_19EPFLPGAP@?$AAJ?$AAu?$AAn?$AAe@ 000000018004eb80     libucrt:nlsdata.obj
 0002:00005b90       ??_C@_19BIFMLPCD@?$AAJ?$AAu?$AAl?$AAy@ 000000018004eb90     libucrt:nlsdata.obj
 0002:00005ba0       ??_C@_1O@PAHLKOAC@?$AAA?$AAu?$AAg?$AAu?$AAs?$AAt@ 000000018004eba0     libucrt:nlsdata.obj
 0002:00005bb0       ??_C@_1BE@DKAAMBJL@?$AAS?$AAe?$AAp?$AAt?$AAe?$AAm?$AAb?$AAe?$AAr@ 000000018004ebb0     libucrt:nlsdata.obj
 0002:00005bc8       ??_C@_1BA@EPANDLNG@?$AAO?$AAc?$AAt?$AAo?$AAb?$AAe?$AAr@ 000000018004ebc8     libucrt:nlsdata.obj
 0002:00005bd8       ??_C@_1BC@BGLIFPF@?$AAN?$AAo?$AAv?$AAe?$AAm?$AAb?$AAe?$AAr@ 000000018004ebd8     libucrt:nlsdata.obj
 0002:00005bf0       ??_C@_1BC@FEMKIFH@?$AAD?$AAe?$AAc?$AAe?$AAm?$AAb?$AAe?$AAr@ 000000018004ebf0     libucrt:nlsdata.obj
 0002:00005c04       ??_C@_15ODEHAHHF@?$AAA?$AAM@ 000000018004ec04     libucrt:nlsdata.obj
 0002:00005c0c       ??_C@_15CLMNNGEL@?$AAP?$AAM@ 000000018004ec0c     libucrt:nlsdata.obj
 0002:00005c18       ??_C@_1BC@IEBCMHCM@?$AAM?$AAM?$AA?1?$AAd?$AAd?$AA?1?$AAy?$AAy@ 000000018004ec18     libucrt:nlsdata.obj
 0002:00005c30       ??_C@_1CI@KNAKOEBC@?$AAd?$AAd?$AAd?$AAd?$AA?0?$AA?5?$AAM?$AAM?$AAM?$AAM?$AA?5?$AAd?$AAd?$AA?0?$AA?5@ 000000018004ec30     libucrt:nlsdata.obj
 0002:00005c58       ??_C@_1BC@GDGBMEMK@?$AAH?$AAH?$AA?3?$AAm?$AAm?$AA?3?$AAs?$AAs@ 000000018004ec58     libucrt:nlsdata.obj
 0002:00005c70       ??_C@_1M@BMHNFIME@?$AAe?$AAn?$AA?9?$AAU?$AAS@ 000000018004ec70     libucrt:nlsdata.obj
 0002:00005d00       ??_C@_03OEIAHPBN@INF@      000000018004ed00     libucrt:cvt.obj
 0002:00005d04       ??_C@_03OJHLLCGB@inf@      000000018004ed04     libucrt:cvt.obj
 0002:00005d08       ??_C@_03LKNCIKJB@NAN@      000000018004ed08     libucrt:cvt.obj
 0002:00005d0c       ??_C@_03LHCJEHON@nan@      000000018004ed0c     libucrt:cvt.obj
 0002:00005d10       ??_C@_09OFJJIMPC@NAN?$CISNAN?$CJ@ 000000018004ed10     libucrt:cvt.obj
 0002:00005d20       ??_C@_09IPFBKMDL@nan?$CIsnan?$CJ@ 000000018004ed20     libucrt:cvt.obj
 0002:00005d30       ??_C@_08IKHNHAJ@NAN?$CIIND?$CJ@ 000000018004ed30     libucrt:cvt.obj
 0002:00005d40       ??_C@_08OFCDMILK@nan?$CIind?$CJ@ 000000018004ed40     libucrt:cvt.obj
 0002:00005d4c       ??_C@_05KLBDPFGC@e?$CL000@ 000000018004ed4c     libucrt:cvt.obj
 0002:00005d60       __newctype                 000000018004ed60     libucrt:ctype.obj
 0002:00006060       __newclmap                 000000018004f060     libucrt:ctype.obj
 0002:000061e0       __newcumap                 000000018004f1e0     libucrt:ctype.obj
 0002:00006370       ??_C@_05HGHHAHAP@log10@    000000018004f370     libucrt:fpexcept.obj
 0002:000071c0       ??_C@_15EMKDOKLE@?$AAa?$AAr@ 00000001800501c0     libucrt:lcidtoname_downlevel.obj
 0002:000071c8       ??_C@_15KNPADPLH@?$AAb?$AAg@ 00000001800501c8     libucrt:lcidtoname_downlevel.obj
 0002:000071d0       ??_C@_15EDMHLDMO@?$AAc?$AAa@ 00000001800501d0     libucrt:lcidtoname_downlevel.obj
 0002:000071d8       ??_C@_1O@BPEAJADD@?$AAz?$AAh?$AA?9?$AAC?$AAH?$AAS@ 00000001800501d8     libucrt:lcidtoname_downlevel.obj
 0002:000071e8       ??_C@_15LJNHCMNK@?$AAc?$AAs@ 00000001800501e8     libucrt:lcidtoname_downlevel.obj
 0002:000071f0       ??_C@_15FOMCIDHG@?$AAd?$AAa@ 00000001800501f0     libucrt:lcidtoname_downlevel.obj
 0002:000071f8       ??_C@_15NBKABECB@?$AAd?$AAe@ 00000001800501f8     libucrt:lcidtoname_downlevel.obj
 0002:00007200       ??_C@_15GHPEIIAO@?$AAe?$AAl@ 0000000180050200     libucrt:lcidtoname_downlevel.obj
 0002:00007208       ??_C@_15MNPNEAIF@?$AAe?$AAn@ 0000000180050208     libucrt:lcidtoname_downlevel.obj
 0002:00007210       ??_C@_15GPIOMPMH@?$AAe?$AAs@ 0000000180050210     libucrt:lcidtoname_downlevel.obj
 0002:00007218       ??_C@_15NGLOAKJC@?$AAf?$AAi@ 0000000180050218     libucrt:lcidtoname_downlevel.obj
 0002:00007220       ??_C@_15FBKGNKAM@?$AAf?$AAr@ 0000000180050220     libucrt:lcidtoname_downlevel.obj
 0002:00007228       ??_C@_15KGGCNEFK@?$AAh?$AAe@ 0000000180050228     libucrt:lcidtoname_downlevel.obj
 0002:00007230       ??_C@_15PGHLIDMF@?$AAh?$AAu@ 0000000180050230     libucrt:lcidtoname_downlevel.obj
 0002:00007238       ??_C@_15BIEMAPLM@?$AAi?$AAs@ 0000000180050238     libucrt:lcidtoname_downlevel.obj
 0002:00007240       ??_C@_15IFJLDHAF@?$AAi?$AAt@ 0000000180050240     libucrt:lcidtoname_downlevel.obj
 0002:00007248       ??_C@_15GEMIOCAG@?$AAj?$AAa@ 0000000180050248     libucrt:lcidtoname_downlevel.obj
 0002:00007250       ??_C@_15EPELEGJA@?$AAk?$AAo@ 0000000180050250     libucrt:lcidtoname_downlevel.obj
 0002:00007258       ??_C@_15NDDHIMN@?$AAn?$AAl@ 0000000180050258     libucrt:lcidtoname_downlevel.obj
 0002:00007260       ??_C@_15BPIGNHCD@?$AAn?$AAo@ 0000000180050260     libucrt:lcidtoname_downlevel.obj
 0002:00007268       ??_C@_15DEOPBLCG@?$AAp?$AAl@ 0000000180050268     libucrt:lcidtoname_downlevel.obj
 0002:00007270       ??_C@_15KBECGEFG@?$AAp?$AAt@ 0000000180050270     libucrt:lcidtoname_downlevel.obj
 0002:00007278       ??_C@_15GLJCBFMD@?$AAr?$AAo@ 0000000180050278     libucrt:lcidtoname_downlevel.obj
 0002:00007280       ??_C@_15FEDGKCDI@?$AAr?$AAu@ 0000000180050280     libucrt:lcidtoname_downlevel.obj
 0002:00007288       ??_C@_15GLKMLLHM@?$AAh?$AAr@ 0000000180050288     libucrt:lcidtoname_downlevel.obj
 0002:00007290       ??_C@_15CPKMFBDB@?$AAs?$AAk@ 0000000180050290     libucrt:lcidtoname_downlevel.obj
 0002:00007298       ??_C@_15BAAIOGMK@?$AAs?$AAq@ 0000000180050298     libucrt:lcidtoname_downlevel.obj
 0002:000072a0       ??_C@_15INNPNOHD@?$AAs?$AAv@ 00000001800502a0     libucrt:lcidtoname_downlevel.obj
 0002:000072a8       ??_C@_15CABMMOGH@?$AAt?$AAh@ 00000001800502a8     libucrt:lcidtoname_downlevel.obj
 0002:000072b0       ??_C@_15BPLIHJJM@?$AAt?$AAr@ 00000001800502b0     libucrt:lcidtoname_downlevel.obj
 0002:000072b8       ??_C@_15NEOEKKDJ@?$AAu?$AAr@ 00000001800502b8     libucrt:lcidtoname_downlevel.obj
 0002:000072c0       ??_C@_15NFICGAJK@?$AAi?$AAd@ 00000001800502c0     libucrt:lcidtoname_downlevel.obj
 0002:000072c8       ??_C@_15PJPFLCCM@?$AAu?$AAk@ 00000001800502c8     libucrt:lcidtoname_downlevel.obj
 0002:000072d0       ??_C@_15HPJPHDM@?$AAb?$AAe@ 00000001800502d0     libucrt:lcidtoname_downlevel.obj
 0002:000072d8       ??_C@_15LCHLGJII@?$AAs?$AAl@ 00000001800502d8     libucrt:lcidtoname_downlevel.obj
 0002:000072e0       ??_C@_15PCFJPHHO@?$AAe?$AAt@ 00000001800502e0     libucrt:lcidtoname_downlevel.obj
 0002:000072e8       ??_C@_15HPFPGODN@?$AAl?$AAv@ 00000001800502e8     libucrt:lcidtoname_downlevel.obj
 0002:000072f0       ??_C@_15NFFGKGLG@?$AAl?$AAt@ 00000001800502f0     libucrt:lcidtoname_downlevel.obj
 0002:000072f8       ??_C@_15BDAKCCHN@?$AAf?$AAa@ 00000001800502f8     libucrt:lcidtoname_downlevel.obj
 0002:00007300       ??_C@_15NFGIAIAJ@?$AAv?$AAi@ 0000000180050300     libucrt:lcidtoname_downlevel.obj
 0002:00007308       ??_C@_15LMKNDMHN@?$AAh?$AAy@ 0000000180050308     libucrt:lcidtoname_downlevel.obj
 0002:00007310       ??_C@_15IJBHMCFL@?$AAa?$AAz@ 0000000180050310     libucrt:lcidtoname_downlevel.obj
 0002:00007318       ??_C@_15EKOFJABL@?$AAe?$AAu@ 0000000180050318     libucrt:lcidtoname_downlevel.obj
 0002:00007320       ??_C@_15BGHADCNK@?$AAm?$AAk@ 0000000180050320     libucrt:lcidtoname_downlevel.obj
 0002:00007328       ??_C@_15JDNICKHM@?$AAa?$AAf@ 0000000180050328     libucrt:lcidtoname_downlevel.obj
 0002:00007330       ??_C@_15KPJEDBKD@?$AAk?$AAa@ 0000000180050330     libucrt:lcidtoname_downlevel.obj
 0002:00007338       ??_C@_15PDNFFFEO@?$AAf?$AAo@ 0000000180050338     libucrt:lcidtoname_downlevel.obj
 0002:00007340       ??_C@_15OMLEGLOC@?$AAh?$AAi@ 0000000180050340     libucrt:lcidtoname_downlevel.obj
 0002:00007348       ??_C@_15IDNNENKK@?$AAm?$AAs@ 0000000180050348     libucrt:lcidtoname_downlevel.obj
 0002:00007350       ??_C@_15MACJNBMH@?$AAk?$AAk@ 0000000180050350     libucrt:lcidtoname_downlevel.obj
 0002:00007358       ??_C@_15DKDJEOND@?$AAk?$AAy@ 0000000180050358     libucrt:lcidtoname_downlevel.obj
 0002:00007360       ??_C@_15DFGDLJBG@?$AAs?$AAw@ 0000000180050360     libucrt:lcidtoname_downlevel.obj
 0002:00007368       ??_C@_15BBFAICNG@?$AAu?$AAz@ 0000000180050368     libucrt:lcidtoname_downlevel.obj
 0002:00007370       ??_C@_15DKNDCGEA@?$AAt?$AAt@ 0000000180050370     libucrt:lcidtoname_downlevel.obj
 0002:00007378       ??_C@_15MGIFMDPL@?$AAp?$AAa@ 0000000180050378     libucrt:lcidtoname_downlevel.obj
 0002:00007380       ??_C@_15HCNDBBA@?$AAg?$AAu@ 0000000180050380     libucrt:lcidtoname_downlevel.obj
 0002:00007388       ??_C@_15FNBEIBON@?$AAt?$AAa@ 0000000180050388     libucrt:lcidtoname_downlevel.obj
 0002:00007390       ??_C@_15NCHGBGLK@?$AAt?$AAe@ 0000000180050390     libucrt:lcidtoname_downlevel.obj
 0002:00007398       ??_C@_15PHPHCBPF@?$AAk?$AAn@ 0000000180050398     libucrt:lcidtoname_downlevel.obj
 0002:000073a0       ??_C@_15DLGBCKMP@?$AAm?$AAr@ 00000001800503a0     libucrt:lcidtoname_downlevel.obj
 0002:000073a8       ??_C@_15EABBLBFF@?$AAs?$AAa@ 00000001800503a8     libucrt:lcidtoname_downlevel.obj
 0002:000073b0       ??_C@_15CBKOMCOI@?$AAm?$AAn@ 00000001800503b0     libucrt:lcidtoname_downlevel.obj
 0002:000073b8       ??_C@_15CKDMCJAF@?$AAg?$AAl@ 00000001800503b8     libucrt:lcidtoname_downlevel.obj
 0002:000073c0       ??_C@_17CNJFBPG@?$AAk?$AAo?$AAk@ 00000001800503c0     libucrt:lcidtoname_downlevel.obj
 0002:000073c8       ??_C@_17FFBJICPL@?$AAs?$AAy?$AAr@ 00000001800503c8     libucrt:lcidtoname_downlevel.obj
 0002:000073d0       ??_C@_17KPNDCPAF@?$AAd?$AAi?$AAv@ 00000001800503d0     libucrt:lcidtoname_downlevel.obj
 0002:000073d8       ??_C@_11LOCGONAA@@         00000001800503d8     libucrt:lcidtoname_downlevel.obj
 0002:000073e0       ??_C@_1M@OKAHONE@?$AAa?$AAr?$AA?9?$AAS?$AAA@ 00000001800503e0     libucrt:lcidtoname_downlevel.obj
 0002:000073f0       ??_C@_1M@FFFIGIGK@?$AAb?$AAg?$AA?9?$AAB?$AAG@ 00000001800503f0     libucrt:lcidtoname_downlevel.obj
 0002:00007400       ??_C@_1M@BJNKEDC@?$AAc?$AAa?$AA?9?$AAE?$AAS@ 0000000180050400     libucrt:lcidtoname_downlevel.obj
 0002:00007410       ??_C@_1M@IJJHFJHA@?$AAc?$AAs?$AA?9?$AAC?$AAZ@ 0000000180050410     libucrt:lcidtoname_downlevel.obj
 0002:00007420       ??_C@_1M@CLPEOBGI@?$AAd?$AAa?$AA?9?$AAD?$AAK@ 0000000180050420     libucrt:lcidtoname_downlevel.obj
 0002:00007430       ??_C@_1M@MCMADGCB@?$AAd?$AAe?$AA?9?$AAD?$AAE@ 0000000180050430     libucrt:lcidtoname_downlevel.obj
 0002:00007440       ??_C@_1M@OOCKEMAM@?$AAe?$AAl?$AA?9?$AAG?$AAR@ 0000000180050440     libucrt:lcidtoname_downlevel.obj
 0002:00007450       ??_C@_1M@DDNJFGID@?$AAf?$AAi?$AA?9?$AAF?$AAI@ 0000000180050450     libucrt:lcidtoname_downlevel.obj
 0002:00007460       ??_C@_1M@GLIPPMAC@?$AAf?$AAr?$AA?9?$AAF?$AAR@ 0000000180050460     libucrt:lcidtoname_downlevel.obj
 0002:00007470       ??_C@_1M@GFMCHPE@?$AAh?$AAe?$AA?9?$AAI?$AAL@ 0000000180050470     libucrt:lcidtoname_downlevel.obj
 0002:00007480       ??_C@_1M@MHLPGNKM@?$AAh?$AAu?$AA?9?$AAH?$AAU@ 0000000180050480     libucrt:lcidtoname_downlevel.obj
 0002:00007490       ??_C@_1M@LPDDNNPN@?$AAi?$AAs?$AA?9?$AAI?$AAS@ 0000000180050490     libucrt:lcidtoname_downlevel.obj
 0002:000074a0       ??_C@_1M@MADIPODN@?$AAi?$AAt?$AA?9?$AAI?$AAT@ 00000001800504a0     libucrt:lcidtoname_downlevel.obj
 0002:000074b0       ??_C@_1M@IHBJJGG@?$AAn?$AAl?$AA?9?$AAN?$AAL@ 00000001800504b0     libucrt:lcidtoname_downlevel.obj
 0002:000074c0       ??_C@_1M@EANAGDL@?$AAn?$AAb?$AA?9?$AAN?$AAO@ 00000001800504c0     libucrt:lcidtoname_downlevel.obj
 0002:000074d0       ??_C@_1M@NEIEMEGP@?$AAp?$AAl?$AA?9?$AAP?$AAL@ 00000001800504d0     libucrt:lcidtoname_downlevel.obj
 0002:000074e0       ??_C@_1M@BOCFIGEP@?$AAp?$AAt?$AA?9?$AAB?$AAR@ 00000001800504e0     libucrt:lcidtoname_downlevel.obj
 0002:000074f0       ??_C@_1M@IMPFOPBG@?$AAr?$AAo?$AA?9?$AAR?$AAO@ 00000001800504f0     libucrt:lcidtoname_downlevel.obj
 0002:00007500       ??_C@_1M@IDNNEJMM@?$AAr?$AAu?$AA?9?$AAR?$AAU@ 0000000180050500     libucrt:lcidtoname_downlevel.obj
 0002:00007510       ??_C@_1M@LILEEOGM@?$AAh?$AAr?$AA?9?$AAH?$AAR@ 0000000180050510     libucrt:lcidtoname_downlevel.obj
 0002:00007520       ??_C@_1M@FKIFEHPB@?$AAs?$AAk?$AA?9?$AAS?$AAK@ 0000000180050520     libucrt:lcidtoname_downlevel.obj
 0002:00007530       ??_C@_1M@LJMAMNPJ@?$AAs?$AAq?$AA?9?$AAA?$AAL@ 0000000180050530     libucrt:lcidtoname_downlevel.obj
 0002:00007540       ??_C@_1M@GIAKDKJK@?$AAs?$AAv?$AA?9?$AAS?$AAE@ 0000000180050540     libucrt:lcidtoname_downlevel.obj
 0002:00007550       ??_C@_1M@MKJKIKCL@?$AAt?$AAh?$AA?9?$AAT?$AAH@ 0000000180050550     libucrt:lcidtoname_downlevel.obj
 0002:00007560       ??_C@_1M@MFLCCMPB@?$AAt?$AAr?$AA?9?$AAT?$AAR@ 0000000180050560     libucrt:lcidtoname_downlevel.obj
 0002:00007570       ??_C@_1M@OIJHDKJN@?$AAu?$AAr?$AA?9?$AAP?$AAK@ 0000000180050570     libucrt:lcidtoname_downlevel.obj
 0002:00007580       ??_C@_1M@LHIPCIEK@?$AAi?$AAd?$AA?9?$AAI?$AAD@ 0000000180050580     libucrt:lcidtoname_downlevel.obj
 0002:00007590       ??_C@_1M@MFMOBGI@?$AAu?$AAk?$AA?9?$AAU?$AAA@ 0000000180050590     libucrt:lcidtoname_downlevel.obj
 0002:000075a0       ??_C@_1M@OBGLJIPL@?$AAb?$AAe?$AA?9?$AAB?$AAY@ 00000001800505a0     libucrt:lcidtoname_downlevel.obj
 0002:000075b0       ??_C@_1M@BCFAJEAD@?$AAs?$AAl?$AA?9?$AAS?$AAI@ 00000001800505b0     libucrt:lcidtoname_downlevel.obj
 0002:000075c0       ??_C@_1M@FKFFEDDN@?$AAe?$AAt?$AA?9?$AAE?$AAE@ 00000001800505c0     libucrt:lcidtoname_downlevel.obj
 0002:000075d0       ??_C@_1M@KGKKAACI@?$AAl?$AAv?$AA?9?$AAL?$AAV@ 00000001800505d0     libucrt:lcidtoname_downlevel.obj
 0002:000075e0       ??_C@_1M@IFGBIJO@?$AAl?$AAt?$AA?9?$AAL?$AAT@ 00000001800505e0     libucrt:lcidtoname_downlevel.obj
 0002:000075f0       ??_C@_1M@FGEAHEDM@?$AAf?$AAa?$AA?9?$AAI?$AAR@ 00000001800505f0     libucrt:lcidtoname_downlevel.obj
 0002:00007600       ??_C@_1M@KBMAIBFN@?$AAv?$AAi?$AA?9?$AAV?$AAN@ 0000000180050600     libucrt:lcidtoname_downlevel.obj
 0002:00007610       ??_C@_1M@GPCBKDJK@?$AAh?$AAy?$AA?9?$AAA?$AAM@ 0000000180050610     libucrt:lcidtoname_downlevel.obj
 0002:00007620       ??_C@_1BG@BECMDDJB@?$AAa?$AAz?$AA?9?$AAA?$AAZ?$AA?9?$AAL?$AAa?$AAt?$AAn@ 0000000180050620     libucrt:lcidtoname_downlevel.obj
 0002:00007638       ??_C@_1M@MAOFCAEA@?$AAe?$AAu?$AA?9?$AAE?$AAS@ 0000000180050638     libucrt:lcidtoname_downlevel.obj
 0002:00007648       ??_C@_1M@IGHABKPI@?$AAm?$AAk?$AA?9?$AAM?$AAK@ 0000000180050648     libucrt:lcidtoname_downlevel.obj
 0002:00007658       ??_C@_1M@IAIGNEJG@?$AAt?$AAn?$AA?9?$AAZ?$AAA@ 0000000180050658     libucrt:lcidtoname_downlevel.obj
 0002:00007668       ??_C@_1M@IIJCOJFA@?$AAx?$AAh?$AA?9?$AAZ?$AAA@ 0000000180050668     libucrt:lcidtoname_downlevel.obj
 0002:00007678       ??_C@_1M@LGPJHNJH@?$AAz?$AAu?$AA?9?$AAZ?$AAA@ 0000000180050678     libucrt:lcidtoname_downlevel.obj
 0002:00007688       ??_C@_1M@HOKAOIO@?$AAa?$AAf?$AA?9?$AAZ?$AAA@ 0000000180050688     libucrt:lcidtoname_downlevel.obj
 0002:00007698       ??_C@_1M@DPCLHLIE@?$AAk?$AAa?$AA?9?$AAG?$AAE@ 0000000180050698     libucrt:lcidtoname_downlevel.obj
 0002:000076a8       ??_C@_1M@BLKMHJBI@?$AAf?$AAo?$AA?9?$AAF?$AAO@ 00000001800506a8     libucrt:lcidtoname_downlevel.obj
 0002:000076b8       ??_C@_1M@LGGJAPPB@?$AAh?$AAi?$AA?9?$AAI?$AAN@ 00000001800506b8     libucrt:lcidtoname_downlevel.obj
 0002:000076c8       ??_C@_1M@FIKPIHFE@?$AAm?$AAt?$AA?9?$AAM?$AAT@ 00000001800506c8     libucrt:lcidtoname_downlevel.obj
 0002:000076d8       ??_C@_1M@HEGGPBFA@?$AAs?$AAe?$AA?9?$AAN?$AAO@ 00000001800506d8     libucrt:lcidtoname_downlevel.obj
 0002:000076e8       ??_C@_1M@EIBJEEPA@?$AAm?$AAs?$AA?9?$AAM?$AAY@ 00000001800506e8     libucrt:lcidtoname_downlevel.obj
 0002:000076f8       ??_C@_1M@FHLBGMPP@?$AAk?$AAk?$AA?9?$AAK?$AAZ@ 00000001800506f8     libucrt:lcidtoname_downlevel.obj
 0002:00007708       ??_C@_1M@NGJJLCGI@?$AAk?$AAy?$AA?9?$AAK?$AAG@ 0000000180050708     libucrt:lcidtoname_downlevel.obj
 0002:00007718       ??_C@_1M@GIENNBFC@?$AAs?$AAw?$AA?9?$AAK?$AAE@ 0000000180050718     libucrt:lcidtoname_downlevel.obj
 0002:00007728       ??_C@_1BG@NDGMJIMJ@?$AAu?$AAz?$AA?9?$AAU?$AAZ?$AA?9?$AAL?$AAa?$AAt?$AAn@ 0000000180050728     libucrt:lcidtoname_downlevel.obj
 0002:00007740       ??_C@_1M@IDCCIHBC@?$AAt?$AAt?$AA?9?$AAR?$AAU@ 0000000180050740     libucrt:lcidtoname_downlevel.obj
 0002:00007750       ??_C@_1M@LOICPMOJ@?$AAb?$AAn?$AA?9?$AAI?$AAN@ 0000000180050750     libucrt:lcidtoname_downlevel.obj
 0002:00007760       ??_C@_1M@KPKKNEAH@?$AAp?$AAa?$AA?9?$AAI?$AAN@ 0000000180050760     libucrt:lcidtoname_downlevel.obj
 0002:00007770       ??_C@_1M@PJGPPBOG@?$AAg?$AAu?$AA?9?$AAI?$AAN@ 0000000180050770     libucrt:lcidtoname_downlevel.obj
 0002:00007780       ??_C@_1M@KMKMOPHI@?$AAt?$AAa?$AA?9?$AAI?$AAN@ 0000000180050780     libucrt:lcidtoname_downlevel.obj
 0002:00007790       ??_C@_1M@KFEHEPAC@?$AAt?$AAe?$AA?9?$AAI?$AAN@ 0000000180050790     libucrt:lcidtoname_downlevel.obj
 0002:000077a0       ??_C@_1M@CDCLMGHI@?$AAk?$AAn?$AA?9?$AAI?$AAN@ 00000001800507a0     libucrt:lcidtoname_downlevel.obj
 0002:000077b0       ??_C@_1M@MIODLDKF@?$AAm?$AAl?$AA?9?$AAI?$AAN@ 00000001800507b0     libucrt:lcidtoname_downlevel.obj
 0002:000077c0       ??_C@_1M@PBIEACPO@?$AAm?$AAr?$AA?9?$AAI?$AAN@ 00000001800507c0     libucrt:lcidtoname_downlevel.obj
 0002:000077d0       ??_C@_1M@NIDEAGPH@?$AAs?$AAa?$AA?9?$AAI?$AAN@ 00000001800507d0     libucrt:lcidtoname_downlevel.obj
 0002:000077e0       ??_C@_1M@FHIHCBIO@?$AAm?$AAn?$AA?9?$AAM?$AAN@ 00000001800507e0     libucrt:lcidtoname_downlevel.obj
 0002:000077f0       ??_C@_1M@JAIJPENP@?$AAc?$AAy?$AA?9?$AAG?$AAB@ 00000001800507f0     libucrt:lcidtoname_downlevel.obj
 0002:00007800       ??_C@_1M@PHGFBEPN@?$AAg?$AAl?$AA?9?$AAE?$AAS@ 0000000180050800     libucrt:lcidtoname_downlevel.obj
 0002:00007810       ??_C@_1O@KPIPDNCP@?$AAk?$AAo?$AAk?$AA?9?$AAI?$AAN@ 0000000180050810     libucrt:lcidtoname_downlevel.obj
 0002:00007820       ??_C@_1O@KNHJLDJA@?$AAs?$AAy?$AAr?$AA?9?$AAS?$AAY@ 0000000180050820     libucrt:lcidtoname_downlevel.obj
 0002:00007830       ??_C@_1O@MKEKBLAH@?$AAd?$AAi?$AAv?$AA?9?$AAM?$AAV@ 0000000180050830     libucrt:lcidtoname_downlevel.obj
 0002:00007840       ??_C@_1O@OHDCKDDF@?$AAq?$AAu?$AAz?$AA?9?$AAB?$AAO@ 0000000180050840     libucrt:lcidtoname_downlevel.obj
 0002:00007850       ??_C@_1M@LEPJNLFD@?$AAn?$AAs?$AA?9?$AAZ?$AAA@ 0000000180050850     libucrt:lcidtoname_downlevel.obj
 0002:00007860       ??_C@_1M@OMLEIIJB@?$AAm?$AAi?$AA?9?$AAN?$AAZ@ 0000000180050860     libucrt:lcidtoname_downlevel.obj
 0002:00007870       ??_C@_1M@PMPEAILG@?$AAa?$AAr?$AA?9?$AAI?$AAQ@ 0000000180050870     libucrt:lcidtoname_downlevel.obj
 0002:00007880       ??_C@_1M@CNKPNOEE@?$AAd?$AAe?$AA?9?$AAC?$AAH@ 0000000180050880     libucrt:lcidtoname_downlevel.obj
 0002:00007890       ??_C@_1M@LKMGMLKO@?$AAe?$AAn?$AA?9?$AAG?$AAB@ 0000000180050890     libucrt:lcidtoname_downlevel.obj
 0002:000078a0       ??_C@_1M@PGKJFFGL@?$AAe?$AAs?$AA?9?$AAM?$AAX@ 00000001800508a0     libucrt:lcidtoname_downlevel.obj
 0002:000078b0       ??_C@_1M@DNNANBDC@?$AAf?$AAr?$AA?9?$AAB?$AAE@ 00000001800508b0     libucrt:lcidtoname_downlevel.obj
 0002:000078c0       ??_C@_1M@HLGMDFHM@?$AAi?$AAt?$AA?9?$AAC?$AAH@ 00000001800508c0     libucrt:lcidtoname_downlevel.obj
 0002:000078d0       ??_C@_1M@CLLBGJH@?$AAn?$AAl?$AA?9?$AAB?$AAE@ 00000001800508d0     libucrt:lcidtoname_downlevel.obj
 0002:000078e0       ??_C@_1M@BODBOGLF@?$AAn?$AAn?$AA?9?$AAN?$AAO@ 00000001800508e0     libucrt:lcidtoname_downlevel.obj
 0002:000078f0       ??_C@_1M@HFFAHKAD@?$AAp?$AAt?$AA?9?$AAP?$AAT@ 00000001800508f0     libucrt:lcidtoname_downlevel.obj
 0002:00007900       ??_C@_1BG@LNOAKHIE@?$AAs?$AAr?$AA?9?$AAS?$AAP?$AA?9?$AAL?$AAa?$AAt?$AAn@ 0000000180050900     libucrt:lcidtoname_downlevel.obj
 0002:00007918       ??_C@_1M@HBMHBGAK@?$AAs?$AAv?$AA?9?$AAF?$AAI@ 0000000180050918     libucrt:lcidtoname_downlevel.obj
 0002:00007928       ??_C@_1BG@DGCJGJBE@?$AAa?$AAz?$AA?9?$AAA?$AAZ?$AA?9?$AAC?$AAy?$AAr?$AAl@ 0000000180050928     libucrt:lcidtoname_downlevel.obj
 0002:00007940       ??_C@_1M@KEJDAAHB@?$AAs?$AAe?$AA?9?$AAS?$AAE@ 0000000180050940     libucrt:lcidtoname_downlevel.obj
 0002:00007950       ??_C@_1M@HEIBJJAD@?$AAm?$AAs?$AA?9?$AAB?$AAN@ 0000000180050950     libucrt:lcidtoname_downlevel.obj
 0002:00007960       ??_C@_1BG@PBGJMCEM@?$AAu?$AAz?$AA?9?$AAU?$AAZ?$AA?9?$AAC?$AAy?$AAr?$AAl@ 0000000180050960     libucrt:lcidtoname_downlevel.obj
 0002:00007978       ??_C@_1O@LAOBCMDF@?$AAq?$AAu?$AAz?$AA?9?$AAE?$AAC@ 0000000180050978     libucrt:lcidtoname_downlevel.obj
 0002:00007988       ??_C@_1M@POEEMAIO@?$AAa?$AAr?$AA?9?$AAE?$AAG@ 0000000180050988     libucrt:lcidtoname_downlevel.obj
 0002:00007998       ??_C@_1M@EFAKDEDL@?$AAz?$AAh?$AA?9?$AAH?$AAK@ 0000000180050998     libucrt:lcidtoname_downlevel.obj
 0002:000079a8       ??_C@_1M@HKKIJHGI@?$AAd?$AAe?$AA?9?$AAA?$AAT@ 00000001800509a8     libucrt:lcidtoname_downlevel.obj
 0002:000079b8       ??_C@_1M@KBFBEHJF@?$AAe?$AAn?$AA?9?$AAA?$AAU@ 00000001800509b8     libucrt:lcidtoname_downlevel.obj
 0002:000079c8       ??_C@_1M@MNPLFAAH@?$AAe?$AAs?$AA?9?$AAE?$AAS@ 00000001800509c8     libucrt:lcidtoname_downlevel.obj
 0002:000079d8       ??_C@_1M@HJOOJFMA@?$AAf?$AAr?$AA?9?$AAC?$AAA@ 00000001800509d8     libucrt:lcidtoname_downlevel.obj
 0002:000079e8       ??_C@_1BG@JPOFPNAB@?$AAs?$AAr?$AA?9?$AAS?$AAP?$AA?9?$AAC?$AAy?$AAr?$AAl@ 00000001800509e8     libucrt:lcidtoname_downlevel.obj
 0002:00007a00       ??_C@_1M@LNFOCMOB@?$AAs?$AAe?$AA?9?$AAF?$AAI@ 0000000180050a00     libucrt:lcidtoname_downlevel.obj
 0002:00007a10       ??_C@_1O@MGJBOAMB@?$AAq?$AAu?$AAz?$AA?9?$AAP?$AAE@ 0000000180050a10     libucrt:lcidtoname_downlevel.obj
 0002:00007a20       ??_C@_1M@GJINLBOK@?$AAa?$AAr?$AA?9?$AAL?$AAY@ 0000000180050a20     libucrt:lcidtoname_downlevel.obj
 0002:00007a30       ??_C@_1M@GGMNHJNL@?$AAz?$AAh?$AA?9?$AAS?$AAG@ 0000000180050a30     libucrt:lcidtoname_downlevel.obj
 0002:00007a40       ??_C@_1M@HOIKODND@?$AAd?$AAe?$AA?9?$AAL?$AAU@ 0000000180050a40     libucrt:lcidtoname_downlevel.obj
 0002:00007a50       ??_C@_1M@DDOCCGFG@?$AAe?$AAn?$AA?9?$AAC?$AAA@ 0000000180050a50     libucrt:lcidtoname_downlevel.obj
 0002:00007a60       ??_C@_1M@BNOEMJLF@?$AAe?$AAs?$AA?9?$AAG?$AAT@ 0000000180050a60     libucrt:lcidtoname_downlevel.obj
 0002:00007a70       ??_C@_1M@EOGNKEK@?$AAf?$AAr?$AA?9?$AAC?$AAH@ 0000000180050a70     libucrt:lcidtoname_downlevel.obj
 0002:00007a80       ??_C@_1M@FLIDJFHL@?$AAh?$AAr?$AA?9?$AAB?$AAA@ 0000000180050a80     libucrt:lcidtoname_downlevel.obj
 0002:00007a90       ??_C@_1O@FMCELNAJ@?$AAs?$AAm?$AAj?$AA?9?$AAN?$AAO@ 0000000180050a90     libucrt:lcidtoname_downlevel.obj
 0002:00007aa0       ??_C@_1M@JHGLJMGJ@?$AAa?$AAr?$AA?9?$AAD?$AAZ@ 0000000180050aa0     libucrt:lcidtoname_downlevel.obj
 0002:00007ab0       ??_C@_1M@JKKFDCNP@?$AAz?$AAh?$AA?9?$AAM?$AAO@ 0000000180050ab0     libucrt:lcidtoname_downlevel.obj
 0002:00007ac0       ??_C@_1M@GEEFALPE@?$AAd?$AAe?$AA?9?$AAL?$AAI@ 0000000180050ac0     libucrt:lcidtoname_downlevel.obj
 0002:00007ad0       ??_C@_1M@IGEOFBG@?$AAe?$AAn?$AA?9?$AAN?$AAZ@ 0000000180050ad0     libucrt:lcidtoname_downlevel.obj
 0002:00007ae0       ??_C@_1M@KDBONEHP@?$AAe?$AAs?$AA?9?$AAC?$AAR@ 0000000180050ae0     libucrt:lcidtoname_downlevel.obj
 0002:00007af0       ??_C@_1M@FHMDOHNN@?$AAf?$AAr?$AA?9?$AAL?$AAU@ 0000000180050af0     libucrt:lcidtoname_downlevel.obj
 0002:00007b00       ??_C@_1BG@NFKKMAFG@?$AAb?$AAs?$AA?9?$AAB?$AAA?$AA?9?$AAL?$AAa?$AAt?$AAn@ 0000000180050b00     libucrt:lcidtoname_downlevel.obj
 0002:00007b18       ??_C@_1O@IMNBEMCI@?$AAs?$AAm?$AAj?$AA?9?$AAS?$AAE@ 0000000180050b18     libucrt:lcidtoname_downlevel.obj
 0002:00007b28       ??_C@_1M@DHHMBNDP@?$AAa?$AAr?$AA?9?$AAM?$AAA@ 0000000180050b28     libucrt:lcidtoname_downlevel.obj
 0002:00007b38       ??_C@_1M@BNBLJCGH@?$AAe?$AAn?$AA?9?$AAI?$AAE@ 0000000180050b38     libucrt:lcidtoname_downlevel.obj
 0002:00007b48       ??_C@_1M@GEPAFMDL@?$AAe?$AAs?$AA?9?$AAP?$AAA@ 0000000180050b48     libucrt:lcidtoname_downlevel.obj
 0002:00007b58       ??_C@_1M@OJONDMDL@?$AAf?$AAr?$AA?9?$AAM?$AAC@ 0000000180050b58     libucrt:lcidtoname_downlevel.obj
 0002:00007b68       ??_C@_1BG@OBCNFJB@?$AAs?$AAr?$AA?9?$AAB?$AAA?$AA?9?$AAL?$AAa?$AAt?$AAn@ 0000000180050b68     libucrt:lcidtoname_downlevel.obj
 0002:00007b80       ??_C@_1O@KEMEEGPO@?$AAs?$AAm?$AAa?$AA?9?$AAN?$AAO@ 0000000180050b80     libucrt:lcidtoname_downlevel.obj
 0002:00007b90       ??_C@_1M@ELMGFODK@?$AAa?$AAr?$AA?9?$AAT?$AAN@ 0000000180050b90     libucrt:lcidtoname_downlevel.obj
 0002:00007ba0       ??_C@_1M@BHDLHFAF@?$AAe?$AAn?$AA?9?$AAZ?$AAA@ 0000000180050ba0     libucrt:lcidtoname_downlevel.obj
 0002:00007bb0       ??_C@_1M@BMGIGLIF@?$AAe?$AAs?$AA?9?$AAD?$AAO@ 0000000180050bb0     libucrt:lcidtoname_downlevel.obj
 0002:00007bc0       ??_C@_1BG@CMBHIPBE@?$AAs?$AAr?$AA?9?$AAB?$AAA?$AA?9?$AAC?$AAy?$AAr?$AAl@ 0000000180050bc0     libucrt:lcidtoname_downlevel.obj
 0002:00007bd8       ??_C@_1O@HEDBLHNP@?$AAs?$AAm?$AAa?$AA?9?$AAS?$AAE@ 0000000180050bd8     libucrt:lcidtoname_downlevel.obj
 0002:00007be8       ??_C@_1M@DAGCADIM@?$AAa?$AAr?$AA?9?$AAO?$AAM@ 0000000180050be8     libucrt:lcidtoname_downlevel.obj
 0002:00007bf8       ??_C@_1M@FODLMICG@?$AAe?$AAn?$AA?9?$AAJ?$AAM@ 0000000180050bf8     libucrt:lcidtoname_downlevel.obj
 0002:00007c08       ??_C@_1M@DNMLCIHB@?$AAe?$AAs?$AA?9?$AAV?$AAE@ 0000000180050c08     libucrt:lcidtoname_downlevel.obj
 0002:00007c18       ??_C@_1O@EOKHMKJK@?$AAs?$AAm?$AAs?$AA?9?$AAF?$AAI@ 0000000180050c18     libucrt:lcidtoname_downlevel.obj
 0002:00007c28       ??_C@_1M@CAFJMKOF@?$AAa?$AAr?$AA?9?$AAY?$AAE@ 0000000180050c28     libucrt:lcidtoname_downlevel.obj
 0002:00007c38       ??_C@_1M@CBFHIJLI@?$AAe?$AAn?$AA?9?$AAC?$AAB@ 0000000180050c38     libucrt:lcidtoname_downlevel.obj
 0002:00007c48       ??_C@_1M@BGNFLDN@?$AAe?$AAs?$AA?9?$AAC?$AAO@ 0000000180050c48     libucrt:lcidtoname_downlevel.obj
 0002:00007c58       ??_C@_1O@JMPHMAMC@?$AAs?$AAm?$AAn?$AA?9?$AAF?$AAI@ 0000000180050c58     libucrt:lcidtoname_downlevel.obj
 0002:00007c68       ??_C@_1M@JLANABKE@?$AAa?$AAr?$AA?9?$AAS?$AAY@ 0000000180050c68     libucrt:lcidtoname_downlevel.obj
 0002:00007c78       ??_C@_1M@HPKGCFGN@?$AAe?$AAn?$AA?9?$AAB?$AAZ@ 0000000180050c78     libucrt:lcidtoname_downlevel.obj
 0002:00007c88       ??_C@_1M@OLJCMLGM@?$AAe?$AAs?$AA?9?$AAP?$AAE@ 0000000180050c88     libucrt:lcidtoname_downlevel.obj
 0002:00007c98       ??_C@_1M@MKKGFKLE@?$AAa?$AAr?$AA?9?$AAJ?$AAO@ 0000000180050c98     libucrt:lcidtoname_downlevel.obj
 0002:00007ca8       ??_C@_1M@EKPGLDNI@?$AAe?$AAn?$AA?9?$AAT?$AAT@ 0000000180050ca8     libucrt:lcidtoname_downlevel.obj
 0002:00007cb8       ??_C@_1M@OONGHFHE@?$AAe?$AAs?$AA?9?$AAA?$AAR@ 0000000180050cb8     libucrt:lcidtoname_downlevel.obj
 0002:00007cc8       ??_C@_1M@OOJFGBHE@?$AAa?$AAr?$AA?9?$AAL?$AAB@ 0000000180050cc8     libucrt:lcidtoname_downlevel.obj
 0002:00007cd8       ??_C@_1M@GCEJHNEG@?$AAe?$AAn?$AA?9?$AAZ?$AAW@ 0000000180050cd8     libucrt:lcidtoname_downlevel.obj
 0002:00007ce8       ??_C@_1M@JNOCAHJI@?$AAe?$AAs?$AA?9?$AAE?$AAC@ 0000000180050ce8     libucrt:lcidtoname_downlevel.obj
 0002:00007cf8       ??_C@_1M@JEFHPGGB@?$AAa?$AAr?$AA?9?$AAK?$AAW@ 0000000180050cf8     libucrt:lcidtoname_downlevel.obj
 0002:00007d08       ??_C@_1M@MLKIBJOJ@?$AAe?$AAn?$AA?9?$AAP?$AAH@ 0000000180050d08     libucrt:lcidtoname_downlevel.obj
 0002:00007d18       ??_C@_1M@BDNIPEND@?$AAe?$AAs?$AA?9?$AAC?$AAL@ 0000000180050d18     libucrt:lcidtoname_downlevel.obj
 0002:00007d28       ??_C@_1M@MPNMEKBD@?$AAa?$AAr?$AA?9?$AAA?$AAE@ 0000000180050d28     libucrt:lcidtoname_downlevel.obj
 0002:00007d38       ??_C@_1M@KBJALCPI@?$AAe?$AAs?$AA?9?$AAU?$AAY@ 0000000180050d38     libucrt:lcidtoname_downlevel.obj
 0002:00007d48       ??_C@_1M@LLCCOAGA@?$AAa?$AAr?$AA?9?$AAB?$AAH@ 0000000180050d48     libucrt:lcidtoname_downlevel.obj
 0002:00007d58       ??_C@_1M@PBFNCDEL@?$AAe?$AAs?$AA?9?$AAP?$AAY@ 0000000180050d58     libucrt:lcidtoname_downlevel.obj
 0002:00007d68       ??_C@_1M@EDGINPNP@?$AAa?$AAr?$AA?9?$AAQ?$AAA@ 0000000180050d68     libucrt:lcidtoname_downlevel.obj
 0002:00007d78       ??_C@_1M@MKDBIIJI@?$AAe?$AAs?$AA?9?$AAB?$AAO@ 0000000180050d78     libucrt:lcidtoname_downlevel.obj
 0002:00007d88       ??_C@_1M@CPKKEBLD@?$AAe?$AAs?$AA?9?$AAS?$AAV@ 0000000180050d88     libucrt:lcidtoname_downlevel.obj
 0002:00007d98       ??_C@_1M@NDBGMMJL@?$AAe?$AAs?$AA?9?$AAH?$AAN@ 0000000180050d98     libucrt:lcidtoname_downlevel.obj
 0002:00007da8       ??_C@_1M@JIJIBHDP@?$AAe?$AAs?$AA?9?$AAN?$AAI@ 0000000180050da8     libucrt:lcidtoname_downlevel.obj
 0002:00007db8       ??_C@_1M@CGFMKEEK@?$AAe?$AAs?$AA?9?$AAP?$AAR@ 0000000180050db8     libucrt:lcidtoname_downlevel.obj
 0002:00007dc8       ??_C@_1O@ICJHKIIK@?$AAz?$AAh?$AA?9?$AAC?$AAH?$AAT@ 0000000180050dc8     libucrt:lcidtoname_downlevel.obj
 0002:00007dd8       ??_C@_15CLNEJCE@?$AAs?$AAr@ 0000000180050dd8     libucrt:lcidtoname_downlevel.obj
 0002:00008c20       ??_C@_1M@KAHEKEIG@?$AAa?$AAf?$AA?9?$AAz?$AAa@ 0000000180051c20     libucrt:lcidtoname_downlevel.obj
 0002:00008c30       ??_C@_1M@GIECOABL@?$AAa?$AAr?$AA?9?$AAa?$AAe@ 0000000180051c30     libucrt:lcidtoname_downlevel.obj
 0002:00008c40       ??_C@_1M@BMLMEKGI@?$AAa?$AAr?$AA?9?$AAb?$AAh@ 0000000180051c40     libucrt:lcidtoname_downlevel.obj
 0002:00008c50       ??_C@_1M@DAPFDGGB@?$AAa?$AAr?$AA?9?$AAd?$AAz@ 0000000180051c50     libucrt:lcidtoname_downlevel.obj
 0002:00008c60       ??_C@_1M@FJNKGKIG@?$AAa?$AAr?$AA?9?$AAe?$AAg@ 0000000180051c60     libucrt:lcidtoname_downlevel.obj
 0002:00008c70       ??_C@_1M@FLGKKCLO@?$AAa?$AAr?$AA?9?$AAi?$AAq@ 0000000180051c70     libucrt:lcidtoname_downlevel.obj
 0002:00008c80       ??_C@_1M@GNDIPALM@?$AAa?$AAr?$AA?9?$AAj?$AAo@ 0000000180051c80     libucrt:lcidtoname_downlevel.obj
 0002:00008c90       ??_C@_1M@DDMJFMGJ@?$AAa?$AAr?$AA?9?$AAk?$AAw@ 0000000180051c90     libucrt:lcidtoname_downlevel.obj
 0002:00008ca0       ??_C@_1M@EJALMLHM@?$AAa?$AAr?$AA?9?$AAl?$AAb@ 0000000180051ca0     libucrt:lcidtoname_downlevel.obj
 0002:00008cb0       ??_C@_1M@MOBDBLOC@?$AAa?$AAr?$AA?9?$AAl?$AAy@ 0000000180051cb0     libucrt:lcidtoname_downlevel.obj
 0002:00008cc0       ??_C@_1M@JAOCLHDH@?$AAa?$AAr?$AA?9?$AAm?$AAa@ 0000000180051cc0     libucrt:lcidtoname_downlevel.obj
 0002:00008cd0       ??_C@_1M@JHPMKJIE@?$AAa?$AAr?$AA?9?$AAo?$AAm@ 0000000180051cd0     libucrt:lcidtoname_downlevel.obj
 0002:00008ce0       ??_C@_1M@OEPGHFNH@?$AAa?$AAr?$AA?9?$AAq?$AAa@ 0000000180051ce0     libucrt:lcidtoname_downlevel.obj
 0002:00008cf0       ??_C@_1M@KJDONENM@?$AAa?$AAr?$AA?9?$AAs?$AAa@ 0000000180051cf0     libucrt:lcidtoname_downlevel.obj
 0002:00008d00       ??_C@_1M@DMJDKLKM@?$AAa?$AAr?$AA?9?$AAs?$AAy@ 0000000180051d00     libucrt:lcidtoname_downlevel.obj
 0002:00008d10       ??_C@_1M@OMFIPEDC@?$AAa?$AAr?$AA?9?$AAt?$AAn@ 0000000180051d10     libucrt:lcidtoname_downlevel.obj
 0002:00008d20       ??_C@_1M@IHMHGAON@?$AAa?$AAr?$AA?9?$AAy?$AAe@ 0000000180051d20     libucrt:lcidtoname_downlevel.obj
 0002:00008d30       ??_C@_1BG@KDCPGJGB@?$AAa?$AAz?$AA?9?$AAa?$AAz?$AA?9?$AAc?$AAy?$AAr?$AAl@ 0000000180051d30     libucrt:lcidtoname_downlevel.obj
 0002:00008d48       ??_C@_1BG@IBCKDDOE@?$AAa?$AAz?$AA?9?$AAa?$AAz?$AA?9?$AAl?$AAa?$AAt?$AAn@ 0000000180051d48     libucrt:lcidtoname_downlevel.obj
 0002:00008d60       ??_C@_1M@EGPFDCPD@?$AAb?$AAe?$AA?9?$AAb?$AAy@ 0000000180051d60     libucrt:lcidtoname_downlevel.obj
 0002:00008d70       ??_C@_1M@PCMGMCGC@?$AAb?$AAg?$AA?9?$AAb?$AAg@ 0000000180051d70     libucrt:lcidtoname_downlevel.obj
 0002:00008d80       ??_C@_1M@BJBMFGOB@?$AAb?$AAn?$AA?9?$AAi?$AAn@ 0000000180051d80     libucrt:lcidtoname_downlevel.obj
 0002:00008d90       ??_C@_1BG@EAKMMACD@?$AAb?$AAs?$AA?9?$AAb?$AAa?$AA?9?$AAl?$AAa?$AAt?$AAn@ 0000000180051d90     libucrt:lcidtoname_downlevel.obj
 0002:00008da8       ??_C@_1M@KGADAODK@?$AAc?$AAa?$AA?9?$AAe?$AAs@ 0000000180051da8     libucrt:lcidtoname_downlevel.obj
 0002:00008db8       ??_C@_1M@COAJPDHI@?$AAc?$AAs?$AA?9?$AAc?$AAz@ 0000000180051db8     libucrt:lcidtoname_downlevel.obj
 0002:00008dc8       ??_C@_1M@DHBHFONH@?$AAc?$AAy?$AA?9?$AAg?$AAb@ 0000000180051dc8     libucrt:lcidtoname_downlevel.obj
 0002:00008dd8       ??_C@_1M@IMGKELGA@?$AAd?$AAa?$AA?9?$AAd?$AAk@ 0000000180051dd8     libucrt:lcidtoname_downlevel.obj
 0002:00008de8       ??_C@_1M@NNDGDNGA@?$AAd?$AAe?$AA?9?$AAa?$AAt@ 0000000180051de8     libucrt:lcidtoname_downlevel.obj
 0002:00008df8       ??_C@_1M@IKDBHEEM@?$AAd?$AAe?$AA?9?$AAc?$AAh@ 0000000180051df8     libucrt:lcidtoname_downlevel.obj
 0002:00008e08       ??_C@_1M@GFFOJMCJ@?$AAd?$AAe?$AA?9?$AAd?$AAe@ 0000000180051e08     libucrt:lcidtoname_downlevel.obj
 0002:00008e18       ??_C@_1M@MDNLKBPM@?$AAd?$AAe?$AA?9?$AAl?$AAi@ 0000000180051e18     libucrt:lcidtoname_downlevel.obj
 0002:00008e28       ??_C@_1M@NJBEEJNL@?$AAd?$AAe?$AA?9?$AAl?$AAu@ 0000000180051e28     libucrt:lcidtoname_downlevel.obj
 0002:00008e38       ??_C@_1O@GNNELBAP@?$AAd?$AAi?$AAv?$AA?9?$AAm?$AAv@ 0000000180051e38     libucrt:lcidtoname_downlevel.obj
 0002:00008e48       ??_C@_1M@EJLEOGAE@?$AAe?$AAl?$AA?9?$AAg?$AAr@ 0000000180051e48     libucrt:lcidtoname_downlevel.obj
 0002:00008e58       ??_C@_1M@GMPONJN@?$AAe?$AAn?$AA?9?$AAa?$AAu@ 0000000180051e58     libucrt:lcidtoname_downlevel.obj
 0002:00008e68       ??_C@_1M@NIDIIPGF@?$AAe?$AAn?$AA?9?$AAb?$AAz@ 0000000180051e68     libucrt:lcidtoname_downlevel.obj
 0002:00008e78       ??_C@_1M@JEHMIMFO@?$AAe?$AAn?$AA?9?$AAc?$AAa@ 0000000180051e78     libucrt:lcidtoname_downlevel.obj
 0002:00008e88       ??_C@_1M@IGMJCDLA@?$AAe?$AAn?$AA?9?$AAc?$AAb@ 0000000180051e88     libucrt:lcidtoname_downlevel.obj
 0002:00008e98       ??_C@_1M@BNFIGBKG@?$AAe?$AAn?$AA?9?$AAg?$AAb@ 0000000180051e98     libucrt:lcidtoname_downlevel.obj
 0002:00008ea8       ??_C@_1M@LKIFDIGP@?$AAe?$AAn?$AA?9?$AAi?$AAe@ 0000000180051ea8     libucrt:lcidtoname_downlevel.obj
 0002:00008eb8       ??_C@_1M@PJKFGCCO@?$AAe?$AAn?$AA?9?$AAj?$AAm@ 0000000180051eb8     libucrt:lcidtoname_downlevel.obj
 0002:00008ec8       ??_C@_1M@KPPKEPBO@?$AAe?$AAn?$AA?9?$AAn?$AAz@ 0000000180051ec8     libucrt:lcidtoname_downlevel.obj
 0002:00008ed8       ??_C@_1M@GMDGLDOB@?$AAe?$AAn?$AA?9?$AAp?$AAh@ 0000000180051ed8     libucrt:lcidtoname_downlevel.obj
 0002:00008ee8       ??_C@_1M@ONGIBJNA@?$AAe?$AAn?$AA?9?$AAt?$AAt@ 0000000180051ee8     libucrt:lcidtoname_downlevel.obj
 0002:00008ef8       ??_C@_1M@LLODPCMM@?$AAe?$AAn?$AA?9?$AAu?$AAs@ 0000000180051ef8     libucrt:lcidtoname_downlevel.obj
 0002:00008f08       ??_C@_1M@LAKFNPAN@?$AAe?$AAn?$AA?9?$AAz?$AAa@ 0000000180051f08     libucrt:lcidtoname_downlevel.obj
 0002:00008f18       ??_C@_1M@MFNHNHEO@?$AAe?$AAn?$AA?9?$AAz?$AAw@ 0000000180051f18     libucrt:lcidtoname_downlevel.obj
 0002:00008f28       ??_C@_1M@EJEINPHM@?$AAe?$AAs?$AA?9?$AAa?$AAr@ 0000000180051f28     libucrt:lcidtoname_downlevel.obj
 0002:00008f38       ??_C@_1M@GNKPCCJA@?$AAe?$AAs?$AA?9?$AAb?$AAo@ 0000000180051f38     libucrt:lcidtoname_downlevel.obj
 0002:00008f48       ??_C@_1M@LEEGFONL@?$AAe?$AAs?$AA?9?$AAc?$AAl@ 0000000180051f48     libucrt:lcidtoname_downlevel.obj
 0002:00008f58       ??_C@_1M@KGPDPBDF@?$AAe?$AAs?$AA?9?$AAc?$AAo@ 0000000180051f58     libucrt:lcidtoname_downlevel.obj
 0002:00008f68       ??_C@_1M@EIAHOHH@?$AAe?$AAs?$AA?9?$AAc?$AAr@ 0000000180051f68     libucrt:lcidtoname_downlevel.obj
 0002:00008f78       ??_C@_1M@LLPGMBIN@?$AAe?$AAs?$AA?9?$AAd?$AAo@ 0000000180051f78     libucrt:lcidtoname_downlevel.obj
 0002:00008f88       ??_C@_1M@DKHMKNJA@?$AAe?$AAs?$AA?9?$AAe?$AAc@ 0000000180051f88     libucrt:lcidtoname_downlevel.obj
 0002:00008f98       ??_C@_1M@GKGFPKAP@?$AAe?$AAs?$AA?9?$AAe?$AAs@ 0000000180051f98     libucrt:lcidtoname_downlevel.obj
 0002:00008fa8       ??_C@_1M@LKHKGDLN@?$AAe?$AAs?$AA?9?$AAg?$AAt@ 0000000180051fa8     libucrt:lcidtoname_downlevel.obj
 0002:00008fb8       ??_C@_1M@HEIIGGJD@?$AAe?$AAs?$AA?9?$AAh?$AAn@ 0000000180051fb8     libucrt:lcidtoname_downlevel.obj
 0002:00008fc8       ??_C@_1M@FBDHPPGD@?$AAe?$AAs?$AA?9?$AAm?$AAx@ 0000000180051fc8     libucrt:lcidtoname_downlevel.obj
 0002:00008fd8       ??_C@_1M@DPAGLNDH@?$AAe?$AAs?$AA?9?$AAn?$AAi@ 0000000180051fd8     libucrt:lcidtoname_downlevel.obj
 0002:00008fe8       ??_C@_1M@MDGOPGDD@?$AAe?$AAs?$AA?9?$AAp?$AAa@ 0000000180051fe8     libucrt:lcidtoname_downlevel.obj
 0002:00008ff8       ??_C@_1M@EMAMGBGE@?$AAe?$AAs?$AA?9?$AAp?$AAe@ 0000000180051ff8     libucrt:lcidtoname_downlevel.obj
 0002:00009008       ??_C@_1M@IBMCAOEC@?$AAe?$AAs?$AA?9?$AAp?$AAr@ 0000000180052008     libucrt:lcidtoname_downlevel.obj
 0002:00009018       ??_C@_1M@FGMDIJED@?$AAe?$AAs?$AA?9?$AAp?$AAy@ 0000000180052018     libucrt:lcidtoname_downlevel.obj
 0002:00009028       ??_C@_1M@IIDEOLLL@?$AAe?$AAs?$AA?9?$AAs?$AAv@ 0000000180052028     libucrt:lcidtoname_downlevel.obj
 0002:00009038       ??_C@_1M@GAOBIPA@?$AAe?$AAs?$AA?9?$AAu?$AAy@ 0000000180052038     libucrt:lcidtoname_downlevel.obj
 0002:00009048       ??_C@_1M@JKFFICHJ@?$AAe?$AAs?$AA?9?$AAv?$AAe@ 0000000180052048     libucrt:lcidtoname_downlevel.obj
 0002:00009058       ??_C@_1M@PNMLOJDF@?$AAe?$AAt?$AA?9?$AAe?$AAe@ 0000000180052058     libucrt:lcidtoname_downlevel.obj
 0002:00009068       ??_C@_1M@GHHLIKEI@?$AAe?$AAu?$AA?9?$AAe?$AAs@ 0000000180052068     libucrt:lcidtoname_downlevel.obj
 0002:00009078       ??_C@_1M@PBNONODE@?$AAf?$AAa?$AA?9?$AAi?$AAr@ 0000000180052078     libucrt:lcidtoname_downlevel.obj
 0002:00009088       ??_C@_1M@JEEHPMIL@?$AAf?$AAi?$AA?9?$AAf?$AAi@ 0000000180052088     libucrt:lcidtoname_downlevel.obj
 0002:00009098       ??_C@_1M@LMDCNDBA@?$AAf?$AAo?$AA?9?$AAf?$AAo@ 0000000180052098     libucrt:lcidtoname_downlevel.obj
 0002:000090a8       ??_C@_1M@JKEOHLDK@?$AAf?$AAr?$AA?9?$AAb?$AAe@ 00000001800520a8     libucrt:lcidtoname_downlevel.obj
 0002:000090b8       ??_C@_1M@NOHADPMI@?$AAf?$AAr?$AA?9?$AAc?$AAa@ 00000001800520b8     libucrt:lcidtoname_downlevel.obj
 0002:000090c8       ??_C@_1M@KDHIHAEC@?$AAf?$AAr?$AA?9?$AAc?$AAh@ 00000001800520c8     libucrt:lcidtoname_downlevel.obj
 0002:000090d8       ??_C@_1M@MMBBFGAK@?$AAf?$AAr?$AA?9?$AAf?$AAr@ 00000001800520d8     libucrt:lcidtoname_downlevel.obj
 0002:000090e8       ??_C@_1M@PAFNENNF@?$AAf?$AAr?$AA?9?$AAl?$AAu@ 00000001800520e8     libucrt:lcidtoname_downlevel.obj
 0002:000090f8       ??_C@_1M@EOHDJGDD@?$AAf?$AAr?$AA?9?$AAm?$AAc@ 00000001800520f8     libucrt:lcidtoname_downlevel.obj
 0002:00009108       ??_C@_1M@FAPLLOPF@?$AAg?$AAl?$AA?9?$AAe?$AAs@ 0000000180052108     libucrt:lcidtoname_downlevel.obj
 0002:00009118       ??_C@_1M@FOPBFLOO@?$AAg?$AAu?$AA?9?$AAi?$AAn@ 0000000180052118     libucrt:lcidtoname_downlevel.obj
 0002:00009128       ??_C@_1M@KBMCINPM@?$AAh?$AAe?$AA?9?$AAi?$AAl@ 0000000180052128     libucrt:lcidtoname_downlevel.obj
 0002:00009138       ??_C@_1M@BBPHKFPJ@?$AAh?$AAi?$AA?9?$AAi?$AAn@ 0000000180052138     libucrt:lcidtoname_downlevel.obj
 0002:00009148       ??_C@_1M@PMBNDPHD@?$AAh?$AAr?$AA?9?$AAb?$AAa@ 0000000180052148     libucrt:lcidtoname_downlevel.obj
 0002:00009158       ??_C@_1M@BPCKOEGE@?$AAh?$AAr?$AA?9?$AAh?$AAr@ 0000000180052158     libucrt:lcidtoname_downlevel.obj
 0002:00009168       ??_C@_1M@GACBMHKE@?$AAh?$AAu?$AA?9?$AAh?$AAu@ 0000000180052168     libucrt:lcidtoname_downlevel.obj
 0002:00009178       ??_C@_1M@MILPAJJC@?$AAh?$AAy?$AA?9?$AAa?$AAm@ 0000000180052178     libucrt:lcidtoname_downlevel.obj
 0002:00009188       ??_C@_1M@BABBICEC@?$AAi?$AAd?$AA?9?$AAi?$AAd@ 0000000180052188     libucrt:lcidtoname_downlevel.obj
 0002:00009198       ??_C@_1M@BIKNHHPF@?$AAi?$AAs?$AA?9?$AAi?$AAs@ 0000000180052198     libucrt:lcidtoname_downlevel.obj
 0002:000091a8       ??_C@_1M@NMPCJPHE@?$AAi?$AAt?$AA?9?$AAc?$AAh@ 00000001800521a8     libucrt:lcidtoname_downlevel.obj
 0002:000091b8       ??_C@_1M@GHKGFEDF@?$AAi?$AAt?$AA?9?$AAi?$AAt@ 00000001800521b8     libucrt:lcidtoname_downlevel.obj
 0002:000091c8       ??_C@_1M@NIEJCJJA@?$AAj?$AAa?$AA?9?$AAj?$AAp@ 00000001800521c8     libucrt:lcidtoname_downlevel.obj
 0002:000091d8       ??_C@_1M@JILFNBIM@?$AAk?$AAa?$AA?9?$AAg?$AAe@ 00000001800521d8     libucrt:lcidtoname_downlevel.obj
 0002:000091e8       ??_C@_1M@PACPMGPH@?$AAk?$AAk?$AA?9?$AAk?$AAz@ 00000001800521e8     libucrt:lcidtoname_downlevel.obj
 0002:000091f8       ??_C@_1M@IELFGMHA@?$AAk?$AAn?$AA?9?$AAi?$AAn@ 00000001800521f8     libucrt:lcidtoname_downlevel.obj
 0002:00009208       ??_C@_1O@IBBJHCH@?$AAk?$AAo?$AAk?$AA?9?$AAi?$AAn@ 0000000180052208     libucrt:lcidtoname_downlevel.obj
 0002:00009218       ??_C@_1M@DMHAEOGC@?$AAk?$AAo?$AA?9?$AAk?$AAr@ 0000000180052218     libucrt:lcidtoname_downlevel.obj
 0002:00009228       ??_C@_1M@HBAHBIGA@?$AAk?$AAy?$AA?9?$AAk?$AAg@ 0000000180052228     libucrt:lcidtoname_downlevel.obj
 0002:00009238       ??_C@_1M@KPMILCJG@?$AAl?$AAt?$AA?9?$AAl?$AAt@ 0000000180052238     libucrt:lcidtoname_downlevel.obj
 0002:00009248       ??_C@_1M@BDEKKCA@?$AAl?$AAv?$AA?9?$AAl?$AAv@ 0000000180052248     libucrt:lcidtoname_downlevel.obj
 0002:00009258       ??_C@_1M@ELCKCCJJ@?$AAm?$AAi?$AA?9?$AAn?$AAz@ 0000000180052258     libucrt:lcidtoname_downlevel.obj
 0002:00009268       ??_C@_1M@CBOOLAPA@?$AAm?$AAk?$AA?9?$AAm?$AAk@ 0000000180052268     libucrt:lcidtoname_downlevel.obj
 0002:00009278       ??_C@_1M@GPHNBJKN@?$AAm?$AAl?$AA?9?$AAi?$AAn@ 0000000180052278     libucrt:lcidtoname_downlevel.obj
 0002:00009288       ??_C@_1M@PABJILIG@?$AAm?$AAn?$AA?9?$AAm?$AAn@ 0000000180052288     libucrt:lcidtoname_downlevel.obj
 0002:00009298       ??_C@_1M@FGBKKIPG@?$AAm?$AAr?$AA?9?$AAi?$AAn@ 0000000180052298     libucrt:lcidtoname_downlevel.obj
 0002:000092a8       ??_C@_1M@NDBPDDAL@?$AAm?$AAs?$AA?9?$AAb?$AAn@ 00000001800522a8     libucrt:lcidtoname_downlevel.obj
 0002:000092b8       ??_C@_1M@OPIHOOPI@?$AAm?$AAs?$AA?9?$AAm?$AAy@ 00000001800522b8     libucrt:lcidtoname_downlevel.obj
 0002:000092c8       ??_C@_1M@PPDBCNFM@?$AAm?$AAt?$AA?9?$AAm?$AAt@ 00000001800522c8     libucrt:lcidtoname_downlevel.obj
 0002:000092d8       ??_C@_1M@KDJDKMDD@?$AAn?$AAb?$AA?9?$AAn?$AAo@ 00000001800522d8     libucrt:lcidtoname_downlevel.obj
 0002:000092e8       ??_C@_1M@KFCFLMJP@?$AAn?$AAl?$AA?9?$AAb?$AAe@ 00000001800522e8     libucrt:lcidtoname_downlevel.obj
 0002:000092f8       ??_C@_1M@KPOPDDGO@?$AAn?$AAl?$AA?9?$AAn?$AAl@ 00000001800522f8     libucrt:lcidtoname_downlevel.obj
 0002:00009308       ??_C@_1M@LJKPEMLN@?$AAn?$AAn?$AA?9?$AAn?$AAo@ 0000000180052308     libucrt:lcidtoname_downlevel.obj
 0002:00009318       ??_C@_1M@BDGHHBFL@?$AAn?$AAs?$AA?9?$AAz?$AAa@ 0000000180052318     libucrt:lcidtoname_downlevel.obj
 0002:00009328       ??_C@_1M@IDEHOAP@?$AAp?$AAa?$AA?9?$AAi?$AAn@ 0000000180052328     libucrt:lcidtoname_downlevel.obj
 0002:00009338       ??_C@_1M@HDBKGOGH@?$AAp?$AAl?$AA?9?$AAp?$AAl@ 0000000180052338     libucrt:lcidtoname_downlevel.obj
 0002:00009348       ??_C@_1M@LJLLCMEH@?$AAp?$AAt?$AA?9?$AAb?$AAr@ 0000000180052348     libucrt:lcidtoname_downlevel.obj
 0002:00009358       ??_C@_1M@NCMONAAL@?$AAp?$AAt?$AA?9?$AAp?$AAt@ 0000000180052358     libucrt:lcidtoname_downlevel.obj
 0002:00009368       ??_C@_1O@EAKMAJDN@?$AAq?$AAu?$AAz?$AA?9?$AAb?$AAo@ 0000000180052368     libucrt:lcidtoname_downlevel.obj
 0002:00009378       ??_C@_1O@BHHPIGDN@?$AAq?$AAu?$AAz?$AA?9?$AAe?$AAc@ 0000000180052378     libucrt:lcidtoname_downlevel.obj
 0002:00009388       ??_C@_1O@GBAPEKMJ@?$AAq?$AAu?$AAz?$AA?9?$AAp?$AAe@ 0000000180052388     libucrt:lcidtoname_downlevel.obj
 0002:00009398       ??_C@_1M@CLGLEFBO@?$AAr?$AAo?$AA?9?$AAr?$AAo@ 0000000180052398     libucrt:lcidtoname_downlevel.obj
 0002:000093a8       ??_C@_1M@CEEDODME@?$AAr?$AAu?$AA?9?$AAr?$AAu@ 00000001800523a8     libucrt:lcidtoname_downlevel.obj
 0002:000093b8       ??_C@_1M@HPKKKMPP@?$AAs?$AAa?$AA?9?$AAi?$AAn@ 00000001800523b8     libucrt:lcidtoname_downlevel.obj
 0002:000093c8       ??_C@_1M@BKMAIGOJ@?$AAs?$AAe?$AA?9?$AAf?$AAi@ 00000001800523c8     libucrt:lcidtoname_downlevel.obj
 0002:000093d8       ??_C@_1M@NDPIFLFI@?$AAs?$AAe?$AA?9?$AAn?$AAo@ 00000001800523d8     libucrt:lcidtoname_downlevel.obj
 0002:000093e8       ??_C@_1M@DANKKHJ@?$AAs?$AAe?$AA?9?$AAs?$AAe@ 00000001800523e8     libucrt:lcidtoname_downlevel.obj
 0002:000093f8       ??_C@_1M@PNBLONPJ@?$AAs?$AAk?$AA?9?$AAs?$AAk@ 00000001800523f8     libucrt:lcidtoname_downlevel.obj
 0002:00009408       ??_C@_1M@LFMODOAL@?$AAs?$AAl?$AA?9?$AAs?$AAi@ 0000000180052408     libucrt:lcidtoname_downlevel.obj
 0002:00009418       ??_C@_1O@DFKOMPG@?$AAs?$AAm?$AAa?$AA?9?$AAn?$AAo@ 0000000180052418     libucrt:lcidtoname_downlevel.obj
 0002:00009428       ??_C@_1O@NDKPBNNH@?$AAs?$AAm?$AAa?$AA?9?$AAs?$AAe@ 0000000180052428     libucrt:lcidtoname_downlevel.obj
 0002:00009438       ??_C@_1O@PLLKBHAB@?$AAs?$AAm?$AAj?$AA?9?$AAn?$AAo@ 0000000180052438     libucrt:lcidtoname_downlevel.obj
 0002:00009448       ??_C@_1O@CLEPOGCA@?$AAs?$AAm?$AAj?$AA?9?$AAs?$AAe@ 0000000180052448     libucrt:lcidtoname_downlevel.obj
 0002:00009458       ??_C@_1O@DLGJGKMK@?$AAs?$AAm?$AAn?$AA?9?$AAf?$AAi@ 0000000180052458     libucrt:lcidtoname_downlevel.obj
 0002:00009468       ??_C@_1O@OJDJGAJC@?$AAs?$AAm?$AAs?$AA?9?$AAf?$AAi@ 0000000180052468     libucrt:lcidtoname_downlevel.obj
 0002:00009478       ??_C@_1M@BOFOGHPB@?$AAs?$AAq?$AA?9?$AAa?$AAl@ 0000000180052478     libucrt:lcidtoname_downlevel.obj
 0002:00009488       ??_C@_1BG@LJBBIPGB@?$AAs?$AAr?$AA?9?$AAb?$AAa?$AA?9?$AAc?$AAy?$AAr?$AAl@ 0000000180052488     libucrt:lcidtoname_downlevel.obj
 0002:000094a0       ??_C@_1BG@JLBENFOE@?$AAs?$AAr?$AA?9?$AAb?$AAa?$AA?9?$AAl?$AAa?$AAt?$AAn@ 00000001800524a0     libucrt:lcidtoname_downlevel.obj
 0002:000094b8       ??_C@_1BG@KODPNHE@?$AAs?$AAr?$AA?9?$AAs?$AAp?$AA?9?$AAc?$AAy?$AAr?$AAl@ 00000001800524b8     libucrt:lcidtoname_downlevel.obj
 0002:000094d0       ??_C@_1BG@CIOGKHPB@?$AAs?$AAr?$AA?9?$AAs?$AAp?$AA?9?$AAl?$AAa?$AAt?$AAn@ 00000001800524d0     libucrt:lcidtoname_downlevel.obj
 0002:000094e8       ??_C@_1M@NGFJLMAC@?$AAs?$AAv?$AA?9?$AAf?$AAi@ 00000001800524e8     libucrt:lcidtoname_downlevel.obj
 0002:000094f8       ??_C@_1M@MPJEJAJC@?$AAs?$AAv?$AA?9?$AAs?$AAe@ 00000001800524f8     libucrt:lcidtoname_downlevel.obj
 0002:00009508       ??_C@_1M@MPNDHLFK@?$AAs?$AAw?$AA?9?$AAk?$AAe@ 0000000180052508     libucrt:lcidtoname_downlevel.obj
 0002:00009518       ??_C@_1O@KOHBJJI@?$AAs?$AAy?$AAr?$AA?9?$AAs?$AAy@ 0000000180052518     libucrt:lcidtoname_downlevel.obj
 0002:00009528       ??_C@_1M@LDCEFHA@?$AAt?$AAa?$AA?9?$AAi?$AAn@ 0000000180052528     libucrt:lcidtoname_downlevel.obj
 0002:00009538       ??_C@_1M@CNJOFAK@?$AAt?$AAe?$AA?9?$AAi?$AAn@ 0000000180052538     libucrt:lcidtoname_downlevel.obj
 0002:00009548       ??_C@_1M@GNAECACD@?$AAt?$AAh?$AA?9?$AAt?$AAh@ 0000000180052548     libucrt:lcidtoname_downlevel.obj
 0002:00009558       ??_C@_1M@CHBIHOJO@?$AAt?$AAn?$AA?9?$AAz?$AAa@ 0000000180052558     libucrt:lcidtoname_downlevel.obj
 0002:00009568       ??_C@_1M@GCCMIGPJ@?$AAt?$AAr?$AA?9?$AAt?$AAr@ 0000000180052568     libucrt:lcidtoname_downlevel.obj
 0002:00009578       ??_C@_1M@CELMCNBK@?$AAt?$AAt?$AA?9?$AAr?$AAu@ 0000000180052578     libucrt:lcidtoname_downlevel.obj
 0002:00009588       ??_C@_1M@KLMCELGA@?$AAu?$AAk?$AA?9?$AAu?$AAa@ 0000000180052588     libucrt:lcidtoname_downlevel.obj
 0002:00009598       ??_C@_1M@EPAJJAJF@?$AAu?$AAr?$AA?9?$AAp?$AAk@ 0000000180052598     libucrt:lcidtoname_downlevel.obj
 0002:000095a8       ??_C@_1BG@GEGPMCDJ@?$AAu?$AAz?$AA?9?$AAu?$AAz?$AA?9?$AAc?$AAy?$AAr?$AAl@ 00000001800525a8     libucrt:lcidtoname_downlevel.obj
 0002:000095c0       ??_C@_1BG@EGGKJILM@?$AAu?$AAz?$AA?9?$AAu?$AAz?$AA?9?$AAl?$AAa?$AAt?$AAn@ 00000001800525c0     libucrt:lcidtoname_downlevel.obj
 0002:000095d8       ??_C@_1M@GFOCLFF@?$AAv?$AAi?$AA?9?$AAv?$AAn@ 00000001800525d8     libucrt:lcidtoname_downlevel.obj
 0002:000095e8       ??_C@_1M@CPAMEDFI@?$AAx?$AAh?$AA?9?$AAz?$AAa@ 00000001800525e8     libucrt:lcidtoname_downlevel.obj
 0002:000095f8       ??_C@_1O@EBKIFIGN@?$AAz?$AAh?$AA?9?$AAc?$AAh?$AAs@ 00000001800525f8     libucrt:lcidtoname_downlevel.obj
 0002:00009608       ??_C@_1O@NMHPGANE@?$AAz?$AAh?$AA?9?$AAc?$AAh?$AAt@ 0000000180052608     libucrt:lcidtoname_downlevel.obj
 0002:00009618       ??_C@_1M@LPINJOMC@?$AAz?$AAh?$AA?9?$AAc?$AAn@ 0000000180052618     libucrt:lcidtoname_downlevel.obj
 0002:00009628       ??_C@_1M@OCJEJODD@?$AAz?$AAh?$AA?9?$AAh?$AAk@ 0000000180052628     libucrt:lcidtoname_downlevel.obj
 0002:00009638       ??_C@_1M@DNDLJINH@?$AAz?$AAh?$AA?9?$AAm?$AAo@ 0000000180052638     libucrt:lcidtoname_downlevel.obj
 0002:00009648       ??_C@_1M@MBFDNDND@?$AAz?$AAh?$AA?9?$AAs?$AAg@ 0000000180052648     libucrt:lcidtoname_downlevel.obj
 0002:00009658       ??_C@_1M@IMEPLEPE@?$AAz?$AAh?$AA?9?$AAt?$AAw@ 0000000180052658     libucrt:lcidtoname_downlevel.obj
 0002:00009668       ??_C@_1M@BBGHNHJP@?$AAz?$AAu?$AA?9?$AAz?$AAa@ 0000000180052668     libucrt:lcidtoname_downlevel.obj
 0002:000096a0       ?large_power_data@?1??multiply_by_power_of_ten@__crt_strtox@@YA_NAEAUbig_integer@2@I@Z@4QBIB 00000001800526a0     libucrt:cfout.obj
 0002:00009fb0       ?large_power_indices@?1??multiply_by_power_of_ten@__crt_strtox@@YA_NAEAUbig_integer@2@I@Z@4QBUunpack_index@?1??12@YA_N0I@Z@B 0000000180052fb0     libucrt:cfout.obj
 0002:0000a048       ?small_powers_of_ten@?1??multiply_by_power_of_ten@__crt_strtox@@YA_NAEAUbig_integer@2@I@Z@4QBIB 0000000180053048     libucrt:cfout.obj
 0002:0000a06c       ??_C@_01GBGANLPD@0@        000000018005306c     libucrt:cfout.obj
 0002:0000a070       ??_C@_05DNEBIAHO@1?$CDINF@ 0000000180053070     libucrt:cfout.obj
 0002:0000a078       ??_C@_06IMKFLFPG@1?$CDQNAN@ 0000000180053078     libucrt:cfout.obj
 0002:0000a080       ??_C@_06PGGFOGJG@1?$CDSNAN@ 0000000180053080     libucrt:cfout.obj
 0002:0000a088       ??_C@_05PHHOCPM@1?$CDIND@  0000000180053088     libucrt:cfout.obj
 0002:0000a2e0       ??_C@_1BA@BALFACEM@?$AAC?$AAO?$AAN?$AAO?$AAU?$AAT?$AA$@ 00000001800532e0     libucrt:initcon.obj
 0002:0000a2f0       __log10_256_lead           00000001800532f0     libucrt:log10_256_lead_tail_table.obj
 0002:0000ab00       __log10_256_tail           0000000180053b00     libucrt:log10_256_lead_tail_table.obj
 0002:0000b310       __log_F_inv_qword          0000000180054310     libucrt:log_f_inv_qword_table.obj
 0002:0000bc00       ??_R4type_info@@6B@        0000000180054c00     LIBCMT:std_type_info_static.obj
 0002:0000bc28       ??_R3type_info@@8          0000000180054c28     LIBCMT:std_type_info_static.obj
 0002:0000bc40       ??_R2type_info@@8          0000000180054c40     LIBCMT:std_type_info_static.obj
 0002:0000bc50       ??_R1A@?0A@EA@type_info@@8 0000000180054c50     LIBCMT:std_type_info_static.obj
 0002:0000bc78       ??_R3DNameNode@@8          0000000180054c78     libvcruntime:undname.obj
 0002:0000bc90       ??_R2DNameNode@@8          0000000180054c90     libvcruntime:undname.obj
 0002:0000bca0       ??_R1A@?0A@EA@DNameNode@@8 0000000180054ca0     libvcruntime:undname.obj
 0002:0000bcc8       ??_R4charNode@@6B@         0000000180054cc8     libvcruntime:undname.obj
 0002:0000bcf0       ??_R3charNode@@8           0000000180054cf0     libvcruntime:undname.obj
 0002:0000bd08       ??_R2charNode@@8           0000000180054d08     libvcruntime:undname.obj
 0002:0000bd20       ??_R1A@?0A@EA@charNode@@8  0000000180054d20     libvcruntime:undname.obj
 0002:0000bd48       ??_R4pcharNode@@6B@        0000000180054d48     libvcruntime:undname.obj
 0002:0000bd70       ??_R3pcharNode@@8          0000000180054d70     libvcruntime:undname.obj
 0002:0000bd88       ??_R2pcharNode@@8          0000000180054d88     libvcruntime:undname.obj
 0002:0000bda0       ??_R1A@?0A@EA@pcharNode@@8 0000000180054da0     libvcruntime:undname.obj
 0002:0000bdc8       ??_R4pDNameNode@@6B@       0000000180054dc8     libvcruntime:undname.obj
 0002:0000bdf0       ??_R3pDNameNode@@8         0000000180054df0     libvcruntime:undname.obj
 0002:0000be08       ??_R2pDNameNode@@8         0000000180054e08     libvcruntime:undname.obj
 0002:0000be20       ??_R1A@?0A@EA@pDNameNode@@8 0000000180054e20     libvcruntime:undname.obj
 0002:0000be48       ??_R4DNameStatusNode@@6B@  0000000180054e48     libvcruntime:undname.obj
 0002:0000be70       ??_R3DNameStatusNode@@8    0000000180054e70     libvcruntime:undname.obj
 0002:0000be88       ??_R2DNameStatusNode@@8    0000000180054e88     libvcruntime:undname.obj
 0002:0000bea0       ??_R1A@?0A@EA@DNameStatusNode@@8 0000000180054ea0     libvcruntime:undname.obj
 0002:0000bec8       ??_R4pairNode@@6B@         0000000180054ec8     libvcruntime:undname.obj
 0002:0000bef0       ??_R3pairNode@@8           0000000180054ef0     libvcruntime:undname.obj
 0002:0000bf08       ??_R2pairNode@@8           0000000180054f08     libvcruntime:undname.obj
 0002:0000bf20       ??_R1A@?0A@EA@pairNode@@8  0000000180054f20     libvcruntime:undname.obj
 0002:0000bf48       ??_R4exception@std@@6B@    0000000180054f48     libvcruntime:frame.obj
 0002:0000bf70       ??_R3exception@std@@8      0000000180054f70     libvcruntime:frame.obj
 0002:0000bf88       ??_R2exception@std@@8      0000000180054f88     libvcruntime:frame.obj
 0002:0000bf98       ??_R1A@?0A@EA@exception@std@@8 0000000180054f98     libvcruntime:frame.obj
 0002:0000bfc0       ??_R4bad_exception@std@@6B@ 0000000180054fc0     libvcruntime:frame.obj
 0002:0000bfe8       ??_R3bad_exception@std@@8  0000000180054fe8     libvcruntime:frame.obj
 0002:0000c000       ??_R2bad_exception@std@@8  0000000180055000     libvcruntime:frame.obj
 0002:0000c018       ??_R1A@?0A@EA@bad_exception@std@@8 0000000180055018     libvcruntime:frame.obj
 0002:0000c03c       __volatile_metadata        000000018005503c     <linker-defined>
 0002:0000c4a0       __rtc_iaa                  00000001800554a0     LIBCMT:initsect.obj
 0002:0000c4a8       __rtc_izz                  00000001800554a8     LIBCMT:initsect.obj
 0002:0000c4b0       __rtc_taa                  00000001800554b0     LIBCMT:initsect.obj
 0002:0000c4b8       __rtc_tzz                  00000001800554b8     LIBCMT:initsect.obj
 0002:00010500       _TI2?AVbad_exception@std@@ 0000000180059500     libvcruntime:frame.obj
 0002:00010520       _CTA2?AVbad_exception@std@@ 0000000180059520     libvcruntime:frame.obj
 0002:00010538       _CT??_R0?AVbad_exception@std@@@8??0bad_exception@std@@QEAA@AEBV01@@Z24 0000000180059538     libvcruntime:frame.obj
 0002:00010560       _CT??_R0?AVexception@std@@@8??0exception@std@@QEAA@AEBV01@@Z24 0000000180059560     libvcruntime:frame.obj
 0002:00010584       __DELAY_IMPORT_DESCRIPTOR_physxcommon_64_dll 0000000180059584     PhysXCommon_64:PhysXCommon_64.dll
 0002:000105a4       __DELAY_IMPORT_DESCRIPTOR_physxfoundation_64_dll 00000001800595a4     PhysXFoundation_64:PhysXFoundation_64.dll
 0002:000105c4       __NULL_DELAY_IMPORT_DESCRIPTOR 00000001800595c4     PhysXCommon_64:PhysXCommon_64.dll
 0002:00010708       \177PhysXCommon_64_NULL_THUNK_DATA_DLN 0000000180059708     PhysXCommon_64:PhysXCommon_64.dll
 0002:00010768       \177PhysXFoundation_64_NULL_THUNK_DATA_DLN 0000000180059768     PhysXFoundation_64:PhysXFoundation_64.dll
 0002:000110c8       \177PhysXCommon_64_NULL_THUNK_DATA_DLB 000000018005a0c8     PhysXCommon_64:PhysXCommon_64.dll
 0002:000111f0       \177PhysXFoundation_64_NULL_THUNK_DATA_DLB 000000018005a1f0     PhysXFoundation_64:PhysXFoundation_64.dll
 0002:00012f50       __IMPORT_DESCRIPTOR_KERNEL32 000000018005bf50     kernel32:KERNEL32.dll
 0002:00012f64       __NULL_IMPORT_DESCRIPTOR   000000018005bf64     kernel32:KERNEL32.dll
 0003:00000008       __pfnDliNotifyHook2        000000018005d008     WindowsCookingDelayLoadHook.obj
 0003:00000010       _fltused                   000000018005d010     LIBCMT:fltused.obj
 0003:00000020       __isa_available            000000018005d020     LIBCMT:cpu_disp.obj
 0003:00000024       __isa_enabled              000000018005d024     LIBCMT:cpu_disp.obj
 0003:00000028       __memcpy_nt_iters          000000018005d028     LIBCMT:cpu_disp.obj
 0003:00000030       __memset_nt_iters          000000018005d030     LIBCMT:cpu_disp.obj
 0003:00000040       __scrt_native_dllmain_reason 000000018005d040     LIBCMT:utility.obj
 0003:00000048       __security_cookie_complement 000000018005d048     LIBCMT:gs_cookie.obj
 0003:00000050       __security_cookie          000000018005d050     LIBCMT:gs_cookie.obj
 0003:00000080       __abort_behavior           000000018005d080     libucrt:abort.obj
 0003:000000b0       __acrt_initial_multibyte_data 000000018005d0b0     libucrt:mbctype.obj
 0003:000005f0       __acrt_initial_locale_data 000000018005d5f0     libucrt:nlsdata.obj
 0003:00000748       __acrt_initial_locale_pointers 000000018005d748     libucrt:nlsdata.obj
 0003:00000758       __acrt_wide_c_locale_string 000000018005d758     libucrt:nlsdata.obj
 0003:00000760       _iob                       000000018005d760     libucrt:_file.obj
 0003:00000870       __globallocalestatus       000000018005d870     libucrt:glstatus.obj
 0003:00000880       __acrt_lconv_c             000000018005d880     libucrt:localeconv.obj
 0003:00000918       __acrt_lconv_static_decimal 000000018005d918     libucrt:localeconv.obj
 0003:0000091c       __acrt_lconv_static_W_decimal 000000018005d91c     libucrt:localeconv.obj
 0003:00000920       _lookuptrailbytes          000000018005d920     libucrt:read.obj
 0003:00000a30       ??_R0?AVAdjEdge@@@8        000000018005da30     Adjacencies.obj
 0003:00000a50       ??_R0I@8                   000000018005da50     Adjacencies.obj
 0003:00000a68       ??_R0?AVAdjTriangle@physx@@@8 000000018005da68     Adjacencies.obj
 0003:00000a90       ??_R0?AVCooking@physx@@@8  000000018005da90     Cooking.obj
 0003:00000ab8       ??_R0?AVHeightField@Gu@physx@@@8 000000018005dab8     Cooking.obj
 0003:00000ae8       ??_R0?AVQuickHullConvexHullLib@physx@@@8 000000018005dae8     Cooking.obj
 0003:00000b20       ??_R0?AUPxDebugLine@physx@@@8 000000018005db20     Cooking.obj
 0003:00000b48       ??_R0M@8                   000000018005db48     CookingUtils.obj
 0003:00000b60       ??_R0?AUEdgeData@Gu@physx@@@8 000000018005db60     EdgeList.obj
 0003:00000b88       ??_R0?AUEdgeTriangleData@Gu@physx@@@8 000000018005db88     EdgeList.obj
 0003:00000bb8       ??_R0?AVQuantizerImpl@@@8  000000018005dbb8     Quantizer.obj
 0003:00000be0       ??_R0?AVPxVec3@physx@@@8   000000018005dbe0     Quantizer.obj
 0003:00000c08       ??_R0?AUSlab@NodeAllocator@Gu@physx@@@8 000000018005dc08     BVHStructureBuilder.obj
 0003:00000c40       ??_R0?AUInterval@physx@@@8 000000018005dc40     RTreeCooking.obj
 0003:00000c68       ??_R0?AURTreeNodeQ@Gu@physx@@@8 000000018005dc68     RTreeCooking.obj
 0003:00000c98       ??_R0?AURTreeNodeNQ@physx@@@8 000000018005dc98     RTreeCooking.obj
 0003:00000cc0       ??_R0?AUPxBounds3V@physx@@@8 000000018005dcc0     RTreeCooking.obj
 0003:00000ce8       ??_R0?AVEdgeListBuilder@Gu@physx@@@8 000000018005dce8     TriangleMeshBuilder.obj
 0003:00000d18       ??_R0?AVBV32Tree@Gu@physx@@@8 000000018005dd18     TriangleMeshBuilder.obj
 0003:00000d40       ??_R0E@8                   000000018005dd40     TriangleMeshBuilder.obj
 0003:00000d58       ??_R0G@8                   000000018005dd58     TriangleMeshBuilder.obj
 0003:00000d70       ??_R0?AUEdgeTriLookup@physx@@@8 000000018005dd70     TriangleMeshBuilder.obj
 0003:00000da0       ??_R0?AUEdgeDescData@Gu@physx@@@8 000000018005dda0     ConvexHullBuilder.obj
 0003:00000dd0       ??_R0_N@8                  000000018005ddd0     ConvexHullBuilder.obj
 0003:00000de8       ??_R0?AVConvexHull@physx@@@8 000000018005dde8     ConvexHullUtils.obj
 0003:00000e10       ??_R0?AVPxPlane@physx@@@8  000000018005de10     ConvexHullUtils.obj
 0003:00000e38       ??_R0?AVHalfEdge@ConvexHull@physx@@@8 000000018005de38     ConvexHullUtils.obj
 0003:00000e68       ??_R0?AVBigConvexData@physx@@@8 000000018005de68     ConvexMeshBuilder.obj
 0003:00000e98       ??_R0?AUHullTriangleData@physx@@@8 000000018005de98     ConvexPolygonsBuilder.obj
 0003:00000ec8       ??_R0?AVPair@@@8           000000018005dec8     ConvexPolygonsBuilder.obj
 0003:00000ee8       ??_R0?AVQuickHull@local@@@8 000000018005dee8     QuickHullConvexHullLib.obj
 0003:00000f10       ??_R0?AUExpandPoint@local@@@8 000000018005df10     QuickHullConvexHullLib.obj
 0003:00000f38       ??_R0PEAUQuickHullVertex@local@@@8 000000018005df38     QuickHullConvexHullLib.obj
 0003:00000f68       ??_R0PEAUQuickHullFace@local@@@8 000000018005df68     QuickHullConvexHullLib.obj
 0003:00000f98       ??_R0PEAUQuickHullHalfEdge@local@@@8 000000018005df98     QuickHullConvexHullLib.obj
 0003:00000fc8       ??_R0?AVbad_exception@std@@@8 000000018005dfc8     libvcruntime:frame.obj
 0003:00000ff0       ??_R0?AVexception@std@@@8  000000018005dff0     libvcruntime:frame.obj
 0003:00001018       ??_R0?AVtype_info@@@8      000000018005e018     LIBCMT:std_type_info_static.obj
 0003:00001038       ??_R0?AVDNameNode@@@8      000000018005e038     libvcruntime:undname.obj
 0003:00001058       ??_R0?AVcharNode@@@8       000000018005e058     libvcruntime:undname.obj
 0003:00001078       ??_R0?AVpcharNode@@@8      000000018005e078     libvcruntime:undname.obj
 0003:00001098       ??_R0?AVpDNameNode@@@8     000000018005e098     libvcruntime:undname.obj
 0003:000010c0       ??_R0?AVDNameStatusNode@@@8 000000018005e0c0     libvcruntime:undname.obj
 0003:000010e8       ??_R0?AVpairNode@@@8       000000018005e0e8     libvcruntime:undname.obj
 0003:00001108       __imp_??0RadixSortBuffered@Cm@physx@@QEAA@XZ 000000018005e108     PhysXCommon_64:PhysXCommon_64.dll
 0003:00001110       __imp_??1BigConvexData@physx@@QEAA@XZ 000000018005e110     PhysXCommon_64:PhysXCommon_64.dll
 0003:00001118       __imp_??1RadixSortBuffered@Cm@physx@@UEAA@XZ 000000018005e118     PhysXCommon_64:PhysXCommon_64.dll
 0003:00001120       __imp_?Sort@RadixSortBuffered@Cm@physx@@QEAAAEAV123@PEBIIW4RadixHint@23@@Z 000000018005e120     PhysXCommon_64:PhysXCommon_64.dll
 0003:00001128       __imp_??0HeightField@Gu@physx@@QEAA@PEAVGuMeshFactory@2@@Z 000000018005e128     PhysXCommon_64:PhysXCommon_64.dll
 0003:00001130       __imp_?loadFromDesc@HeightField@Gu@physx@@QEAA_NAEBVPxHeightFieldDesc@3@@Z 000000018005e130     PhysXCommon_64:PhysXCommon_64.dll
 0003:00001138       __imp_?computeCellCoordinates@HeightField@Gu@physx@@QEBAIMMAEAM0@Z 000000018005e138     PhysXCommon_64:PhysXCommon_64.dll
 0003:00001140       __imp_?releaseMemory@HeightField@Gu@physx@@QEAAXXZ 000000018005e140     PhysXCommon_64:PhysXCommon_64.dll
 0003:00001148       __imp_??1HeightField@Gu@physx@@UEAA@XZ 000000018005e148     PhysXCommon_64:PhysXCommon_64.dll
 0003:00001150       __imp_??0NodeAllocator@Gu@physx@@QEAA@XZ 000000018005e150     PhysXCommon_64:PhysXCommon_64.dll
 0003:00001158       __imp_??1NodeAllocator@Gu@physx@@QEAA@XZ 000000018005e158     PhysXCommon_64:PhysXCommon_64.dll
 0003:00001160       __imp_?release@NodeAllocator@Gu@physx@@QEAAXXZ 000000018005e160     PhysXCommon_64:PhysXCommon_64.dll
 0003:00001168       __imp_?buildAABBTree@Gu@physx@@YA_NAEAVAABBTreeBuildParams@12@AEAVNodeAllocator@12@AEAUBuildStats@12@AEAPEAI@Z 000000018005e168     PhysXCommon_64:PhysXCommon_64.dll
 0003:00001170       __imp_?writeDword@physx@@YAXI_NAEAVPxOutputStream@1@@Z 000000018005e170     PhysXCommon_64:PhysXCommon_64.dll
 0003:00001178       __imp_?writeFloatBuffer@physx@@YAXPEBMI_NAEAVPxOutputStream@1@@Z 000000018005e178     PhysXCommon_64:PhysXCommon_64.dll
 0003:00001180       __imp_?writeHeader@physx@@YA_NCCCCI_NAEAVPxOutputStream@1@@Z 000000018005e180     PhysXCommon_64:PhysXCommon_64.dll
 0003:00001188       __imp_?writeWord@physx@@YAXG_NAEAVPxOutputStream@1@@Z 000000018005e188     PhysXCommon_64:PhysXCommon_64.dll
 0003:00001190       __imp_?writeFloat@physx@@YAXM_NAEAVPxOutputStream@1@@Z 000000018005e190     PhysXCommon_64:PhysXCommon_64.dll
 0003:00001198       __imp_?computeBoundsAroundVertices@Gu@physx@@YAXAEAVPxBounds3@2@IPEIBVPxVec3@2@@Z 000000018005e198     PhysXCommon_64:PhysXCommon_64.dll
 0003:000011a0       __imp_??0SourceMesh@Gu@physx@@QEAA@XZ 000000018005e1a0     PhysXCommon_64:PhysXCommon_64.dll
 0003:000011a8       __imp_??1SourceMesh@Gu@physx@@QEAA@XZ 000000018005e1a8     PhysXCommon_64:PhysXCommon_64.dll
 0003:000011b0       __imp_??0BV4Tree@Gu@physx@@QEAA@XZ 000000018005e1b0     PhysXCommon_64:PhysXCommon_64.dll
 0003:000011b8       __imp_??1BV4Tree@Gu@physx@@QEAA@XZ 000000018005e1b8     PhysXCommon_64:PhysXCommon_64.dll
 0003:000011c0       __imp_??0BV32Tree@Gu@physx@@QEAA@XZ 000000018005e1c0     PhysXCommon_64:PhysXCommon_64.dll
 0003:000011c8       __imp_??1BV32Tree@Gu@physx@@QEAA@XZ 000000018005e1c8     PhysXCommon_64:PhysXCommon_64.dll
 0003:000011d0       __imp_?writeWordBuffer@physx@@YAXPEBGI_NAEAVPxOutputStream@1@@Z 000000018005e1d0     PhysXCommon_64:PhysXCommon_64.dll
 0003:000011d8       __imp_?computeMaxIndex@physx@@YAIPEBII@Z 000000018005e1d8     PhysXCommon_64:PhysXCommon_64.dll
 0003:000011e0       __imp_?storeIndices@physx@@YAXIIPEBIAEAVPxOutputStream@1@_N@Z 000000018005e1e0     PhysXCommon_64:PhysXCommon_64.dll
 0003:000011e8       __imp_?BuildBV4Ex@Gu@physx@@YA_NAEAVBV4Tree@12@AEAVSourceMesh@12@MI@Z 000000018005e1e8     PhysXCommon_64:PhysXCommon_64.dll
 0003:000011f0       __imp_?BuildBV32Ex@Gu@physx@@YA_NAEAVBV32Tree@12@AEAVSourceMesh@12@MI@Z 000000018005e1f0     PhysXCommon_64:PhysXCommon_64.dll
 0003:000011f8       __imp_?computeMaxIndex@physx@@YAGPEBGI@Z 000000018005e1f8     PhysXCommon_64:PhysXCommon_64.dll
 0003:00001200       __imp_?WriteHeader@Gu@physx@@YA_NEEEEI_NAEAVPxOutputStream@2@@Z 000000018005e200     PhysXCommon_64:PhysXCommon_64.dll
 0003:00001208       __imp_?StoreIndices@Gu@physx@@YAXGIPEBGAEAVPxOutputStream@2@_N@Z 000000018005e208     PhysXCommon_64:PhysXCommon_64.dll
 0003:00001210       __imp_?CreateOffsets@BigConvexData@physx@@IEAAXXZ 000000018005e210     PhysXCommon_64:PhysXCommon_64.dll
 0003:00001218       __imp_?computeOBBPoints@Gu@physx@@YAXPEIAVPxVec3@2@AEBV32@1111@Z 000000018005e218     PhysXCommon_64:PhysXCommon_64.dll
 0003:00001220       __imp_??0BigConvexData@physx@@QEAA@XZ 000000018005e220     PhysXCommon_64:PhysXCommon_64.dll
 0003:00001228       \177PhysXCommon_64_NULL_THUNK_DATA_DLA 000000018005e228     PhysXCommon_64:PhysXCommon_64.dll
 0003:00001230       __imp_PxGetFoundation      000000018005e230     PhysXFoundation_64:PhysXFoundation_64.dll
 0003:00001238       __imp_?deallocate@TempAllocator@shdfnd@physx@@QEAAXPEAX@Z 000000018005e238     PhysXFoundation_64:PhysXFoundation_64.dll
 0003:00001240       __imp_?getAllocator@shdfnd@physx@@YAAEAVPxAllocatorCallback@2@XZ 000000018005e240     PhysXFoundation_64:PhysXFoundation_64.dll
 0003:00001248       __imp_?getInstance@Foundation@shdfnd@physx@@SAAEAV123@XZ 000000018005e248     PhysXFoundation_64:PhysXFoundation_64.dll
 0003:00001250       __imp_?error@Foundation@shdfnd@physx@@QEAAXW4Enum@PxErrorCode@3@PEBDH1ZZ 000000018005e250     PhysXFoundation_64:PhysXFoundation_64.dll
 0003:00001258       __imp_?incRefCount@Foundation@shdfnd@physx@@SAXXZ 000000018005e258     PhysXFoundation_64:PhysXFoundation_64.dll
 0003:00001260       __imp_?decRefCount@Foundation@shdfnd@physx@@SAXXZ 000000018005e260     PhysXFoundation_64:PhysXFoundation_64.dll
 0003:00001268       __imp_??0FPUGuard@shdfnd@physx@@QEAA@XZ 000000018005e268     PhysXFoundation_64:PhysXFoundation_64.dll
 0003:00001270       __imp_??1FPUGuard@shdfnd@physx@@QEAA@XZ 000000018005e270     PhysXFoundation_64:PhysXFoundation_64.dll
 0003:00001278       __imp_?allocate@TempAllocator@shdfnd@physx@@QEAAPEAX_KPEBDH@Z 000000018005e278     PhysXFoundation_64:PhysXFoundation_64.dll
 0003:00001280       __imp_?PxDiagonalize@physx@@YA?AVPxVec3@1@AEBVPxMat33@1@AEAVPxQuat@1@@Z 000000018005e280     PhysXFoundation_64:PhysXFoundation_64.dll
 0003:00001288       \177PhysXFoundation_64_NULL_THUNK_DATA_DLA 000000018005e288     PhysXFoundation_64:PhysXFoundation_64.dll
 0003:00001658       __hmod__PhysXCommon_64_dll 000000018005e658     PhysXCommon_64:PhysXCommon_64.dll
 0003:00001660       __hmod__PhysXFoundation_64_dll 000000018005e660     PhysXFoundation_64:PhysXFoundation_64.dll
 0003:00001668       ?DloadKernel32@@3PEAUHINSTANCE__@@EA 000000018005e668     Delayimp:delayhlp.obj
 0003:00001670       ?DloadAcquireSRWLockExclusive@@3P6AXPEA_K@ZEA 000000018005e670     Delayimp:delayhlp.obj
 0003:00001678       ?DloadReleaseSRWLockExclusive@@3P6AXPEA_K@ZEA 000000018005e678     Delayimp:delayhlp.obj
 0003:00001680       ?DloadSrwLock@@3_KA        000000018005e680     Delayimp:delayhlp.obj
 0003:00001688       ?DloadSectionLockCount@@3KA 000000018005e688     Delayimp:delayhlp.obj
 0003:0000168c       ?DloadSectionOldProtection@@3KA 000000018005e68c     Delayimp:delayhlp.obj
 0003:00001690       ?DloadSectionCommitPermanent@@3KA 000000018005e690     Delayimp:delayhlp.obj
 0003:000016a0       ?__type_info_root_node@@3U__type_info_node@@A 000000018005e6a0     LIBCMT:tncleanup.obj
 0003:000016b8       __castguard_check_failure_os_handled_fptr 000000018005e6b8     LIBCMT:guard_support.obj
 0003:000016c0       __favor                    000000018005e6c0     LIBCMT:cpu_disp.obj
 0003:000016c8       ?_OptionsStorage@?1??__local_stdio_printf_options@@9@4_KA 000000018005e6c8     LIBCMT:default_local_stdio_options.obj
 0003:000016d0       ?_OptionsStorage@?1??__local_stdio_scanf_options@@9@4_KA 000000018005e6d0     LIBCMT:default_local_stdio_options.obj
 0003:000016d8       __scrt_current_native_startup_state 000000018005e6d8     LIBCMT:utility.obj
 0003:000016e0       __scrt_native_startup_lock 000000018005e6e0     LIBCMT:utility.obj
 0003:00001720       __scrt_debugger_hook_flag  000000018005e720     LIBCMT:utility_desktop.obj
 0003:00001728       ?__WinRTOutOfMemoryExceptionCallback@@3P6APEAXXZEA 000000018005e728     libvcruntime:ehhelpers.obj
 0003:00001730       __pPurecall                000000018005e730     libvcruntime:purevirt_data.obj
 0003:00001738       ?pArgList@UnDecorator@@0PEAVReplicator@@EA 000000018005e738     libvcruntime:undname.obj
 0003:00001740       ?pZNameList@UnDecorator@@0PEAVReplicator@@EA 000000018005e740     libvcruntime:undname.obj
 0003:00001748       ?pTemplateArgList@UnDecorator@@0PEAVReplicator@@EA 000000018005e748     libvcruntime:undname.obj
 0003:00001750       ?gName@UnDecorator@@0PEBDEB 000000018005e750     libvcruntime:undname.obj
 0003:00001758       ?name@UnDecorator@@0PEBDEB 000000018005e758     libvcruntime:undname.obj
 0003:00001760       ?disableFlags@UnDecorator@@0KA 000000018005e760     libvcruntime:undname.obj
 0003:00001764       ?fExplicitTemplateParams@UnDecorator@@0_NA 000000018005e764     libvcruntime:undname.obj
 0003:00001765       ?fGetTemplateArgumentList@UnDecorator@@0_NA 000000018005e765     libvcruntime:undname.obj
 0003:00001768       ?m_pGetParameter@UnDecorator@@0P6APEADJ@ZEA 000000018005e768     libvcruntime:undname.obj
 0003:00001770       ?m_CHPENameOffset@UnDecorator@@0KA 000000018005e770     libvcruntime:undname.obj
 0003:00001774       ?m_recursionLevel@UnDecorator@@0KA 000000018005e774     libvcruntime:undname.obj
 0003:000018a0       ?c_exit_complete@?1???R<lambda_6e4b09c48022b2350581041d5f6b0c4c>@@QEBA@XZ@4_NA 000000018005e8a0     libucrt:exit.obj
 0003:000019b8       _environ_table             000000018005e9b8     libucrt:environment_initialization.obj
 0003:000019c0       _wenviron_table            000000018005e9c0     libucrt:environment_initialization.obj
 0003:000019c8       __dcrt_initial_wide_environment 000000018005e9c8     libucrt:environment_initialization.obj
 0003:000019d0       __dcrt_initial_narrow_environment 000000018005e9d0     libucrt:environment_initialization.obj
 0003:000019d8       __acrt_atexit_table        000000018005e9d8     libucrt:onexit.obj
 0003:000019f0       __acrt_at_quick_exit_table 000000018005e9f0     libucrt:onexit.obj
 0003:00001a08       __fma3_is_available        000000018005ea08     libucrt:fma3_available.obj
 0003:00001a0c       __use_fma3_lib             000000018005ea0c     libucrt:fma3_available.obj
 0003:00001c50       _mbctype                   000000018005ec50     libucrt:mbctype.obj
 0003:00001c58       _mbcasemap                 000000018005ec58     libucrt:mbctype.obj
 0003:00001c60       __acrt_current_multibyte_data 000000018005ec60     libucrt:mbctype.obj
 0003:00001c70       _pgmptr                    000000018005ec70     libucrt:argv_data.obj
 0003:00001c78       __argc                     000000018005ec78     libucrt:argv_data.obj
 0003:00001c80       __argv                     000000018005ec80     libucrt:argv_data.obj
 0003:00001c88       __wargv                    000000018005ec88     libucrt:argv_data.obj
 0003:00001c90       _acmdln                    000000018005ec90     libucrt:argv_data.obj
 0003:00001c98       _wcmdln                    000000018005ec98     libucrt:argv_data.obj
 0003:00001e30       __acrt_heap                000000018005ee30     libucrt:heap_handle.obj
 0003:00001e40       __pioinfo                  000000018005ee40     libucrt:ioinit.obj
 0003:00002240       _nhandle                   000000018005f240     libucrt:ioinit.obj
 0003:00002278       __acrt_current_locale_data 000000018005f278     libucrt:nlsdata.obj
 0003:00002280       _nstream                   000000018005f280     libucrt:_file.obj
 0003:00002288       __piob                     000000018005f288     libucrt:_file.obj
 0003:00002290       __acrt_stdout_buffer       000000018005f290     libucrt:_sftbuf.obj
 0003:00002298       __acrt_stderr_buffer       000000018005f298     libucrt:_sftbuf.obj
 0003:000022b0       __acrt_locale_changed_data 000000018005f2b0     libucrt:wsetlocale.obj
 0003:000022b8       __acrt_lconv_static_null   000000018005f2b8     libucrt:localeconv.obj
 0003:000022bc       __acrt_lconv_static_W_null 000000018005f2bc     libucrt:localeconv.obj
 0003:00002840       __scrt_ucrt_dll_is_in_use  000000018005f840     <common>
 0003:00002848       __dyn_tls_init_callback    000000018005f848     <common>
 0005:00000100       __common_ssin_reduction_data 0000000180064100     LIBCMT:svml_s_sin_data.obj
 0005:00000d00       __common_ssin_data         0000000180064d00     LIBCMT:svml_s_sin_data.obj

 entry point at        0001:00027880

 Static symbols

 0000:fff97000       .debug$S                   0000000180000000     PhysXCooking_64.exp
 0000:fff97000       .debug$S                   0000000180000000     kernel32:KERNEL32.dll
 0000:fff97000       .debug$S                   0000000180000000     kernel32:KERNEL32.dll
 0000:fff97000       .debug$S                   0000000180000000     kernel32:KERNEL32.dll
 0000:fff97000       .debug$S                   0000000180000000     kernel32:KERNEL32.dll
 0000:fff97000       .debug$S                   0000000180000000     kernel32:KERNEL32.dll
 0000:fff97000       .debug$S                   0000000180000000     kernel32:KERNEL32.dll
 0000:fff97000       .debug$S                   0000000180000000     kernel32:KERNEL32.dll
 0000:fff97000       .debug$S                   0000000180000000     kernel32:KERNEL32.dll
 0000:fff97000       .debug$S                   0000000180000000     kernel32:KERNEL32.dll
 0000:fff97000       .debug$S                   0000000180000000     kernel32:KERNEL32.dll
 0000:fff97000       .debug$S                   0000000180000000     kernel32:KERNEL32.dll
 0000:fff97000       .debug$S                   0000000180000000     kernel32:KERNEL32.dll
 0000:fff97000       .debug$S                   0000000180000000     kernel32:KERNEL32.dll
 0000:fff97000       .debug$S                   0000000180000000     kernel32:KERNEL32.dll
 0000:fff97000       .debug$S                   0000000180000000     kernel32:KERNEL32.dll
 0000:fff97000       .debug$S                   0000000180000000     kernel32:KERNEL32.dll
 0000:fff97000       .debug$S                   0000000180000000     kernel32:KERNEL32.dll
 0000:fff97000       .debug$S                   0000000180000000     kernel32:KERNEL32.dll
 0000:fff97000       .debug$S                   0000000180000000     kernel32:KERNEL32.dll
 0000:fff97000       .debug$S                   0000000180000000     kernel32:KERNEL32.dll
 0000:fff97000       .debug$S                   0000000180000000     kernel32:KERNEL32.dll
 0000:fff97000       .debug$S                   0000000180000000     kernel32:KERNEL32.dll
 0000:fff97000       .debug$S                   0000000180000000     kernel32:KERNEL32.dll
 0000:fff97000       .debug$S                   0000000180000000     kernel32:KERNEL32.dll
 0000:fff97000       .debug$S                   0000000180000000     kernel32:KERNEL32.dll
 0000:fff97000       .debug$S                   0000000180000000     kernel32:KERNEL32.dll
 0000:fff97000       .debug$S                   0000000180000000     kernel32:KERNEL32.dll
 0000:fff97000       .debug$S                   0000000180000000     kernel32:KERNEL32.dll
 0000:fff97000       .debug$S                   0000000180000000     kernel32:KERNEL32.dll
 0000:fff97000       .debug$S                   0000000180000000     kernel32:KERNEL32.dll
 0000:fff97000       .debug$S                   0000000180000000     kernel32:KERNEL32.dll
 0000:fff97000       .debug$S                   0000000180000000     kernel32:KERNEL32.dll
 0000:fff97000       .debug$S                   0000000180000000     kernel32:KERNEL32.dll
 0000:fff97000       .debug$S                   0000000180000000     kernel32:KERNEL32.dll
 0000:fff97000       .debug$S                   0000000180000000     kernel32:KERNEL32.dll
 0000:fff97000       .debug$S                   0000000180000000     kernel32:KERNEL32.dll
 0000:fff97000       .debug$S                   0000000180000000     kernel32:KERNEL32.dll
 0000:fff97000       .debug$S                   0000000180000000     kernel32:KERNEL32.dll
 0000:fff97000       .debug$S                   0000000180000000     kernel32:KERNEL32.dll
 0000:fff97000       .debug$S                   0000000180000000     kernel32:KERNEL32.dll
 0000:fff97000       .debug$S                   0000000180000000     kernel32:KERNEL32.dll
 0000:fff97000       .debug$S                   0000000180000000     kernel32:KERNEL32.dll
 0000:fff97000       .debug$S                   0000000180000000     kernel32:KERNEL32.dll
 0000:fff97000       .debug$S                   0000000180000000     kernel32:KERNEL32.dll
 0000:fff97000       .debug$S                   0000000180000000     kernel32:KERNEL32.dll
 0000:fff97000       .debug$S                   0000000180000000     kernel32:KERNEL32.dll
 0000:fff97000       .debug$S                   0000000180000000     kernel32:KERNEL32.dll
 0000:fff97000       .debug$S                   0000000180000000     kernel32:KERNEL32.dll
 0000:fff97000       .debug$S                   0000000180000000     kernel32:KERNEL32.dll
 0000:fff97000       .debug$S                   0000000180000000     kernel32:KERNEL32.dll
 0000:fff97000       .debug$S                   0000000180000000     kernel32:KERNEL32.dll
 0000:fff97000       .debug$S                   0000000180000000     kernel32:KERNEL32.dll
 0000:fff97000       .debug$S                   0000000180000000     kernel32:KERNEL32.dll
 0000:fff97000       .debug$S                   0000000180000000     kernel32:KERNEL32.dll
 0000:fff97000       .debug$S                   0000000180000000     kernel32:KERNEL32.dll
 0000:fff97000       .debug$S                   0000000180000000     kernel32:KERNEL32.dll
 0000:fff97000       .debug$S                   0000000180000000     kernel32:KERNEL32.dll
 0000:fff97000       .debug$S                   0000000180000000     kernel32:KERNEL32.dll
 0000:fff97000       .debug$S                   0000000180000000     kernel32:KERNEL32.dll
 0000:fff97000       .debug$S                   0000000180000000     kernel32:KERNEL32.dll
 0000:fff97000       .debug$S                   0000000180000000     kernel32:KERNEL32.dll
 0000:fff97000       .debug$S                   0000000180000000     kernel32:KERNEL32.dll
 0000:fff97000       .debug$S                   0000000180000000     kernel32:KERNEL32.dll
 0000:fff97000       .debug$S                   0000000180000000     kernel32:KERNEL32.dll
 0000:fff97000       .debug$S                   0000000180000000     kernel32:KERNEL32.dll
 0000:fff97000       .debug$S                   0000000180000000     kernel32:KERNEL32.dll
 0000:fff97000       .debug$S                   0000000180000000     kernel32:KERNEL32.dll
 0000:fff97000       .debug$S                   0000000180000000     kernel32:KERNEL32.dll
 0000:fff97000       .debug$S                   0000000180000000     kernel32:KERNEL32.dll
 0000:fff97000       .debug$S                   0000000180000000     kernel32:KERNEL32.dll
 0000:fff97000       .debug$S                   0000000180000000     kernel32:KERNEL32.dll
 0000:fff97000       .debug$S                   0000000180000000     kernel32:KERNEL32.dll
 0000:fff97000       .debug$S                   0000000180000000     kernel32:KERNEL32.dll
 0000:fff97000       .debug$S                   0000000180000000     kernel32:KERNEL32.dll
 0000:fff97000       .debug$S                   0000000180000000     kernel32:KERNEL32.dll
 0000:fff97000       .debug$S                   0000000180000000     kernel32:KERNEL32.dll
 0000:fff97000       .debug$S                   0000000180000000     kernel32:KERNEL32.dll
 0000:fff97000       .debug$S                   0000000180000000     kernel32:KERNEL32.dll
 0000:fff97000       .debug$S                   0000000180000000     kernel32:KERNEL32.dll
 0000:fff97000       .debug$S                   0000000180000000     kernel32:KERNEL32.dll
 0000:fff97000       .debug$S                   0000000180000000     kernel32:KERNEL32.dll
 0000:fff97000       .debug$S                   0000000180000000     kernel32:KERNEL32.dll
 0000:fff97000       .debug$S                   0000000180000000     kernel32:KERNEL32.dll
 0000:fff97000       .debug$S                   0000000180000000     kernel32:KERNEL32.dll
 0000:fff97000       .debug$S                   0000000180000000     kernel32:KERNEL32.dll
 0000:fff97000       .debug$S                   0000000180000000     kernel32:KERNEL32.dll
 0000:fff97000       .debug$S                   0000000180000000     kernel32:KERNEL32.dll
 0000:fff97000       .debug$S                   0000000180000000     kernel32:KERNEL32.dll
 0000:fff97000       .debug$S                   0000000180000000     kernel32:KERNEL32.dll
 0000:fff97000       .debug$S                   0000000180000000     kernel32:KERNEL32.dll
 0000:fff97000       .debug$S                   0000000180000000     kernel32:KERNEL32.dll
 0000:fff97000       .debug$S                   0000000180000000     kernel32:KERNEL32.dll
 0000:fff97000       .debug$S                   0000000180000000     kernel32:KERNEL32.dll
 0000:fff97000       .debug$S                   0000000180000000     PhysXCommon_64:PhysXCommon_64.dll
 0000:fff97000       .debug$S                   0000000180000000     PhysXCommon_64:PhysXCommon_64.dll
 0000:fff97000       .debug$S                   0000000180000000     PhysXCommon_64:PhysXCommon_64.dll
 0000:fff97000       .debug$S                   0000000180000000     PhysXCommon_64:PhysXCommon_64.dll
 0000:fff97000       .debug$S                   0000000180000000     PhysXCommon_64:PhysXCommon_64.dll
 0000:fff97000       .debug$S                   0000000180000000     PhysXCommon_64:PhysXCommon_64.dll
 0000:fff97000       .debug$S                   0000000180000000     PhysXCommon_64:PhysXCommon_64.dll
 0000:fff97000       .debug$S                   0000000180000000     PhysXCommon_64:PhysXCommon_64.dll
 0000:fff97000       .debug$S                   0000000180000000     PhysXCommon_64:PhysXCommon_64.dll
 0000:fff97000       .debug$S                   0000000180000000     PhysXCommon_64:PhysXCommon_64.dll
 0000:fff97000       .debug$S                   0000000180000000     PhysXCommon_64:PhysXCommon_64.dll
 0000:fff97000       .debug$S                   0000000180000000     PhysXCommon_64:PhysXCommon_64.dll
 0000:fff97000       .debug$S                   0000000180000000     PhysXCommon_64:PhysXCommon_64.dll
 0000:fff97000       .debug$S                   0000000180000000     PhysXCommon_64:PhysXCommon_64.dll
 0000:fff97000       .debug$S                   0000000180000000     PhysXCommon_64:PhysXCommon_64.dll
 0000:fff97000       .debug$S                   0000000180000000     PhysXCommon_64:PhysXCommon_64.dll
 0000:fff97000       .debug$S                   0000000180000000     PhysXCommon_64:PhysXCommon_64.dll
 0000:fff97000       .debug$S                   0000000180000000     PhysXCommon_64:PhysXCommon_64.dll
 0000:fff97000       .debug$S                   0000000180000000     PhysXCommon_64:PhysXCommon_64.dll
 0000:fff97000       .debug$S                   0000000180000000     PhysXCommon_64:PhysXCommon_64.dll
 0000:fff97000       .debug$S                   0000000180000000     PhysXCommon_64:PhysXCommon_64.dll
 0000:fff97000       .debug$S                   0000000180000000     PhysXCommon_64:PhysXCommon_64.dll
 0000:fff97000       .debug$S                   0000000180000000     PhysXCommon_64:PhysXCommon_64.dll
 0000:fff97000       .debug$S                   0000000180000000     PhysXCommon_64:PhysXCommon_64.dll
 0000:fff97000       .debug$S                   0000000180000000     PhysXCommon_64:PhysXCommon_64.dll
 0000:fff97000       .debug$S                   0000000180000000     PhysXCommon_64:PhysXCommon_64.dll
 0000:fff97000       .debug$S                   0000000180000000     PhysXCommon_64:PhysXCommon_64.dll
 0000:fff97000       .debug$S                   0000000180000000     PhysXCommon_64:PhysXCommon_64.dll
 0000:fff97000       .debug$S                   0000000180000000     PhysXCommon_64:PhysXCommon_64.dll
 0000:fff97000       .debug$S                   0000000180000000     PhysXCommon_64:PhysXCommon_64.dll
 0000:fff97000       .debug$S                   0000000180000000     PhysXCommon_64:PhysXCommon_64.dll
 0000:fff97000       .debug$S                   0000000180000000     PhysXCommon_64:PhysXCommon_64.dll
 0000:fff97000       .debug$S                   0000000180000000     PhysXCommon_64:PhysXCommon_64.dll
 0000:fff97000       .debug$S                   0000000180000000     PhysXCommon_64:PhysXCommon_64.dll
 0000:fff97000       .debug$S                   0000000180000000     PhysXCommon_64:PhysXCommon_64.dll
 0000:fff97000       .debug$S                   0000000180000000     PhysXCommon_64:PhysXCommon_64.dll
 0000:fff97000       .debug$S                   0000000180000000     PhysXCommon_64:PhysXCommon_64.dll
 0000:fff97000       .debug$S                   0000000180000000     PhysXCommon_64:PhysXCommon_64.dll
 0000:fff97000       .debug$S                   0000000180000000     PhysXFoundation_64:PhysXFoundation_64.dll
 0000:fff97000       .debug$S                   0000000180000000     PhysXFoundation_64:PhysXFoundation_64.dll
 0000:fff97000       .debug$S                   0000000180000000     PhysXFoundation_64:PhysXFoundation_64.dll
 0000:fff97000       .debug$S                   0000000180000000     PhysXFoundation_64:PhysXFoundation_64.dll
 0000:fff97000       .debug$S                   0000000180000000     PhysXFoundation_64:PhysXFoundation_64.dll
 0000:fff97000       .debug$S                   0000000180000000     PhysXFoundation_64:PhysXFoundation_64.dll
 0000:fff97000       .debug$S                   0000000180000000     PhysXFoundation_64:PhysXFoundation_64.dll
 0000:fff97000       .debug$S                   0000000180000000     PhysXFoundation_64:PhysXFoundation_64.dll
 0000:fff97000       .debug$S                   0000000180000000     PhysXFoundation_64:PhysXFoundation_64.dll
 0000:fff97000       .debug$S                   0000000180000000     PhysXFoundation_64:PhysXFoundation_64.dll
 0000:fff97000       .debug$S                   0000000180000000     PhysXFoundation_64:PhysXFoundation_64.dll
 0001:00000000       ??__EmaxFError@_VecMathTests@aos@shdfnd@physx@@YAXXZ 0000000180001000 f   Cooking.obj
 0001:00000010       ??__EmaxV3Error@_VecMathTests@aos@shdfnd@physx@@YAXXZ 0000000180001010 f   Cooking.obj
 0001:00000020       ??__EmaxV4Error@_VecMathTests@aos@shdfnd@physx@@YAXXZ 0000000180001020 f   Cooking.obj
 0001:00000030       ??__EminFError@_VecMathTests@aos@shdfnd@physx@@YAXXZ 0000000180001030 f   Cooking.obj
 0001:00000040       ??__EminV3Error@_VecMathTests@aos@shdfnd@physx@@YAXXZ 0000000180001040 f   Cooking.obj
 0001:00000050       ??__EminV4Error@_VecMathTests@aos@shdfnd@physx@@YAXXZ 0000000180001050 f   Cooking.obj
 0001:00000060       ??__EmaxFError@_VecMathTests@aos@shdfnd@physx@@YAXXZ 0000000180001060 f   BVHStructureBuilder.obj
 0001:00000070       ??__EmaxV3Error@_VecMathTests@aos@shdfnd@physx@@YAXXZ 0000000180001070 f   BVHStructureBuilder.obj
 0001:00000080       ??__EmaxV4Error@_VecMathTests@aos@shdfnd@physx@@YAXXZ 0000000180001080 f   BVHStructureBuilder.obj
 0001:00000090       ??__EminFError@_VecMathTests@aos@shdfnd@physx@@YAXXZ 0000000180001090 f   BVHStructureBuilder.obj
 0001:000000a0       ??__EminV3Error@_VecMathTests@aos@shdfnd@physx@@YAXXZ 00000001800010a0 f   BVHStructureBuilder.obj
 0001:000000b0       ??__EminV4Error@_VecMathTests@aos@shdfnd@physx@@YAXXZ 00000001800010b0 f   BVHStructureBuilder.obj
 0001:000000c0       ??__EmaxFError@_VecMathTests@aos@shdfnd@physx@@YAXXZ 00000001800010c0 f   RTreeCooking.obj
 0001:000000d0       ??__EmaxV3Error@_VecMathTests@aos@shdfnd@physx@@YAXXZ 00000001800010d0 f   RTreeCooking.obj
 0001:000000e0       ??__EmaxV4Error@_VecMathTests@aos@shdfnd@physx@@YAXXZ 00000001800010e0 f   RTreeCooking.obj
 0001:000000f0       ??__EminFError@_VecMathTests@aos@shdfnd@physx@@YAXXZ 00000001800010f0 f   RTreeCooking.obj
 0001:00000100       ??__EminV3Error@_VecMathTests@aos@shdfnd@physx@@YAXXZ 0000000180001100 f   RTreeCooking.obj
 0001:00000110       ??__EminV4Error@_VecMathTests@aos@shdfnd@physx@@YAXXZ 0000000180001110 f   RTreeCooking.obj
 0001:00000120       ??__EmaxFError@_VecMathTests@aos@shdfnd@physx@@YAXXZ 0000000180001120 f   MeshBuilder.obj
 0001:00000130       ??__EmaxV3Error@_VecMathTests@aos@shdfnd@physx@@YAXXZ 0000000180001130 f   MeshBuilder.obj
 0001:00000140       ??__EmaxV4Error@_VecMathTests@aos@shdfnd@physx@@YAXXZ 0000000180001140 f   MeshBuilder.obj
 0001:00000150       ??__EminFError@_VecMathTests@aos@shdfnd@physx@@YAXXZ 0000000180001150 f   MeshBuilder.obj
 0001:00000160       ??__EminV3Error@_VecMathTests@aos@shdfnd@physx@@YAXXZ 0000000180001160 f   MeshBuilder.obj
 0001:00000170       ??__EminV4Error@_VecMathTests@aos@shdfnd@physx@@YAXXZ 0000000180001170 f   MeshBuilder.obj
 0001:00000180       ??__EmaxFError@_VecMathTests@aos@shdfnd@physx@@YAXXZ 0000000180001180 f   TriangleMeshBuilder.obj
 0001:00000190       ??__EmaxV3Error@_VecMathTests@aos@shdfnd@physx@@YAXXZ 0000000180001190 f   TriangleMeshBuilder.obj
 0001:000001a0       ??__EmaxV4Error@_VecMathTests@aos@shdfnd@physx@@YAXXZ 00000001800011a0 f   TriangleMeshBuilder.obj
 0001:000001b0       ??__EminFError@_VecMathTests@aos@shdfnd@physx@@YAXXZ 00000001800011b0 f   TriangleMeshBuilder.obj
 0001:000001c0       ??__EminV3Error@_VecMathTests@aos@shdfnd@physx@@YAXXZ 00000001800011c0 f   TriangleMeshBuilder.obj
 0001:000001d0       ??__EminV4Error@_VecMathTests@aos@shdfnd@physx@@YAXXZ 00000001800011d0 f   TriangleMeshBuilder.obj
 0001:000001e0       ??__EmaxFError@_VecMathTests@aos@shdfnd@physx@@YAXXZ 00000001800011e0 f   BigConvexDataBuilder.obj
 0001:000001f0       ??__EmaxV3Error@_VecMathTests@aos@shdfnd@physx@@YAXXZ 00000001800011f0 f   BigConvexDataBuilder.obj
 0001:00000200       ??__EmaxV4Error@_VecMathTests@aos@shdfnd@physx@@YAXXZ 0000000180001200 f   BigConvexDataBuilder.obj
 0001:00000210       ??__EminFError@_VecMathTests@aos@shdfnd@physx@@YAXXZ 0000000180001210 f   BigConvexDataBuilder.obj
 0001:00000220       ??__EminV3Error@_VecMathTests@aos@shdfnd@physx@@YAXXZ 0000000180001220 f   BigConvexDataBuilder.obj
 0001:00000230       ??__EminV4Error@_VecMathTests@aos@shdfnd@physx@@YAXXZ 0000000180001230 f   BigConvexDataBuilder.obj
 0001:00000240       ??__EmaxFError@_VecMathTests@aos@shdfnd@physx@@YAXXZ 0000000180001240 f   ConvexHullBuilder.obj
 0001:00000250       ??__EmaxV3Error@_VecMathTests@aos@shdfnd@physx@@YAXXZ 0000000180001250 f   ConvexHullBuilder.obj
 0001:00000260       ??__EmaxV4Error@_VecMathTests@aos@shdfnd@physx@@YAXXZ 0000000180001260 f   ConvexHullBuilder.obj
 0001:00000270       ??__EminFError@_VecMathTests@aos@shdfnd@physx@@YAXXZ 0000000180001270 f   ConvexHullBuilder.obj
 0001:00000280       ??__EminV3Error@_VecMathTests@aos@shdfnd@physx@@YAXXZ 0000000180001280 f   ConvexHullBuilder.obj
 0001:00000290       ??__EminV4Error@_VecMathTests@aos@shdfnd@physx@@YAXXZ 0000000180001290 f   ConvexHullBuilder.obj
 0001:000002a0       ??__EmaxFError@_VecMathTests@aos@shdfnd@physx@@YAXXZ 00000001800012a0 f   ConvexHullUtils.obj
 0001:000002b0       ??__EmaxV3Error@_VecMathTests@aos@shdfnd@physx@@YAXXZ 00000001800012b0 f   ConvexHullUtils.obj
 0001:000002c0       ??__EmaxV4Error@_VecMathTests@aos@shdfnd@physx@@YAXXZ 00000001800012c0 f   ConvexHullUtils.obj
 0001:000002d0       ??__EminFError@_VecMathTests@aos@shdfnd@physx@@YAXXZ 00000001800012d0 f   ConvexHullUtils.obj
 0001:000002e0       ??__EminV3Error@_VecMathTests@aos@shdfnd@physx@@YAXXZ 00000001800012e0 f   ConvexHullUtils.obj
 0001:000002f0       ??__EminV4Error@_VecMathTests@aos@shdfnd@physx@@YAXXZ 00000001800012f0 f   ConvexHullUtils.obj
 0001:00000300       ??__EmaxFError@_VecMathTests@aos@shdfnd@physx@@YAXXZ 0000000180001300 f   ConvexMeshBuilder.obj
 0001:00000310       ??__EmaxV3Error@_VecMathTests@aos@shdfnd@physx@@YAXXZ 0000000180001310 f   ConvexMeshBuilder.obj
 0001:00000320       ??__EmaxV4Error@_VecMathTests@aos@shdfnd@physx@@YAXXZ 0000000180001320 f   ConvexMeshBuilder.obj
 0001:00000330       ??__EminFError@_VecMathTests@aos@shdfnd@physx@@YAXXZ 0000000180001330 f   ConvexMeshBuilder.obj
 0001:00000340       ??__EminV3Error@_VecMathTests@aos@shdfnd@physx@@YAXXZ 0000000180001340 f   ConvexMeshBuilder.obj
 0001:00000350       ??__EminV4Error@_VecMathTests@aos@shdfnd@physx@@YAXXZ 0000000180001350 f   ConvexMeshBuilder.obj
 0001:00000360       ??__EmaxFError@_VecMathTests@aos@shdfnd@physx@@YAXXZ 0000000180001360 f   VolumeIntegration.obj
 0001:00000370       ??__EmaxV3Error@_VecMathTests@aos@shdfnd@physx@@YAXXZ 0000000180001370 f   VolumeIntegration.obj
 0001:00000380       ??__EmaxV4Error@_VecMathTests@aos@shdfnd@physx@@YAXXZ 0000000180001380 f   VolumeIntegration.obj
 0001:00000390       ??__EminFError@_VecMathTests@aos@shdfnd@physx@@YAXXZ 0000000180001390 f   VolumeIntegration.obj
 0001:000003a0       ??__EminV3Error@_VecMathTests@aos@shdfnd@physx@@YAXXZ 00000001800013a0 f   VolumeIntegration.obj
 0001:000003b0       ??__EminV4Error@_VecMathTests@aos@shdfnd@physx@@YAXXZ 00000001800013b0 f   VolumeIntegration.obj
 0001:00000640       ?CreateDatabase@@YA_NPEAVAdjTriangle@physx@@IPEBVAdjEdge@@AEBUADJACENCIESCREATE@2@@Z 0000000180001640 f   Adjacencies.obj
 0001:00000c50       ?UpdateLink@@YA_NIIIIPEAVAdjTriangle@physx@@AEBUADJACENCIESCREATE@2@@Z 0000000180001c50 f   Adjacencies.obj
 0001:00008ee0       ?buildFromBounds@physx@@YAXAEAURTree@Gu@1@PEBUPxBounds3V@1@IAEAV?$Array@IV?$ReflectionAllocator@I@shdfnd@physx@@@shdfnd@1@PEAURemapCallback@RTreeCooker@1@AEAT__m128@@4MW4Enum@PxMeshCookingHint@1@@Z 0000000180009ee0 f   RTreeCooking.obj
 0001:0000ce50       ?buildAdjacencies@physx@@YAXPEAUuint4@1@PEAVPxVec3@1@PEBV31@PEBUuint3@1@I@Z 000000018000de50 f   TriangleMeshBuilder.obj
 0001:0000e5d0       ?findAdjacent@physx@@YAIPEBVPxVec3@1@0PEBUuint3@1@IIIAEBVPxPlane@1@PEAUEdgeTriLookup@1@I@Z 000000018000f5d0 f   TriangleMeshBuilder.obj
 0001:000134d0       ?checkPointsAABBValidity@local@@YA_NIPEBVPxVec3@physx@@IMMAEAV23@1AEAIPEAV23@_N@Z 00000001800144d0 f   ConvexHullLib.obj
 0001:00018950       ?ComputeInternalExtent@@YAXAEAUConvexHullData@Gu@physx@@PEBUHullPolygonData@23@@Z 0000000180019950 f   ConvexMeshBuilder.obj
 0001:00019d50       ?CheckFloodFillFace@Local@?7??extractHullPolygons@@YA_NAEAIAEAV?$Array@IV?$ReflectionAllocator@I@shdfnd@physx@@@shdfnd@physx@@AEBVConvexPolygonsBuilder@5@PEAV345@1@Z@SA_NIPEBVAdjTriangle@5@PEBI@Z 000000018001ad50 f   ConvexPolygonsBuilder.obj
 0001:0001a340       ?FloodFill@Local@?7??extractHullPolygons@@YA_NAEAIAEAV?$Array@IV?$ReflectionAllocator@I@shdfnd@physx@@@shdfnd@physx@@AEBVConvexPolygonsBuilder@5@PEAV345@1@Z@SAX1PEBVAdjTriangle@5@IPEA_N@Z 000000018001b340 f   ConvexPolygonsBuilder.obj
 0001:0001a420       ?TestDuplicateTriangles@@YA_NAEAIPEAU?$TriangleT@I@Gu@physx@@_N@Z 000000018001b420 f   ConvexPolygonsBuilder.obj
 0001:0001a5f0       ?checkRedundantVertices@@YAXAEAIAEAV?$Array@IV?$ReflectionAllocator@I@shdfnd@physx@@@shdfnd@physx@@AEBVConvexPolygonsBuilder@3@11@Z 000000018001b5f0 f   ConvexPolygonsBuilder.obj
 0001:0001d310       ?extractHullPolygons@@YA_NAEAIAEAV?$Array@IV?$ReflectionAllocator@I@shdfnd@physx@@@shdfnd@physx@@AEBVConvexPolygonsBuilder@3@PEAV123@1@Z 000000018001e310 f   ConvexPolygonsBuilder.obj
 0001:0001dd80       ?findLineStrip@@YA_NAEAV?$Array@IV?$ReflectionAllocator@I@shdfnd@physx@@@shdfnd@physx@@AEBV?$Array@VPair@@V?$ReflectionAllocator@VPair@@@shdfnd@physx@@@23@@Z 000000018001ed80 f   ConvexPolygonsBuilder.obj
 0001:00025790       ?computeVolumeIntegrals@VolumeIntegratorEberly@?A0x5456bbcd@physx@@QEAA_NAEAUPxIntegrals@3@AEBVPxVec3@3@@Z 0000000180026790 f   VolumeIntegration.obj
 0001:00026290       ?computeVolumeIntegralsSIMD@VolumeIntegratorEberly@?A0x5456bbcd@physx@@QEAA_NAEAUPxIntegrals@3@AEBVPxVec3@3@@Z 0000000180027290 f   VolumeIntegration.obj
 0001:00026950       $LN24                      0000000180027950     WindowsCookingDelayLoadHook.obj
 0001:00027480       $$000000                   0000000180028480     LIBCMT:chkstk.obj
 0001:000274e0       ?<lambda_invoker_cdecl>@_Closure_wrapper_0fe033df_2@@CAXQEAX@Z 00000001800284e0 f   libvcruntime:std_type_info.obj
 0001:000274f0       $$000000                   00000001800284f0     LIBCMT:svml_ssinf4_dispatch.obj
 0001:00027560       ?dllmain_crt_dispatch@@YAHQEAUHINSTANCE__@@KQEAX@Z 0000000180028560 f   LIBCMT:dll_dllmain.obj
 0001:000275b0       ?dllmain_crt_process_attach@@YAHQEAUHINSTANCE__@@QEAX@Z 00000001800285b0 f   LIBCMT:dll_dllmain.obj
 0001:000276c8       ?dllmain_crt_process_detach@@YAH_N@Z 00000001800286c8 f   LIBCMT:dll_dllmain.obj
 0001:0002774c       ?dllmain_dispatch@@YAHQEAUHINSTANCE__@@KQEAX@Z 000000018002874c f   LIBCMT:dll_dllmain.obj
 0001:00027a70       $$000000                   0000000180028a70     LIBCMT:svml_ssinf4_sse2.obj
 0001:000283b0       $$000000                   00000001800293b0     LIBCMT:svml_ssinf4_sse4.obj
 0001:00029100       $$000000                   000000018002a100     LIBCMT:svml_s_sin_cout.obj
 0001:000291a4       ?<lambda_invoker_cdecl>@_Closure_wrapper_0fe033df_1@@CAPEAX_K@Z 000000018002a1a4 f   libvcruntime:std_type_info.obj
 0001:00029320       $$000000                   000000018002a320     libvcruntime:memset.obj
 0001:000294e0       $$000000                   000000018002a4e0     libvcruntime:memcpy.obj
 0001:0002a66c       ??1TrackRecursion@?1??getDecoratedName@UnDecorator@@CA?AVDName@@XZ@QEAA@XZ 000000018002b66c f   libvcruntime:undname.obj
 0001:00031e70       $$000000                   0000000180032e70     libvcruntime:notify.obj
 0001:00032de0       ?try_get_function@@YAPEAXW4function_id@?A0xf6f43728@@QEBDQEBW4module_id@2@2@Z 0000000180033de0 f   libvcruntime:winapi_downlevel.obj
 0001:000332bc       ??$BuildCatchObjectHelperInternal@V__FrameHandler3@@@@YAHPEAUEHExceptionRecord@@PEAXPEBU_s_HandlerType@@PEBU_s_CatchableType@@@Z 00000001800342bc f   libvcruntime:frame.obj
 0001:000334bc       ??$BuildCatchObjectHelperInternal@V__FrameHandler4@@@@YAHPEAUEHExceptionRecord@@PEAXPEAUHandlerType4@FH4@@PEBU_s_CatchableType@@@Z 00000001800344bc f   libvcruntime:frame.obj
 0001:000336c0       ??$BuildCatchObjectInternal@V__FrameHandler3@@@@YAXPEAUEHExceptionRecord@@PEAXPEBU_s_HandlerType@@PEBU_s_CatchableType@@@Z 00000001800346c0 f   libvcruntime:frame.obj
 0001:00033780       ??$BuildCatchObjectInternal@V__FrameHandler4@@@@YAXPEAUEHExceptionRecord@@PEAXPEAUHandlerType4@FH4@@PEBU_s_CatchableType@@@Z 0000000180034780 f   libvcruntime:frame.obj
 0001:00033844       ??$CatchIt@V__FrameHandler3@@@@YAXPEAUEHExceptionRecord@@PEA_KPEAU_CONTEXT@@PEAU_xDISPATCHER_CONTEXT@@PEBU_s_FuncInfo@@PEBU_s_HandlerType@@PEBU_s_CatchableType@@PEBU_s_TryBlockMapEntry@@H1EE@Z 0000000180034844 f   libvcruntime:frame.obj
 0001:00033918       ??$CatchIt@V__FrameHandler4@@@@YAXPEAUEHExceptionRecord@@PEA_KPEAU_CONTEXT@@PEAU_xDISPATCHER_CONTEXT@@PEAUFuncInfo4@FH4@@PEAUHandlerType4@4@PEBU_s_CatchableType@@PEAUTryBlockMapEntry4@4@H1EE@Z 0000000180034918 f   libvcruntime:frame.obj
 0001:000339ec       ??$FindHandler@V__FrameHandler3@@@@YAXPEAUEHExceptionRecord@@PEA_KPEAU_CONTEXT@@PEAU_xDISPATCHER_CONTEXT@@PEBU_s_FuncInfo@@EH1@Z 00000001800349ec f   libvcruntime:frame.obj
 0001:00033eb4       ??$FindHandler@V__FrameHandler4@@@@YAXPEAUEHExceptionRecord@@PEA_KPEAU_CONTEXT@@PEAU_xDISPATCHER_CONTEXT@@PEAUFuncInfo4@FH4@@EH1@Z 0000000180034eb4 f   libvcruntime:frame.obj
 0001:000343b0       ??$FindHandlerForForeignException@V__FrameHandler3@@@@YAXPEAUEHExceptionRecord@@PEA_KPEAU_CONTEXT@@PEAU_xDISPATCHER_CONTEXT@@PEBU_s_FuncInfo@@HH1@Z 00000001800353b0 f   libvcruntime:frame.obj
 0001:000345c8       ??$FindHandlerForForeignException@V__FrameHandler4@@@@YAXPEAUEHExceptionRecord@@PEA_KPEAU_CONTEXT@@PEAU_xDISPATCHER_CONTEXT@@PEAUFuncInfo4@FH4@@HH1@Z 00000001800355c8 f   libvcruntime:frame.obj
 0001:00035808       ?ExFilterRethrow@@YAHPEAU_EXCEPTION_POINTERS@@PEAUEHExceptionRecord@@PEAH@Z 0000000180036808 f   libvcruntime:frame.obj
 0001:00035890       ?ExFilterRethrowFH4@@YAHPEAU_EXCEPTION_POINTERS@@PEAUEHExceptionRecord@@HPEAH@Z 0000000180036890 f   libvcruntime:frame.obj
 0001:00035dcc       ?IsInExceptionSpec@@YAEPEAUEHExceptionRecord@@PEBU_s_ESTypeList@@@Z 0000000180036dcc f   libvcruntime:frame.obj
 0001:00035ebc       ?Is_bad_exception_allowed@@YAEPEBU_s_ESTypeList@@@Z 0000000180036ebc f   libvcruntime:frame.obj
 0001:000361b0       $$000000                   00000001800371b0     libvcruntime:handlers.obj
 0001:00036410       $$000000                   0000000180037410     libucrt:strcmp.obj
 0001:00036880       $$000000                   0000000180037880     libucrt:cosf.obj
 0001:00036d80       $$000000                   0000000180037d80     libucrt:sinf.obj
 0001:00037738       ??$?RV<lambda_d80eeec6fff315bfe5c115232f3240e3>@@AEAV<lambda_6e4b09c48022b2350581041d5f6b0c4c>@@V<lambda_2358e3775559c9db80273638284d5e45>@@@?$__crt_seh_guarded_call@X@@QEAAX$$QEAV<lambda_d80eeec6fff315bfe5c115232f3240e3>@@AEAV<lambda_6e4b09c48022b2350581041d5f6b0c4c>@@$$QEAV<lambda_2358e3775559c9db80273638284d5e45>@@@Z 0000000180038738 f   libucrt:exit.obj
 0001:00037770       ??R<lambda_6e4b09c48022b2350581041d5f6b0c4c>@@QEBA@XZ 0000000180038770 f   libucrt:exit.obj
 0001:0003783c       ?common_exit@@YAXHW4_crt_exit_cleanup_mode@@W4_crt_exit_return_mode@@@Z 000000018003883c f   libucrt:exit.obj
 0001:00037904       ?exit_or_terminate_process@@YAXI@Z 0000000180038904 f   libucrt:exit.obj
 0001:00037938       ?should_call_terminate_process@@YA_NXZ 0000000180038938 f   libucrt:exit.obj
 0001:00037968       ?try_cor_exit_process@@YAXI@Z 0000000180038968 f   libucrt:exit.obj
 0001:00037a04       ??$parse_command_line@D@@YAXPEADPEAPEAD0PEA_K2@Z 0000000180038a04 f   libucrt:argv_parsing.obj
 0001:00037dac       ??$common_initialize_environment_nolock@D@@YAHXZ 0000000180038dac f   libucrt:environment_initialization.obj
 0001:00037e20       ??$create_environment@D@@YAQEAPEADQEAD@Z 0000000180038e20 f   libucrt:environment_initialization.obj
 0001:00037f30       ??$free_environment@D@@YAXQEAPEAD@Z 0000000180038f30 f   libucrt:environment_initialization.obj
 0001:00037f30       ??$free_environment@_W@@YAXQEAPEA_W@Z 0000000180038f30 f   libucrt:environment_initialization.obj
 0001:00037f74       ??$uninitialize_environment_internal@D@@YAXAEAPEAPEAD@Z 0000000180038f74 f   libucrt:environment_initialization.obj
 0001:00037f90       ??$uninitialize_environment_internal@_W@@YAXAEAPEAPEA_W@Z 0000000180038f90 f   libucrt:environment_initialization.obj
 0001:00037ff8       ??$?RV<lambda_7777bce6b2f8c936911f934f8298dc43>@@AEAV<lambda_f03950bc5685219e0bcd2087efbe011e>@@V<lambda_3883c3dff614d5e0c5f61bb1ac94921c>@@@?$__crt_seh_guarded_call@H@@QEAAH$$QEAV<lambda_7777bce6b2f8c936911f934f8298dc43>@@AEAV<lambda_f03950bc5685219e0bcd2087efbe011e>@@$$QEAV<lambda_3883c3dff614d5e0c5f61bb1ac94921c>@@@Z 0000000180038ff8 f   libucrt:onexit.obj
 0001:00038034       ??R<lambda_f03950bc5685219e0bcd2087efbe011e>@@QEBAHXZ 0000000180039034 f   libucrt:onexit.obj
 0001:000381c0       initialize_global_variables 00000001800391c0 f   libucrt:initialization.obj
 0001:000381d4       initialize_c               00000001800391d4 f   libucrt:initialization.obj
 0001:000381f8       initialize_environment     00000001800391f8 f   libucrt:initialization.obj
 0001:000381f8       initialize_global_state_isolation 00000001800391f8 f   libucrt:initialization.obj
 0001:000381f8       report_memory_leaks        00000001800391f8 f   libucrt:initialization.obj
 0001:000381f8       uninitialize_c             00000001800391f8 f   libucrt:initialization.obj
 0001:000381f8       uninitialize_global_state_isolation 00000001800391f8 f   libucrt:initialization.obj
 0001:000381fc       uninitialize_environment   00000001800391fc f   libucrt:initialization.obj
 0001:0003820c       initialize_pointers        000000018003920c f   libucrt:initialization.obj
 0001:0003824c       uninitialize_vcruntime     000000018003924c f   libucrt:initialization.obj
 0001:00038254       uninitialize_allocated_memory 0000000180039254 f   libucrt:initialization.obj
 0001:00038294       uninitialize_allocated_io_buffers 0000000180039294 f   libucrt:initialization.obj
 0001:0003845c       ??$common_vsprintf@Vformat_validation_base@__crt_stdio_output@@D@@YAH_KQEAD0QEBDAEAV__crt_cached_ptd_host@@1@Z 000000018003945c f   libucrt:output.obj
 0001:0003a7e0       $$000000                   000000018003b7e0     libucrt:strncmp.obj
 0001:0003a974       _call_matherr              000000018003b974 f   libucrt:libm_error.obj
 0001:0003a9dc       _exception_enabled         000000018003b9dc f   libucrt:libm_error.obj
 0001:0003ad20       $$000000                   000000018003bd20     libucrt:remainder_piby2f_forasm.obj
 0001:0003ae70       $$000000                   000000018003be70     libucrt:remainder_piby2_forfma3.obj
 0001:0003b0ec       _sincosf_special           000000018003c0ec f   libucrt:sincos_special.obj
 0001:0003b200       $$000000                   000000018003c200     libucrt:remainder_piby2f_forc.obj
 0001:0003b3c8       ??$?RV<lambda_0ae27a3a962d80f24befdcbee591983d>@@AEAV<lambda_8d0ee55de4b1038c4002e0adecdf1839>@@V<lambda_dc504788e8f1664fe9b84e20bfb512f2>@@@?$__crt_seh_guarded_call@X@@QEAAX$$QEAV<lambda_0ae27a3a962d80f24befdcbee591983d>@@AEAV<lambda_8d0ee55de4b1038c4002e0adecdf1839>@@$$QEAV<lambda_dc504788e8f1664fe9b84e20bfb512f2>@@@Z 000000018003c3c8 f   libucrt:per_thread_data.obj
 0001:0003b408       ??$?RV<lambda_2d41944a1d46af3157314b8a01080d33>@@AEAV<lambda_8f455de75cd7d7f24b4096f044d8b9e6>@@V<lambda_aa500f224e6afead328df44964fe2772>@@@?$__crt_seh_guarded_call@X@@QEAAX$$QEAV<lambda_2d41944a1d46af3157314b8a01080d33>@@AEAV<lambda_8f455de75cd7d7f24b4096f044d8b9e6>@@$$QEAV<lambda_aa500f224e6afead328df44964fe2772>@@@Z 000000018003c408 f   libucrt:per_thread_data.obj
 0001:0003b448       ??$?RV<lambda_aa87e3671a710a21b5dc78c0bdf72e11>@@AEAV<lambda_92619d2358a28f41a33ba319515a20b9>@@V<lambda_6992ecaafeb10aed2b74cb1fae11a551>@@@?$__crt_seh_guarded_call@X@@QEAAX$$QEAV<lambda_aa87e3671a710a21b5dc78c0bdf72e11>@@AEAV<lambda_92619d2358a28f41a33ba319515a20b9>@@$$QEAV<lambda_6992ecaafeb10aed2b74cb1fae11a551>@@@Z 000000018003c448 f   libucrt:per_thread_data.obj
 0001:0003b490       ??$?RV<lambda_f2e299630e499de9f9a165e60fcd3db5>@@AEAV<lambda_2ae9d31cdba2644fcbeaf08da7c24588>@@V<lambda_40d01ff24d0e7b3814fdbdcee8eab3c7>@@@?$__crt_seh_guarded_call@X@@QEAAX$$QEAV<lambda_f2e299630e499de9f9a165e60fcd3db5>@@AEAV<lambda_2ae9d31cdba2644fcbeaf08da7c24588>@@$$QEAV<lambda_40d01ff24d0e7b3814fdbdcee8eab3c7>@@@Z 000000018003c490 f   libucrt:per_thread_data.obj
 0001:0003b4f0       ?construct_ptd_array@@YAXQEAU__acrt_ptd@@@Z 000000018003c4f0 f   libucrt:per_thread_data.obj
 0001:0003b5c0       ?destroy_fls@@YAXPEAX@Z    000000018003c5c0 f   libucrt:per_thread_data.obj
 0001:0003b5e0       ?destroy_ptd_array@@YAXQEAU__acrt_ptd@@@Z 000000018003c5e0 f   libucrt:per_thread_data.obj
 0001:0003b6d8       ?replace_current_thread_locale_nolock@@YAXQEAU__acrt_ptd@@QEAU__crt_locale_data@@@Z 000000018003c6d8 f   libucrt:per_thread_data.obj
 0001:0003c134       ?<lambda_invoker_cdecl>@<lambda_a1ce4c8ae42411fd470c77163914f50e>@@CAHPEBX0@Z 000000018003d134 f   libucrt:argv_wildcards.obj
 0001:0003c450       ??$common_expand_argv_wildcards@D@@YAHQEAPEADQEAPEAPEAD@Z 000000018003d450 f   libucrt:argv_wildcards.obj
 0001:0003c694       ??$copy_and_add_argument_to_buffer@D@@YAHQEBD0_KAEAV?$argument_list@D@?A0x5f5c8891@@@Z 000000018003d694 f   libucrt:argv_wildcards.obj
 0001:0003c81c       ??$expand_argument_wildcards@D@@YAHQEAD0AEAV?$argument_list@D@?A0x5f5c8891@@@Z 000000018003d81c f   libucrt:argv_wildcards.obj
 0001:0003ce50       ??$?RV<lambda_efdfa57d1f175319df784efa44bb7b81>@@AEAV<lambda_5f0a4c1567f8adc6734073e5d1e1b35c>@@V<lambda_2e8a7d3640ea6ccb4c2413664c2db6fd>@@@?$__crt_seh_guarded_call@X@@QEAAX$$QEAV<lambda_efdfa57d1f175319df784efa44bb7b81>@@AEAV<lambda_5f0a4c1567f8adc6734073e5d1e1b35c>@@$$QEAV<lambda_2e8a7d3640ea6ccb4c2413664c2db6fd>@@@Z 000000018003de50 f   libucrt:mbctype.obj
 0001:0003d020       ?getSystemCP@@YAHH@Z       000000018003e020 f   libucrt:mbctype.obj
 0001:0003d0a0       ?setSBCS@@YAXPEAU__crt_multibyte_data@@@Z 000000018003e0a0 f   libucrt:mbctype.obj
 0001:0003d138       ?setSBUpLow@@YAXPEAU__crt_multibyte_data@@@Z 000000018003e138 f   libucrt:mbctype.obj
 0001:0003d320       ?setmbcp_internal@@YAHH_NQEAU__acrt_ptd@@QEAPEAU__crt_multibyte_data@@@Z 000000018003e320 f   libucrt:mbctype.obj
 0001:0003d590       ?update_thread_multibyte_data_internal@@YAPEAU__crt_multibyte_data@@QEAU__acrt_ptd@@QEAPEAU1@@Z 000000018003e590 f   libucrt:mbctype.obj
 0001:0003d984       ?x_ismbbtype_l@@YAHPEAU__crt_locale_pointers@@IHH@Z 000000018003e984 f   libucrt:ismbbyte.obj
 0001:0003dce8       ?try_get_function@@YAPEAXW4function_id@?A0x391cf84c@@QEBDQEBW4module_id@2@2@Z 000000018003ece8 f   libucrt:winapi_thunks.obj
 0001:0003e1b0       ?initialize_inherited_file_handles_nolock@@YAXXZ 000000018003f1b0 f   libucrt:ioinit.obj
 0001:0003e2a0       ?initialize_stdio_handles_nolock@@YAXXZ 000000018003f2a0 f   libucrt:ioinit.obj
 0001:0003e578       ??$?RV<lambda_450d765d439847d4c735a33c368b5fc0>@@AEAV<lambda_44731a7d0e6d81c3e6aa82d741081786>@@V<lambda_601a2a7da3b7a96e9554ac7215c4b07c>@@@?$__crt_seh_guarded_call@P6AXH@Z@@QEAAP6AXH@Z$$QEAV<lambda_450d765d439847d4c735a33c368b5fc0>@@AEAV<lambda_44731a7d0e6d81c3e6aa82d741081786>@@$$QEAV<lambda_601a2a7da3b7a96e9554ac7215c4b07c>@@@Z 000000018003f578 f   libucrt:signal.obj
 0001:0003e8f0       ??$?RV<lambda_842d9ff0dc9ef11c61343bbaebe7f885>@@AEAV<lambda_c5860995281e5c4ce005b3de8f5874ee>@@V<lambda_d90129c13df834fdcbf8d2b88dafcf2d>@@@?$__crt_seh_guarded_call@X@@QEAAX$$QEAV<lambda_842d9ff0dc9ef11c61343bbaebe7f885>@@AEAV<lambda_c5860995281e5c4ce005b3de8f5874ee>@@$$QEAV<lambda_d90129c13df834fdcbf8d2b88dafcf2d>@@@Z 000000018003f8f0 f   libucrt:fflush.obj
 0001:0003e98c       ??$?RV<lambda_886d6c58226a84441f68b9f2b8217b83>@@AEAV<lambda_ab61a845afdef5b7c387490eaf3616ee>@@V<lambda_f7f22ab5edc0698d5f6905b0d3f44752>@@@?$__crt_seh_guarded_call@X@@QEAAX$$QEAV<lambda_886d6c58226a84441f68b9f2b8217b83>@@AEAV<lambda_ab61a845afdef5b7c387490eaf3616ee>@@$$QEAV<lambda_f7f22ab5edc0698d5f6905b0d3f44752>@@@Z 000000018003f98c f   libucrt:fflush.obj
 0001:0003ea6c       ?common_flush_all@@YAH_N@Z 000000018003fa6c f   libucrt:fflush.obj
 0001:0003f228       ?fp_format_a@@YAHQEBNPEAD_KQEAD2H_NIW4__acrt_rounding_mode@@AEAV__crt_cached_ptd_host@@@Z 0000000180040228 f   libucrt:cvt.obj
 0001:0003f5dc       ?fp_format_e@@YAHQEBNQEAD_K12H_NIW4__acrt_rounding_mode@@AEAV__crt_cached_ptd_host@@@Z 00000001800405dc f   libucrt:cvt.obj
 0001:0003f6d8       ?fp_format_e_internal@@YAHQEAD_KH_NIQEAU_strflt@@2AEAV__crt_cached_ptd_host@@@Z 00000001800406d8 f   libucrt:cvt.obj
 0001:0003f8bc       ?fp_format_f@@YAHQEBNQEAD_K12HW4__acrt_rounding_mode@@AEAV__crt_cached_ptd_host@@@Z 00000001800408bc f   libucrt:cvt.obj
 0001:0003f994       ?fp_format_f_internal@@YAHQEAD_KHQEAU_strflt@@_NAEAV__crt_cached_ptd_host@@@Z 0000000180040994 f   libucrt:cvt.obj
 0001:0003faec       ?fp_format_g@@YAHQEBNQEAD_K12H_NIW4__acrt_rounding_mode@@AEAV__crt_cached_ptd_host@@@Z 0000000180040aec f   libucrt:cvt.obj
 0001:0003fc40       ?should_round_up@@YA_NQEBN_KFW4__acrt_rounding_mode@@@Z 0000000180040c40 f   libucrt:cvt.obj
 0001:000403a8       ??$?RV<lambda_410d79af7f07d98d83a3f525b3859a53>@@AEAV<lambda_3e16ef9562a7dcce91392c22ab16ea36>@@V<lambda_38119f0e861e05405d8a144b9b982f0a>@@@?$__crt_seh_guarded_call@X@@QEAAX$$QEAV<lambda_410d79af7f07d98d83a3f525b3859a53>@@AEAV<lambda_3e16ef9562a7dcce91392c22ab16ea36>@@$$QEAV<lambda_38119f0e861e05405d8a144b9b982f0a>@@@Z 00000001800413a8 f   libucrt:wsetlocale.obj
 0001:00040590       $$000000                   0000000180041590     libucrt:fpsr.obj
 0001:000412a0       fallbackMethod             00000001800422a0 f   libucrt:strpbrk.obj
 0001:0004164c       $LN78                      000000018004264c     libucrt:strpbrk.obj
 0001:00041688       $LN77                      0000000180042688     libucrt:strpbrk.obj
 0001:000416c8       $LN76                      00000001800426c8     libucrt:strpbrk.obj
 0001:00041940       ?__acrt_LCMapStringA_stat@@YAHPEAU__crt_locale_pointers@@PEB_WKPEBDHPEADHHH@Z 0000000180042940 f   libucrt:lcmapstringa.obj
 0001:00041cf8       ?initialize_multibyte@@YAHXZ 0000000180042cf8 f   libucrt:multibyte_initializer.obj
 0001:00042194       ??$?RV<lambda_a37b2b86f63e897a80ea819b0eb08c01>@@AEAV<lambda_38ce7e780aa69e748d6df282ebc68efe>@@V<lambda_99fb1378e971ab6e7edea83e3a7a83a2>@@@?$__crt_seh_guarded_call@H@@QEAAH$$QEAV<lambda_a37b2b86f63e897a80ea819b0eb08c01>@@AEAV<lambda_38ce7e780aa69e748d6df282ebc68efe>@@$$QEAV<lambda_99fb1378e971ab6e7edea83e3a7a83a2>@@@Z 0000000180043194 f   libucrt:commit.obj
 0001:000422b4       ?write_double_translated_ansi_nolock@@YA?AUwrite_result@?A0x17268360@@HQEBDIAEAV__crt_cached_ptd_host@@@Z 00000001800432b4 f   libucrt:write.obj
 0001:00042740       ?write_text_ansi_nolock@@YA?AUwrite_result@?A0x17268360@@HQEBDI@Z 0000000180043740 f   libucrt:write.obj
 0001:00042844       ?write_text_utf16le_nolock@@YA?AUwrite_result@?A0x17268360@@HQEBDI@Z 0000000180043844 f   libucrt:write.obj
 0001:00042960       ?write_text_utf8_nolock@@YA?AUwrite_result@?A0x17268360@@HQEBDI@Z 0000000180043960 f   libucrt:write.obj
 0001:000448ac       memcpy_s                   00000001800458ac f   libucrt:cfout.obj
 0001:00044d4c       ?free_crt_array_internal@@YAXQEAPEBX_K@Z 0000000180045d4c f   libucrt:inittime.obj
 0001:00044ef4       ??$common_lseek_nolock@_J@@YA_JH_JHAEAV__crt_cached_ptd_host@@@Z 0000000180045ef4 f   libucrt:lseek.obj
 0001:00044fe4       ?_fclose_internal@@YAHQEAU_iobuf@@AEAV__crt_cached_ptd_host@@@Z 0000000180045fe4 f   libucrt:fclose.obj
 0001:00045060       ?_fclose_nolock_internal@@YAHQEAU_iobuf@@AEAV__crt_cached_ptd_host@@@Z 0000000180046060 f   libucrt:fclose.obj
 0001:00045380       $$000000                   0000000180046380     libucrt:log10.obj
 0001:00045f4c       ??$?RV<lambda_ad8af0d99a0adf03d037d7dffe354bb5>@@AEAV<lambda_c9ba49e555ba839a7b07aa3fbecb7617>@@V<lambda_2f1ebd5d68526518146ae959c9e734c8>@@@?$__crt_seh_guarded_call@H@@QEAAH$$QEAV<lambda_ad8af0d99a0adf03d037d7dffe354bb5>@@AEAV<lambda_c9ba49e555ba839a7b07aa3fbecb7617>@@$$QEAV<lambda_2f1ebd5d68526518146ae959c9e734c8>@@@Z 0000000180046f4c f   libucrt:close.obj
 0001:000461ec       common_control87           00000001800471ec f   libucrt:ieee.obj
 0001:000464d0       _log_special_common        00000001800474d0 f   libucrt:log_special.obj
 0001:000466c0       $$000000                   00000001800476c0     LIBCMT:amdsecgs.obj
 0001:00046930       capture_current_context    0000000180047930 f   LIBCMT:gs_report.obj
 0001:000469a0       capture_previous_context   00000001800479a0 f   LIBCMT:gs_report.obj
 0001:00046c10       $$000000                   0000000180047c10     libvcruntime:memcmp.obj
 0001:00046cf0       $$000000                   0000000180047cf0     LIBCMT:guard_dispatch.obj
 0001:00046d10       $$000000                   0000000180047d10     LIBCMT:guard_xfg_dispatch.obj
 0001:00046d30       ?fin$0@?0??dllmain_crt_process_attach@@YAHQEAUHINSTANCE__@@QEAX@Z@4HA 0000000180047d30 f   LIBCMT:dll_dllmain.obj
 0001:00046d47       ?fin$0@?0??dllmain_crt_process_detach@@YAH_N@Z@4HA 0000000180047d47 f   LIBCMT:dll_dllmain.obj
 0001:00046d60       ?fin$1@?0??dllmain_crt_process_detach@@YAH_N@Z@4HA 0000000180047d60 f   LIBCMT:dll_dllmain.obj
 0001:00046d74       ?filt$0@?0??dllmain_dispatch@@YAHQEAUHINSTANCE__@@KQEAX@Z@4HA 0000000180047d74 f   LIBCMT:dll_dllmain.obj
 0001:00046daa       __scrt_is_nonwritable_in_current_image$filt$0 0000000180047daa f   LIBCMT:utility.obj
 0001:00046dc2       __DestructExceptionObject$filt$0 0000000180047dc2 f   libvcruntime:ehhelpers.obj
 0001:00046e58       ?dtor$0@?0??getDecoratedName@UnDecorator@@CA?AVDName@@XZ@4HA 0000000180047e58 f   libvcruntime:undname.obj
 0001:00046e64       __unDNameEx$fin$0          0000000180047e64 f   libvcruntime:undname.obj
 0001:00046e7a       ?filt$0@?0???$_CallSETranslator@V__FrameHandler3@@@@YAHPEAUEHExceptionRecord@@PEA_KPEAU_CONTEXT@@PEAU_xDISPATCHER_CONTEXT@@PEBU_s_FuncInfo@@K1H@Z@4HA 0000000180047e7a f   libvcruntime:risctrnsctrl.obj
 0001:00046f0b       ?filt$0@?0???$_CallSETranslator@V__FrameHandler4@@@@YAHPEAUEHExceptionRecord@@PEA_KPEAU_CONTEXT@@PEAU_xDISPATCHER_CONTEXT@@PEAUFuncInfo4@FH4@@K1H@Z@4HA 0000000180047f0b f   libvcruntime:risctrnsctrl.obj
 0001:00046faa       ?filt$0@?0??CxxCallCatchBlock@__FrameHandler3@@SAPEAXPEAU_EXCEPTION_RECORD@@@Z@4HA 0000000180047faa f   libvcruntime:frame.obj
 0001:00046fcf       ?fin$1@?0??CxxCallCatchBlock@__FrameHandler3@@SAPEAXPEAU_EXCEPTION_RECORD@@@Z@4HA 0000000180047fcf f   libvcruntime:frame.obj
 0001:00047047       ?filt$0@?0??CxxCallCatchBlock@__FrameHandler4@@SAPEAXPEAU_EXCEPTION_RECORD@@@Z@4HA 0000000180048047 f   libvcruntime:frame.obj
 0001:00047076       ?fin$1@?0??CxxCallCatchBlock@__FrameHandler4@@SAPEAXPEAU_EXCEPTION_RECORD@@@Z@4HA 0000000180048076 f   libvcruntime:frame.obj
 0001:000470f9       ?filt$0@?0??FrameUnwindToState@__FrameHandler3@@SAXPEA_KPEAU_xDISPATCHER_CONTEXT@@PEBU_s_FuncInfo@@H@Z@4HA 00000001800480f9 f   libvcruntime:frame.obj
 0001:0004710f       ?fin$1@?0??FrameUnwindToState@__FrameHandler3@@SAXPEA_KPEAU_xDISPATCHER_CONTEXT@@PEBU_s_FuncInfo@@H@Z@4HA 000000018004810f f   libvcruntime:frame.obj
 0001:00047132       ?filt$0@?0??FrameUnwindToState@__FrameHandler4@@SAXPEA_KPEAU_xDISPATCHER_CONTEXT@@PEAUFuncInfo4@FH4@@H@Z@4HA 0000000180048132 f   libvcruntime:frame.obj
 0001:00047148       ?fin$1@?0??FrameUnwindToState@__FrameHandler4@@SAXPEA_KPEAU_xDISPATCHER_CONTEXT@@PEAUFuncInfo4@FH4@@H@Z@4HA 0000000180048148 f   libvcruntime:frame.obj
 0001:0004716b       ?fin$0@?0???$?RV<lambda_0ae27a3a962d80f24befdcbee591983d>@@AEAV<lambda_8d0ee55de4b1038c4002e0adecdf1839>@@V<lambda_dc504788e8f1664fe9b84e20bfb512f2>@@@?$__crt_seh_guarded_call@X@@QEAAX$$QEAV<lambda_0ae27a3a962d80f24befdcbee591983d>@@AEAV<lambda_8d0ee55de4b1038c4002e0adecdf1839>@@$$QEAV<lambda_dc504788e8f1664fe9b84e20bfb512f2>@@@Z@4HA 000000018004816b f   libucrt:per_thread_data.obj
 0001:0004716b       ?fin$0@?0???$?RV<lambda_2d41944a1d46af3157314b8a01080d33>@@AEAV<lambda_8f455de75cd7d7f24b4096f044d8b9e6>@@V<lambda_aa500f224e6afead328df44964fe2772>@@@?$__crt_seh_guarded_call@X@@QEAAX$$QEAV<lambda_2d41944a1d46af3157314b8a01080d33>@@AEAV<lambda_8f455de75cd7d7f24b4096f044d8b9e6>@@$$QEAV<lambda_aa500f224e6afead328df44964fe2772>@@@Z@4HA 000000018004816b f   libucrt:per_thread_data.obj
 0001:0004716b       ?fin$0@?0???$?RV<lambda_aa87e3671a710a21b5dc78c0bdf72e11>@@AEAV<lambda_92619d2358a28f41a33ba319515a20b9>@@V<lambda_6992ecaafeb10aed2b74cb1fae11a551>@@@?$__crt_seh_guarded_call@X@@QEAAX$$QEAV<lambda_aa87e3671a710a21b5dc78c0bdf72e11>@@AEAV<lambda_92619d2358a28f41a33ba319515a20b9>@@$$QEAV<lambda_6992ecaafeb10aed2b74cb1fae11a551>@@@Z@4HA 000000018004816b f   libucrt:per_thread_data.obj
 0001:0004716b       ?fin$0@?0???$?RV<lambda_f2e299630e499de9f9a165e60fcd3db5>@@AEAV<lambda_2ae9d31cdba2644fcbeaf08da7c24588>@@V<lambda_40d01ff24d0e7b3814fdbdcee8eab3c7>@@@?$__crt_seh_guarded_call@X@@QEAAX$$QEAV<lambda_f2e299630e499de9f9a165e60fcd3db5>@@AEAV<lambda_2ae9d31cdba2644fcbeaf08da7c24588>@@$$QEAV<lambda_40d01ff24d0e7b3814fdbdcee8eab3c7>@@@Z@4HA 000000018004816b f   libucrt:per_thread_data.obj
 0001:0004716b       ?fin$0@?0???$?RV<lambda_450d765d439847d4c735a33c368b5fc0>@@AEAV<lambda_44731a7d0e6d81c3e6aa82d741081786>@@V<lambda_601a2a7da3b7a96e9554ac7215c4b07c>@@@?$__crt_seh_guarded_call@P6AXH@Z@@QEAAP6AXH@Z$$QEAV<lambda_450d765d439847d4c735a33c368b5fc0>@@AEAV<lambda_44731a7d0e6d81c3e6aa82d741081786>@@$$QEAV<lambda_601a2a7da3b7a96e9554ac7215c4b07c>@@@Z@4HA 000000018004816b f   libucrt:signal.obj
 0001:0004716b       ?fin$0@?0???$?RV<lambda_d80eeec6fff315bfe5c115232f3240e3>@@AEAV<lambda_6e4b09c48022b2350581041d5f6b0c4c>@@V<lambda_2358e3775559c9db80273638284d5e45>@@@?$__crt_seh_guarded_call@X@@QEAAX$$QEAV<lambda_d80eeec6fff315bfe5c115232f3240e3>@@AEAV<lambda_6e4b09c48022b2350581041d5f6b0c4c>@@$$QEAV<lambda_2358e3775559c9db80273638284d5e45>@@@Z@4HA 000000018004816b f   libucrt:exit.obj
 0001:0004716b       ?fin$0@?0???$?RV<lambda_7777bce6b2f8c936911f934f8298dc43>@@AEAV<lambda_f03950bc5685219e0bcd2087efbe011e>@@V<lambda_3883c3dff614d5e0c5f61bb1ac94921c>@@@?$__crt_seh_guarded_call@H@@QEAAH$$QEAV<lambda_7777bce6b2f8c936911f934f8298dc43>@@AEAV<lambda_f03950bc5685219e0bcd2087efbe011e>@@$$QEAV<lambda_3883c3dff614d5e0c5f61bb1ac94921c>@@@Z@4HA 000000018004816b f   libucrt:onexit.obj
 0001:00047185       ?filt$0@?0???R<lambda_6e4b09c48022b2350581041d5f6b0c4c>@@QEBA@XZ@4HA 0000000180048185 f   libucrt:exit.obj
 0001:000471b2       _ctrlfp$filt$0             00000001800481b2 f   libucrt:fpctrl.obj
 0001:000471b2       common_control87$filt$0    00000001800481b2 f   libucrt:ieee.obj
 0001:000471de       ?fin$0@?0???$?RV<lambda_efdfa57d1f175319df784efa44bb7b81>@@AEAV<lambda_5f0a4c1567f8adc6734073e5d1e1b35c>@@V<lambda_2e8a7d3640ea6ccb4c2413664c2db6fd>@@@?$__crt_seh_guarded_call@X@@QEAAX$$QEAV<lambda_efdfa57d1f175319df784efa44bb7b81>@@AEAV<lambda_5f0a4c1567f8adc6734073e5d1e1b35c>@@$$QEAV<lambda_2e8a7d3640ea6ccb4c2413664c2db6fd>@@@Z@4HA 00000001800481de f   libucrt:mbctype.obj
 0001:000471f8       ?fin$0@?0??update_thread_multibyte_data_internal@@YAPEAU__crt_multibyte_data@@QEAU__acrt_ptd@@QEAPEAU1@@Z@4HA 00000001800481f8 f   libucrt:mbctype.obj
 0001:00047211       __acrt_initialize_lowio$fin$0 0000000180048211 f   libucrt:ioinit.obj
 0001:00047211       __acrt_lowio_ensure_fh_exists$fin$0 0000000180048211 f   libucrt:osfinfo.obj
 0001:0004722a       _query_new_handler$fin$0   000000018004822a f   libucrt:new_handler.obj
 0001:00047240       raise$fin$0                0000000180048240 f   libucrt:signal.obj
 0001:00047261       ?fin$0@?0???$?RV<lambda_842d9ff0dc9ef11c61343bbaebe7f885>@@AEAV<lambda_c5860995281e5c4ce005b3de8f5874ee>@@V<lambda_d90129c13df834fdcbf8d2b88dafcf2d>@@@?$__crt_seh_guarded_call@X@@QEAAX$$QEAV<lambda_842d9ff0dc9ef11c61343bbaebe7f885>@@AEAV<lambda_c5860995281e5c4ce005b3de8f5874ee>@@$$QEAV<lambda_d90129c13df834fdcbf8d2b88dafcf2d>@@@Z@4HA 0000000180048261 f   libucrt:fflush.obj
 0001:0004727c       ?fin$0@?0???$?RV<lambda_886d6c58226a84441f68b9f2b8217b83>@@AEAV<lambda_ab61a845afdef5b7c387490eaf3616ee>@@V<lambda_f7f22ab5edc0698d5f6905b0d3f44752>@@@?$__crt_seh_guarded_call@X@@QEAAX$$QEAV<lambda_886d6c58226a84441f68b9f2b8217b83>@@AEAV<lambda_ab61a845afdef5b7c387490eaf3616ee>@@$$QEAV<lambda_f7f22ab5edc0698d5f6905b0d3f44752>@@@Z@4HA 000000018004827c f   libucrt:fflush.obj
 0001:00047299       ?fin$0@?0???$?RV<lambda_410d79af7f07d98d83a3f525b3859a53>@@AEAV<lambda_3e16ef9562a7dcce91392c22ab16ea36>@@V<lambda_38119f0e861e05405d8a144b9b982f0a>@@@?$__crt_seh_guarded_call@X@@QEAAX$$QEAV<lambda_410d79af7f07d98d83a3f525b3859a53>@@AEAV<lambda_3e16ef9562a7dcce91392c22ab16ea36>@@$$QEAV<lambda_38119f0e861e05405d8a144b9b982f0a>@@@Z@4HA 0000000180048299 f   libucrt:wsetlocale.obj
 0001:000472b3       __acrt_update_thread_locale_data$fin$0 00000001800482b3 f   libucrt:locale_refcounting.obj
 0001:000472cc       ?fin$0@?0???$?RV<lambda_ad8af0d99a0adf03d037d7dffe354bb5>@@AEAV<lambda_c9ba49e555ba839a7b07aa3fbecb7617>@@V<lambda_2f1ebd5d68526518146ae959c9e734c8>@@@?$__crt_seh_guarded_call@H@@QEAAH$$QEAV<lambda_ad8af0d99a0adf03d037d7dffe354bb5>@@AEAV<lambda_c9ba49e555ba839a7b07aa3fbecb7617>@@$$QEAV<lambda_2f1ebd5d68526518146ae959c9e734c8>@@@Z@4HA 00000001800482cc f   libucrt:close.obj
 0001:000472cc       ?fin$0@?0???$?RV<lambda_a37b2b86f63e897a80ea819b0eb08c01>@@AEAV<lambda_38ce7e780aa69e748d6df282ebc68efe>@@V<lambda_99fb1378e971ab6e7edea83e3a7a83a2>@@@?$__crt_seh_guarded_call@H@@QEAAH$$QEAV<lambda_a37b2b86f63e897a80ea819b0eb08c01>@@AEAV<lambda_38ce7e780aa69e748d6df282ebc68efe>@@$$QEAV<lambda_99fb1378e971ab6e7edea83e3a7a83a2>@@@Z@4HA 00000001800482cc f   libucrt:commit.obj
 0001:000472e6       _write_internal$fin$0      00000001800482e6 f   libucrt:write.obj
 0001:000472fd       _fcloseall$fin$0           00000001800482fd f   libucrt:closeall.obj
 0001:00047316       ?fin$0@?0??_fclose_internal@@YAHQEAU_iobuf@@AEAV__crt_cached_ptd_host@@@Z@4HA 0000000180048316 f   libucrt:fclose.obj
 0001:00047330       _IsNonwritableInCurrentImage$filt$0 0000000180048330 f   LIBCMT:pesect.obj
 0002:000002a8       ?minFError$initializer$@_VecMathTests@aos@shdfnd@physx@@3P6AXXZEA 00000001800492a8     Cooking.obj
 0002:000002b0       ?maxFError$initializer$@_VecMathTests@aos@shdfnd@physx@@3P6AXXZEA 00000001800492b0     Cooking.obj
 0002:000002b8       ?minV3Error$initializer$@_VecMathTests@aos@shdfnd@physx@@3P6AXXZEA 00000001800492b8     Cooking.obj
 0002:000002c0       ?maxV3Error$initializer$@_VecMathTests@aos@shdfnd@physx@@3P6AXXZEA 00000001800492c0     Cooking.obj
 0002:000002c8       ?minV4Error$initializer$@_VecMathTests@aos@shdfnd@physx@@3P6AXXZEA 00000001800492c8     Cooking.obj
 0002:000002d0       ?maxV4Error$initializer$@_VecMathTests@aos@shdfnd@physx@@3P6AXXZEA 00000001800492d0     Cooking.obj
 0002:000002d8       ?minFError$initializer$@_VecMathTests@aos@shdfnd@physx@@3P6AXXZEA 00000001800492d8     BVHStructureBuilder.obj
 0002:000002e0       ?maxFError$initializer$@_VecMathTests@aos@shdfnd@physx@@3P6AXXZEA 00000001800492e0     BVHStructureBuilder.obj
 0002:000002e8       ?minV3Error$initializer$@_VecMathTests@aos@shdfnd@physx@@3P6AXXZEA 00000001800492e8     BVHStructureBuilder.obj
 0002:000002f0       ?maxV3Error$initializer$@_VecMathTests@aos@shdfnd@physx@@3P6AXXZEA 00000001800492f0     BVHStructureBuilder.obj
 0002:000002f8       ?minV4Error$initializer$@_VecMathTests@aos@shdfnd@physx@@3P6AXXZEA 00000001800492f8     BVHStructureBuilder.obj
 0002:00000300       ?maxV4Error$initializer$@_VecMathTests@aos@shdfnd@physx@@3P6AXXZEA 0000000180049300     BVHStructureBuilder.obj
 0002:00000308       ?minFError$initializer$@_VecMathTests@aos@shdfnd@physx@@3P6AXXZEA 0000000180049308     RTreeCooking.obj
 0002:00000310       ?maxFError$initializer$@_VecMathTests@aos@shdfnd@physx@@3P6AXXZEA 0000000180049310     RTreeCooking.obj
 0002:00000318       ?minV3Error$initializer$@_VecMathTests@aos@shdfnd@physx@@3P6AXXZEA 0000000180049318     RTreeCooking.obj
 0002:00000320       ?maxV3Error$initializer$@_VecMathTests@aos@shdfnd@physx@@3P6AXXZEA 0000000180049320     RTreeCooking.obj
 0002:00000328       ?minV4Error$initializer$@_VecMathTests@aos@shdfnd@physx@@3P6AXXZEA 0000000180049328     RTreeCooking.obj
 0002:00000330       ?maxV4Error$initializer$@_VecMathTests@aos@shdfnd@physx@@3P6AXXZEA 0000000180049330     RTreeCooking.obj
 0002:00000338       ?minFError$initializer$@_VecMathTests@aos@shdfnd@physx@@3P6AXXZEA 0000000180049338     MeshBuilder.obj
 0002:00000340       ?maxFError$initializer$@_VecMathTests@aos@shdfnd@physx@@3P6AXXZEA 0000000180049340     MeshBuilder.obj
 0002:00000348       ?minV3Error$initializer$@_VecMathTests@aos@shdfnd@physx@@3P6AXXZEA 0000000180049348     MeshBuilder.obj
 0002:00000350       ?maxV3Error$initializer$@_VecMathTests@aos@shdfnd@physx@@3P6AXXZEA 0000000180049350     MeshBuilder.obj
 0002:00000358       ?minV4Error$initializer$@_VecMathTests@aos@shdfnd@physx@@3P6AXXZEA 0000000180049358     MeshBuilder.obj
 0002:00000360       ?maxV4Error$initializer$@_VecMathTests@aos@shdfnd@physx@@3P6AXXZEA 0000000180049360     MeshBuilder.obj
 0002:00000368       ?minFError$initializer$@_VecMathTests@aos@shdfnd@physx@@3P6AXXZEA 0000000180049368     TriangleMeshBuilder.obj
 0002:00000370       ?maxFError$initializer$@_VecMathTests@aos@shdfnd@physx@@3P6AXXZEA 0000000180049370     TriangleMeshBuilder.obj
 0002:00000378       ?minV3Error$initializer$@_VecMathTests@aos@shdfnd@physx@@3P6AXXZEA 0000000180049378     TriangleMeshBuilder.obj
 0002:00000380       ?maxV3Error$initializer$@_VecMathTests@aos@shdfnd@physx@@3P6AXXZEA 0000000180049380     TriangleMeshBuilder.obj
 0002:00000388       ?minV4Error$initializer$@_VecMathTests@aos@shdfnd@physx@@3P6AXXZEA 0000000180049388     TriangleMeshBuilder.obj
 0002:00000390       ?maxV4Error$initializer$@_VecMathTests@aos@shdfnd@physx@@3P6AXXZEA 0000000180049390     TriangleMeshBuilder.obj
 0002:00000398       ?minFError$initializer$@_VecMathTests@aos@shdfnd@physx@@3P6AXXZEA 0000000180049398     BigConvexDataBuilder.obj
 0002:000003a0       ?maxFError$initializer$@_VecMathTests@aos@shdfnd@physx@@3P6AXXZEA 00000001800493a0     BigConvexDataBuilder.obj
 0002:000003a8       ?minV3Error$initializer$@_VecMathTests@aos@shdfnd@physx@@3P6AXXZEA 00000001800493a8     BigConvexDataBuilder.obj
 0002:000003b0       ?maxV3Error$initializer$@_VecMathTests@aos@shdfnd@physx@@3P6AXXZEA 00000001800493b0     BigConvexDataBuilder.obj
 0002:000003b8       ?minV4Error$initializer$@_VecMathTests@aos@shdfnd@physx@@3P6AXXZEA 00000001800493b8     BigConvexDataBuilder.obj
 0002:000003c0       ?maxV4Error$initializer$@_VecMathTests@aos@shdfnd@physx@@3P6AXXZEA 00000001800493c0     BigConvexDataBuilder.obj
 0002:000003c8       ?minFError$initializer$@_VecMathTests@aos@shdfnd@physx@@3P6AXXZEA 00000001800493c8     ConvexHullBuilder.obj
 0002:000003d0       ?maxFError$initializer$@_VecMathTests@aos@shdfnd@physx@@3P6AXXZEA 00000001800493d0     ConvexHullBuilder.obj
 0002:000003d8       ?minV3Error$initializer$@_VecMathTests@aos@shdfnd@physx@@3P6AXXZEA 00000001800493d8     ConvexHullBuilder.obj
 0002:000003e0       ?maxV3Error$initializer$@_VecMathTests@aos@shdfnd@physx@@3P6AXXZEA 00000001800493e0     ConvexHullBuilder.obj
 0002:000003e8       ?minV4Error$initializer$@_VecMathTests@aos@shdfnd@physx@@3P6AXXZEA 00000001800493e8     ConvexHullBuilder.obj
 0002:000003f0       ?maxV4Error$initializer$@_VecMathTests@aos@shdfnd@physx@@3P6AXXZEA 00000001800493f0     ConvexHullBuilder.obj
 0002:000003f8       ?minFError$initializer$@_VecMathTests@aos@shdfnd@physx@@3P6AXXZEA 00000001800493f8     ConvexHullUtils.obj
 0002:00000400       ?maxFError$initializer$@_VecMathTests@aos@shdfnd@physx@@3P6AXXZEA 0000000180049400     ConvexHullUtils.obj
 0002:00000408       ?minV3Error$initializer$@_VecMathTests@aos@shdfnd@physx@@3P6AXXZEA 0000000180049408     ConvexHullUtils.obj
 0002:00000410       ?maxV3Error$initializer$@_VecMathTests@aos@shdfnd@physx@@3P6AXXZEA 0000000180049410     ConvexHullUtils.obj
 0002:00000418       ?minV4Error$initializer$@_VecMathTests@aos@shdfnd@physx@@3P6AXXZEA 0000000180049418     ConvexHullUtils.obj
 0002:00000420       ?maxV4Error$initializer$@_VecMathTests@aos@shdfnd@physx@@3P6AXXZEA 0000000180049420     ConvexHullUtils.obj
 0002:00000428       ?minFError$initializer$@_VecMathTests@aos@shdfnd@physx@@3P6AXXZEA 0000000180049428     ConvexMeshBuilder.obj
 0002:00000430       ?maxFError$initializer$@_VecMathTests@aos@shdfnd@physx@@3P6AXXZEA 0000000180049430     ConvexMeshBuilder.obj
 0002:00000438       ?minV3Error$initializer$@_VecMathTests@aos@shdfnd@physx@@3P6AXXZEA 0000000180049438     ConvexMeshBuilder.obj
 0002:00000440       ?maxV3Error$initializer$@_VecMathTests@aos@shdfnd@physx@@3P6AXXZEA 0000000180049440     ConvexMeshBuilder.obj
 0002:00000448       ?minV4Error$initializer$@_VecMathTests@aos@shdfnd@physx@@3P6AXXZEA 0000000180049448     ConvexMeshBuilder.obj
 0002:00000450       ?maxV4Error$initializer$@_VecMathTests@aos@shdfnd@physx@@3P6AXXZEA 0000000180049450     ConvexMeshBuilder.obj
 0002:00000458       ?minFError$initializer$@_VecMathTests@aos@shdfnd@physx@@3P6AXXZEA 0000000180049458     VolumeIntegration.obj
 0002:00000460       ?maxFError$initializer$@_VecMathTests@aos@shdfnd@physx@@3P6AXXZEA 0000000180049460     VolumeIntegration.obj
 0002:00000468       ?minV3Error$initializer$@_VecMathTests@aos@shdfnd@physx@@3P6AXXZEA 0000000180049468     VolumeIntegration.obj
 0002:00000470       ?maxV3Error$initializer$@_VecMathTests@aos@shdfnd@physx@@3P6AXXZEA 0000000180049470     VolumeIntegration.obj
 0002:00000478       ?minV4Error$initializer$@_VecMathTests@aos@shdfnd@physx@@3P6AXXZEA 0000000180049478     VolumeIntegration.obj
 0002:00000480       ?maxV4Error$initializer$@_VecMathTests@aos@shdfnd@physx@@3P6AXXZEA 0000000180049480     VolumeIntegration.obj
 0002:00000640       ?minus1w@?A0xbd0637e0@aos@shdfnd@physx@@3QBMB 0000000180049640     Cooking.obj
 0002:00000650       ?gMaskXYZ@internalWindowsSimd@aos@shdfnd@physx@@3QBIB 0000000180049650     Cooking.obj
 0002:00000ea0       ?minus1w@?A0xcd0b2f6a@aos@shdfnd@physx@@3QBMB 0000000180049ea0     BVHStructureBuilder.obj
 0002:00000eb0       ?gMaskXYZ@internalWindowsSimd@aos@shdfnd@physx@@3QBIB 0000000180049eb0     BVHStructureBuilder.obj
 0002:00000f50       ?minus1w@?A0x4b6278d5@aos@shdfnd@physx@@3QBMB 0000000180049f50     RTreeCooking.obj
 0002:00000f60       ?gMaskXYZ@internalWindowsSimd@aos@shdfnd@physx@@3QBIB 0000000180049f60     RTreeCooking.obj
 0002:00000fa8       ?stopAtTrisPerPage@physx@@3QBIB 0000000180049fa8     RTreeCooking.obj
 0002:00000fe8       ?stopAtTrisPerLeaf@physx@@3QBIB 0000000180049fe8     RTreeCooking.obj
 0002:000011f0       ?minus1w@?A0x37ffc95e@aos@shdfnd@physx@@3QBMB 000000018004a1f0     MeshBuilder.obj
 0002:00001200       ?gMaskXYZ@internalWindowsSimd@aos@shdfnd@physx@@3QBIB 000000018004a200     MeshBuilder.obj
 0002:00001220       ?minus1w@?A0x314f2635@aos@shdfnd@physx@@3QBMB 000000018004a220     TriangleMeshBuilder.obj
 0002:00001230       ?gMaskXYZ@internalWindowsSimd@aos@shdfnd@physx@@3QBIB 000000018004a230     TriangleMeshBuilder.obj
 0002:00001660       ?minus1w@?A0x1f6dc5e5@aos@shdfnd@physx@@3QBMB 000000018004a660     BigConvexDataBuilder.obj
 0002:00001670       ?gMaskXYZ@internalWindowsSimd@aos@shdfnd@physx@@3QBIB 000000018004a670     BigConvexDataBuilder.obj
 0002:00001710       ?minus1w@?A0xd5b8a8e9@aos@shdfnd@physx@@3QBMB 000000018004a710     ConvexHullBuilder.obj
 0002:00001720       ?gMaskXYZ@internalWindowsSimd@aos@shdfnd@physx@@3QBIB 000000018004a720     ConvexHullBuilder.obj
 0002:00001be0       ?minus1w@?A0xb8b22e9f@aos@shdfnd@physx@@3QBMB 000000018004abe0     ConvexHullUtils.obj
 0002:00001bf0       ?gMaskXYZ@internalWindowsSimd@aos@shdfnd@physx@@3QBIB 000000018004abf0     ConvexHullUtils.obj
 0002:00001cc0       ?minus1w@?A0x1b1c08bc@aos@shdfnd@physx@@3QBMB 000000018004acc0     ConvexMeshBuilder.obj
 0002:00001cd0       ?gMaskXYZ@internalWindowsSimd@aos@shdfnd@physx@@3QBIB 000000018004acd0     ConvexMeshBuilder.obj
 0002:000022b0       ?minus1w@?A0x5456bbcd@aos@shdfnd@physx@@3QBMB 000000018004b2b0     VolumeIntegration.obj
 0002:000022c0       ?gMaskXYZ@internalWindowsSimd@aos@shdfnd@physx@@3QBIB 000000018004b2c0     VolumeIntegration.obj
 0002:00002440       L_abs_mask                 000000018004b440     LIBCMT:svml_ssinf4_dispatch.obj
 0002:00002450       L_real_one                 000000018004b450     LIBCMT:svml_ssinf4_dispatch.obj
 0002:00002460       L_one_half                 000000018004b460     LIBCMT:svml_ssinf4_dispatch.obj
 0002:00002470       L_two_to_neg_13            000000018004b470     LIBCMT:svml_ssinf4_dispatch.obj
 0002:00002480       L_pi_over_two              000000018004b480     LIBCMT:svml_ssinf4_dispatch.obj
 0002:00002490       L_pi_over_two2             000000018004b490     LIBCMT:svml_ssinf4_dispatch.obj
 0002:00002610       ?tokenTable@@3QBUStringLiteral@@B 000000018004b610     libvcruntime:undname.obj
 0002:00002710       ?nameTable@@3QBUStringLiteral@@B 000000018004b710     libvcruntime:undname.obj
 0002:00002c40       ?rttiTable@@3QBUStringLiteral@@B 000000018004bc40     libvcruntime:undname.obj
 0002:00002c90       ?IndirectionName@@3QBUStringLiteral@@B 000000018004bc90     libvcruntime:undname.obj
 0002:00002cf0       ?PrefixName@@3QBUStringLiteral@@B 000000018004bcf0     libvcruntime:undname.obj
 0002:00003930       ?result@?1??IsValidIdentChar@@YA_ND@Z@4U<unnamed-type-result>@?1??InitValidIdentChar@@YA@XZ@B 000000018004c930     libvcruntime:undname.obj
 0002:00003aa0       ?ExceptionTemplate@?1??UnwindNestedFrames@__FrameHandler4@@SAXPEA_KPEAUEHExceptionRecord@@PEAU_CONTEXT@@0PEAXPEAUFuncInfo4@FH4@@HHPEAUHandlerType4@6@PEAU_xDISPATCHER_CONTEXT@@E@Z@4U_EXCEPTION_RECORD@@B 000000018004caa0     libvcruntime:risctrnsctrl.obj
 0002:00003b40       ?ExceptionTemplate@?1??UnwindNestedFrames@__FrameHandler3@@SAXPEA_KPEAUEHExceptionRecord@@PEAU_CONTEXT@@0PEAXPEBU_s_FuncInfo@@HHPEBU_s_HandlerType@@PEAU_xDISPATCHER_CONTEXT@@E@Z@4U_EXCEPTION_RECORD@@B 000000018004cb40     libvcruntime:risctrnsctrl.obj
 0002:00003bd8       ?module_names@?A0xf6f43728@@3QBQEB_WB 000000018004cbd8     libvcruntime:winapi_downlevel.obj
 0002:00003c98       ?candidate_modules@?1??try_get_FlsAlloc@@YAP6AKP6AXPEAX@Z@ZXZ@4QBW4module_id@?A0xf6f43728@@B 000000018004cc98     libvcruntime:winapi_downlevel.obj
 0002:00003cb0       ?candidate_modules@?1??try_get_FlsFree@@YAP6AHK@ZXZ@4QBW4module_id@?A0xf6f43728@@B 000000018004ccb0     libvcruntime:winapi_downlevel.obj
 0002:00003cc0       ?candidate_modules@?1??try_get_FlsGetValue@@YAP6APEAXK@ZXZ@4QBW4module_id@?A0xf6f43728@@B 000000018004ccc0     libvcruntime:winapi_downlevel.obj
 0002:00003cd8       ?candidate_modules@?1??try_get_FlsSetValue@@YAP6AHKPEAX@ZXZ@4QBW4module_id@?A0xf6f43728@@B 000000018004ccd8     libvcruntime:winapi_downlevel.obj
 0002:00003cf0       ?candidate_modules@?1??try_get_InitializeCriticalSectionEx@@YAP6AHPEAU_RTL_CRITICAL_SECTION@@KK@ZXZ@4QBW4module_id@?A0xf6f43728@@B 000000018004ccf0     libvcruntime:winapi_downlevel.obj
 0002:00003d70       ?atan_jby256@?1??atan2f@@9@9 000000018004cd70     libucrt:atan2f.obj
 0002:00004570       L_real_one                 000000018004d570     libucrt:cosf.obj
 0002:00004580       L_one_half                 000000018004d580     libucrt:cosf.obj
 0002:00004590       L_2bypi                    000000018004d590     libucrt:cosf.obj
 0002:000045a0       L_one_sixth                000000018004d5a0     libucrt:cosf.obj
 0002:000045b0       L_piby2                    000000018004d5b0     libucrt:cosf.obj
 0002:000045c0       L_piby2_1                  000000018004d5c0     libucrt:cosf.obj
 0002:000045d0       L_piby2_1tail              000000018004d5d0     libucrt:cosf.obj
 0002:000045e0       L_piby2_2                  000000018004d5e0     libucrt:cosf.obj
 0002:000045f0       L_piby2_2tail              000000018004d5f0     libucrt:cosf.obj
 0002:00004600       L_large_x_sse2             000000018004d600     libucrt:cosf.obj
 0002:00004610       L_large_x_fma3             000000018004d610     libucrt:cosf.obj
 0002:00004620       L_sign_mask                000000018004d620     libucrt:cosf.obj
 0002:00004630       L__int_three               000000018004d630     libucrt:cosf.obj
 0002:00004640       L__min_norm_double         000000018004d640     libucrt:cosf.obj
 0002:00004650       L_two_to_neg_7             000000018004d650     libucrt:cosf.obj
 0002:00004660       L_two_to_neg_13            000000018004d660     libucrt:cosf.obj
 0002:00004670       L_two_to_32_float          000000018004d670     libucrt:cosf.obj
 0002:00004678       L_one_float                000000018004d678     libucrt:cosf.obj
 0002:00004680       L_inf_mask_32              000000018004d680     libucrt:cosf.obj
 0002:00004690       L_signbit                  000000018004d690     libucrt:sinf.obj
 0002:000046a0       L_sign_mask                000000018004d6a0     libucrt:sinf.obj
 0002:000046b0       L_one                      000000018004d6b0     libucrt:sinf.obj
 0002:000046c0       L_int_three                000000018004d6c0     libucrt:sinf.obj
 0002:000046d0       L_one_half                 000000018004d6d0     libucrt:sinf.obj
 0002:000046e0       L_twobypi                  000000018004d6e0     libucrt:sinf.obj
 0002:000046f0       L_piby2_1                  000000018004d6f0     libucrt:sinf.obj
 0002:00004700       L_one_sixth                000000018004d700     libucrt:sinf.obj
 0002:00004710       L_piby2_1tail              000000018004d710     libucrt:sinf.obj
 0002:00004720       L_piby2_2                  000000018004d720     libucrt:sinf.obj
 0002:00004730       L_piby2_2tail              000000018004d730     libucrt:sinf.obj
 0002:00004740       L_inf_mask_32              000000018004d740     libucrt:sinf.obj
 0002:00004750       L_int_two                  000000018004d750     libucrt:sinf.obj
 0002:00004760       L_piby2_lead               000000018004d760     libucrt:sinf.obj
 0002:00004770       L_piby4                    000000018004d770     libucrt:sinf.obj
 0002:00004780       L_mask_3f2                 000000018004d780     libucrt:sinf.obj
 0002:00004790       L_mask_3f8                 000000018004d790     libucrt:sinf.obj
 0002:000047a0       L_large_x_fma3             000000018004d7a0     libucrt:sinf.obj
 0002:000047a8       L_large_x_sse2             000000018004d7a8     libucrt:sinf.obj
 0002:000047b0       L_near_one                 000000018004d7b0     libucrt:sinf.obj
 0002:000047b8       L_two_to_32                000000018004d7b8     libucrt:sinf.obj
 0002:00004898       $cppxdata$?try_cor_exit_process@@YAXI@Z 000000018004d898     libucrt:exit.obj
 0002:000048c0       $cppxdata$?common_exit@@YAXHW4_crt_exit_cleanup_mode@@W4_crt_exit_return_mode@@@Z 000000018004d8c0     libucrt:exit.obj
 0002:00004910       $cppxdata$__dcrt_uninitialize_environments_nolock 000000018004d910     libucrt:environment_initialization.obj
 0002:00004938       $cppxdata$_execute_onexit_table 000000018004d938     libucrt:onexit.obj
 0002:00004960       __acrt_initializers        000000018004d960     libucrt:initialization.obj
 0002:00004b80       L__piby2                   000000018004db80     libucrt:remainder_piby2f_forasm.obj
 0002:00004b90       L_piby2_lead               000000018004db90     libucrt:remainder_piby2_forfma3.obj
 0002:00004ba0       L_fff800                   000000018004dba0     libucrt:remainder_piby2_forfma3.obj
 0002:00004bb0       L_piby2_part1              000000018004dbb0     libucrt:remainder_piby2_forfma3.obj
 0002:00004bc0       L_piby2_part2              000000018004dbc0     libucrt:remainder_piby2_forfma3.obj
 0002:00004bd0       L_piby2_part3              000000018004dbd0     libucrt:remainder_piby2_forfma3.obj
 0002:00004be0       L_piby2_1                  000000018004dbe0     libucrt:remainder_piby2_forfma3.obj
 0002:00004bf0       L_piby2_2                  000000018004dbf0     libucrt:remainder_piby2_forfma3.obj
 0002:00004c00       L_piby2_3                  000000018004dc00     libucrt:remainder_piby2_forfma3.obj
 0002:00004c10       L_piby2_1tail              000000018004dc10     libucrt:remainder_piby2_forfma3.obj
 0002:00004c20       L_piby2_2tail              000000018004dc20     libucrt:remainder_piby2_forfma3.obj
 0002:00004c30       L_piby2_3tail              000000018004dc30     libucrt:remainder_piby2_forfma3.obj
 0002:00004c40       L_sign_mask                000000018004dc40     libucrt:remainder_piby2_forfma3.obj
 0002:00004c50       L_twobypi                  000000018004dc50     libucrt:remainder_piby2_forfma3.obj
 0002:00004c60       L_point_five               000000018004dc60     libucrt:remainder_piby2_forfma3.obj
 0002:00004c70       L_int_three                000000018004dc70     libucrt:remainder_piby2_forfma3.obj
 0002:00004c80       L_inf_mask_64              000000018004dc80     libucrt:remainder_piby2_forfma3.obj
 0002:00004c90       L_signbit                  000000018004dc90     libucrt:remainder_piby2_forfma3.obj
 0002:00004ca0       L_r                        000000018004dca0     libucrt:remainder_piby2_forfma3.obj
 0002:00004cb0       L_xc1                      000000018004dcb0     libucrt:remainder_piby2_forfma3.obj
 0002:00004cc0       L_xc2                      000000018004dcc0     libucrt:remainder_piby2_forfma3.obj
 0002:00004cd0       L_xc3                      000000018004dcd0     libucrt:remainder_piby2_forfma3.obj
 0002:00004ce0       L_sigma                    000000018004dce0     libucrt:remainder_piby2_forfma3.obj
 0002:00004df0       L__piby2                   000000018004ddf0     libucrt:remainder_piby2f_forc.obj
 0002:00004e00       L__2_by_pi_bits            000000018004de00     libucrt:remainder_piby2f_forc.obj
 0002:00004ea0       ?errtable@@3QBUerrentry@?A0x31fdb9ec@@B 000000018004dea0     libucrt:errno.obj
 0002:00005008       ?_mb_locale_names@@3QBQEB_WB 000000018004e008     libucrt:mbctype.obj
 0002:00005070       ?module_names@?A0x391cf84c@@3QBQEB_WB 000000018004e070     libucrt:winapi_thunks.obj
 0002:00005578       ?candidate_modules@?1??try_get_AreFileApisANSI@@YAP6AHXZXZ@4QBW4module_id@?A0x391cf84c@@B 000000018004e578     libucrt:winapi_thunks.obj
 0002:00005590       ?candidate_modules@?1??try_get_InitializeCriticalSectionEx@@YAP6AHPEAU_RTL_CRITICAL_SECTION@@KK@ZXZ@4QBW4module_id@?A0x391cf84c@@B 000000018004e590     libucrt:winapi_thunks.obj
 0002:00005598       ?candidate_modules@?1??try_get_LCMapStringEx@@YAP6AHPEB_WK0HPEA_WHPEAU_nlsversioninfo@@PEAX_J@ZXZ@4QBW4module_id@?A0x391cf84c@@B 000000018004e598     libucrt:winapi_thunks.obj
 0002:000055b0       ?candidate_modules@?1??try_get_LocaleNameToLCID@@YAP6AKPEB_WK@ZXZ@4QBW4module_id@?A0x391cf84c@@B 000000018004e5b0     libucrt:winapi_thunks.obj
 0002:000055cc       ?candidate_modules@?1??try_get_AppPolicyGetProcessTerminationMethod@@YAP6AJPEAXPEAW4AppPolicyProcessTerminationMethod@@@ZXZ@4QBW4module_id@?A0x391cf84c@@B 000000018004e5cc     libucrt:winapi_thunks.obj
 0002:00005c80       ?strings@?1??fp_format_nan_or_infinity@@YAHW4__acrt_fp_class@@_NPEAD_K1@Z@4QAY03QEBDA 000000018004ec80     libucrt:cvt.obj
 0002:00006360       __real@433fffffffffffff    000000018004f360     libucrt:fpsr.obj
 0002:00006368       __real@c33fffffffffffff    000000018004f368     libucrt:fpsr.obj
 0002:00006380       ?LcidToLocaleNameTable@?A0x881e4c05@@3QBULcidToLocaleName@1@B 000000018004f380     libucrt:lcidtoname_downlevel.obj
 0002:00007de0       ?LocaleNameToIndexTable@?A0x881e4c05@@3QBULocaleNameIndex@1@B 0000000180050de0     libucrt:lcidtoname_downlevel.obj
 0002:00009678       $cppxdata$?write_double_translated_ansi_nolock@@YA?AUwrite_result@?A0x17268360@@HQEBDIAEAV__crt_cached_ptd_host@@@Z 0000000180052678     libucrt:write.obj
 0002:0000a090       __real_ninf                0000000180053090     libucrt:log10.obj
 0002:0000a0a0       __real_inf                 00000001800530a0     libucrt:log10.obj
 0002:0000a0b0       __real_neg_qnan            00000001800530b0     libucrt:log10.obj
 0002:0000a0c0       __real_qnanbit             00000001800530c0     libucrt:log10.obj
 0002:0000a0d0       __int_1023                 00000001800530d0     libucrt:log10.obj
 0002:0000a0e0       __mask_001                 00000001800530e0     libucrt:log10.obj
 0002:0000a0f0       __mask_mant                00000001800530f0     libucrt:log10.obj
 0002:0000a100       __mask_mant_top8           0000000180053100     libucrt:log10.obj
 0002:0000a110       __mask_mant9               0000000180053110     libucrt:log10.obj
 0002:0000a120       __real_log10_e             0000000180053120     libucrt:log10.obj
 0002:0000a130       __real_log10_e_lead        0000000180053130     libucrt:log10.obj
 0002:0000a140       __real_log10_e_tail        0000000180053140     libucrt:log10.obj
 0002:0000a150       __real_log10_2_lead        0000000180053150     libucrt:log10.obj
 0002:0000a160       __real_log10_2_tail        0000000180053160     libucrt:log10.obj
 0002:0000a170       __real_two                 0000000180053170     libucrt:log10.obj
 0002:0000a180       __real_one                 0000000180053180     libucrt:log10.obj
 0002:0000a190       __real_half                0000000180053190     libucrt:log10.obj
 0002:0000a1a0       __mask_100                 00000001800531a0     libucrt:log10.obj
 0002:0000a1b0       __real_1_over_512          00000001800531b0     libucrt:log10.obj
 0002:0000a1c0       __real_1_over_2            00000001800531c0     libucrt:log10.obj
 0002:0000a1d0       __real_1_over_3            00000001800531d0     libucrt:log10.obj
 0002:0000a1e0       __real_1_over_4            00000001800531e0     libucrt:log10.obj
 0002:0000a1f0       __real_1_over_5            00000001800531f0     libucrt:log10.obj
 0002:0000a200       __real_1_over_6            0000000180053200     libucrt:log10.obj
 0002:0000a210       __real_neg_1023            0000000180053210     libucrt:log10.obj
 0002:0000a220       __mask_2045                0000000180053220     libucrt:log10.obj
 0002:0000a230       __real_threshold           0000000180053230     libucrt:log10.obj
 0002:0000a240       __real_near_one_lt         0000000180053240     libucrt:log10.obj
 0002:0000a250       __real_near_one_gt         0000000180053250     libucrt:log10.obj
 0002:0000a260       __real_min_norm            0000000180053260     libucrt:log10.obj
 0002:0000a270       __real_notsign             0000000180053270     libucrt:log10.obj
 0002:0000a280       __real_ca1                 0000000180053280     libucrt:log10.obj
 0002:0000a290       __real_ca2                 0000000180053290     libucrt:log10.obj
 0002:0000a2a0       __real_ca3                 00000001800532a0     libucrt:log10.obj
 0002:0000a2b0       __real_ca4                 00000001800532b0     libucrt:log10.obj
 0002:0000a2c0       __mask_lower               00000001800532c0     libucrt:log10.obj
 0002:0000a2d0       __flag_x_zero              00000001800532d0     libucrt:log10.obj
 0002:0000a2d4       __flag_x_neg               00000001800532d4     libucrt:log10.obj
 0002:0000a2d8       __flag_x_nan               00000001800532d8     libucrt:log10.obj
 0002:0000bb20       GS_ExceptionPointers       0000000180054b20     LIBCMT:gs_report.obj
 0002:0000c4c0       $unwind$??1Adjacencies@physx@@QEAA@XZ 00000001800554c0     Adjacencies.obj
 0002:0000c4c0       $unwind$??_EPxFoundation@physx@@MEAAPEAXI@Z 00000001800554c0     Adjacencies.obj
 0002:0000c4c0       $unwind$??0ConvexMeshBuilder@physx@@QEAA@_N@Z 00000001800554c0     ConvexMeshBuilder.obj
 0002:0000c4c0       $unwind$?isFinite@PxVec3@physx@@QEBA_NXZ 00000001800554c0     ConvexMeshBuilder.obj
 0002:0000c4c0       $unwind$??0ConvexPolygonsBuilder@physx@@QEAA@PEAUConvexHullData@Gu@1@_N@Z 00000001800554c0     ConvexPolygonsBuilder.obj
 0002:0000c4c0       $unwind$??_GCooking@physx@@UEAAPEAXI@Z 00000001800554c0     Cooking.obj
 0002:0000c4c0       $unwind$??_GPxBase@physx@@MEAAPEAXI@Z 00000001800554c0     Cooking.obj
 0002:0000c4c0       $unwind$??_GPxCooking@physx@@MEAAPEAXI@Z 00000001800554c0     Cooking.obj
 0002:0000c4c0       $unwind$?isKindOf@PxConvexMesh@physx@@MEBA_NPEBD@Z 00000001800554c0     Cooking.obj
 0002:0000c4c0       $unwind$?isKindOf@PxHeightField@physx@@MEBA_NPEBD@Z 00000001800554c0     Cooking.obj
 0002:0000c4c0       $unwind$??_GQuantizer@physx@@MEAAPEAXI@Z 00000001800554c0     Quantizer.obj
 0002:0000c4c0       $unwind$??1RTreeTriangleData@Gu@physx@@UEAA@XZ 00000001800554c0     TriangleMeshBuilder.obj
 0002:0000c4c0       $unwind$??1RTreeTriangleMeshBuilder@physx@@UEAA@XZ 00000001800554c0     TriangleMeshBuilder.obj
 0002:0000c4c0       $unwind$??_GRTreeCookerRemap@physx@@UEAAPEAXI@Z 00000001800554c0     TriangleMeshBuilder.obj
 0002:0000c4c0       $unwind$??_GRemapCallback@RTreeCooker@physx@@UEAAPEAXI@Z 00000001800554c0     TriangleMeshBuilder.obj
 0002:0000c4c0       $unwind$?DloadAcquireSectionWriteAccess@@YAXXZ 00000001800554c0     Delayimp:delayhlp.obj
 0002:0000c4c0       $unwind$__raise_securityfailure 00000001800554c0     LIBCMT:gs_report.obj
 0002:0000c4c0       $unwind$??_Gtype_info@@UEAAPEAXI@Z 00000001800554c0     LIBCMT:std_type_info_static.obj
 0002:0000c4c0       $unwind$__scrt_initialize_crt 00000001800554c0     LIBCMT:utility.obj
 0002:0000c4c0       $unwind$__scrt_initialize_onexit_tables 00000001800554c0     LIBCMT:utility.obj
 0002:0000c4c0       $unwind$__scrt_release_startup_lock 00000001800554c0     LIBCMT:utility.obj
 0002:0000c4c0       $unwind$__scrt_uninitialize_crt 00000001800554c0     LIBCMT:utility.obj
 0002:0000c4c0       $unwind$_IsExceptionObjectToBeDestroyed 00000001800554c0     libvcruntime:ehhelpers.obj
 0002:0000c4c0       $unwind$?GetUnwindTryBlock@__FrameHandler3@@SAHPEA_KPEAU_xDISPATCHER_CONTEXT@@PEBU_s_FuncInfo@@@Z 00000001800554c0     libvcruntime:ehstate.obj
 0002:0000c4c0       $unwind$?StateFromIp@__FrameHandler3@@SAHPEBU_s_FuncInfo@@PEAU_xDISPATCHER_CONTEXT@@_K@Z 00000001800554c0     libvcruntime:ehstate.obj
 0002:0000c4c0       $unwind$??0HandlerMap4@FH4@@QEAA@PEBUTryBlockMapEntry4@1@_KH@Z 00000001800554c0     libvcruntime:frame.obj
 0002:0000c4c0       $unwind$??0bad_exception@std@@QEAA@AEBV01@@Z 00000001800554c0     libvcruntime:frame.obj
 0002:0000c4c0       $unwind$??0exception@std@@QEAA@AEBV01@@Z 00000001800554c0     libvcruntime:frame.obj
 0002:0000c4c0       $unwind$?ExFilterRethrow@@YAHPEAU_EXCEPTION_POINTERS@@PEAUEHExceptionRecord@@PEAH@Z 00000001800554c0     libvcruntime:frame.obj
 0002:0000c4c0       $unwind$__vcrt_uninitialize_locks 00000001800554c0     libvcruntime:locks.obj
 0002:0000c4c0       $unwind$__vcrt_freeptd     00000001800554c0     libvcruntime:per_thread_data.obj
 0002:0000c4c0       $unwind$?ExecutionInCatch@__FrameHandler3@@SA_NPEAU_xDISPATCHER_CONTEXT@@PEBU_s_FuncInfo@@@Z 00000001800554c0     libvcruntime:risctrnsctrl.obj
 0002:0000c4c0       $unwind$_CreateFrameInfo   00000001800554c0     libvcruntime:risctrnsctrl.obj
 0002:0000c4c0       $unwind$_SetImageBase      00000001800554c0     libvcruntime:risctrnsctrl.obj
 0002:0000c4c0       $unwind$_SetThrowImageBase 00000001800554c0     libvcruntime:risctrnsctrl.obj
 0002:0000c4c0       $unwind$__std_exception_destroy 00000001800554c0     libvcruntime:std_exception.obj
 0002:0000c4c0       $unwind$__std_type_info_destroy_list 00000001800554c0     libvcruntime:std_type_info.obj
 0002:0000c4c0       $unwind$??$?0$00@DName@@QEAA@PEBDU?$StringLifeSelector@$00@@@Z 00000001800554c0     libvcruntime:undname.obj
 0002:0000c4c0       $unwind$??$?0$01@DName@@QEAA@PEBDU?$StringLifeSelector@$01@@@Z 00000001800554c0     libvcruntime:undname.obj
 0002:0000c4c0       $unwind$??$?0$0A@@DName@@QEAA@PEBDU?$StringLifeSelector@$0A@@@@Z 00000001800554c0     libvcruntime:undname.obj
 0002:0000c4c0       $unwind$??0DName@@QEAA@AEBUStringLiteral@@@Z 00000001800554c0     libvcruntime:undname.obj
 0002:0000c4c0       $unwind$??HDName@@QEBA?AV0@AEBUStringLiteral@@@Z 00000001800554c0     libvcruntime:undname.obj
 0002:0000c4c0       $unwind$??HDName@@QEBA?AV0@AEBV0@@Z 00000001800554c0     libvcruntime:undname.obj
 0002:0000c4c0       $unwind$??HDName@@QEBA?AV0@D@Z 00000001800554c0     libvcruntime:undname.obj
 0002:0000c4c0       $unwind$??HDName@@QEBA?AV0@W4DNameStatus@@@Z 00000001800554c0     libvcruntime:undname.obj
 0002:0000c4c0       $unwind$??YDName@@QEAAAEAV0@AEBV0@@Z 00000001800554c0     libvcruntime:undname.obj
 0002:0000c4c0       $unwind$??YDName@@QEAAAEAV0@W4DNameStatus@@@Z 00000001800554c0     libvcruntime:undname.obj
 0002:0000c4c0       $unwind$?getLastChar@pairNode@@UEBADXZ 00000001800554c0     libvcruntime:undname.obj
 0002:0000c4c0       $unwind$?getReturnType@UnDecorator@@CA?AVDName@@PEAV2@@Z 00000001800554c0     libvcruntime:undname.obj
 0002:0000c4c0       $unwind$?getStringObject@UnDecorator@@CA?AVDName@@XZ 00000001800554c0     libvcruntime:undname.obj
 0002:0000c4c0       $unwind$?getSymbolName@UnDecorator@@CA?AVDName@@XZ 00000001800554c0     libvcruntime:undname.obj
 0002:0000c4c0       $unwind$?getValue@UnDecorator@@CA?AV?$optional@_K@std@@XZ 00000001800554c0     libvcruntime:undname.obj
 0002:0000c4c0       $unwind$__vcrt_FlsAlloc    00000001800554c0     libvcruntime:winapi_downlevel.obj
 0002:0000c4c0       $unwind$__vcrt_FlsFree     00000001800554c0     libvcruntime:winapi_downlevel.obj
 0002:0000c4c0       $unwind$__vcrt_FlsGetValue 00000001800554c0     libvcruntime:winapi_downlevel.obj
 0002:0000c4c0       $unwind$_calloc_base       00000001800554c0     libucrt:calloc_base.obj
 0002:0000c4c0       $unwind$_malloc_base       00000001800554c0     libucrt:malloc_base.obj
 0002:0000c4c0       $unwind$_callnewh          00000001800554c0     libucrt:new_handler.obj
 0002:0000c4c0       $unwind$initialize_pointers 00000001800554c0     libucrt:initialization.obj
 0002:0000c4c0       $unwind$uninitialize_allocated_memory 00000001800554c0     libucrt:initialization.obj
 0002:0000c4c0       $unwind$__acrt_initialize_locks 00000001800554c0     libucrt:locks.obj
 0002:0000c4c0       $unwind$__acrt_uninitialize_locks 00000001800554c0     libucrt:locks.obj
 0002:0000c4c0       $unwind$__acrt_freeptd     00000001800554c0     libucrt:per_thread_data.obj
 0002:0000c4c0       $unwind$__acrt_getptd_head 00000001800554c0     libucrt:per_thread_data.obj
 0002:0000c4c0       $unwind$__acrt_get_process_end_policy 00000001800554c0     libucrt:win_policies.obj
 0002:0000c4c0       $unwind$__acrt_AppPolicyGetProcessTerminationMethodInternal 00000001800554c0     libucrt:winapi_thunks.obj
 0002:0000c4c0       $unwind$__acrt_uninitialize_winapi_thunks 00000001800554c0     libucrt:winapi_thunks.obj
 0002:0000c4c0       $unwind$__acrt_update_locale_info 00000001800554c0     libucrt:locale_update.obj
 0002:0000c4c0       $unwind$__acrt_update_locale_info_explicit 00000001800554c0     libucrt:locale_update.obj
 0002:0000c4c0       $unwind$__acrt_update_multibyte_info 00000001800554c0     libucrt:locale_update.obj
 0002:0000c4c0       $unwind$__acrt_update_multibyte_info_explicit 00000001800554c0     libucrt:locale_update.obj
 0002:0000c4c0       $unwind$__acrt_errno_map_os_error 00000001800554c0     libucrt:errno.obj
 0002:0000c4c0       $unwind$__acrt_errno_map_os_error_ptd 00000001800554c0     libucrt:errno.obj
 0002:0000c4c0       $unwind$__acrt_allocate_buffer_for_argv 00000001800554c0     libucrt:argv_parsing.obj
 0002:0000c4c0       $unwind$?exit_or_terminate_process@@YAXI@Z 00000001800554c0     libucrt:exit.obj
 0002:0000c4c0       $unwind$__acrt_uninitialize_stdio 00000001800554c0     libucrt:_file.obj
 0002:0000c4c0       $unwind$__acrt_stdio_free_buffer_nolock 00000001800554c0     libucrt:_freebuf.obj
 0002:0000c4c0       $unwind$?type_case_s@?$output_processor@DV?$string_output_adapter@D@__crt_stdio_output@@V?$format_validation_base@DV?$string_output_adapter@D@__crt_stdio_output@@@2@@__crt_stdio_output@@AEAA_NXZ 00000001800554c0     libucrt:output.obj
 0002:0000c4c0       $unwind$strcpy_s           00000001800554c0     libucrt:strcpy_s.obj
 0002:0000c4c0       $unwind$_clrfp             00000001800554c0     libucrt:fpctrl.obj
 0002:0000c4c0       $unwind$_set_statfp        00000001800554c0     libucrt:fpctrl.obj
 0002:0000c4c0       $unwind$_clearfp           00000001800554c0     libucrt:ieee.obj
 0002:0000c4c0       $unwind$_controlfp_s       00000001800554c0     libucrt:contrlfp.obj
 0002:0000c4c0       $unwind$fegetenv           00000001800554c0     libucrt:fegetenv.obj
 0002:0000c4c0       $unwind$feholdexcept       00000001800554c0     libucrt:feholdexcept.obj
 0002:0000c4c0       $unwind$fesetenv           00000001800554c0     libucrt:fesetenv.obj
 0002:0000c4c8       $chain$0$??_EPxFoundation@physx@@MEAAPEAXI@Z 00000001800554c8     Adjacencies.obj
 0002:0000c4dc       $chain$1$??_EPxFoundation@physx@@MEAAPEAXI@Z 00000001800554dc     Adjacencies.obj
 0002:0000c4ec       $chain$0$??1Adjacencies@physx@@QEAA@XZ 00000001800554ec     Adjacencies.obj
 0002:0000c500       $chain$2$??1Adjacencies@physx@@QEAA@XZ 0000000180055500     Adjacencies.obj
 0002:0000c514       $chain$3$??1Adjacencies@physx@@QEAA@XZ 0000000180055514     Adjacencies.obj
 0002:0000c524       $unwind$?Init@AdjacenciesBuilder@physx@@QEAA_NAEBUADJACENCIESCREATE@2@@Z 0000000180055524     Adjacencies.obj
 0002:0000c538       $chain$2$?Init@AdjacenciesBuilder@physx@@QEAA_NAEBUADJACENCIESCREATE@2@@Z 0000000180055538     Adjacencies.obj
 0002:0000c54c       $chain$3$?Init@AdjacenciesBuilder@physx@@QEAA_NAEBUADJACENCIESCREATE@2@@Z 000000018005554c     Adjacencies.obj
 0002:0000c560       $chain$4$?Init@AdjacenciesBuilder@physx@@QEAA_NAEBUADJACENCIESCREATE@2@@Z 0000000180055560     Adjacencies.obj
 0002:0000c570       $chain$5$?Init@AdjacenciesBuilder@physx@@QEAA_NAEBUADJACENCIESCREATE@2@@Z 0000000180055570     Adjacencies.obj
 0002:0000c580       $unwind$??$?_UV?$ReflectionAllocator@VAdjTriangle@physx@@@shdfnd@physx@@@UserAllocated@shdfnd@physx@@SAPEAX_KV?$ReflectionAllocator@VAdjTriangle@physx@@@12@PEBDH@Z 0000000180055580     Adjacencies.obj
 0002:0000c580       $unwind$??$?_UE@@YAPEAX_KV?$ReflectionAllocator@E@shdfnd@physx@@PEBDH@Z 0000000180055580     ConvexHullBuilder.obj
 0002:0000c580       $unwind$??$?_UI@@YAPEAX_KV?$ReflectionAllocator@I@shdfnd@physx@@PEBDH@Z 0000000180055580     EdgeList.obj
 0002:0000c580       $unwind$?allocate@?$ReflectionAllocator@I@shdfnd@physx@@QEAAPEAX_KPEBDH@Z 0000000180055580     RTreeCooking.obj
 0002:0000c580       $unwind$??$?_UG@@YAPEAX_KV?$ReflectionAllocator@G@shdfnd@physx@@PEBDH@Z 0000000180055580     TriangleMeshBuilder.obj
 0002:0000c590       $chain$0$??$?_UV?$ReflectionAllocator@VAdjTriangle@physx@@@shdfnd@physx@@@UserAllocated@shdfnd@physx@@SAPEAX_KV?$ReflectionAllocator@VAdjTriangle@physx@@@12@PEBDH@Z 0000000180055590     Adjacencies.obj
 0002:0000c5a4       $chain$1$??$?_UV?$ReflectionAllocator@VAdjTriangle@physx@@@shdfnd@physx@@@UserAllocated@shdfnd@physx@@SAPEAX_KV?$ReflectionAllocator@VAdjTriangle@physx@@@12@PEBDH@Z 00000001800555a4     Adjacencies.obj
 0002:0000c5b4       $unwind$?UpdateLink@@YA_NIIIIPEAVAdjTriangle@physx@@AEBUADJACENCIESCREATE@2@@Z 00000001800555b4     Adjacencies.obj
 0002:0000c5c0       $chain$3$?UpdateLink@@YA_NIIIIPEAVAdjTriangle@physx@@AEBUADJACENCIESCREATE@2@@Z 00000001800555c0     Adjacencies.obj
 0002:0000c5e0       $chain$5$?UpdateLink@@YA_NIIIIPEAVAdjTriangle@physx@@AEBUADJACENCIESCREATE@2@@Z 00000001800555e0     Adjacencies.obj
 0002:0000c5f8       $chain$6$?UpdateLink@@YA_NIIIIPEAVAdjTriangle@physx@@AEBUADJACENCIESCREATE@2@@Z 00000001800555f8     Adjacencies.obj
 0002:0000c608       $chain$7$?UpdateLink@@YA_NIIIIPEAVAdjTriangle@physx@@AEBUADJACENCIESCREATE@2@@Z 0000000180055608     Adjacencies.obj
 0002:0000c620       $chain$8$?UpdateLink@@YA_NIIIIPEAVAdjTriangle@physx@@AEBUADJACENCIESCREATE@2@@Z 0000000180055620     Adjacencies.obj
 0002:0000c630       $unwind$?CreateDatabase@@YA_NPEAVAdjTriangle@physx@@IPEBVAdjEdge@@AEBUADJACENCIESCREATE@2@@Z 0000000180055630     Adjacencies.obj
 0002:0000c64c       $unwind$?getTransform@Box@Gu@physx@@QEBA?AVPxTransform@3@XZ 000000018005564c     ConvexHullUtils.obj
 0002:0000c64c       $unwind$PxCreateCooking    000000018005564c     Cooking.obj
 0002:0000c64c       $unwind$?type_case_n@?$output_processor@DV?$string_output_adapter@D@__crt_stdio_output@@V?$format_validation_base@DV?$string_output_adapter@D@__crt_stdio_output@@@2@@__crt_stdio_output@@AEAA_NXZ 000000018005564c     libucrt:output.obj
 0002:0000c658       $unwind$?release@Cooking@physx@@UEAAXXZ 0000000180055658     Cooking.obj
 0002:0000c658       $unwind$?cookingDelayHook@@YAP6A_JXZIPEAUDelayLoadInfo@@@Z 0000000180055658     WindowsCookingDelayLoadHook.obj
 0002:0000c658       $unwind$?DloadReleaseSectionWriteAccess@@YAXXZ 0000000180055658     Delayimp:delayhlp.obj
 0002:0000c658       $unwind$__scrt_initialize_default_local_stdio_options 0000000180055658     LIBCMT:default_local_stdio_options.obj
 0002:0000c658       $unwind$?dllmain_crt_dispatch@@YAHQEAUHINSTANCE__@@KQEAX@Z 0000000180055658     LIBCMT:dll_dllmain.obj
 0002:0000c658       $unwind$__report_rangecheckfailure 0000000180055658     LIBCMT:gs_report.obj
 0002:0000c658       $unwind$__GSHandlerCheck   0000000180055658     LIBCMT:gshandler.obj
 0002:0000c658       $unwind$__scrt_acquire_startup_lock 0000000180055658     LIBCMT:utility.obj
 0002:0000c658       $unwind$__scrt_dllmain_after_initialize_c 0000000180055658     LIBCMT:utility.obj
 0002:0000c658       $unwind$__scrt_dllmain_before_initialize_c 0000000180055658     LIBCMT:utility.obj
 0002:0000c658       $unwind$__scrt_dllmain_crt_thread_attach 0000000180055658     LIBCMT:utility.obj
 0002:0000c658       $unwind$__scrt_dllmain_crt_thread_detach 0000000180055658     LIBCMT:utility.obj
 0002:0000c658       $unwind$__scrt_dllmain_uninitialize_c 0000000180055658     LIBCMT:utility.obj
 0002:0000c658       $unwind$__scrt_dllmain_uninitialize_critical 0000000180055658     LIBCMT:utility.obj
 0002:0000c658       $unwind$__std_terminate    0000000180055658     libvcruntime:ehhelpers.obj
 0002:0000c658       $unwind$?GetCurrentState@__FrameHandler3@@SAHPEA_KPEAU_xDISPATCHER_CONTEXT@@PEBU_s_FuncInfo@@@Z 0000000180055658     libvcruntime:ehstate.obj
 0002:0000c658       $unwind$__vcrt_initialize  0000000180055658     libvcruntime:initialization.obj
 0002:0000c658       $unwind$__vcrt_thread_attach 0000000180055658     libvcruntime:initialization.obj
 0002:0000c658       $unwind$__vcrt_thread_detach 0000000180055658     libvcruntime:initialization.obj
 0002:0000c658       $unwind$__vcrt_uninitialize 0000000180055658     libvcruntime:initialization.obj
 0002:0000c658       $unwind$__vcrt_uninitialize_critical 0000000180055658     libvcruntime:initialization.obj
 0002:0000c658       $unwind$__vcrt_initialize_locks 0000000180055658     libvcruntime:locks.obj
 0002:0000c658       $unwind$__vcrt_freefls     0000000180055658     libvcruntime:per_thread_data.obj
 0002:0000c658       $unwind$__vcrt_getptd      0000000180055658     libvcruntime:per_thread_data.obj
 0002:0000c658       $unwind$__vcrt_initialize_ptd 0000000180055658     libvcruntime:per_thread_data.obj
 0002:0000c658       $unwind$__vcrt_uninitialize_ptd 0000000180055658     libvcruntime:per_thread_data.obj
 0002:0000c658       $unwind$_purecall          0000000180055658     libvcruntime:purevirt.obj
 0002:0000c658       $unwind$?FrameUnwindToEmptyState@__FrameHandler4@@SAXPEA_KPEAU_xDISPATCHER_CONTEXT@@PEAUFuncInfo4@FH4@@@Z 0000000180055658     libvcruntime:risctrnsctrl.obj
 0002:0000c658       $unwind$_GetImageBase      0000000180055658     libvcruntime:risctrnsctrl.obj
 0002:0000c658       $unwind$_GetThrowImageBase 0000000180055658     libvcruntime:risctrnsctrl.obj
 0002:0000c658       $unwind$?getLastChar@pDNameNode@@UEBADXZ 0000000180055658     libvcruntime:undname.obj
 0002:0000c658       $unwind$?getString@pDNameNode@@UEBAPEADPEAD0@Z 0000000180055658     libvcruntime:undname.obj
 0002:0000c658       $unwind$?getTypeEncoding@UnDecorator@@CAHXZ 0000000180055658     libvcruntime:undname.obj
 0002:0000c658       $unwind$?length@pDNameNode@@UEBAHXZ 0000000180055658     libvcruntime:undname.obj
 0002:0000c658       $unwind$__dcrt_terminate_console_output 0000000180055658     libucrt:initcon.obj
 0002:0000c658       $unwind$??$uninitialize_environment_internal@D@@YAXAEAPEAPEAD@Z 0000000180055658     libucrt:environment_initialization.obj
 0002:0000c658       $unwind$??$uninitialize_environment_internal@_W@@YAXAEAPEAPEA_W@Z 0000000180055658     libucrt:environment_initialization.obj
 0002:0000c658       $unwind$__acrt_initialize_heap 0000000180055658     libucrt:heap_handle.obj
 0002:0000c658       $unwind$_msize_base        0000000180055658     libucrt:msize.obj
 0002:0000c658       $unwind$?initialize_multibyte@@YAHXZ 0000000180055658     libucrt:multibyte_initializer.obj
 0002:0000c658       $unwind$__acrt_thread_attach 0000000180055658     libucrt:initialization.obj
 0002:0000c658       $unwind$__acrt_thread_detach 0000000180055658     libucrt:initialization.obj
 0002:0000c658       $unwind$__acrt_uninitialize 0000000180055658     libucrt:initialization.obj
 0002:0000c658       $unwind$__acrt_uninitialize_critical 0000000180055658     libucrt:initialization.obj
 0002:0000c658       $unwind$initialize_c       0000000180055658     libucrt:initialization.obj
 0002:0000c658       $unwind$uninitialize_allocated_io_buffers 0000000180055658     libucrt:initialization.obj
 0002:0000c658       $unwind$uninitialize_environment 0000000180055658     libucrt:initialization.obj
 0002:0000c658       $unwind$__acrt_initialize_ptd 0000000180055658     libucrt:per_thread_data.obj
 0002:0000c658       $unwind$__acrt_uninitialize_ptd 0000000180055658     libucrt:per_thread_data.obj
 0002:0000c658       $unwind$__acrt_AreFileApisANSI 0000000180055658     libucrt:winapi_thunks.obj
 0002:0000c658       $unwind$__pctype_func      0000000180055658     libucrt:ctype.obj
 0002:0000c658       $unwind$__acrt_release_locale_ref 0000000180055658     libucrt:locale_refcounting.obj
 0002:0000c658       $unwind$_isatty            0000000180055658     libucrt:isatty.obj
 0002:0000c658       $unwind$_get_osfhandle     0000000180055658     libucrt:osfinfo.obj
 0002:0000c658       $unwind$__acrt_initialize_multibyte 0000000180055658     libucrt:mbctype.obj
 0002:0000c658       $unwind$__acrt_update_thread_multibyte_data 0000000180055658     libucrt:mbctype.obj
 0002:0000c658       $unwind$__doserrno         0000000180055658     libucrt:errno.obj
 0002:0000c658       $unwind$_errno             0000000180055658     libucrt:errno.obj
 0002:0000c658       $unwind$_invoke_watson     0000000180055658     libucrt:invalid_parameter.obj
 0002:0000c658       $unwind$abort              0000000180055658     libucrt:abort.obj
 0002:0000c658       $unwind$__acrt_initialize_command_line 0000000180055658     libucrt:argv_data.obj
 0002:0000c658       $unwind$?should_call_terminate_process@@YA_NXZ 0000000180055658     libucrt:exit.obj
 0002:0000c658       $unwind$_fileno            0000000180055658     libucrt:fileno.obj
 0002:0000c658       $unwind$_statfp            0000000180055658     libucrt:fpctrl.obj
 0002:0000c658       $unwind$fegetround         0000000180055658     libucrt:fegetround.obj
 0002:0000c658       $unwind$_set_errno_from_matherr 0000000180055658     libucrt:fpexcept.obj
 0002:0000c660       $unwind$?cookConvexMesh@Cooking@physx@@UEBA_NAEBVPxConvexMeshDesc@2@AEAVPxOutputStream@2@PEAW4Enum@PxConvexMeshCookingResult@2@@Z 0000000180055660     Cooking.obj
 0002:0000c660       $unwind$?cookTriangleMesh@Cooking@physx@@UEBA_NAEBVPxTriangleMeshDesc@2@AEAVPxOutputStream@2@PEAW4Enum@PxTriangleMeshCookingResult@2@@Z 0000000180055660     Cooking.obj
 0002:0000c660       $unwind$?createTriangleMesh@Cooking@physx@@UEBAPEAVPxTriangleMesh@2@AEBVPxTriangleMeshDesc@2@AEAVPxPhysicsInsertionCallback@2@PEAW4Enum@PxTriangleMeshCookingResult@2@@Z 0000000180055660     Cooking.obj
 0002:0000c67c       $unwind$?validateTriangleMesh@Cooking@physx@@UEBA_NAEBVPxTriangleMeshDesc@2@@Z 000000018005567c     Cooking.obj
 0002:0000c68c       $unwind$?createConvexMesh@Cooking@physx@@UEBAPEAVPxConvexMesh@2@AEBVPxConvexMeshDesc@2@AEAVPxPhysicsInsertionCallback@2@PEAW4Enum@PxConvexMeshCookingResult@2@@Z 000000018005568c     Cooking.obj
 0002:0000c6a8       $unwind$?validateConvexMesh@Cooking@physx@@UEBA_NAEBVPxConvexMeshDesc@2@@Z 00000001800556a8     Cooking.obj
 0002:0000c6b8       $unwind$?computeHullPolygons@Cooking@physx@@UEBA_NAEBVPxSimpleTriangleMesh@2@AEAVPxAllocatorCallback@2@AEAIAEAPEAVPxVec3@2@2AEAPEAI2AEAPEAUPxHullPolygon@2@@Z 00000001800556b8     Cooking.obj
 0002:0000c6d8       $unwind$?cookHeightField@Cooking@physx@@UEBA_NAEBVPxHeightFieldDesc@2@AEAVPxOutputStream@2@@Z 00000001800556d8     Cooking.obj
 0002:0000c6ec       $unwind$?createHeightField@Cooking@physx@@UEBAPEAVPxHeightField@2@AEBVPxHeightFieldDesc@2@AEAVPxPhysicsInsertionCallback@2@@Z 00000001800556ec     Cooking.obj
 0002:0000c6ec       $unwind$__acrt_fp_format   00000001800556ec     libucrt:cvt.obj
 0002:0000c6fc       $unwind$?cookBVHStructure@Cooking@physx@@UEBA_NAEBVPxBVHStructureDesc@2@AEAVPxOutputStream@2@@Z 00000001800556fc     Cooking.obj
 0002:0000c70c       $unwind$?createBVHStructure@Cooking@physx@@UEBAPEAVPxBVHStructure@2@AEBVPxBVHStructureDesc@2@AEAVPxPhysicsInsertionCallback@2@@Z 000000018005570c     Cooking.obj
 0002:0000c70c       $unwind$?DloadMakePermanentImageCommit@@YAXPEAX_K@Z 000000018005570c     Delayimp:delayhlp.obj
 0002:0000c718       $unwind$?cookConvexMeshInternal@Cooking@physx@@AEBA_NAEBVPxConvexMeshDesc@2@AEAVConvexMeshBuilder@2@PEAVConvexHullLib@2@PEAW4Enum@PxConvexMeshCookingResult@2@@Z 0000000180055718     Cooking.obj
 0002:0000c72c       $chain$1$?cookConvexMeshInternal@Cooking@physx@@AEBA_NAEBVPxConvexMeshDesc@2@AEAVConvexMeshBuilder@2@PEAVConvexHullLib@2@PEAW4Enum@PxConvexMeshCookingResult@2@@Z 000000018005572c     Cooking.obj
 0002:0000c740       $chain$2$?cookConvexMeshInternal@Cooking@physx@@AEBA_NAEBVPxConvexMeshDesc@2@AEAVConvexMeshBuilder@2@PEAVConvexHullLib@2@PEAW4Enum@PxConvexMeshCookingResult@2@@Z 0000000180055740     Cooking.obj
 0002:0000c750       $chain$3$?cookConvexMeshInternal@Cooking@physx@@AEBA_NAEBVPxConvexMeshDesc@2@AEAVConvexMeshBuilder@2@PEAVConvexHullLib@2@PEAW4Enum@PxConvexMeshCookingResult@2@@Z 0000000180055750     Cooking.obj
 0002:0000c764       $unwind$?allocate@?$Array@USlab@NodeAllocator@Gu@physx@@V?$ReflectionAllocator@USlab@NodeAllocator@Gu@physx@@@shdfnd@4@@shdfnd@physx@@IEAAPEAUSlab@NodeAllocator@Gu@3@I@Z 0000000180055764     BVHStructureBuilder.obj
 0002:0000c764       $unwind$?allocate@?$Array@VHalfEdge@ConvexHull@physx@@V?$ReflectionAllocator@VHalfEdge@ConvexHull@physx@@@shdfnd@3@@shdfnd@physx@@IEAAPEAVHalfEdge@ConvexHull@3@I@Z 0000000180055764     ConvexHullUtils.obj
 0002:0000c764       $unwind$?allocate@?$Array@VPxPlane@physx@@V?$ReflectionAllocator@VPxPlane@physx@@@shdfnd@2@@shdfnd@physx@@IEAAPEAVPxPlane@3@I@Z 0000000180055764     ConvexHullUtils.obj
 0002:0000c764       $unwind$?computeBoxPoints@Box@Gu@physx@@QEBAXPEIAVPxVec3@3@@Z 0000000180055764     ConvexHullUtils.obj
 0002:0000c764       $unwind$?allocate@?$Array@VPair@@V?$ReflectionAllocator@VPair@@@shdfnd@physx@@@shdfnd@physx@@IEAAPEAVPair@@I@Z 0000000180055764     ConvexPolygonsBuilder.obj
 0002:0000c764       $unwind$?allocate@?$Array@UPxDebugLine@physx@@V?$ReflectionAllocator@UPxDebugLine@physx@@@shdfnd@2@@shdfnd@physx@@IEAAPEAUPxDebugLine@3@I@Z 0000000180055764     Cooking.obj
 0002:0000c764       $unwind$?allocate@?$Array@PEAUQuickHullFace@local@@V?$ReflectionAllocator@PEAUQuickHullFace@local@@@shdfnd@physx@@@shdfnd@physx@@IEAAPEAPEAUQuickHullFace@local@@I@Z 0000000180055764     QuickHullConvexHullLib.obj
 0002:0000c764       $unwind$?allocate@?$Array@PEAUQuickHullHalfEdge@local@@V?$ReflectionAllocator@PEAUQuickHullHalfEdge@local@@@shdfnd@physx@@@shdfnd@physx@@IEAAPEAPEAUQuickHullHalfEdge@local@@I@Z 0000000180055764     QuickHullConvexHullLib.obj
 0002:0000c764       $unwind$?allocate@?$Array@PEAUQuickHullVertex@local@@V?$ReflectionAllocator@PEAUQuickHullVertex@local@@@shdfnd@physx@@@shdfnd@physx@@IEAAPEAPEAUQuickHullVertex@local@@I@Z 0000000180055764     QuickHullConvexHullLib.obj
 0002:0000c764       $unwind$?allocate@?$Array@UExpandPoint@local@@V?$ReflectionAllocator@UExpandPoint@local@@@shdfnd@physx@@@shdfnd@physx@@IEAAPEAUExpandPoint@local@@I@Z 0000000180055764     QuickHullConvexHullLib.obj
 0002:0000c764       $unwind$?allocate@?$Array@UInterval@physx@@V?$InlineAllocator@$0CAAA@V?$ReflectionAllocator@UInterval@physx@@@shdfnd@physx@@@shdfnd@2@@shdfnd@physx@@IEAAPEAUInterval@3@I@Z 0000000180055764     RTreeCooking.obj
 0002:0000c764       $unwind$?allocate@?$Array@UPxBounds3V@physx@@V?$ReflectionAllocator@UPxBounds3V@physx@@@shdfnd@2@@shdfnd@physx@@IEAAPEAUPxBounds3V@3@I@Z 0000000180055764     RTreeCooking.obj
 0002:0000c764       $unwind$?allocate@?$Array@URTreeNodeNQ@physx@@V?$ReflectionAllocator@URTreeNodeNQ@physx@@@shdfnd@2@@shdfnd@physx@@IEAAPEAURTreeNodeNQ@3@I@Z 0000000180055764     RTreeCooking.obj
 0002:0000c764       $unwind$?allocate@?$Array@URTreeNodeQ@Gu@physx@@V?$ReflectionAllocator@URTreeNodeQ@Gu@physx@@@shdfnd@3@@shdfnd@physx@@IEAAPEAURTreeNodeQ@Gu@3@I@Z 0000000180055764     RTreeCooking.obj
 0002:0000c764       $unwind$?allocate@?$Array@VPxVec3@physx@@V?$ReflectionAllocator@VPxVec3@physx@@@shdfnd@2@@shdfnd@physx@@IEAAPEAVPxVec3@3@I@Z 0000000180055764     RTreeCooking.obj
 0002:0000c764       $unwind$_invalid_parameter_noinfo 0000000180055764     libucrt:invalid_parameter.obj
 0002:0000c764       $unwind$?state_case_size@?$output_processor@DV?$string_output_adapter@D@__crt_stdio_output@@V?$format_validation_base@DV?$string_output_adapter@D@__crt_stdio_output@@@2@@__crt_stdio_output@@AEAA_NXZ 0000000180055764     libucrt:output.obj
 0002:0000c764       $unwind$_log10_special     0000000180055764     libucrt:log_special.obj
 0002:0000c76c       $chain$1$?allocate@?$Array@UPxDebugLine@physx@@V?$ReflectionAllocator@UPxDebugLine@physx@@@shdfnd@2@@shdfnd@physx@@IEAAPEAUPxDebugLine@3@I@Z 000000018005576c     Cooking.obj
 0002:0000c784       $chain$3$?allocate@?$Array@UPxDebugLine@physx@@V?$ReflectionAllocator@UPxDebugLine@physx@@@shdfnd@2@@shdfnd@physx@@IEAAPEAUPxDebugLine@3@I@Z 0000000180055784     Cooking.obj
 0002:0000c798       $chain$4$?allocate@?$Array@UPxDebugLine@physx@@V?$ReflectionAllocator@UPxDebugLine@physx@@@shdfnd@2@@shdfnd@physx@@IEAAPEAUPxDebugLine@3@I@Z 0000000180055798     Cooking.obj
 0002:0000c7a8       $unwind$?recreate@?$Array@USlab@NodeAllocator@Gu@physx@@V?$ReflectionAllocator@USlab@NodeAllocator@Gu@physx@@@shdfnd@4@@shdfnd@physx@@IEAAXI@Z 00000001800557a8     BVHStructureBuilder.obj
 0002:0000c7a8       $unwind$?recreate@?$Array@VHalfEdge@ConvexHull@physx@@V?$ReflectionAllocator@VHalfEdge@ConvexHull@physx@@@shdfnd@3@@shdfnd@physx@@IEAAXI@Z 00000001800557a8     ConvexHullUtils.obj
 0002:0000c7a8       $unwind$?recreate@?$Array@VPxPlane@physx@@V?$ReflectionAllocator@VPxPlane@physx@@@shdfnd@2@@shdfnd@physx@@IEAAXI@Z 00000001800557a8     ConvexHullUtils.obj
 0002:0000c7a8       $unwind$?copy@ConvexMeshBuilder@physx@@QEAA_NAEAUConvexHullInitData@Gu@2@@Z 00000001800557a8     ConvexMeshBuilder.obj
 0002:0000c7a8       $unwind$?recreate@?$Array@UPxDebugLine@physx@@V?$ReflectionAllocator@UPxDebugLine@physx@@@shdfnd@2@@shdfnd@physx@@IEAAXI@Z 00000001800557a8     Cooking.obj
 0002:0000c7a8       $unwind$?recreate@?$Array@PEAUQuickHullFace@local@@V?$ReflectionAllocator@PEAUQuickHullFace@local@@@shdfnd@physx@@@shdfnd@physx@@IEAAXI@Z 00000001800557a8     QuickHullConvexHullLib.obj
 0002:0000c7a8       $unwind$?recreate@?$Array@PEAUQuickHullHalfEdge@local@@V?$ReflectionAllocator@PEAUQuickHullHalfEdge@local@@@shdfnd@physx@@@shdfnd@physx@@IEAAXI@Z 00000001800557a8     QuickHullConvexHullLib.obj
 0002:0000c7a8       $unwind$?recreate@?$Array@PEAUQuickHullVertex@local@@V?$ReflectionAllocator@PEAUQuickHullVertex@local@@@shdfnd@physx@@@shdfnd@physx@@IEAAXI@Z 00000001800557a8     QuickHullConvexHullLib.obj
 0002:0000c7a8       $unwind$?recreate@?$Array@UExpandPoint@local@@V?$ReflectionAllocator@UExpandPoint@local@@@shdfnd@physx@@@shdfnd@physx@@IEAAXI@Z 00000001800557a8     QuickHullConvexHullLib.obj
 0002:0000c7a8       $unwind$?recreate@?$Array@IV?$ReflectionAllocator@I@shdfnd@physx@@@shdfnd@physx@@IEAAXI@Z 00000001800557a8     RTreeCooking.obj
 0002:0000c7a8       $unwind$?recreate@?$Array@UPxBounds3V@physx@@V?$ReflectionAllocator@UPxBounds3V@physx@@@shdfnd@2@@shdfnd@physx@@IEAAXI@Z 00000001800557a8     RTreeCooking.obj
 0002:0000c7a8       $unwind$?recreate@?$Array@URTreeNodeNQ@physx@@V?$ReflectionAllocator@URTreeNodeNQ@physx@@@shdfnd@2@@shdfnd@physx@@IEAAXI@Z 00000001800557a8     RTreeCooking.obj
 0002:0000c7a8       $unwind$?recreate@?$Array@URTreeNodeQ@Gu@physx@@V?$ReflectionAllocator@URTreeNodeQ@Gu@physx@@@shdfnd@3@@shdfnd@physx@@IEAAXI@Z 00000001800557a8     RTreeCooking.obj
 0002:0000c7a8       $unwind$?recreate@?$Array@VPxVec3@physx@@V?$ReflectionAllocator@VPxVec3@physx@@@shdfnd@2@@shdfnd@physx@@IEAAXI@Z 00000001800557a8     RTreeCooking.obj
 0002:0000c7a8       $unwind$?get_raw_ptd_noexit@__crt_cached_ptd_host@@QEAAPEAU__acrt_ptd@@XZ 00000001800557a8     libucrt:invalid_parameter.obj
 0002:0000c7b8       $chain$0$?recreate@?$Array@UPxDebugLine@physx@@V?$ReflectionAllocator@UPxDebugLine@physx@@@shdfnd@2@@shdfnd@physx@@IEAAXI@Z 00000001800557b8     Cooking.obj
 0002:0000c7cc       $chain$1$?recreate@?$Array@UPxDebugLine@physx@@V?$ReflectionAllocator@UPxDebugLine@physx@@@shdfnd@2@@shdfnd@physx@@IEAAXI@Z 00000001800557cc     Cooking.obj
 0002:0000c7dc       $unwind$??$copy@V?$ReflectionAllocator@USlab@NodeAllocator@Gu@physx@@@shdfnd@physx@@@?$Array@USlab@NodeAllocator@Gu@physx@@V?$ReflectionAllocator@USlab@NodeAllocator@Gu@physx@@@shdfnd@4@@shdfnd@physx@@IEAAXAEBV012@@Z 00000001800557dc     BVHStructureBuilder.obj
 0002:0000c7dc       $unwind$??0NodeAllocator@Gu@physx@@QEAA@AEBV012@@Z 00000001800557dc     BVHStructureBuilder.obj
 0002:0000c7dc       $unwind$??1ConvexHullLib@physx@@UEAA@XZ 00000001800557dc     ConvexHullLib.obj
 0002:0000c7dc       $unwind$??1ConvexMeshBuilder@physx@@QEAA@XZ 00000001800557dc     ConvexMeshBuilder.obj
 0002:0000c7dc       $unwind$??$copy@V?$ReflectionAllocator@VPair@@@shdfnd@physx@@@?$Array@VPair@@V?$ReflectionAllocator@VPair@@@shdfnd@physx@@@shdfnd@physx@@IEAAXAEBV012@@Z 00000001800557dc     ConvexPolygonsBuilder.obj
 0002:0000c7dc       $unwind$??1ConvexPolygonsBuilder@physx@@QEAA@XZ 00000001800557dc     ConvexPolygonsBuilder.obj
 0002:0000c7dc       $unwind$?reserveSegments@RenderOutput@Cm@physx@@QEAAPEAUPxDebugLine@3@I@Z 00000001800557dc     Cooking.obj
 0002:0000c7dc       $unwind$?Clean@ReducedVertexCloud@physx@@QEAAAEAV12@XZ 00000001800557dc     CookingUtils.obj
 0002:0000c7dc       $unwind$?computeLocalBounds@MeshBulider@physx@@IEAAXAEAVMeshDataBase@Gu@2@@Z 00000001800557dc     MeshBuilder.obj
 0002:0000c7dc       $unwind$??1QuickHull@local@@QEAA@XZ 00000001800557dc     QuickHullConvexHullLib.obj
 0002:0000c7dc       $unwind$?fillConvexMeshDesc@QuickHullConvexHullLib@physx@@UEAAXAEAVPxConvexMeshDesc@2@@Z 00000001800557dc     QuickHullConvexHullLib.obj
 0002:0000c7dc       $unwind$?resizeUninitialized@?$Array@URTreeNodeNQ@physx@@V?$ReflectionAllocator@URTreeNodeNQ@physx@@@shdfnd@2@@shdfnd@physx@@QEAAXI@Z 00000001800557dc     RTreeCooking.obj
 0002:0000c7dc       $unwind$??0BV4TriangleMeshBuilder@physx@@QEAA@AEBUPxCookingParams@1@@Z 00000001800557dc     TriangleMeshBuilder.obj
 0002:0000c7dc       $unwind$??1BV4TriangleMeshBuilder@physx@@UEAA@XZ 00000001800557dc     TriangleMeshBuilder.obj
 0002:0000c7dc       $unwind$??1TriangleMeshBuilder@physx@@UEAA@XZ 00000001800557dc     TriangleMeshBuilder.obj
 0002:0000c7dc       $unwind$??1TriangleMeshData@Gu@physx@@UEAA@XZ 00000001800557dc     TriangleMeshBuilder.obj
 0002:0000c7dc       $unwind$??_GBV4TriangleData@Gu@physx@@UEAAPEAXI@Z 00000001800557dc     TriangleMeshBuilder.obj
 0002:0000c7dc       $unwind$??_GMeshDataBase@Gu@physx@@UEAAPEAXI@Z 00000001800557dc     TriangleMeshBuilder.obj
 0002:0000c7dc       $unwind$??_GRTreeTriangleData@Gu@physx@@UEAAPEAXI@Z 00000001800557dc     TriangleMeshBuilder.obj
 0002:0000c7dc       $unwind$??_GRTreeTriangleMeshBuilder@physx@@UEAAPEAXI@Z 00000001800557dc     TriangleMeshBuilder.obj
 0002:0000c7dc       $unwind$??_GTriangleMeshBuilder@physx@@UEAAPEAXI@Z 00000001800557dc     TriangleMeshBuilder.obj
 0002:0000c7dc       $unwind$??_GTriangleMeshData@Gu@physx@@UEAAPEAXI@Z 00000001800557dc     TriangleMeshBuilder.obj
 0002:0000c7dc       $unwind$?DloadGetSRWLockFunctionPointers@@YAEXZ 00000001800557dc     Delayimp:delayhlp.obj
 0002:0000c7dc       $unwind$_RTC_Initialize    00000001800557dc     LIBCMT:initsect.obj
 0002:0000c7dc       $unwind$_RTC_Terminate     00000001800557dc     LIBCMT:initsect.obj
 0002:0000c7dc       $unwind$__C_specific_handler_noexcept 00000001800557dc     libvcruntime:chandler_noexcept.obj
 0002:0000c7dc       $unwind$__FrameUnwindFilter 00000001800557dc     libvcruntime:ehhelpers.obj
 0002:0000c7dc       $unwind$?SetUnwindTryBlock@__FrameHandler3@@SAXPEA_KPEAU_xDISPATCHER_CONTEXT@@PEBU_s_FuncInfo@@H@Z 00000001800557dc     libvcruntime:ehstate.obj
 0002:0000c7dc       $unwind$??_Gbad_exception@std@@UEAAPEAXI@Z 00000001800557dc     libvcruntime:frame.obj
 0002:0000c7dc       $unwind$??_Gexception@std@@UEAAPEAXI@Z 00000001800557dc     libvcruntime:frame.obj
 0002:0000c7dc       $unwind$?ExFilterRethrowFH4@@YAHPEAU_EXCEPTION_POINTERS@@PEAUEHExceptionRecord@@HPEAH@Z 00000001800557dc     libvcruntime:frame.obj
 0002:0000c7dc       $unwind$_FindAndUnlinkFrame 00000001800557dc     libvcruntime:risctrnsctrl.obj
 0002:0000c7dc       $unwind$??$append@VDNameNode@@@DName@@AEAAXPEBVDNameNode@@@Z 00000001800557dc     libvcruntime:undname.obj
 0002:0000c7dc       $unwind$??$append@VDNameStatusNode@@@DName@@AEAAXPEBVDNameStatusNode@@@Z 00000001800557dc     libvcruntime:undname.obj
 0002:0000c7dc       $unwind$??$append@VcharNode@@@DName@@AEAAXPEBVcharNode@@@Z 00000001800557dc     libvcruntime:undname.obj
 0002:0000c7dc       $unwind$??$append@VpcharNode@@@DName@@AEAAXPEBVpcharNode@@@Z 00000001800557dc     libvcruntime:undname.obj
 0002:0000c7dc       $unwind$??YDName@@QEAAAEAV0@AEBUStringLiteral@@@Z 00000001800557dc     libvcruntime:undname.obj
 0002:0000c7dc       $unwind$??YDName@@QEAAAEAV0@D@Z 00000001800557dc     libvcruntime:undname.obj
 0002:0000c7dc       $unwind$??YReplicator@@QEAAAEAV0@AEBVDName@@@Z 00000001800557dc     libvcruntime:undname.obj
 0002:0000c7dc       $unwind$?getString@pairNode@@UEBAPEADPEAD0@Z 00000001800557dc     libvcruntime:undname.obj
 0002:0000c7dc       $unwind$?length@pairNode@@UEBAHXZ 00000001800557dc     libvcruntime:undname.obj
 0002:0000c7dc       $unwind$__vcrt_FlsSetValue 00000001800557dc     libvcruntime:winapi_downlevel.obj
 0002:0000c7dc       $unwind$??$common_initialize_environment_nolock@D@@YAHXZ 00000001800557dc     libucrt:environment_initialization.obj
 0002:0000c7dc       $unwind$_realloc_base      00000001800557dc     libucrt:realloc_base.obj
 0002:0000c7dc       $unwind$?replace_current_thread_locale_nolock@@YAXQEAU__acrt_ptd@@QEAU__crt_locale_data@@@Z 00000001800557dc     libucrt:per_thread_data.obj
 0002:0000c7dc       $unwind$__acrt_execute_uninitializers 00000001800557dc     libucrt:shared_initialization.obj
 0002:0000c7dc       $unwind$__acrt_LocaleNameToLCID 00000001800557dc     libucrt:winapi_thunks.obj
 0002:0000c7dc       $unwind$?free_crt_array_internal@@YAXQEAPEBX_K@Z 00000001800557dc     libucrt:inittime.obj
 0002:0000c7dc       $unwind$_updatetlocinfoEx_nolock 00000001800557dc     libucrt:locale_refcounting.obj
 0002:0000c7dc       $unwind$__acrt_uninitialize_lowio 00000001800557dc     libucrt:ioinit.obj
 0002:0000c7dc       $unwind$?setSBCS@@YAXPEAU__crt_multibyte_data@@@Z 00000001800557dc     libucrt:mbctype.obj
 0002:0000c7dc       $unwind$_initterm_e        00000001800557dc     libucrt:initterm.obj
 0002:0000c7e8       $unwind$?outputSegment@RenderOutput@Cm@physx@@QEAAXAEBVPxVec3@3@0@Z 00000001800557e8     Cooking.obj
 0002:0000c800       $unwind$?getHeight@HeightField@Gu@physx@@UEBAMMM@Z 0000000180055800     Cooking.obj
 0002:0000c800       $unwind$?getAddressOf@UnDecorator@@CA?AVDName@@XZ 0000000180055800     libvcruntime:undname.obj
 0002:0000c800       $unwind$?getArrayAccess@UnDecorator@@CA?AVDName@@XZ 0000000180055800     libvcruntime:undname.obj
 0002:0000c800       $unwind$?getArrayObject@UnDecorator@@CA?AVDName@@XZ 0000000180055800     libvcruntime:undname.obj
 0002:0000c800       $unwind$?getMemberAccess@UnDecorator@@CA?AVDName@@XZ 0000000180055800     libvcruntime:undname.obj
 0002:0000c800       $unwind$?getStringEncoding@UnDecorator@@CA?AVDName@@W4PrefixKind@@H@Z 0000000180055800     libvcruntime:undname.obj
 0002:0000c800       $unwind$?getUnionObject@UnDecorator@@CA?AVDName@@XZ 0000000180055800     libvcruntime:undname.obj
 0002:0000c800       $unwind$__dcrt_lowio_ensure_console_output_initialized 0000000180055800     libucrt:initcon.obj
 0002:0000c800       $unwind$?__mbrtowc_utf8@__crt_mbstring@@YA_KPEA_WPEBD_KPEAU_Mbstatet@@AEAV__crt_cached_ptd_host@@@Z 0000000180055800     libucrt:mbrtowc.obj
 0002:0000c800       $unwind$?getSystemCP@@YAHH@Z 0000000180055800     libucrt:mbctype.obj
 0002:0000c808       $unwind$?getTriangleNormal@HeightField@Gu@physx@@UEBA?AVPxVec3@3@I@Z 0000000180055808     Cooking.obj
 0002:0000c814       $unwind$?getHeightInternal2@HeightField@Gu@physx@@QEBAMIMM@Z 0000000180055814     Cooking.obj
 0002:0000c820       $chain$0$?getHeightInternal2@HeightField@Gu@physx@@QEBAMIMM@Z 0000000180055820     Cooking.obj
 0002:0000c834       $chain$2$?getHeightInternal2@HeightField@Gu@physx@@QEBAMIMM@Z 0000000180055834     Cooking.obj
 0002:0000c848       $unwind$?Reduce@ReducedVertexCloud@physx@@QEAA_NPEAUREDUCEDCLOUD@2@@Z 0000000180055848     CookingUtils.obj
 0002:0000c864       $unwind$??1AABBTreeBuildParams@Gu@physx@@QEAA@XZ 0000000180055864     BVHStructureBuilder.obj
 0002:0000c864       $unwind$??1BVHStructureBuilder@physx@@QEAA@XZ 0000000180055864     BVHStructureBuilder.obj
 0002:0000c864       $unwind$?reset@AABBTreeBuildParams@Gu@physx@@QEAAXXZ 0000000180055864     BVHStructureBuilder.obj
 0002:0000c864       $unwind$??1ConvexHullBuilder@physx@@QEAA@XZ 0000000180055864     ConvexHullBuilder.obj
 0002:0000c864       $unwind$??_GConvexHullLib@physx@@UEAAPEAXI@Z 0000000180055864     ConvexHullLib.obj
 0002:0000c864       $unwind$?resize@?$Array@VPxPlane@physx@@V?$ReflectionAllocator@VPxPlane@physx@@@shdfnd@2@@shdfnd@physx@@QEAAXIAEBVPxPlane@3@@Z 0000000180055864     ConvexHullUtils.obj
 0002:0000c864       $unwind$?resize@?$Array@VPxVec3@physx@@V?$ReflectionAllocator@VPxVec3@physx@@@shdfnd@2@@shdfnd@physx@@QEAAXIAEBVPxVec3@3@@Z 0000000180055864     ConvexHullUtils.obj
 0002:0000c864       $unwind$??1EdgeList@Gu@physx@@QEAA@XZ 0000000180055864     EdgeList.obj
 0002:0000c864       $unwind$??1MeshCleaner@physx@@QEAA@XZ 0000000180055864     MeshCleaner.obj
 0002:0000c864       $unwind$??1MeshDataBase@Gu@physx@@UEAA@XZ 0000000180055864     TriangleMeshBuilder.obj
 0002:0000c864       $unwind$??_GBV4TriangleMeshBuilder@physx@@UEAAPEAXI@Z 0000000180055864     TriangleMeshBuilder.obj
 0002:0000c864       $unwind$_DllMainCRTStartup 0000000180055864     LIBCMT:dll_dllmain.obj
 0002:0000c864       $unwind$__vcrt_getptd_noexit 0000000180055864     libvcruntime:per_thread_data.obj
 0002:0000c864       $unwind$?CatchTryBlock@__FrameHandler3@@SAPEBU_s_TryBlockMapEntry@@PEBU_s_FuncInfo@@H@Z 0000000180055864     libvcruntime:risctrnsctrl.obj
 0002:0000c864       $unwind$?FrameUnwindToEmptyState@__FrameHandler3@@SAXPEA_KPEAU_xDISPATCHER_CONTEXT@@PEBU_s_FuncInfo@@@Z 0000000180055864     libvcruntime:risctrnsctrl.obj
 0002:0000c864       $unwind$??$?0$01@pcharNode@@QEAA@PEBDHU?$StringLifeSelector@$01@@@Z 0000000180055864     libvcruntime:undname.obj
 0002:0000c864       $unwind$??$?0$0A@@pcharNode@@QEAA@PEBDHU?$StringLifeSelector@$0A@@@@Z 0000000180055864     libvcruntime:undname.obj
 0002:0000c864       $unwind$??$doPchar@$01@DName@@AEAAXPEBDH@Z 0000000180055864     libvcruntime:undname.obj
 0002:0000c864       $unwind$??$doPchar@$0A@@DName@@AEAAXPEBDH@Z 0000000180055864     libvcruntime:undname.obj
 0002:0000c864       $unwind$??0DName@@QEAA@AEAPEBDD@Z 0000000180055864     libvcruntime:undname.obj
 0002:0000c864       $unwind$??0DName@@QEAA@PEAV0@@Z 0000000180055864     libvcruntime:undname.obj
 0002:0000c864       $unwind$?getMemoryWithBuffer@_HeapManager@@QEAAPEAX_K@Z 0000000180055864     libvcruntime:undname.obj
 0002:0000c864       $unwind$__vcrt_InitializeCriticalSectionEx 0000000180055864     libvcruntime:winapi_downlevel.obj
 0002:0000c864       $unwind$memcpy_s           0000000180055864     libucrt:cfout.obj
 0002:0000c864       $unwind$__acrt_getptd      0000000180055864     libucrt:per_thread_data.obj
 0002:0000c864       $unwind$__acrt_getptd_noexit 0000000180055864     libucrt:per_thread_data.obj
 0002:0000c864       $unwind$__acrt_getptd_noexit_explicit 0000000180055864     libucrt:per_thread_data.obj
 0002:0000c864       $unwind$__acrt_execute_initializers 0000000180055864     libucrt:shared_initialization.obj
 0002:0000c864       $unwind$__acrt_InitializeCriticalSectionEx 0000000180055864     libucrt:winapi_thunks.obj
 0002:0000c864       $unwind$_close_nolock_internal 0000000180055864     libucrt:close.obj
 0002:0000c864       $unwind$?value@?$dual_state_global@P6AXPEB_W00I_K@Z@__crt_state_management@@QEAAAEAP6AXPEB_W00I_K@ZAEAV__crt_cached_ptd_host@@@Z 0000000180055864     libucrt:invalid_parameter.obj
 0002:0000c864       $unwind$??0_LocaleUpdate@@QEAA@QEAU__crt_locale_pointers@@@Z 0000000180055864     libucrt:argv_wildcards.obj
 0002:0000c864       $unwind$?update_locale_slow@__crt_cached_ptd_host@@AEAAXXZ 0000000180055864     libucrt:output.obj
 0002:0000c864       $unwind$strncpy_s          0000000180055864     libucrt:strncpy_s.obj
 0002:0000c864       $unwind$_exception_enabled 0000000180055864     libucrt:libm_error.obj
 0002:0000c874       $unwind$?init@EdgeListBuilder@Gu@physx@@QEAA_NAEBUEDGELISTCREATE@23@@Z 0000000180055874     EdgeList.obj
 0002:0000c874       $unwind$?preallocate@QuickHull@local@@QEAAXI@Z 0000000180055874     QuickHullConvexHullLib.obj
 0002:0000c874       $unwind$?allocateVertices@MeshDataBase@Gu@physx@@QEAAPEAVPxVec3@3@I@Z 0000000180055874     TriangleMeshBuilder.obj
 0002:0000c874       $unwind$?getStateFromIterators@UWMap4@FH4@@SAHAEBViterator@12@H0H0@Z 0000000180055874     libvcruntime:frame.obj
 0002:0000c874       $unwind$?getUndecoratedName@UnDecorator@@QEAAPEADPEADH@Z 0000000180055874     libvcruntime:undname.obj
 0002:0000c884       $unwind$?createFacesToEdges@EdgeListBuilder@Gu@physx@@AEAA_NIPEBIPEBG@Z 0000000180055884     EdgeList.obj
 0002:0000c894       $chain$3$?createFacesToEdges@EdgeListBuilder@Gu@physx@@AEAA_NIPEBIPEBG@Z 0000000180055894     EdgeList.obj
 0002:0000c8b4       $chain$4$?createFacesToEdges@EdgeListBuilder@Gu@physx@@AEAA_NIPEBIPEBG@Z 00000001800558b4     EdgeList.obj
 0002:0000c8cc       $chain$5$?createFacesToEdges@EdgeListBuilder@Gu@physx@@AEAA_NIPEBIPEBG@Z 00000001800558cc     EdgeList.obj
 0002:0000c8e0       $chain$6$?createFacesToEdges@EdgeListBuilder@Gu@physx@@AEAA_NIPEBIPEBG@Z 00000001800558e0     EdgeList.obj
 0002:0000c8f0       $unwind$?createEdgesToFaces@EdgeListBuilder@Gu@physx@@AEAA_NIPEBIPEBG@Z 00000001800558f0     EdgeList.obj
 0002:0000c8fc       $chain$1$?createEdgesToFaces@EdgeListBuilder@Gu@physx@@AEAA_NIPEBIPEBG@Z 00000001800558fc     EdgeList.obj
 0002:0000c914       $chain$2$?createEdgesToFaces@EdgeListBuilder@Gu@physx@@AEAA_NIPEBIPEBG@Z 0000000180055914     EdgeList.obj
 0002:0000c928       $unwind$?computeActiveEdges@EdgeListBuilder@Gu@physx@@AEAA_NIPEBIPEBGPEBVPxVec3@3@M@Z 0000000180055928     EdgeList.obj
 0002:0000c938       $chain$0$?computeActiveEdges@EdgeListBuilder@Gu@physx@@AEAA_NIPEBIPEBGPEBVPxVec3@3@M@Z 0000000180055938     EdgeList.obj
 0002:0000c94c       $chain$3$?computeActiveEdges@EdgeListBuilder@Gu@physx@@AEAA_NIPEBIPEBGPEBVPxVec3@3@M@Z 000000018005594c     EdgeList.obj
 0002:0000c964       $chain$16$?computeActiveEdges@EdgeListBuilder@Gu@physx@@AEAA_NIPEBIPEBGPEBVPxVec3@3@M@Z 0000000180055964     EdgeList.obj
 0002:0000c9a8       $chain$17$?computeActiveEdges@EdgeListBuilder@Gu@physx@@AEAA_NIPEBIPEBGPEBVPxVec3@3@M@Z 00000001800559a8     EdgeList.obj
 0002:0000c9bc       $chain$18$?computeActiveEdges@EdgeListBuilder@Gu@physx@@AEAA_NIPEBIPEBGPEBVPxVec3@3@M@Z 00000001800559bc     EdgeList.obj
 0002:0000c9cc       $chain$19$?computeActiveEdges@EdgeListBuilder@Gu@physx@@AEAA_NIPEBIPEBGPEBVPxVec3@3@M@Z 00000001800559cc     EdgeList.obj
 0002:0000c9dc       $chain$0$??$?_UI@@YAPEAX_KV?$ReflectionAllocator@I@shdfnd@physx@@PEBDH@Z 00000001800559dc     EdgeList.obj
 0002:0000c9f0       $chain$1$??$?_UI@@YAPEAX_KV?$ReflectionAllocator@I@shdfnd@physx@@PEBDH@Z 00000001800559f0     EdgeList.obj
 0002:0000ca00       $unwind$??0MeshCleaner@physx@@QEAA@IPEBVPxVec3@1@IPEBIM@Z 0000000180055a00     MeshCleaner.obj
 0002:0000ca0c       $chain$1$??0MeshCleaner@physx@@QEAA@IPEBVPxVec3@1@IPEBIM@Z 0000000180055a0c     MeshCleaner.obj
 0002:0000ca24       $chain$5$??0MeshCleaner@physx@@QEAA@IPEBVPxVec3@1@IPEBIM@Z 0000000180055a24     MeshCleaner.obj
 0002:0000ca44       $chain$7$??0MeshCleaner@physx@@QEAA@IPEBVPxVec3@1@IPEBIM@Z 0000000180055a44     MeshCleaner.obj
 0002:0000ca5c       $chain$8$??0MeshCleaner@physx@@QEAA@IPEBVPxVec3@1@IPEBIM@Z 0000000180055a5c     MeshCleaner.obj
 0002:0000ca70       $chain$9$??0MeshCleaner@physx@@QEAA@IPEBVPxVec3@1@IPEBIM@Z 0000000180055a70     MeshCleaner.obj
 0002:0000ca80       $chain$10$??0MeshCleaner@physx@@QEAA@IPEBVPxVec3@1@IPEBIM@Z 0000000180055a80     MeshCleaner.obj
 0002:0000ca80       $chain$12$??0MeshCleaner@physx@@QEAA@IPEBVPxVec3@1@IPEBIM@Z 0000000180055a80     MeshCleaner.obj
 0002:0000ca90       $chain$11$??0MeshCleaner@physx@@QEAA@IPEBVPxVec3@1@IPEBIM@Z 0000000180055a90     MeshCleaner.obj
 0002:0000caa8       $chain$13$??0MeshCleaner@physx@@QEAA@IPEBVPxVec3@1@IPEBIM@Z 0000000180055aa8     MeshCleaner.obj
 0002:0000cac4       $chain$14$??0MeshCleaner@physx@@QEAA@IPEBVPxVec3@1@IPEBIM@Z 0000000180055ac4     MeshCleaner.obj
 0002:0000cad4       $unwind$?createQuantizer@physx@@YAPEAVQuantizer@1@XZ 0000000180055ad4     Quantizer.obj
 0002:0000cad4       $unwind$?getNoexcept@UnDecorator@@CA?AVDName@@XZ 0000000180055ad4     libvcruntime:undname.obj
 0002:0000cad4       $unwind$?getVCallThunkType@UnDecorator@@CA?AVDName@@XZ 0000000180055ad4     libvcruntime:undname.obj
 0002:0000cad4       $unwind$?getVdispMapType@UnDecorator@@CA?AVDName@@AEBV2@@Z 0000000180055ad4     libvcruntime:undname.obj
 0002:0000cad4       $unwind$?type_case_c_tchar@?$output_processor@DV?$string_output_adapter@D@__crt_stdio_output@@V?$format_validation_base@DV?$string_output_adapter@D@__crt_stdio_output@@@2@@__crt_stdio_output@@AEAA_ND@Z 0000000180055ad4     libucrt:output.obj
 0002:0000cadc       $unwind$??$kmeans_cluster@VPxVec3@physx@@M@@YAIPEBVPxVec3@physx@@IIPEAV01@PEAIMM@Z 0000000180055adc     Quantizer.obj
 0002:0000cae8       $chain$3$??$kmeans_cluster@VPxVec3@physx@@M@@YAIPEBVPxVec3@physx@@IIPEAV01@PEAIMM@Z 0000000180055ae8     Quantizer.obj
 0002:0000cb08       $chain$6$??$kmeans_cluster@VPxVec3@physx@@M@@YAIPEBVPxVec3@physx@@IIPEAV01@PEAIMM@Z 0000000180055b08     Quantizer.obj
 0002:0000cb24       $chain$12$??$kmeans_cluster@VPxVec3@physx@@M@@YAIPEBVPxVec3@physx@@IIPEAV01@PEAIMM@Z 0000000180055b24     Quantizer.obj
 0002:0000cb4c       $chain$13$??$kmeans_cluster@VPxVec3@physx@@M@@YAIPEBVPxVec3@physx@@IIPEAV01@PEAIMM@Z 0000000180055b4c     Quantizer.obj
 0002:0000cb5c       $chain$14$??$kmeans_cluster@VPxVec3@physx@@M@@YAIPEBVPxVec3@physx@@IIPEAV01@PEAIMM@Z 0000000180055b5c     Quantizer.obj
 0002:0000cb74       $chain$15$??$kmeans_cluster@VPxVec3@physx@@M@@YAIPEBVPxVec3@physx@@IIPEAV01@PEAIMM@Z 0000000180055b74     Quantizer.obj
 0002:0000cb84       $unwind$?kmeansQuantize3D@QuantizerImpl@@UEAAPEBVPxVec3@physx@@IPEBV23@I_NIAEAI@Z 0000000180055b84     Quantizer.obj
 0002:0000cb94       $chain$1$?kmeansQuantize3D@QuantizerImpl@@UEAAPEBVPxVec3@physx@@IPEBV23@I_NIAEAI@Z 0000000180055b94     Quantizer.obj
 0002:0000cbac       $chain$2$?kmeansQuantize3D@QuantizerImpl@@UEAAPEBVPxVec3@physx@@IPEBV23@I_NIAEAI@Z 0000000180055bac     Quantizer.obj
 0002:0000cbc0       $chain$3$?kmeansQuantize3D@QuantizerImpl@@UEAAPEBVPxVec3@physx@@IPEBV23@I_NIAEAI@Z 0000000180055bc0     Quantizer.obj
 0002:0000cbd0       $unwind$?normalizeInput@QuantizerImpl@@AEAAXIPEBVPxVec3@physx@@I@Z 0000000180055bd0     Quantizer.obj
 0002:0000cbec       $chain$2$?normalizeInput@QuantizerImpl@@AEAAXIPEBVPxVec3@physx@@I@Z 0000000180055bec     Quantizer.obj
 0002:0000cc08       $chain$6$?normalizeInput@QuantizerImpl@@AEAAXIPEBVPxVec3@physx@@I@Z 0000000180055c08     Quantizer.obj
 0002:0000cc28       $chain$7$?normalizeInput@QuantizerImpl@@AEAAXIPEBVPxVec3@physx@@I@Z 0000000180055c28     Quantizer.obj
 0002:0000cc38       $chain$8$?normalizeInput@QuantizerImpl@@AEAAXIPEBVPxVec3@physx@@I@Z 0000000180055c38     Quantizer.obj
 0002:0000cc48       $chain$10$?normalizeInput@QuantizerImpl@@AEAAXIPEBVPxVec3@physx@@I@Z 0000000180055c48     Quantizer.obj
 0002:0000cc60       $chain$11$?normalizeInput@QuantizerImpl@@AEAAXIPEBVPxVec3@physx@@I@Z 0000000180055c60     Quantizer.obj
 0002:0000cc70       $unwind$?growAndPushBack@?$Array@VPxVec3@physx@@V?$ReflectionAllocator@VPxVec3@physx@@@shdfnd@2@@shdfnd@physx@@IEAAAEAVPxVec3@3@AEBV43@@Z 0000000180055c70     Quantizer.obj
 0002:0000cc70       $unwind$?saveMidPhaseStructure@BV4TriangleMeshBuilder@physx@@UEBAXAEAVPxOutputStream@2@_N@Z 0000000180055c70     TriangleMeshBuilder.obj
 0002:0000cc7c       $chain$0$?growAndPushBack@?$Array@VPxVec3@physx@@V?$ReflectionAllocator@VPxVec3@physx@@@shdfnd@2@@shdfnd@physx@@IEAAAEAVPxVec3@3@AEBV43@@Z 0000000180055c7c     Quantizer.obj
 0002:0000cc90       $chain$1$?growAndPushBack@?$Array@VPxVec3@physx@@V?$ReflectionAllocator@VPxVec3@physx@@@shdfnd@2@@shdfnd@physx@@IEAAAEAVPxVec3@3@AEBV43@@Z 0000000180055c90     Quantizer.obj
 0002:0000cca4       $chain$2$?growAndPushBack@?$Array@VPxVec3@physx@@V?$ReflectionAllocator@VPxVec3@physx@@@shdfnd@2@@shdfnd@physx@@IEAAAEAVPxVec3@3@AEBV43@@Z 0000000180055ca4     Quantizer.obj
 0002:0000ccb4       $chain$4$?growAndPushBack@?$Array@VPxVec3@physx@@V?$ReflectionAllocator@VPxVec3@physx@@@shdfnd@2@@shdfnd@physx@@IEAAAEAVPxVec3@3@AEBV43@@Z 0000000180055cb4     Quantizer.obj
 0002:0000ccc8       $chain$3$?growAndPushBack@?$Array@VPxVec3@physx@@V?$ReflectionAllocator@VPxVec3@physx@@@shdfnd@2@@shdfnd@physx@@IEAAAEAVPxVec3@3@AEBV43@@Z 0000000180055cc8     Quantizer.obj
 0002:0000ccd8       $unwind$??_GQuantizerImpl@@EEAAPEAXI@Z 0000000180055cd8     Quantizer.obj
 0002:0000ccd8       $unwind$??_GConvexHull@physx@@QEAAPEAXI@Z 0000000180055cd8     QuickHullConvexHullLib.obj
 0002:0000cce4       $chain$0$??_GQuantizerImpl@@EEAAPEAXI@Z 0000000180055ce4     Quantizer.obj
 0002:0000ccf8       $chain$1$??_GQuantizerImpl@@EEAAPEAXI@Z 0000000180055cf8     Quantizer.obj
 0002:0000cd08       $unwind$?loadFromDesc@BVHStructureBuilder@physx@@QEAA_NAEBVPxBVHStructureDesc@2@@Z 0000000180055d08     BVHStructureBuilder.obj
 0002:0000cd14       $chain$4$?loadFromDesc@BVHStructureBuilder@physx@@QEAA_NAEBVPxBVHStructureDesc@2@@Z 0000000180055d14     BVHStructureBuilder.obj
 0002:0000cd38       $chain$6$?loadFromDesc@BVHStructureBuilder@physx@@QEAA_NAEBVPxBVHStructureDesc@2@@Z 0000000180055d38     BVHStructureBuilder.obj
 0002:0000cd50       $chain$7$?loadFromDesc@BVHStructureBuilder@physx@@QEAA_NAEBVPxBVHStructureDesc@2@@Z 0000000180055d50     BVHStructureBuilder.obj
 0002:0000cd60       $chain$8$?loadFromDesc@BVHStructureBuilder@physx@@QEAA_NAEBVPxBVHStructureDesc@2@@Z 0000000180055d60     BVHStructureBuilder.obj
 0002:0000cd70       $unwind$?save@BVHStructureBuilder@physx@@QEBA_NAEAVPxOutputStream@2@_N@Z 0000000180055d70     BVHStructureBuilder.obj
 0002:0000cd80       $chain$2$?save@BVHStructureBuilder@physx@@QEBA_NAEAVPxOutputStream@2@_N@Z 0000000180055d80     BVHStructureBuilder.obj
 0002:0000cd98       $chain$3$?save@BVHStructureBuilder@physx@@QEBA_NAEAVPxOutputStream@2@_N@Z 0000000180055d98     BVHStructureBuilder.obj
 0002:0000cdac       $chain$1$?allocate@?$Array@USlab@NodeAllocator@Gu@physx@@V?$ReflectionAllocator@USlab@NodeAllocator@Gu@physx@@@shdfnd@4@@shdfnd@physx@@IEAAPEAUSlab@NodeAllocator@Gu@3@I@Z 0000000180055dac     BVHStructureBuilder.obj
 0002:0000cdc4       $chain$3$?allocate@?$Array@USlab@NodeAllocator@Gu@physx@@V?$ReflectionAllocator@USlab@NodeAllocator@Gu@physx@@@shdfnd@4@@shdfnd@physx@@IEAAPEAUSlab@NodeAllocator@Gu@3@I@Z 0000000180055dc4     BVHStructureBuilder.obj
 0002:0000cdd8       $chain$4$?allocate@?$Array@USlab@NodeAllocator@Gu@physx@@V?$ReflectionAllocator@USlab@NodeAllocator@Gu@physx@@@shdfnd@4@@shdfnd@physx@@IEAAPEAUSlab@NodeAllocator@Gu@3@I@Z 0000000180055dd8     BVHStructureBuilder.obj
 0002:0000cde8       $chain$0$?recreate@?$Array@USlab@NodeAllocator@Gu@physx@@V?$ReflectionAllocator@USlab@NodeAllocator@Gu@physx@@@shdfnd@4@@shdfnd@physx@@IEAAXI@Z 0000000180055de8     BVHStructureBuilder.obj
 0002:0000cdfc       $chain$1$?recreate@?$Array@USlab@NodeAllocator@Gu@physx@@V?$ReflectionAllocator@USlab@NodeAllocator@Gu@physx@@@shdfnd@4@@shdfnd@physx@@IEAAXI@Z 0000000180055dfc     BVHStructureBuilder.obj
 0002:0000ce0c       $unwind$??4NodeAllocator@Gu@physx@@QEAAAEAV012@AEBV012@@Z 0000000180055e0c     BVHStructureBuilder.obj
 0002:0000ce0c       $unwind$__std_exception_copy 0000000180055e0c     libvcruntime:std_exception.obj
 0002:0000ce0c       $unwind$??$doPchar@$00@DName@@AEAAXPEBDH@Z 0000000180055e0c     libvcruntime:undname.obj
 0002:0000ce0c       $unwind$_free_osfhnd       0000000180055e0c     libucrt:osfinfo.obj
 0002:0000ce20       $unwind$?saveHeightField@physx@@YA_NAEBVHeightField@Gu@1@AEAVPxOutputStream@1@_N@Z 0000000180055e20     HeightFieldCooking.obj
 0002:0000ce30       $chain$2$?saveHeightField@physx@@YA_NAEBVHeightField@Gu@1@AEAVPxOutputStream@1@_N@Z 0000000180055e30     HeightFieldCooking.obj
 0002:0000ce48       $chain$3$?saveHeightField@physx@@YA_NAEBVHeightField@Gu@1@AEAVPxOutputStream@1@_N@Z 0000000180055e48     HeightFieldCooking.obj
 0002:0000ce58       $chain$0$?allocate@?$ReflectionAllocator@I@shdfnd@physx@@QEAAPEAX_KPEBDH@Z 0000000180055e58     RTreeCooking.obj
 0002:0000ce6c       $chain$1$?allocate@?$ReflectionAllocator@I@shdfnd@physx@@QEAAPEAX_KPEBDH@Z 0000000180055e6c     RTreeCooking.obj
 0002:0000ce7c       $unwind$?buildFromTriangles@RTreeCooker@physx@@SAXAEAURTree@Gu@2@PEBVPxVec3@2@IPEBGPEBIIAEAV?$Array@IV?$ReflectionAllocator@I@shdfnd@physx@@@shdfnd@2@PEAURemapCallback@12@MW4Enum@PxMeshCookingHint@2@@Z 0000000180055e7c     RTreeCooking.obj
 0002:0000ce88       $chain$7$?buildFromTriangles@RTreeCooker@physx@@SAXAEAURTree@Gu@2@PEBVPxVec3@2@IPEBGPEBIIAEAV?$Array@IV?$ReflectionAllocator@I@shdfnd@physx@@@shdfnd@2@PEAURemapCallback@12@MW4Enum@PxMeshCookingHint@2@@Z 0000000180055e88     RTreeCooking.obj
 0002:0000ceb8       $chain$9$?buildFromTriangles@RTreeCooker@physx@@SAXAEAURTree@Gu@2@PEBVPxVec3@2@IPEBGPEBIIAEAV?$Array@IV?$ReflectionAllocator@I@shdfnd@physx@@@shdfnd@2@PEAURemapCallback@12@MW4Enum@PxMeshCookingHint@2@@Z 0000000180055eb8     RTreeCooking.obj
 0002:0000ced0       $chain$10$?buildFromTriangles@RTreeCooker@physx@@SAXAEAURTree@Gu@2@PEBVPxVec3@2@IPEBGPEBIIAEAV?$Array@IV?$ReflectionAllocator@I@shdfnd@physx@@@shdfnd@2@PEAURemapCallback@12@MW4Enum@PxMeshCookingHint@2@@Z 0000000180055ed0     RTreeCooking.obj
 0002:0000cee0       $chain$11$?buildFromTriangles@RTreeCooker@physx@@SAXAEAURTree@Gu@2@PEBVPxVec3@2@IPEBGPEBIIAEAV?$Array@IV?$ReflectionAllocator@I@shdfnd@physx@@@shdfnd@2@PEAURemapCallback@12@MW4Enum@PxMeshCookingHint@2@@Z 0000000180055ee0     RTreeCooking.obj
 0002:0000cef0       $unwind$?buildFromBounds@physx@@YAXAEAURTree@Gu@1@PEBUPxBounds3V@1@IAEAV?$Array@IV?$ReflectionAllocator@I@shdfnd@physx@@@shdfnd@1@PEAURemapCallback@RTreeCooker@1@AEAT__m128@@4MW4Enum@PxMeshCookingHint@1@@Z 0000000180055ef0     RTreeCooking.obj
 0002:0000cf0c       $chain$1$?allocate@?$Array@UPxBounds3V@physx@@V?$ReflectionAllocator@UPxBounds3V@physx@@@shdfnd@2@@shdfnd@physx@@IEAAPEAUPxBounds3V@3@I@Z 0000000180055f0c     RTreeCooking.obj
 0002:0000cf24       $chain$3$?allocate@?$Array@UPxBounds3V@physx@@V?$ReflectionAllocator@UPxBounds3V@physx@@@shdfnd@2@@shdfnd@physx@@IEAAPEAUPxBounds3V@3@I@Z 0000000180055f24     RTreeCooking.obj
 0002:0000cf38       $chain$4$?allocate@?$Array@UPxBounds3V@physx@@V?$ReflectionAllocator@UPxBounds3V@physx@@@shdfnd@2@@shdfnd@physx@@IEAAPEAUPxBounds3V@3@I@Z 0000000180055f38     RTreeCooking.obj
 0002:0000cf48       $unwind$?growAndPushBack@?$Array@VHalfEdge@ConvexHull@physx@@V?$ReflectionAllocator@VHalfEdge@ConvexHull@physx@@@shdfnd@3@@shdfnd@physx@@IEAAAEAVHalfEdge@ConvexHull@3@AEBV453@@Z 0000000180055f48     ConvexHullUtils.obj
 0002:0000cf48       $unwind$?growAndPushBack@?$Array@VPxPlane@physx@@V?$ReflectionAllocator@VPxPlane@physx@@@shdfnd@2@@shdfnd@physx@@IEAAAEAVPxPlane@3@AEBV43@@Z 0000000180055f48     ConvexHullUtils.obj
 0002:0000cf48       $unwind$?resize@?$Array@VHalfEdge@ConvexHull@physx@@V?$ReflectionAllocator@VHalfEdge@ConvexHull@physx@@@shdfnd@3@@shdfnd@physx@@QEAAXIAEBVHalfEdge@ConvexHull@3@@Z 0000000180055f48     ConvexHullUtils.obj
 0002:0000cf48       $unwind$?growAndPushBack@?$Array@VPair@@V?$ReflectionAllocator@VPair@@@shdfnd@physx@@@shdfnd@physx@@IEAAAEAVPair@@AEBV4@@Z 0000000180055f48     ConvexPolygonsBuilder.obj
 0002:0000cf48       $unwind$??_GQuickHullConvexHullLib@physx@@UEAAPEAXI@Z 0000000180055f48     QuickHullConvexHullLib.obj
 0002:0000cf48       $unwind$?growAndPushBack@?$Array@PEAUQuickHullFace@local@@V?$ReflectionAllocator@PEAUQuickHullFace@local@@@shdfnd@physx@@@shdfnd@physx@@IEAAAEAPEAUQuickHullFace@local@@AEBQEAU45@@Z 0000000180055f48     QuickHullConvexHullLib.obj
 0002:0000cf48       $unwind$?growAndPushBack@?$Array@PEAUQuickHullHalfEdge@local@@V?$ReflectionAllocator@PEAUQuickHullHalfEdge@local@@@shdfnd@physx@@@shdfnd@physx@@IEAAAEAPEAUQuickHullHalfEdge@local@@AEBQEAU45@@Z 0000000180055f48     QuickHullConvexHullLib.obj
 0002:0000cf48       $unwind$?growAndPushBack@?$Array@PEAUQuickHullVertex@local@@V?$ReflectionAllocator@PEAUQuickHullVertex@local@@@shdfnd@physx@@@shdfnd@physx@@IEAAAEAPEAUQuickHullVertex@local@@AEBQEAU45@@Z 0000000180055f48     QuickHullConvexHullLib.obj
 0002:0000cf48       $unwind$?growAndPushBack@?$Array@UExpandPoint@local@@V?$ReflectionAllocator@UExpandPoint@local@@@shdfnd@physx@@@shdfnd@physx@@IEAAAEAUExpandPoint@local@@AEBU45@@Z 0000000180055f48     QuickHullConvexHullLib.obj
 0002:0000cf48       $unwind$?growAndPushBack@?$Array@UInterval@physx@@V?$InlineAllocator@$0CAAA@V?$ReflectionAllocator@UInterval@physx@@@shdfnd@physx@@@shdfnd@2@@shdfnd@physx@@IEAAAEAUInterval@3@AEBU43@@Z 0000000180055f48     RTreeCooking.obj
 0002:0000cf48       $unwind$?growAndPushBack@?$Array@UPxBounds3V@physx@@V?$ReflectionAllocator@UPxBounds3V@physx@@@shdfnd@2@@shdfnd@physx@@IEAAAEAUPxBounds3V@3@AEBU43@@Z 0000000180055f48     RTreeCooking.obj
 0002:0000cf48       $unwind$?growAndPushBack@?$Array@URTreeNodeNQ@physx@@V?$ReflectionAllocator@URTreeNodeNQ@physx@@@shdfnd@2@@shdfnd@physx@@IEAAAEAURTreeNodeNQ@3@AEBU43@@Z 0000000180055f48     RTreeCooking.obj
 0002:0000cf48       $unwind$?growAndPushBack@?$Array@URTreeNodeQ@Gu@physx@@V?$ReflectionAllocator@URTreeNodeQ@Gu@physx@@@shdfnd@3@@shdfnd@physx@@IEAAAEAURTreeNodeQ@Gu@3@AEBU453@@Z 0000000180055f48     RTreeCooking.obj
 0002:0000cf48       $unwind$?resize@?$Array@IV?$ReflectionAllocator@I@shdfnd@physx@@@shdfnd@physx@@QEAAXIAEBI@Z 0000000180055f48     RTreeCooking.obj
 0002:0000cf48       $unwind$__scrt_dllmain_exception_filter 0000000180055f48     LIBCMT:utility.obj
 0002:0000cf48       $unwind$?GetHandlerSearchState@__FrameHandler3@@SAHPEA_KPEAU_xDISPATCHER_CONTEXT@@PEBU_s_FuncInfo@@@Z 0000000180055f48     libvcruntime:frame.obj
 0002:0000cf48       $unwind$?Is_bad_exception_allowed@@YAEPEBU_s_ESTypeList@@@Z 0000000180055f48     libvcruntime:frame.obj
 0002:0000cf48       $unwind$_ischartype_l      0000000180055f48     libucrt:atox.obj
 0002:0000cf48       $unwind$_recalloc_base     0000000180055f48     libucrt:recalloc.obj
 0002:0000cf48       $unwind$__acrt_free_locale 0000000180055f48     libucrt:locale_refcounting.obj
 0002:0000cf48       $unwind$__acrt_lowio_create_handle_array 0000000180055f48     libucrt:osfinfo.obj
 0002:0000cf48       $unwind$_seh_filter_exe    0000000180055f48     libucrt:exception_filter.obj
 0002:0000cf48       $unwind$__acrt_stdio_flush_nolock 0000000180055f48     libucrt:fflush.obj
 0002:0000cf48       $unwind$??$ensure_buffer_is_big_enough@D@formatting_buffer@__crt_stdio_output@@QEAA_N_KAEAV__crt_cached_ptd_host@@@Z 0000000180055f48     libucrt:output.obj
 0002:0000cf5c       $chain$0$?recreate@?$Array@UPxBounds3V@physx@@V?$ReflectionAllocator@UPxBounds3V@physx@@@shdfnd@2@@shdfnd@physx@@IEAAXI@Z 0000000180055f5c     RTreeCooking.obj
 0002:0000cf70       $chain$1$?recreate@?$Array@UPxBounds3V@physx@@V?$ReflectionAllocator@UPxBounds3V@physx@@@shdfnd@2@@shdfnd@physx@@IEAAXI@Z 0000000180055f70     RTreeCooking.obj
 0002:0000cf80       $unwind$?growAndPushBack@?$Array@IV?$ReflectionAllocator@I@shdfnd@physx@@@shdfnd@physx@@IEAAAEAIAEBI@Z 0000000180055f80     RTreeCooking.obj
 0002:0000cf90       $chain$0$?growAndPushBack@?$Array@IV?$ReflectionAllocator@I@shdfnd@physx@@@shdfnd@physx@@IEAAAEAIAEBI@Z 0000000180055f90     RTreeCooking.obj
 0002:0000cfa4       $chain$2$?growAndPushBack@?$Array@IV?$ReflectionAllocator@I@shdfnd@physx@@@shdfnd@physx@@IEAAAEAIAEBI@Z 0000000180055fa4     RTreeCooking.obj
 0002:0000cfb8       $chain$1$?growAndPushBack@?$Array@IV?$ReflectionAllocator@I@shdfnd@physx@@@shdfnd@physx@@IEAAAEAIAEBI@Z 0000000180055fb8     RTreeCooking.obj
 0002:0000cfc8       $chain$0$?recreate@?$Array@IV?$ReflectionAllocator@I@shdfnd@physx@@@shdfnd@physx@@IEAAXI@Z 0000000180055fc8     RTreeCooking.obj
 0002:0000cfdc       $chain$1$?recreate@?$Array@IV?$ReflectionAllocator@I@shdfnd@physx@@@shdfnd@physx@@IEAAXI@Z 0000000180055fdc     RTreeCooking.obj
 0002:0000cfec       $chain$1$?allocate@?$Array@VPxVec3@physx@@V?$ReflectionAllocator@VPxVec3@physx@@@shdfnd@2@@shdfnd@physx@@IEAAPEAVPxVec3@3@I@Z 0000000180055fec     RTreeCooking.obj
 0002:0000d004       $chain$3$?allocate@?$Array@VPxVec3@physx@@V?$ReflectionAllocator@VPxVec3@physx@@@shdfnd@2@@shdfnd@physx@@IEAAPEAVPxVec3@3@I@Z 0000000180056004     RTreeCooking.obj
 0002:0000d018       $chain$4$?allocate@?$Array@VPxVec3@physx@@V?$ReflectionAllocator@VPxVec3@physx@@@shdfnd@2@@shdfnd@physx@@IEAAPEAVPxVec3@3@I@Z 0000000180056018     RTreeCooking.obj
 0002:0000d028       $chain$0$?recreate@?$Array@VPxVec3@physx@@V?$ReflectionAllocator@VPxVec3@physx@@@shdfnd@2@@shdfnd@physx@@IEAAXI@Z 0000000180056028     RTreeCooking.obj
 0002:0000d03c       $chain$1$?recreate@?$Array@VPxVec3@physx@@V?$ReflectionAllocator@VPxVec3@physx@@@shdfnd@2@@shdfnd@physx@@IEAAXI@Z 000000018005603c     RTreeCooking.obj
 0002:0000d04c       $unwind$?sort4@SubSortQuick@physx@@QEAAXPEIAIIAEAV?$Array@URTreeNodeNQ@physx@@V?$ReflectionAllocator@URTreeNodeNQ@physx@@@shdfnd@2@@shdfnd@2@AEAIAEAUPxBounds3V@2@I@Z 000000018005604c     RTreeCooking.obj
 0002:0000d064       $chain$1$?allocate@?$Array@URTreeNodeNQ@physx@@V?$ReflectionAllocator@URTreeNodeNQ@physx@@@shdfnd@2@@shdfnd@physx@@IEAAPEAURTreeNodeNQ@3@I@Z 0000000180056064     RTreeCooking.obj
 0002:0000d07c       $chain$3$?allocate@?$Array@URTreeNodeNQ@physx@@V?$ReflectionAllocator@URTreeNodeNQ@physx@@@shdfnd@2@@shdfnd@physx@@IEAAPEAURTreeNodeNQ@3@I@Z 000000018005607c     RTreeCooking.obj
 0002:0000d090       $chain$4$?allocate@?$Array@URTreeNodeNQ@physx@@V?$ReflectionAllocator@URTreeNodeNQ@physx@@@shdfnd@2@@shdfnd@physx@@IEAAPEAURTreeNodeNQ@3@I@Z 0000000180056090     RTreeCooking.obj
 0002:0000d0a0       $chain$0$?recreate@?$Array@URTreeNodeNQ@physx@@V?$ReflectionAllocator@URTreeNodeNQ@physx@@@shdfnd@2@@shdfnd@physx@@IEAAXI@Z 00000001800560a0     RTreeCooking.obj
 0002:0000d0b4       $chain$1$?recreate@?$Array@URTreeNodeNQ@physx@@V?$ReflectionAllocator@URTreeNodeNQ@physx@@@shdfnd@2@@shdfnd@physx@@IEAAXI@Z 00000001800560b4     RTreeCooking.obj
 0002:0000d0c4       $unwind$??$quickSelectFirstK@UBoundsLTE@physx@@@quickSelect@physx@@YAXPEIAIIIIAEBUBoundsLTE@1@@Z 00000001800560c4     RTreeCooking.obj
 0002:0000d0dc       $unwind$?split@SubSortSAH@physx@@QEAAIPEAII@Z 00000001800560dc     RTreeCooking.obj
 0002:0000d0e8       $chain$3$?split@SubSortSAH@physx@@QEAAIPEAII@Z 00000001800560e8     RTreeCooking.obj
 0002:0000d108       $chain$6$?split@SubSortSAH@physx@@QEAAIPEAII@Z 0000000180056108     RTreeCooking.obj
 0002:0000d124       $chain$7$?split@SubSortSAH@physx@@QEAAIPEAII@Z 0000000180056124     RTreeCooking.obj
 0002:0000d124       $chain$9$?split@SubSortSAH@physx@@QEAAIPEAII@Z 0000000180056124     RTreeCooking.obj
 0002:0000d134       $chain$8$?split@SubSortSAH@physx@@QEAAIPEAII@Z 0000000180056134     RTreeCooking.obj
 0002:0000d150       $chain$10$?split@SubSortSAH@physx@@QEAAIPEAII@Z 0000000180056150     RTreeCooking.obj
 0002:0000d160       $unwind$?sort4@SubSortSAH@physx@@QEAAXPEAIIAEAV?$Array@URTreeNodeNQ@physx@@V?$ReflectionAllocator@URTreeNodeNQ@physx@@@shdfnd@2@@shdfnd@2@AEAIIPEAURTreeNodeNQ@2@@Z 0000000180056160     RTreeCooking.obj
 0002:0000d18c       $chain$1$?allocate@?$Array@UInterval@physx@@V?$InlineAllocator@$0CAAA@V?$ReflectionAllocator@UInterval@physx@@@shdfnd@physx@@@shdfnd@2@@shdfnd@physx@@IEAAPEAUInterval@3@I@Z 000000018005618c     RTreeCooking.obj
 0002:0000d1a4       $chain$3$?allocate@?$Array@UInterval@physx@@V?$InlineAllocator@$0CAAA@V?$ReflectionAllocator@UInterval@physx@@@shdfnd@physx@@@shdfnd@2@@shdfnd@physx@@IEAAPEAUInterval@3@I@Z 00000001800561a4     RTreeCooking.obj
 0002:0000d1b8       $chain$4$?allocate@?$Array@UInterval@physx@@V?$InlineAllocator@$0CAAA@V?$ReflectionAllocator@UInterval@physx@@@shdfnd@physx@@@shdfnd@2@@shdfnd@physx@@IEAAPEAUInterval@3@I@Z 00000001800561b8     RTreeCooking.obj
 0002:0000d1c8       $chain$1$?allocate@?$Array@URTreeNodeQ@Gu@physx@@V?$ReflectionAllocator@URTreeNodeQ@Gu@physx@@@shdfnd@3@@shdfnd@physx@@IEAAPEAURTreeNodeQ@Gu@3@I@Z 00000001800561c8     RTreeCooking.obj
 0002:0000d1e0       $chain$3$?allocate@?$Array@URTreeNodeQ@Gu@physx@@V?$ReflectionAllocator@URTreeNodeQ@Gu@physx@@@shdfnd@3@@shdfnd@physx@@IEAAPEAURTreeNodeQ@Gu@3@I@Z 00000001800561e0     RTreeCooking.obj
 0002:0000d1f4       $chain$4$?allocate@?$Array@URTreeNodeQ@Gu@physx@@V?$ReflectionAllocator@URTreeNodeQ@Gu@physx@@@shdfnd@3@@shdfnd@physx@@IEAAPEAURTreeNodeQ@Gu@3@I@Z 00000001800561f4     RTreeCooking.obj
 0002:0000d204       $chain$0$?recreate@?$Array@URTreeNodeQ@Gu@physx@@V?$ReflectionAllocator@URTreeNodeQ@Gu@physx@@@shdfnd@3@@shdfnd@physx@@IEAAXI@Z 0000000180056204     RTreeCooking.obj
 0002:0000d218       $chain$1$?recreate@?$Array@URTreeNodeQ@Gu@physx@@V?$ReflectionAllocator@URTreeNodeQ@Gu@physx@@@shdfnd@3@@shdfnd@physx@@IEAAXI@Z 0000000180056218     RTreeCooking.obj
 0002:0000d228       $unwind$??$sort@IU?$Less@I@shdfnd@physx@@V?$ReflectionAllocator@I@23@@shdfnd@physx@@YAXPEAIIAEBU?$Less@I@01@AEBV?$ReflectionAllocator@I@01@I@Z 0000000180056228     RTreeCooking.obj
 0002:0000d248       $unwind$??$sort@IUSortBoundsPredicate@physx@@V?$ReflectionAllocator@I@shdfnd@2@@shdfnd@physx@@YAXPEAIIAEBUSortBoundsPredicate@1@AEBV?$ReflectionAllocator@I@01@I@Z 0000000180056248     RTreeCooking.obj
 0002:0000d264       $unwind$??$smallSort@I$$CBUSortBoundsPredicate@physx@@@internal@shdfnd@physx@@YAXPEAIHHAEBUSortBoundsPredicate@2@@Z 0000000180056264     RTreeCooking.obj
 0002:0000d270       $chain$6$??$smallSort@I$$CBUSortBoundsPredicate@physx@@@internal@shdfnd@physx@@YAXPEAIHHAEBUSortBoundsPredicate@2@@Z 0000000180056270     RTreeCooking.obj
 0002:0000d29c       $chain$7$??$smallSort@I$$CBUSortBoundsPredicate@physx@@@internal@shdfnd@physx@@YAXPEAIHHAEBUSortBoundsPredicate@2@@Z 000000018005629c     RTreeCooking.obj
 0002:0000d2ac       $unwind$??0QuickHullConvexHullLib@physx@@QEAA@AEBVPxConvexMeshDesc@1@AEBUPxCookingParams@1@@Z 00000001800562ac     QuickHullConvexHullLib.obj
 0002:0000d2ac       $unwind$?allocateTriangles@TriangleMeshData@Gu@physx@@QEAAPEAXI_NI@Z 00000001800562ac     TriangleMeshBuilder.obj
 0002:0000d2c4       $chain$0$??$?_UG@@YAPEAX_KV?$ReflectionAllocator@G@shdfnd@physx@@PEBDH@Z 00000001800562c4     TriangleMeshBuilder.obj
 0002:0000d2d8       $chain$1$??$?_UG@@YAPEAX_KV?$ReflectionAllocator@G@shdfnd@physx@@PEBDH@Z 00000001800562d8     TriangleMeshBuilder.obj
 0002:0000d2e8       $chain$0$??1RTreeTriangleData@Gu@physx@@UEAA@XZ 00000001800562e8     TriangleMeshBuilder.obj
 0002:0000d2fc       $chain$1$??1RTreeTriangleData@Gu@physx@@UEAA@XZ 00000001800562fc     TriangleMeshBuilder.obj
 0002:0000d30c       $unwind$?cleanMesh@TriangleMeshBuilder@physx@@QEAA_N_NPEAW4Enum@PxTriangleMeshCookingResult@2@@Z 000000018005630c     TriangleMeshBuilder.obj
 0002:0000d320       $chain$0$?cleanMesh@TriangleMeshBuilder@physx@@QEAA_N_NPEAW4Enum@PxTriangleMeshCookingResult@2@@Z 0000000180056320     TriangleMeshBuilder.obj
 0002:0000d334       $chain$1$?cleanMesh@TriangleMeshBuilder@physx@@QEAA_N_NPEAW4Enum@PxTriangleMeshCookingResult@2@@Z 0000000180056334     TriangleMeshBuilder.obj
 0002:0000d348       $chain$2$?cleanMesh@TriangleMeshBuilder@physx@@QEAA_N_NPEAW4Enum@PxTriangleMeshCookingResult@2@@Z 0000000180056348     TriangleMeshBuilder.obj
 0002:0000d35c       $chain$3$?cleanMesh@TriangleMeshBuilder@physx@@QEAA_N_NPEAW4Enum@PxTriangleMeshCookingResult@2@@Z 000000018005635c     TriangleMeshBuilder.obj
 0002:0000d36c       $chain$7$?cleanMesh@TriangleMeshBuilder@physx@@QEAA_N_NPEAW4Enum@PxTriangleMeshCookingResult@2@@Z 000000018005636c     TriangleMeshBuilder.obj
 0002:0000d388       $chain$4$?cleanMesh@TriangleMeshBuilder@physx@@QEAA_N_NPEAW4Enum@PxTriangleMeshCookingResult@2@@Z 0000000180056388     TriangleMeshBuilder.obj
 0002:0000d398       $chain$8$?cleanMesh@TriangleMeshBuilder@physx@@QEAA_N_NPEAW4Enum@PxTriangleMeshCookingResult@2@@Z 0000000180056398     TriangleMeshBuilder.obj
 0002:0000d3a8       $unwind$?remapTopology@TriangleMeshBuilder@physx@@QEAAXPEBI@Z 00000001800563a8     TriangleMeshBuilder.obj
 0002:0000d3b4       $chain$4$?remapTopology@TriangleMeshBuilder@physx@@QEAAXPEBI@Z 00000001800563b4     TriangleMeshBuilder.obj
 0002:0000d3d8       $chain$5$?remapTopology@TriangleMeshBuilder@physx@@QEAAXPEBI@Z 00000001800563d8     TriangleMeshBuilder.obj
 0002:0000d3f8       $chain$6$?remapTopology@TriangleMeshBuilder@physx@@QEAAXPEBI@Z 00000001800563f8     TriangleMeshBuilder.obj
 0002:0000d408       $unwind$?createSharedEdgeData@TriangleMeshBuilder@physx@@QEAAX_N0@Z 0000000180056408     TriangleMeshBuilder.obj
 0002:0000d414       $chain$3$?createSharedEdgeData@TriangleMeshBuilder@physx@@QEAAX_N0@Z 0000000180056414     TriangleMeshBuilder.obj
 0002:0000d434       $chain$4$?createSharedEdgeData@TriangleMeshBuilder@physx@@QEAAX_N0@Z 0000000180056434     TriangleMeshBuilder.obj
 0002:0000d448       $chain$5$?createSharedEdgeData@TriangleMeshBuilder@physx@@QEAAX_N0@Z 0000000180056448     TriangleMeshBuilder.obj
 0002:0000d458       $chain$6$?createSharedEdgeData@TriangleMeshBuilder@physx@@QEAAX_N0@Z 0000000180056458     TriangleMeshBuilder.obj
 0002:0000d468       $unwind$?createGRBMidPhaseAndData@TriangleMeshBuilder@physx@@QEAAXI@Z 0000000180056468     TriangleMeshBuilder.obj
 0002:0000d474       $chain$0$?createGRBMidPhaseAndData@TriangleMeshBuilder@physx@@QEAAXI@Z 0000000180056474     TriangleMeshBuilder.obj
 0002:0000d488       $chain$4$?createGRBMidPhaseAndData@TriangleMeshBuilder@physx@@QEAAXI@Z 0000000180056488     TriangleMeshBuilder.obj
 0002:0000d4a8       $chain$5$?createGRBMidPhaseAndData@TriangleMeshBuilder@physx@@QEAAXI@Z 00000001800564a8     TriangleMeshBuilder.obj
 0002:0000d4c4       $chain$6$?createGRBMidPhaseAndData@TriangleMeshBuilder@physx@@QEAAXI@Z 00000001800564c4     TriangleMeshBuilder.obj
 0002:0000d4d8       $chain$7$?createGRBMidPhaseAndData@TriangleMeshBuilder@physx@@QEAAXI@Z 00000001800564d8     TriangleMeshBuilder.obj
 0002:0000d4ec       $chain$8$?createGRBMidPhaseAndData@TriangleMeshBuilder@physx@@QEAAXI@Z 00000001800564ec     TriangleMeshBuilder.obj
 0002:0000d4fc       $unwind$?loadFromDesc@TriangleMeshBuilder@physx@@QEAA_NAEBVPxTriangleMeshDesc@2@PEAW4Enum@PxTriangleMeshCookingResult@2@_N@Z 00000001800564fc     TriangleMeshBuilder.obj
 0002:0000d50c       $chain$2$?loadFromDesc@TriangleMeshBuilder@physx@@QEAA_NAEBVPxTriangleMeshDesc@2@PEAW4Enum@PxTriangleMeshCookingResult@2@_N@Z 000000018005650c     TriangleMeshBuilder.obj
 0002:0000d528       $chain$4$?loadFromDesc@TriangleMeshBuilder@physx@@QEAA_NAEBVPxTriangleMeshDesc@2@PEAW4Enum@PxTriangleMeshCookingResult@2@_N@Z 0000000180056528     TriangleMeshBuilder.obj
 0002:0000d544       $chain$5$?loadFromDesc@TriangleMeshBuilder@physx@@QEAA_NAEBVPxTriangleMeshDesc@2@PEAW4Enum@PxTriangleMeshCookingResult@2@_N@Z 0000000180056544     TriangleMeshBuilder.obj
 0002:0000d554       $unwind$?save@TriangleMeshBuilder@physx@@QEBA_NAEAVPxOutputStream@2@_NAEBUPxCookingParams@2@@Z 0000000180056554     TriangleMeshBuilder.obj
 0002:0000d570       $chain$3$?save@TriangleMeshBuilder@physx@@QEBA_NAEAVPxOutputStream@2@_NAEBUPxCookingParams@2@@Z 0000000180056570     TriangleMeshBuilder.obj
 0002:0000d584       $unwind$?checkMeshIndicesSize@TriangleMeshBuilder@physx@@QEAAXXZ 0000000180056584     TriangleMeshBuilder.obj
 0002:0000d590       $chain$1$?checkMeshIndicesSize@TriangleMeshBuilder@physx@@QEAAXXZ 0000000180056590     TriangleMeshBuilder.obj
 0002:0000d5a8       $chain$2$?checkMeshIndicesSize@TriangleMeshBuilder@physx@@QEAAXXZ 00000001800565a8     TriangleMeshBuilder.obj
 0002:0000d5bc       $chain$3$?checkMeshIndicesSize@TriangleMeshBuilder@physx@@QEAAXXZ 00000001800565bc     TriangleMeshBuilder.obj
 0002:0000d5cc       $chain$4$?checkMeshIndicesSize@TriangleMeshBuilder@physx@@QEAAXXZ 00000001800565cc     TriangleMeshBuilder.obj
 0002:0000d5dc       $unwind$?importMesh@TriangleMeshBuilder@physx@@IEAA_NAEBVPxTriangleMeshDesc@2@AEBUPxCookingParams@2@PEAW4Enum@PxTriangleMeshCookingResult@2@_N@Z 00000001800565dc     TriangleMeshBuilder.obj
 0002:0000d5f8       $unwind$?createMidPhaseStructure@RTreeTriangleMeshBuilder@physx@@UEAAXXZ 00000001800565f8     TriangleMeshBuilder.obj
 0002:0000d600       $unwind$?saveMidPhaseStructure@RTreeTriangleMeshBuilder@physx@@UEBAXAEAVPxOutputStream@2@_N@Z 0000000180056600     TriangleMeshBuilder.obj
 0002:0000d610       $chain$0$?saveMidPhaseStructure@RTreeTriangleMeshBuilder@physx@@UEBAXAEAVPxOutputStream@2@_N@Z 0000000180056610     TriangleMeshBuilder.obj
 0002:0000d624       $chain$1$?saveMidPhaseStructure@RTreeTriangleMeshBuilder@physx@@UEBAXAEAVPxOutputStream@2@_N@Z 0000000180056624     TriangleMeshBuilder.obj
 0002:0000d634       $unwind$?createMidPhaseStructure@BV4TriangleMeshBuilder@physx@@UEAAXXZ 0000000180056634     TriangleMeshBuilder.obj
 0002:0000d640       $chain$2$?createMidPhaseStructure@BV4TriangleMeshBuilder@physx@@UEAAXXZ 0000000180056640     TriangleMeshBuilder.obj
 0002:0000d65c       $chain$3$?createMidPhaseStructure@BV4TriangleMeshBuilder@physx@@UEAAXXZ 000000018005665c     TriangleMeshBuilder.obj
 0002:0000d670       $chain$4$?createMidPhaseStructure@BV4TriangleMeshBuilder@physx@@UEAAXXZ 0000000180056670     TriangleMeshBuilder.obj
 0002:0000d680       $chain$5$?createMidPhaseStructure@BV4TriangleMeshBuilder@physx@@UEAAXXZ 0000000180056680     TriangleMeshBuilder.obj
 0002:0000d694       $unwind$?createMidPhaseStructure@BV32TriangleMeshBuilder@physx@@SAXAEBUPxCookingParams@2@AEAVTriangleMeshData@Gu@2@AEAVBV32Tree@52@@Z 0000000180056694     TriangleMeshBuilder.obj
 0002:0000d6a4       $chain$0$?createMidPhaseStructure@BV32TriangleMeshBuilder@physx@@SAXAEBUPxCookingParams@2@AEAVTriangleMeshData@Gu@2@AEAVBV32Tree@52@@Z 00000001800566a4     TriangleMeshBuilder.obj
 0002:0000d6b8       $chain$1$?createMidPhaseStructure@BV32TriangleMeshBuilder@physx@@SAXAEBUPxCookingParams@2@AEAVTriangleMeshData@Gu@2@AEAVBV32Tree@52@@Z 00000001800566b8     TriangleMeshBuilder.obj
 0002:0000d6cc       $chain$2$?createMidPhaseStructure@BV32TriangleMeshBuilder@physx@@SAXAEBUPxCookingParams@2@AEAVTriangleMeshData@Gu@2@AEAVBV32Tree@52@@Z 00000001800566cc     TriangleMeshBuilder.obj
 0002:0000d6dc       $chain$3$?createMidPhaseStructure@BV32TriangleMeshBuilder@physx@@SAXAEBUPxCookingParams@2@AEAVTriangleMeshData@Gu@2@AEAVBV32Tree@52@@Z 00000001800566dc     TriangleMeshBuilder.obj
 0002:0000d6ec       $unwind$?findAdjacent@physx@@YAIPEBVPxVec3@1@0PEBUuint3@1@IIIAEBVPxPlane@1@PEAUEdgeTriLookup@1@I@Z 00000001800566ec     TriangleMeshBuilder.obj
 0002:0000d710       $unwind$?buildAdjacencies@physx@@YAXPEAUuint4@1@PEAVPxVec3@1@PEBV31@PEBUuint3@1@I@Z 0000000180056710     TriangleMeshBuilder.obj
 0002:0000d71c       $chain$3$?buildAdjacencies@physx@@YAXPEAUuint4@1@PEAVPxVec3@1@PEBV31@PEBUuint3@1@I@Z 000000018005671c     TriangleMeshBuilder.obj
 0002:0000d73c       $chain$7$?buildAdjacencies@physx@@YAXPEAUuint4@1@PEAVPxVec3@1@PEBV31@PEBUuint3@1@I@Z 000000018005673c     TriangleMeshBuilder.obj
 0002:0000d75c       $chain$11$?buildAdjacencies@physx@@YAXPEAUuint4@1@PEAVPxVec3@1@PEBV31@PEBUuint3@1@I@Z 000000018005675c     TriangleMeshBuilder.obj
 0002:0000d77c       $chain$12$?buildAdjacencies@physx@@YAXPEAUuint4@1@PEAVPxVec3@1@PEBV31@PEBUuint3@1@I@Z 000000018005677c     TriangleMeshBuilder.obj
 0002:0000d78c       $chain$13$?buildAdjacencies@physx@@YAXPEAUuint4@1@PEAVPxVec3@1@PEBV31@PEBUuint3@1@I@Z 000000018005678c     TriangleMeshBuilder.obj
 0002:0000d79c       $chain$14$?buildAdjacencies@physx@@YAXPEAUuint4@1@PEAVPxVec3@1@PEBV31@PEBUuint3@1@I@Z 000000018005679c     TriangleMeshBuilder.obj
 0002:0000d7ac       $unwind$??$sort@UEdgeTriLookup@physx@@U?$Less@UEdgeTriLookup@physx@@@shdfnd@2@V?$ReflectionAllocator@UEdgeTriLookup@physx@@@42@@shdfnd@physx@@YAXPEAUEdgeTriLookup@1@IAEBU?$Less@UEdgeTriLookup@physx@@@01@AEBV?$ReflectionAllocator@UEdgeTriLookup@physx@@@01@I@Z 00000001800567ac     TriangleMeshBuilder.obj
 0002:0000d7cc       $unwind$?precompute@BigConvexDataBuilder@physx@@QEAA_NI@Z 00000001800567cc     BigConvexDataBuilder.obj
 0002:0000d7e4       $chain$10$?precompute@BigConvexDataBuilder@physx@@QEAA_NI@Z 00000001800567e4     BigConvexDataBuilder.obj
 0002:0000d820       $chain$11$?precompute@BigConvexDataBuilder@physx@@QEAA_NI@Z 0000000180056820     BigConvexDataBuilder.obj
 0002:0000d830       $unwind$?save@BigConvexDataBuilder@physx@@QEBA_NAEAVPxOutputStream@2@_N@Z 0000000180056830     BigConvexDataBuilder.obj
 0002:0000d840       $chain$0$?save@BigConvexDataBuilder@physx@@QEBA_NAEAVPxOutputStream@2@_N@Z 0000000180056840     BigConvexDataBuilder.obj
 0002:0000d854       $chain$1$?save@BigConvexDataBuilder@physx@@QEBA_NAEAVPxOutputStream@2@_N@Z 0000000180056854     BigConvexDataBuilder.obj
 0002:0000d868       $chain$2$?save@BigConvexDataBuilder@physx@@QEBA_NAEAVPxOutputStream@2@_N@Z 0000000180056868     BigConvexDataBuilder.obj
 0002:0000d878       $chain$3$?save@BigConvexDataBuilder@physx@@QEBA_NAEAVPxOutputStream@2@_N@Z 0000000180056878     BigConvexDataBuilder.obj
 0002:0000d888       $unwind$?computeValencies@BigConvexDataBuilder@physx@@QEAA_NAEBVConvexHullBuilder@2@@Z 0000000180056888     BigConvexDataBuilder.obj
 0002:0000d89c       $chain$2$?computeValencies@BigConvexDataBuilder@physx@@QEAA_NAEBVConvexHullBuilder@2@@Z 000000018005689c     BigConvexDataBuilder.obj
 0002:0000d8b8       $chain$3$?computeValencies@BigConvexDataBuilder@physx@@QEAA_NAEBVConvexHullBuilder@2@@Z 00000001800568b8     BigConvexDataBuilder.obj
 0002:0000d8c8       $unwind$?init@ConvexHullBuilder@physx@@QEAA_NIPEBVPxVec3@2@PEBIIIPEBUPxHullPolygon@2@_NPEAVConvexHullLib@2@@Z 00000001800568c8     ConvexHullBuilder.obj
 0002:0000d8e0       $chain$0$?init@ConvexHullBuilder@physx@@QEAA_NIPEBVPxVec3@2@PEBIIIPEBUPxHullPolygon@2@_NPEAVConvexHullLib@2@@Z 00000001800568e0     ConvexHullBuilder.obj
 0002:0000d8f4       $chain$2$?init@ConvexHullBuilder@physx@@QEAA_NIPEBVPxVec3@2@PEBIIIPEBUPxHullPolygon@2@_NPEAVConvexHullLib@2@@Z 00000001800568f4     ConvexHullBuilder.obj
 0002:0000d90c       $chain$7$?init@ConvexHullBuilder@physx@@QEAA_NIPEBVPxVec3@2@PEBIIIPEBUPxHullPolygon@2@_NPEAVConvexHullLib@2@@Z 000000018005690c     ConvexHullBuilder.obj
 0002:0000d930       $chain$9$?init@ConvexHullBuilder@physx@@QEAA_NIPEBVPxVec3@2@PEBIIIPEBUPxHullPolygon@2@_NPEAVConvexHullLib@2@@Z 0000000180056930     ConvexHullBuilder.obj
 0002:0000d948       $chain$10$?init@ConvexHullBuilder@physx@@QEAA_NIPEBVPxVec3@2@PEBIIIPEBUPxHullPolygon@2@_NPEAVConvexHullLib@2@@Z 0000000180056948     ConvexHullBuilder.obj
 0002:0000d95c       $chain$11$?init@ConvexHullBuilder@physx@@QEAA_NIPEBVPxVec3@2@PEBIIIPEBUPxHullPolygon@2@_NPEAVConvexHullLib@2@@Z 000000018005695c     ConvexHullBuilder.obj
 0002:0000d96c       $chain$12$?init@ConvexHullBuilder@physx@@QEAA_NIPEBVPxVec3@2@PEBIIIPEBUPxHullPolygon@2@_NPEAVConvexHullLib@2@@Z 000000018005696c     ConvexHullBuilder.obj
 0002:0000d97c       $chain$13$?init@ConvexHullBuilder@physx@@QEAA_NIPEBVPxVec3@2@PEBIIIPEBUPxHullPolygon@2@_NPEAVConvexHullLib@2@@Z 000000018005697c     ConvexHullBuilder.obj
 0002:0000d98c       $chain$14$?init@ConvexHullBuilder@physx@@QEAA_NIPEBVPxVec3@2@PEBIIIPEBUPxHullPolygon@2@_NPEAVConvexHullLib@2@@Z 000000018005698c     ConvexHullBuilder.obj
 0002:0000d99c       $chain$15$?init@ConvexHullBuilder@physx@@QEAA_NIPEBVPxVec3@2@PEBIIIPEBUPxHullPolygon@2@_NPEAVConvexHullLib@2@@Z 000000018005699c     ConvexHullBuilder.obj
 0002:0000d9ac       $chain$16$?init@ConvexHullBuilder@physx@@QEAA_NIPEBVPxVec3@2@PEBIIIPEBUPxHullPolygon@2@_NPEAVConvexHullLib@2@@Z 00000001800569ac     ConvexHullBuilder.obj
 0002:0000d9c8       $chain$17$?init@ConvexHullBuilder@physx@@QEAA_NIPEBVPxVec3@2@PEBIIIPEBUPxHullPolygon@2@_NPEAVConvexHullLib@2@@Z 00000001800569c8     ConvexHullBuilder.obj
 0002:0000d9dc       $unwind$?save@ConvexHullBuilder@physx@@QEBA_NAEAVPxOutputStream@2@_N@Z 00000001800569dc     ConvexHullBuilder.obj
 0002:0000d9ec       $chain$0$?save@ConvexHullBuilder@physx@@QEBA_NAEAVPxOutputStream@2@_N@Z 00000001800569ec     ConvexHullBuilder.obj
 0002:0000da00       $chain$3$?save@ConvexHullBuilder@physx@@QEBA_NAEAVPxOutputStream@2@_N@Z 0000000180056a00     ConvexHullBuilder.obj
 0002:0000da1c       $chain$4$?save@ConvexHullBuilder@physx@@QEBA_NAEAVPxOutputStream@2@_N@Z 0000000180056a1c     ConvexHullBuilder.obj
 0002:0000da30       $chain$5$?save@ConvexHullBuilder@physx@@QEBA_NAEAVPxOutputStream@2@_N@Z 0000000180056a30     ConvexHullBuilder.obj
 0002:0000da40       $unwind$?copy@ConvexHullBuilder@physx@@QEAA_NAEAUConvexHullData@Gu@2@AEAI@Z 0000000180056a40     ConvexHullBuilder.obj
 0002:0000da40       $unwind$??$parse_integer@KV?$c_string_character_source@D@__crt_strtox@@$00@__crt_strtox@@YAKAEAV__crt_cached_ptd_host@@V?$c_string_character_source@D@0@H_N@Z 0000000180056a40     libucrt:atox.obj
 0002:0000da40       $unwind$??$copy_and_add_argument_to_buffer@D@@YAHQEBD0_KAEAV?$argument_list@D@?A0x5f5c8891@@@Z 0000000180056a40     libucrt:argv_wildcards.obj
 0002:0000da5c       $unwind$?createEdgeList@ConvexHullBuilder@physx@@QEAA_N_NI@Z 0000000180056a5c     ConvexHullBuilder.obj
 0002:0000da6c       $chain$4$?createEdgeList@ConvexHullBuilder@physx@@QEAA_N_NI@Z 0000000180056a6c     ConvexHullBuilder.obj
 0002:0000da90       $chain$6$?createEdgeList@ConvexHullBuilder@physx@@QEAA_N_NI@Z 0000000180056a90     ConvexHullBuilder.obj
 0002:0000dab4       $unwind$?checkHullPolygons@ConvexHullBuilder@physx@@QEBA_NXZ 0000000180056ab4     ConvexHullBuilder.obj
 0002:0000dac0       $chain$14$?checkHullPolygons@ConvexHullBuilder@physx@@QEBA_NXZ 0000000180056ac0     ConvexHullBuilder.obj
 0002:0000db0c       $chain$16$?checkHullPolygons@ConvexHullBuilder@physx@@QEBA_NXZ 0000000180056b0c     ConvexHullBuilder.obj
 0002:0000db58       $chain$17$?checkHullPolygons@ConvexHullBuilder@physx@@QEBA_NXZ 0000000180056b58     ConvexHullBuilder.obj
 0002:0000db68       $unwind$?calculateVertexMapTable@ConvexHullBuilder@physx@@QEAA_NI_N@Z 0000000180056b68     ConvexHullBuilder.obj
 0002:0000db84       $unwind$?computeGeomCenter@ConvexHullBuilder@physx@@IEBA_NAEAVPxVec3@2@IPEAUHullTriangleData@2@@Z 0000000180056b84     ConvexHullBuilder.obj
 0002:0000db8c       $chain$1$?computeGeomCenter@ConvexHullBuilder@physx@@IEBA_NAEAVPxVec3@2@IPEAUHullTriangleData@2@@Z 0000000180056b8c     ConvexHullBuilder.obj
 0002:0000dba4       $chain$10$?computeGeomCenter@ConvexHullBuilder@physx@@IEBA_NAEAVPxVec3@2@IPEAUHullTriangleData@2@@Z 0000000180056ba4     ConvexHullBuilder.obj
 0002:0000dbd8       $chain$11$?computeGeomCenter@ConvexHullBuilder@physx@@IEBA_NAEAVPxVec3@2@IPEAUHullTriangleData@2@@Z 0000000180056bd8     ConvexHullBuilder.obj
 0002:0000dbe8       $chain$12$?computeGeomCenter@ConvexHullBuilder@physx@@IEBA_NAEAVPxVec3@2@IPEAUHullTriangleData@2@@Z 0000000180056be8     ConvexHullBuilder.obj
 0002:0000dbf8       $chain$0$??$?_UE@@YAPEAX_KV?$ReflectionAllocator@E@shdfnd@physx@@PEBDH@Z 0000000180056bf8     ConvexHullBuilder.obj
 0002:0000dc0c       $chain$1$??$?_UE@@YAPEAX_KV?$ReflectionAllocator@E@shdfnd@physx@@PEBDH@Z 0000000180056c0c     ConvexHullBuilder.obj
 0002:0000dc1c       $unwind$?cleanupVertices@ConvexHullLib@physx@@IEAA_NIPEBVPxVec3@2@IAEAIPEAV32@AEAV32@3@Z 0000000180056c1c     ConvexHullLib.obj
 0002:0000dc44       $chain$6$?cleanupVertices@ConvexHullLib@physx@@IEAA_NIPEBVPxVec3@2@IAEAIPEAV32@AEAV32@3@Z 0000000180056c44     ConvexHullLib.obj
 0002:0000dc5c       $chain$12$?cleanupVertices@ConvexHullLib@physx@@IEAA_NIPEBVPxVec3@2@IAEAIPEAV32@AEAV32@3@Z 0000000180056c5c     ConvexHullLib.obj
 0002:0000dc84       $chain$13$?cleanupVertices@ConvexHullLib@physx@@IEAA_NIPEBVPxVec3@2@IAEAIPEAV32@AEAV32@3@Z 0000000180056c84     ConvexHullLib.obj
 0002:0000dc94       $chain$14$?cleanupVertices@ConvexHullLib@physx@@IEAA_NIPEBVPxVec3@2@IAEAIPEAV32@AEAV32@3@Z 0000000180056c94     ConvexHullLib.obj
 0002:0000dca4       $unwind$?shiftAndcleanupVertices@ConvexHullLib@physx@@IEAA_NIPEBVPxVec3@2@IAEAIPEAV32@AEAV32@3@Z 0000000180056ca4     ConvexHullLib.obj
 0002:0000dcb4       $chain$6$?shiftAndcleanupVertices@ConvexHullLib@physx@@IEAA_NIPEBVPxVec3@2@IAEAIPEAV32@AEAV32@3@Z 0000000180056cb4     ConvexHullLib.obj
 0002:0000dce0       $chain$7$?shiftAndcleanupVertices@ConvexHullLib@physx@@IEAA_NIPEBVPxVec3@2@IAEAIPEAV32@AEAV32@3@Z 0000000180056ce0     ConvexHullLib.obj
 0002:0000dd04       $chain$12$?shiftAndcleanupVertices@ConvexHullLib@physx@@IEAA_NIPEBVPxVec3@2@IAEAIPEAV32@AEAV32@3@Z 0000000180056d04     ConvexHullLib.obj
 0002:0000dd28       $chain$13$?shiftAndcleanupVertices@ConvexHullLib@physx@@IEAA_NIPEBVPxVec3@2@IAEAIPEAV32@AEAV32@3@Z 0000000180056d28     ConvexHullLib.obj
 0002:0000dd38       $chain$14$?shiftAndcleanupVertices@ConvexHullLib@physx@@IEAA_NIPEBVPxVec3@2@IAEAIPEAV32@AEAV32@3@Z 0000000180056d38     ConvexHullLib.obj
 0002:0000dd48       $unwind$?swapLargestFace@ConvexHullLib@physx@@IEAAXAEAVPxConvexMeshDesc@2@@Z 0000000180056d48     ConvexHullLib.obj
 0002:0000dd58       $chain$1$?swapLargestFace@ConvexHullLib@physx@@IEAAXAEAVPxConvexMeshDesc@2@@Z 0000000180056d58     ConvexHullLib.obj
 0002:0000dd70       $chain$2$?swapLargestFace@ConvexHullLib@physx@@IEAAXAEAVPxConvexMeshDesc@2@@Z 0000000180056d70     ConvexHullLib.obj
 0002:0000dd84       $chain$3$?swapLargestFace@ConvexHullLib@physx@@IEAAXAEAVPxConvexMeshDesc@2@@Z 0000000180056d84     ConvexHullLib.obj
 0002:0000dd94       $chain$4$?swapLargestFace@ConvexHullLib@physx@@IEAAXAEAVPxConvexMeshDesc@2@@Z 0000000180056d94     ConvexHullLib.obj
 0002:0000dda4       $unwind$?checkPointsAABBValidity@local@@YA_NIPEBVPxVec3@physx@@IMMAEAV23@1AEAIPEAV23@_N@Z 0000000180056da4     ConvexHullLib.obj
 0002:0000ddc0       $chain$5$?checkPointsAABBValidity@local@@YA_NIPEBVPxVec3@physx@@IMMAEAV23@1AEAIPEAV23@_N@Z 0000000180056dc0     ConvexHullLib.obj
 0002:0000dde8       $chain$6$?checkPointsAABBValidity@local@@YA_NIPEBVPxVec3@physx@@IMMAEAV23@1AEAIPEAV23@_N@Z 0000000180056de8     ConvexHullLib.obj
 0002:0000ddf8       $unwind$??0PxQuat@physx@@QEAA@AEBVPxMat33@1@@Z 0000000180056df8     ConvexHullUtils.obj
 0002:0000ddf8       $unwind$?UScore@UnDecorator@@SA?AUStringLiteral@@W4Tokens@@@Z 0000000180056df8     libvcruntime:undname.obj
 0002:0000de00       $chain$0$??0PxQuat@physx@@QEAA@AEBVPxMat33@1@@Z 0000000180056e00     ConvexHullUtils.obj
 0002:0000de14       $chain$1$??0PxQuat@physx@@QEAA@AEBVPxMat33@1@@Z 0000000180056e14     ConvexHullUtils.obj
 0002:0000de24       $unwind$?getInverse@PxMat33@physx@@QEBA?BV12@XZ 0000000180056e24     ConvexHullUtils.obj
 0002:0000de44       $chain$1$?getInverse@PxMat33@physx@@QEBA?BV12@XZ 0000000180056e44     ConvexHullUtils.obj
 0002:0000de5c       $chain$2$?getInverse@PxMat33@physx@@QEBA?BV12@XZ 0000000180056e5c     ConvexHullUtils.obj
 0002:0000de6c       $unwind$??0ConvexHull@physx@@QEAA@AEBVPxVec3@1@AEBVPxTransform@1@AEBV?$Array@VPxPlane@physx@@V?$ReflectionAllocator@VPxPlane@physx@@@shdfnd@2@@shdfnd@1@@Z 0000000180056e6c     ConvexHullUtils.obj
 0002:0000dea4       $unwind$?findCandidatePlane@ConvexHull@physx@@QEBAHMM@Z 0000000180056ea4     ConvexHullUtils.obj
 0002:0000debc       $chain$11$?findCandidatePlane@ConvexHull@physx@@QEBAHMM@Z 0000000180056ebc     ConvexHullUtils.obj
 0002:0000defc       $chain$12$?findCandidatePlane@ConvexHull@physx@@QEBAHMM@Z 0000000180056efc     ConvexHullUtils.obj
 0002:0000df0c       $chain$13$?findCandidatePlane@ConvexHull@physx@@QEBAHMM@Z 0000000180056f0c     ConvexHullUtils.obj
 0002:0000df4c       $unwind$?assertIntact@ConvexHull@physx@@QEBA_NM@Z 0000000180056f4c     ConvexHullUtils.obj
 0002:0000df90       $unwind$?maxNumVertsPerFace@ConvexHull@physx@@QEBAIXZ 0000000180056f90     ConvexHullUtils.obj
 0002:0000df9c       $chain$0$?maxNumVertsPerFace@ConvexHull@physx@@QEBAIXZ 0000000180056f9c     ConvexHullUtils.obj
 0002:0000dfb0       $chain$1$?maxNumVertsPerFace@ConvexHull@physx@@QEBAIXZ 0000000180056fb0     ConvexHullUtils.obj
 0002:0000dfc0       $chain$1$?allocate@?$Array@VHalfEdge@ConvexHull@physx@@V?$ReflectionAllocator@VHalfEdge@ConvexHull@physx@@@shdfnd@3@@shdfnd@physx@@IEAAPEAVHalfEdge@ConvexHull@3@I@Z 0000000180056fc0     ConvexHullUtils.obj
 0002:0000dfd8       $chain$3$?allocate@?$Array@VHalfEdge@ConvexHull@physx@@V?$ReflectionAllocator@VHalfEdge@ConvexHull@physx@@@shdfnd@3@@shdfnd@physx@@IEAAPEAVHalfEdge@ConvexHull@3@I@Z 0000000180056fd8     ConvexHullUtils.obj
 0002:0000dfec       $chain$4$?allocate@?$Array@VHalfEdge@ConvexHull@physx@@V?$ReflectionAllocator@VHalfEdge@ConvexHull@physx@@@shdfnd@3@@shdfnd@physx@@IEAAPEAVHalfEdge@ConvexHull@3@I@Z 0000000180056fec     ConvexHullUtils.obj
 0002:0000dffc       $chain$0$?recreate@?$Array@VHalfEdge@ConvexHull@physx@@V?$ReflectionAllocator@VHalfEdge@ConvexHull@physx@@@shdfnd@3@@shdfnd@physx@@IEAAXI@Z 0000000180056ffc     ConvexHullUtils.obj
 0002:0000e010       $chain$1$?recreate@?$Array@VHalfEdge@ConvexHull@physx@@V?$ReflectionAllocator@VHalfEdge@ConvexHull@physx@@@shdfnd@3@@shdfnd@physx@@IEAAXI@Z 0000000180057010     ConvexHullUtils.obj
 0002:0000e020       $chain$1$?allocate@?$Array@VPxPlane@physx@@V?$ReflectionAllocator@VPxPlane@physx@@@shdfnd@2@@shdfnd@physx@@IEAAPEAVPxPlane@3@I@Z 0000000180057020     ConvexHullUtils.obj
 0002:0000e038       $chain$3$?allocate@?$Array@VPxPlane@physx@@V?$ReflectionAllocator@VPxPlane@physx@@@shdfnd@2@@shdfnd@physx@@IEAAPEAVPxPlane@3@I@Z 0000000180057038     ConvexHullUtils.obj
 0002:0000e04c       $chain$4$?allocate@?$Array@VPxPlane@physx@@V?$ReflectionAllocator@VPxPlane@physx@@@shdfnd@2@@shdfnd@physx@@IEAAPEAVPxPlane@3@I@Z 000000018005704c     ConvexHullUtils.obj
 0002:0000e05c       $chain$0$?recreate@?$Array@VPxPlane@physx@@V?$ReflectionAllocator@VPxPlane@physx@@@shdfnd@2@@shdfnd@physx@@IEAAXI@Z 000000018005705c     ConvexHullUtils.obj
 0002:0000e070       $chain$1$?recreate@?$Array@VPxPlane@physx@@V?$ReflectionAllocator@VPxPlane@physx@@@shdfnd@2@@shdfnd@physx@@IEAAXI@Z 0000000180057070     ConvexHullUtils.obj
 0002:0000e080       $unwind$?convexHullCrop@physx@@YAPEAVConvexHull@1@AEBV21@AEBVPxPlane@1@M@Z 0000000180057080     ConvexHullUtils.obj
 0002:0000e090       $chain$5$?convexHullCrop@physx@@YAPEAVConvexHull@1@AEBV21@AEBVPxPlane@1@M@Z 0000000180057090     ConvexHullUtils.obj
 0002:0000e0b8       $chain$6$?convexHullCrop@physx@@YAPEAVConvexHull@1@AEBV21@AEBVPxPlane@1@M@Z 00000001800570b8     ConvexHullUtils.obj
 0002:0000e0cc       $chain$7$?convexHullCrop@physx@@YAPEAVConvexHull@1@AEBV21@AEBVPxPlane@1@M@Z 00000001800570cc     ConvexHullUtils.obj
 0002:0000e0cc       $chain$9$?convexHullCrop@physx@@YAPEAVConvexHull@1@AEBV21@AEBVPxPlane@1@M@Z 00000001800570cc     ConvexHullUtils.obj
 0002:0000e0dc       $chain$8$?convexHullCrop@physx@@YAPEAVConvexHull@1@AEBV21@AEBVPxPlane@1@M@Z 00000001800570dc     ConvexHullUtils.obj
 0002:0000e0f0       $chain$10$?convexHullCrop@physx@@YAPEAVConvexHull@1@AEBV21@AEBVPxPlane@1@M@Z 00000001800570f0     ConvexHullUtils.obj
 0002:0000e100       $unwind$?computeOBBFromConvex@physx@@YA_NAEBVPxConvexMeshDesc@1@AEAVPxVec3@1@AEAVPxTransform@1@@Z 0000000180057100     ConvexHullUtils.obj
 0002:0000e124       $chain$4$?computeOBBFromConvex@physx@@YA_NAEBVPxConvexMeshDesc@1@AEAVPxVec3@1@AEAVPxTransform@1@@Z 0000000180057124     ConvexHullUtils.obj
 0002:0000e148       $chain$5$?computeOBBFromConvex@physx@@YA_NAEBVPxConvexMeshDesc@1@AEAVPxVec3@1@AEAVPxTransform@1@@Z 0000000180057148     ConvexHullUtils.obj
 0002:0000e158       $unwind$?rotate@Box@Gu@physx@@QEBA?AVPxVec3@3@AEBV43@@Z 0000000180057158     ConvexHullUtils.obj
 0002:0000e164       $unwind$?rotateInv@Box@Gu@physx@@QEBA?AVPxVec3@3@AEBV43@@Z 0000000180057164     ConvexHullUtils.obj
 0002:0000e164       $unwind$?transform@Box@Gu@physx@@QEBA?AVPxVec3@3@AEBV43@@Z 0000000180057164     ConvexHullUtils.obj
 0002:0000e170       $unwind$?computeAABBExtent@Box@Gu@physx@@QEBA?AVPxVec3@3@XZ 0000000180057170     ConvexHullUtils.obj
 0002:0000e17c       $unwind$?computeOBBSIMD@local@@YAXIPEBT__m128@@AEAT2@AEBT2@1@Z 000000018005717c     ConvexHullUtils.obj
 0002:0000e1a8       $chain$1$?computeOBBSIMD@local@@YAXIPEBT__m128@@AEAT2@AEBT2@1@Z 00000001800571a8     ConvexHullUtils.obj
 0002:0000e1c0       $chain$2$?computeOBBSIMD@local@@YAXIPEBT__m128@@AEAT2@AEBT2@1@Z 00000001800571c0     ConvexHullUtils.obj
 0002:0000e1d0       $unwind$?build@ConvexMeshBuilder@physx@@QEAA_NAEBVPxConvexMeshDesc@2@I_NPEAVConvexHullLib@2@@Z 00000001800571d0     ConvexMeshBuilder.obj
 0002:0000e1e0       $chain$0$?build@ConvexMeshBuilder@physx@@QEAA_NAEBVPxConvexMeshDesc@2@I_NPEAVConvexHullLib@2@@Z 00000001800571e0     ConvexMeshBuilder.obj
 0002:0000e1f4       $chain$2$?build@ConvexMeshBuilder@physx@@QEAA_NAEBVPxConvexMeshDesc@2@I_NPEAVConvexHullLib@2@@Z 00000001800571f4     ConvexMeshBuilder.obj
 0002:0000e20c       $chain$3$?build@ConvexMeshBuilder@physx@@QEAA_NAEBVPxConvexMeshDesc@2@I_NPEAVConvexHullLib@2@@Z 000000018005720c     ConvexMeshBuilder.obj
 0002:0000e21c       $chain$4$?build@ConvexMeshBuilder@physx@@QEAA_NAEBVPxConvexMeshDesc@2@I_NPEAVConvexHullLib@2@@Z 000000018005721c     ConvexMeshBuilder.obj
 0002:0000e22c       $unwind$?save@ConvexMeshBuilder@physx@@QEBA_NAEAVPxOutputStream@2@_N@Z 000000018005722c     ConvexMeshBuilder.obj
 0002:0000e23c       $chain$0$?save@ConvexMeshBuilder@physx@@QEBA_NAEAVPxOutputStream@2@_N@Z 000000018005723c     ConvexMeshBuilder.obj
 0002:0000e250       $chain$1$?save@ConvexMeshBuilder@physx@@QEBA_NAEAVPxOutputStream@2@_N@Z 0000000180057250     ConvexMeshBuilder.obj
 0002:0000e260       $unwind$?loadConvexHull@ConvexMeshBuilder@physx@@QEAA_NAEBVPxConvexMeshDesc@2@PEAVConvexHullLib@2@@Z 0000000180057260     ConvexMeshBuilder.obj
 0002:0000e280       $unwind$?computeHullPolygons@ConvexMeshBuilder@physx@@QEAA_NAEBIPEBVPxVec3@2@0PEBIAEAVPxAllocatorCallback@2@AEAIAEAPEAV32@4AEAPEAI4AEAPEAUPxHullPolygon@2@@Z 0000000180057280     ConvexMeshBuilder.obj
 0002:0000e28c       $chain$3$?computeHullPolygons@ConvexMeshBuilder@physx@@QEAA_NAEBIPEBVPxVec3@2@0PEBIAEAVPxAllocatorCallback@2@AEAIAEAPEAV32@4AEAPEAI4AEAPEAUPxHullPolygon@2@@Z 000000018005728c     ConvexMeshBuilder.obj
 0002:0000e2a8       $chain$4$?computeHullPolygons@ConvexMeshBuilder@physx@@QEAA_NAEBIPEBVPxVec3@2@0PEBIAEAVPxAllocatorCallback@2@AEAIAEAPEAV32@4AEAPEAI4AEAPEAUPxHullPolygon@2@@Z 00000001800572a8     ConvexMeshBuilder.obj
 0002:0000e2bc       $unwind$?computeMassInfo@ConvexMeshBuilder@physx@@QEAAX_N@Z 00000001800572bc     ConvexMeshBuilder.obj
 0002:0000e2cc       $chain$0$?computeMassInfo@ConvexMeshBuilder@physx@@QEAAX_N@Z 00000001800572cc     ConvexMeshBuilder.obj
 0002:0000e2e0       $chain$1$?computeMassInfo@ConvexMeshBuilder@physx@@QEAAX_N@Z 00000001800572e0     ConvexMeshBuilder.obj
 0002:0000e2f4       $chain$5$?computeMassInfo@ConvexMeshBuilder@physx@@QEAAX_N@Z 00000001800572f4     ConvexMeshBuilder.obj
 0002:0000e314       $chain$6$?computeMassInfo@ConvexMeshBuilder@physx@@QEAAX_N@Z 0000000180057314     ConvexMeshBuilder.obj
 0002:0000e324       $chain$7$?computeMassInfo@ConvexMeshBuilder@physx@@QEAAX_N@Z 0000000180057324     ConvexMeshBuilder.obj
 0002:0000e334       $chain$8$?computeMassInfo@ConvexMeshBuilder@physx@@QEAAX_N@Z 0000000180057334     ConvexMeshBuilder.obj
 0002:0000e344       $unwind$?ComputeInternalExtent@@YAXAEAUConvexHullData@Gu@physx@@PEBUHullPolygonData@23@@Z 0000000180057344     ConvexMeshBuilder.obj
 0002:0000e370       $chain$0$?ComputeInternalExtent@@YAXAEAUConvexHullData@Gu@physx@@PEBUHullPolygonData@23@@Z 0000000180057370     ConvexMeshBuilder.obj
 0002:0000e384       $chain$1$?ComputeInternalExtent@@YAXAEAUConvexHullData@Gu@physx@@PEBUHullPolygonData@23@@Z 0000000180057384     ConvexMeshBuilder.obj
 0002:0000e394       $unwind$?computeHullPolygons@ConvexPolygonsBuilder@physx@@QEAA_NAEBIPEBVPxVec3@2@0PEBI@Z 0000000180057394     ConvexPolygonsBuilder.obj
 0002:0000e3b8       $chain$0$?computeHullPolygons@ConvexPolygonsBuilder@physx@@QEAA_NAEBIPEBVPxVec3@2@0PEBI@Z 00000001800573b8     ConvexPolygonsBuilder.obj
 0002:0000e3cc       $chain$8$?computeHullPolygons@ConvexPolygonsBuilder@physx@@QEAA_NAEBIPEBVPxVec3@2@0PEBI@Z 00000001800573cc     ConvexPolygonsBuilder.obj
 0002:0000e3fc       $chain$9$?computeHullPolygons@ConvexPolygonsBuilder@physx@@QEAA_NAEBIPEBVPxVec3@2@0PEBI@Z 00000001800573fc     ConvexPolygonsBuilder.obj
 0002:0000e42c       $unwind$?createPolygonData@ConvexPolygonsBuilder@physx@@AEAA_NXZ 000000018005742c     ConvexPolygonsBuilder.obj
 0002:0000e43c       $chain$0$?createPolygonData@ConvexPolygonsBuilder@physx@@AEAA_NXZ 000000018005743c     ConvexPolygonsBuilder.obj
 0002:0000e450       $chain$6$?createPolygonData@ConvexPolygonsBuilder@physx@@AEAA_NXZ 0000000180057450     ConvexPolygonsBuilder.obj
 0002:0000e478       $chain$7$?createPolygonData@ConvexPolygonsBuilder@physx@@AEAA_NXZ 0000000180057478     ConvexPolygonsBuilder.obj
 0002:0000e488       $chain$8$?createPolygonData@ConvexPolygonsBuilder@physx@@AEAA_NXZ 0000000180057488     ConvexPolygonsBuilder.obj
 0002:0000e498       $chain$9$?createPolygonData@ConvexPolygonsBuilder@physx@@AEAA_NXZ 0000000180057498     ConvexPolygonsBuilder.obj
 0002:0000e4c4       $chain$17$?createPolygonData@ConvexPolygonsBuilder@physx@@AEAA_NXZ 00000001800574c4     ConvexPolygonsBuilder.obj
 0002:0000e4f4       $chain$18$?createPolygonData@ConvexPolygonsBuilder@physx@@AEAA_NXZ 00000001800574f4     ConvexPolygonsBuilder.obj
 0002:0000e504       $unwind$?createTrianglesFromPolygons@ConvexPolygonsBuilder@physx@@AEAA_NXZ 0000000180057504     ConvexPolygonsBuilder.obj
 0002:0000e528       $chain$3$?createTrianglesFromPolygons@ConvexPolygonsBuilder@physx@@AEAA_NXZ 0000000180057528     ConvexPolygonsBuilder.obj
 0002:0000e548       $chain$4$?createTrianglesFromPolygons@ConvexPolygonsBuilder@physx@@AEAA_NXZ 0000000180057548     ConvexPolygonsBuilder.obj
 0002:0000e558       $unwind$?findLineStrip@@YA_NAEAV?$Array@IV?$ReflectionAllocator@I@shdfnd@physx@@@shdfnd@physx@@AEBV?$Array@VPair@@V?$ReflectionAllocator@VPair@@@shdfnd@physx@@@23@@Z 0000000180057558     ConvexPolygonsBuilder.obj
 0002:0000e564       $chain$3$?findLineStrip@@YA_NAEAV?$Array@IV?$ReflectionAllocator@I@shdfnd@physx@@@shdfnd@physx@@AEBV?$Array@VPair@@V?$ReflectionAllocator@VPair@@@shdfnd@physx@@@23@@Z 0000000180057564     ConvexPolygonsBuilder.obj
 0002:0000e584       $chain$5$?findLineStrip@@YA_NAEAV?$Array@IV?$ReflectionAllocator@I@shdfnd@physx@@@shdfnd@physx@@AEBV?$Array@VPair@@V?$ReflectionAllocator@VPair@@@shdfnd@physx@@@23@@Z 0000000180057584     ConvexPolygonsBuilder.obj
 0002:0000e59c       $chain$6$?findLineStrip@@YA_NAEAV?$Array@IV?$ReflectionAllocator@I@shdfnd@physx@@@shdfnd@physx@@AEBV?$Array@VPair@@V?$ReflectionAllocator@VPair@@@shdfnd@physx@@@23@@Z 000000018005759c     ConvexPolygonsBuilder.obj
 0002:0000e5ac       $chain$7$?findLineStrip@@YA_NAEAV?$Array@IV?$ReflectionAllocator@I@shdfnd@physx@@@shdfnd@physx@@AEBV?$Array@VPair@@V?$ReflectionAllocator@VPair@@@shdfnd@physx@@@23@@Z 00000001800575ac     ConvexPolygonsBuilder.obj
 0002:0000e5d4       $chain$1$?allocate@?$Array@VPair@@V?$ReflectionAllocator@VPair@@@shdfnd@physx@@@shdfnd@physx@@IEAAPEAVPair@@I@Z 00000001800575d4     ConvexPolygonsBuilder.obj
 0002:0000e5ec       $chain$3$?allocate@?$Array@VPair@@V?$ReflectionAllocator@VPair@@@shdfnd@physx@@@shdfnd@physx@@IEAAPEAVPair@@I@Z 00000001800575ec     ConvexPolygonsBuilder.obj
 0002:0000e600       $chain$4$?allocate@?$Array@VPair@@V?$ReflectionAllocator@VPair@@@shdfnd@physx@@@shdfnd@physx@@IEAAPEAVPair@@I@Z 0000000180057600     ConvexPolygonsBuilder.obj
 0002:0000e610       $unwind$?TestDuplicateTriangles@@YA_NAEAIPEAU?$TriangleT@I@Gu@physx@@_N@Z 0000000180057610     ConvexPolygonsBuilder.obj
 0002:0000e62c       $unwind$?checkRedundantVertices@@YAXAEAIAEAV?$Array@IV?$ReflectionAllocator@I@shdfnd@physx@@@shdfnd@physx@@AEBVConvexPolygonsBuilder@3@11@Z 000000018005762c     ConvexPolygonsBuilder.obj
 0002:0000e648       $unwind$?extractHullPolygons@@YA_NAEAIAEAV?$Array@IV?$ReflectionAllocator@I@shdfnd@physx@@@shdfnd@physx@@AEBVConvexPolygonsBuilder@3@PEAV123@1@Z 0000000180057648     ConvexPolygonsBuilder.obj
 0002:0000e664       $unwind$?FloodFill@Local@?7??extractHullPolygons@@YA_NAEAIAEAV?$Array@IV?$ReflectionAllocator@I@shdfnd@physx@@@shdfnd@physx@@AEBVConvexPolygonsBuilder@5@PEAV345@1@Z@SAX1PEBVAdjTriangle@5@IPEA_N@Z 0000000180057664     ConvexPolygonsBuilder.obj
 0002:0000e674       $chain$0$?FloodFill@Local@?7??extractHullPolygons@@YA_NAEAIAEAV?$Array@IV?$ReflectionAllocator@I@shdfnd@physx@@@shdfnd@physx@@AEBVConvexPolygonsBuilder@5@PEAV345@1@Z@SAX1PEBVAdjTriangle@5@IPEA_N@Z 0000000180057674     ConvexPolygonsBuilder.obj
 0002:0000e688       $chain$1$?FloodFill@Local@?7??extractHullPolygons@@YA_NAEAIAEAV?$Array@IV?$ReflectionAllocator@I@shdfnd@physx@@@shdfnd@physx@@AEBVConvexPolygonsBuilder@5@PEAV345@1@Z@SAX1PEBVAdjTriangle@5@IPEA_N@Z 0000000180057688     ConvexPolygonsBuilder.obj
 0002:0000e698       $unwind$?CheckFloodFillFace@Local@?7??extractHullPolygons@@YA_NAEAIAEAV?$Array@IV?$ReflectionAllocator@I@shdfnd@physx@@@shdfnd@physx@@AEBVConvexPolygonsBuilder@5@PEAV345@1@Z@SA_NIPEBVAdjTriangle@5@PEBI@Z 0000000180057698     ConvexPolygonsBuilder.obj
 0002:0000e6b0       $unwind$?createConvexHull@QuickHullConvexHullLib@physx@@UEAA?AW4Enum@PxConvexMeshCookingResult@2@XZ 00000001800576b0     QuickHullConvexHullLib.obj
 0002:0000e6c8       $unwind$?createEdgeList@QuickHullConvexHullLib@physx@@UEAA_NIPEBEPEAPEAEPEAPEAG2@Z 00000001800576c8     QuickHullConvexHullLib.obj
 0002:0000e6e8       $unwind$?expandHullOBB@QuickHullConvexHullLib@physx@@IEAA?AW4Enum@PxConvexMeshCookingResult@2@XZ 00000001800576e8     QuickHullConvexHullLib.obj
 0002:0000e6f4       $chain$4$?expandHullOBB@QuickHullConvexHullLib@physx@@IEAA?AW4Enum@PxConvexMeshCookingResult@2@XZ 00000001800576f4     QuickHullConvexHullLib.obj
 0002:0000e718       $chain$5$?expandHullOBB@QuickHullConvexHullLib@physx@@IEAA?AW4Enum@PxConvexMeshCookingResult@2@XZ 0000000180057718     QuickHullConvexHullLib.obj
 0002:0000e72c       $chain$6$?expandHullOBB@QuickHullConvexHullLib@physx@@IEAA?AW4Enum@PxConvexMeshCookingResult@2@XZ 000000018005772c     QuickHullConvexHullLib.obj
 0002:0000e73c       $chain$7$?expandHullOBB@QuickHullConvexHullLib@physx@@IEAA?AW4Enum@PxConvexMeshCookingResult@2@XZ 000000018005773c     QuickHullConvexHullLib.obj
 0002:0000e74c       $unwind$?expandHull@QuickHullConvexHullLib@physx@@IEAA?AW4Enum@PxConvexMeshCookingResult@2@XZ 000000018005774c     QuickHullConvexHullLib.obj
 0002:0000e770       $unwind$?cleanupForSimplex@QuickHullConvexHullLib@physx@@IEAA_NPEAVPxVec3@2@IPEAUQuickHullVertex@local@@1AEAM2@Z 0000000180057770     QuickHullConvexHullLib.obj
 0002:0000e794       $chain$4$?cleanupForSimplex@QuickHullConvexHullLib@physx@@IEAA_NPEAVPxVec3@2@IPEAUQuickHullVertex@local@@1AEAM2@Z 0000000180057794     QuickHullConvexHullLib.obj
 0002:0000e7b8       $chain$6$?cleanupForSimplex@QuickHullConvexHullLib@physx@@IEAA_NPEAVPxVec3@2@IPEAUQuickHullVertex@local@@1AEAM2@Z 00000001800577b8     QuickHullConvexHullLib.obj
 0002:0000e7d0       $chain$7$?cleanupForSimplex@QuickHullConvexHullLib@physx@@IEAA_NPEAVPxVec3@2@IPEAUQuickHullVertex@local@@1AEAM2@Z 00000001800577d0     QuickHullConvexHullLib.obj
 0002:0000e7e4       $chain$8$?cleanupForSimplex@QuickHullConvexHullLib@physx@@IEAA_NPEAVPxVec3@2@IPEAUQuickHullVertex@local@@1AEAM2@Z 00000001800577e4     QuickHullConvexHullLib.obj
 0002:0000e7f8       $chain$9$?cleanupForSimplex@QuickHullConvexHullLib@physx@@IEAA_NPEAVPxVec3@2@IPEAUQuickHullVertex@local@@1AEAM2@Z 00000001800577f8     QuickHullConvexHullLib.obj
 0002:0000e808       $chain$10$?cleanupForSimplex@QuickHullConvexHullLib@physx@@IEAA_NPEAVPxVec3@2@IPEAUQuickHullVertex@local@@1AEAM2@Z 0000000180057808     QuickHullConvexHullLib.obj
 0002:0000e818       $chain$11$?cleanupForSimplex@QuickHullConvexHullLib@physx@@IEAA_NPEAVPxVec3@2@IPEAUQuickHullVertex@local@@1AEAM2@Z 0000000180057818     QuickHullConvexHullLib.obj
 0002:0000e828       $chain$12$?cleanupForSimplex@QuickHullConvexHullLib@physx@@IEAA_NPEAVPxVec3@2@IPEAUQuickHullVertex@local@@1AEAM2@Z 0000000180057828     QuickHullConvexHullLib.obj
 0002:0000e838       $unwind$?fillConvexMeshDescFromQuickHull@QuickHullConvexHullLib@physx@@IEAAXAEAVPxConvexMeshDesc@2@@Z 0000000180057838     QuickHullConvexHullLib.obj
 0002:0000e850       $unwind$?fillConvexMeshDescFromCroppedHull@QuickHullConvexHullLib@physx@@IEAAXAEAVPxConvexMeshDesc@2@@Z 0000000180057850     QuickHullConvexHullLib.obj
 0002:0000e868       $chain$0$??_GConvexHull@physx@@QEAAPEAXI@Z 0000000180057868     QuickHullConvexHullLib.obj
 0002:0000e87c       $chain$1$??_GConvexHull@physx@@QEAAPEAXI@Z 000000018005787c     QuickHullConvexHullLib.obj
 0002:0000e88c       $unwind$?mergeAdjacentFace@QuickHullFace@local@@QEAA_NPEAUQuickHullHalfEdge@2@AEAV?$Array@PEAUQuickHullFace@local@@V?$ReflectionAllocator@PEAUQuickHullFace@local@@@shdfnd@physx@@@shdfnd@physx@@@Z 000000018005788c     QuickHullConvexHullLib.obj
 0002:0000e8a4       $chain$4$?mergeAdjacentFace@QuickHullFace@local@@QEAA_NPEAUQuickHullHalfEdge@2@AEAV?$Array@PEAUQuickHullFace@local@@V?$ReflectionAllocator@PEAUQuickHullFace@local@@@shdfnd@physx@@@shdfnd@physx@@@Z 00000001800578a4     QuickHullConvexHullLib.obj
 0002:0000e8c8       $chain$5$?mergeAdjacentFace@QuickHullFace@local@@QEAA_NPEAUQuickHullHalfEdge@2@AEAV?$Array@PEAUQuickHullFace@local@@V?$ReflectionAllocator@PEAUQuickHullFace@local@@@shdfnd@physx@@@shdfnd@physx@@@Z 00000001800578c8     QuickHullConvexHullLib.obj
 0002:0000e8c8       $chain$8$?mergeAdjacentFace@QuickHullFace@local@@QEAA_NPEAUQuickHullHalfEdge@2@AEAV?$Array@PEAUQuickHullFace@local@@V?$ReflectionAllocator@PEAUQuickHullFace@local@@@shdfnd@physx@@@shdfnd@physx@@@Z 00000001800578c8     QuickHullConvexHullLib.obj
 0002:0000e8d8       $chain$6$?mergeAdjacentFace@QuickHullFace@local@@QEAA_NPEAUQuickHullHalfEdge@2@AEAV?$Array@PEAUQuickHullFace@local@@V?$ReflectionAllocator@PEAUQuickHullFace@local@@@shdfnd@physx@@@shdfnd@physx@@@Z 00000001800578d8     QuickHullConvexHullLib.obj
 0002:0000e8fc       $chain$7$?mergeAdjacentFace@QuickHullFace@local@@QEAA_NPEAUQuickHullHalfEdge@2@AEAV?$Array@PEAUQuickHullFace@local@@V?$ReflectionAllocator@PEAUQuickHullFace@local@@@shdfnd@physx@@@shdfnd@physx@@@Z 00000001800578fc     QuickHullConvexHullLib.obj
 0002:0000e910       $unwind$?connectHalfEdges@QuickHullFace@local@@AEAAPEAU12@PEAUQuickHullHalfEdge@2@0@Z 0000000180057910     QuickHullConvexHullLib.obj
 0002:0000e918       $chain$0$?connectHalfEdges@QuickHullFace@local@@AEAAPEAU12@PEAUQuickHullHalfEdge@2@0@Z 0000000180057918     QuickHullConvexHullLib.obj
 0002:0000e92c       $chain$4$?connectHalfEdges@QuickHullFace@local@@AEAAPEAU12@PEAUQuickHullHalfEdge@2@0@Z 000000018005792c     QuickHullConvexHullLib.obj
 0002:0000e94c       $chain$5$?connectHalfEdges@QuickHullFace@local@@AEAAPEAU12@PEAUQuickHullHalfEdge@2@0@Z 000000018005794c     QuickHullConvexHullLib.obj
 0002:0000e95c       $chain$6$?connectHalfEdges@QuickHullFace@local@@AEAAPEAU12@PEAUQuickHullHalfEdge@2@0@Z 000000018005795c     QuickHullConvexHullLib.obj
 0002:0000e96c       $unwind$?parseInputVertices@QuickHull@local@@QEAAXPEBVPxVec3@physx@@I@Z 000000018005796c     QuickHullConvexHullLib.obj
 0002:0000e97c       $chain$0$?parseInputVertices@QuickHull@local@@QEAAXPEBVPxVec3@physx@@I@Z 000000018005797c     QuickHullConvexHullLib.obj
 0002:0000e990       $chain$1$?parseInputVertices@QuickHull@local@@QEAAXPEBVPxVec3@physx@@I@Z 0000000180057990     QuickHullConvexHullLib.obj
 0002:0000e9a0       $unwind$?buildHull@QuickHull@local@@QEAA?AW4Enum@QuickHullResult@2@XZ 00000001800579a0     QuickHullConvexHullLib.obj
 0002:0000e9b4       $unwind$?computeMinMaxVerts@QuickHull@local@@IEAAXXZ 00000001800579b4     QuickHullConvexHullLib.obj
 0002:0000e9c0       $unwind$?findSimplex@QuickHull@local@@IEAA_NXZ 00000001800579c0     QuickHullConvexHullLib.obj
 0002:0000e9d4       $chain$8$?findSimplex@QuickHull@local@@IEAA_NXZ 00000001800579d4     QuickHullConvexHullLib.obj
 0002:0000ea08       $chain$12$?findSimplex@QuickHull@local@@IEAA_NXZ 0000000180057a08     QuickHullConvexHullLib.obj
 0002:0000ea28       $chain$13$?findSimplex@QuickHull@local@@IEAA_NXZ 0000000180057a28     QuickHullConvexHullLib.obj
 0002:0000ea28       $chain$15$?findSimplex@QuickHull@local@@IEAA_NXZ 0000000180057a28     QuickHullConvexHullLib.obj
 0002:0000ea5c       $chain$14$?findSimplex@QuickHull@local@@IEAA_NXZ 0000000180057a5c     QuickHullConvexHullLib.obj
 0002:0000eaa0       $chain$16$?findSimplex@QuickHull@local@@IEAA_NXZ 0000000180057aa0     QuickHullConvexHullLib.obj
 0002:0000eab0       $unwind$?addSimplex@QuickHull@local@@IEAAXPEAUQuickHullVertex@2@_N@Z 0000000180057ab0     QuickHullConvexHullLib.obj
 0002:0000eac4       $chain$2$?addSimplex@QuickHull@local@@IEAAXPEAUQuickHullVertex@2@_N@Z 0000000180057ac4     QuickHullConvexHullLib.obj
 0002:0000eae0       $chain$8$?addSimplex@QuickHull@local@@IEAAXPEAUQuickHullVertex@2@_N@Z 0000000180057ae0     QuickHullConvexHullLib.obj
 0002:0000eb04       $chain$3$?addSimplex@QuickHull@local@@IEAAXPEAUQuickHullVertex@2@_N@Z 0000000180057b04     QuickHullConvexHullLib.obj
 0002:0000eb14       $unwind$?nextPointToAdd@QuickHull@local@@IEAAPEAUQuickHullVertex@2@AEAPEAUQuickHullFace@2@@Z 0000000180057b14     QuickHullConvexHullLib.obj
 0002:0000eb28       $unwind$?addPointToHull@QuickHull@local@@IEAA_NPEBUQuickHullVertex@2@AEAUQuickHullFace@2@AEA_N@Z 0000000180057b28     QuickHullConvexHullLib.obj
 0002:0000eb3c       $chain$1$?addPointToHull@QuickHull@local@@IEAA_NPEBUQuickHullVertex@2@AEAUQuickHullFace@2@AEA_N@Z 0000000180057b3c     QuickHullConvexHullLib.obj
 0002:0000eb54       $chain$2$?addPointToHull@QuickHull@local@@IEAA_NPEBUQuickHullVertex@2@AEAUQuickHullFace@2@AEA_N@Z 0000000180057b54     QuickHullConvexHullLib.obj
 0002:0000eb68       $unwind$?createTriangle@QuickHull@local@@IEAAPEAUQuickHullFace@2@AEBUQuickHullVertex@2@00@Z 0000000180057b68     QuickHullConvexHullLib.obj
 0002:0000eb90       $unwind$?calculateHorizon@QuickHull@local@@IEAAXAEBVPxVec3@physx@@PEAUQuickHullHalfEdge@2@AEAUQuickHullFace@2@AEAV?$Array@PEAUQuickHullHalfEdge@local@@V?$ReflectionAllocator@PEAUQuickHullHalfEdge@local@@@shdfnd@physx@@@shdfnd@4@AEAV?$Array@PEAUQuickHullFace@local@@V?$ReflectionAllocator@PEAUQuickHullFace@local@@@shdfnd@physx@@@84@@Z 0000000180057b90     QuickHullConvexHullLib.obj
 0002:0000eba8       $unwind$?doAdjacentMerge@QuickHull@local@@IEAA_NAEAUQuickHullFace@2@_NAEA_N@Z 0000000180057ba8     QuickHullConvexHullLib.obj
 0002:0000ebb8       $chain$1$?doAdjacentMerge@QuickHull@local@@IEAA_NAEAUQuickHullFace@2@_NAEA_N@Z 0000000180057bb8     QuickHullConvexHullLib.obj
 0002:0000ebd0       $chain$2$?doAdjacentMerge@QuickHull@local@@IEAA_NAEAUQuickHullFace@2@_NAEA_N@Z 0000000180057bd0     QuickHullConvexHullLib.obj
 0002:0000ebe4       $chain$3$?doAdjacentMerge@QuickHull@local@@IEAA_NAEAUQuickHullFace@2@_NAEA_N@Z 0000000180057be4     QuickHullConvexHullLib.obj
 0002:0000ebf4       $unwind$?resolveUnclaimedPoints@QuickHull@local@@IEAAXAEBV?$Array@PEAUQuickHullFace@local@@V?$ReflectionAllocator@PEAUQuickHullFace@local@@@shdfnd@physx@@@shdfnd@physx@@@Z 0000000180057bf4     QuickHullConvexHullLib.obj
 0002:0000ec04       $chain$1$?resolveUnclaimedPoints@QuickHull@local@@IEAAXAEBV?$Array@PEAUQuickHullFace@local@@V?$ReflectionAllocator@PEAUQuickHullFace@local@@@shdfnd@physx@@@shdfnd@physx@@@Z 0000000180057c04     QuickHullConvexHullLib.obj
 0002:0000ec1c       $chain$2$?resolveUnclaimedPoints@QuickHull@local@@IEAAXAEBV?$Array@PEAUQuickHullFace@local@@V?$ReflectionAllocator@PEAUQuickHullFace@local@@@shdfnd@physx@@@shdfnd@physx@@@Z 0000000180057c1c     QuickHullConvexHullLib.obj
 0002:0000ec2c       $unwind$?postMergeHull@QuickHull@local@@IEAAXXZ 0000000180057c2c     QuickHullConvexHullLib.obj
 0002:0000ec38       $chain$5$?postMergeHull@QuickHull@local@@IEAAXXZ 0000000180057c38     QuickHullConvexHullLib.obj
 0002:0000ec60       $chain$6$?postMergeHull@QuickHull@local@@IEAAXXZ 0000000180057c60     QuickHullConvexHullLib.obj
 0002:0000ec70       $chain$7$?postMergeHull@QuickHull@local@@IEAAXXZ 0000000180057c70     QuickHullConvexHullLib.obj
 0002:0000ec98       $unwind$?canMergeFaces@QuickHull@local@@IEAA_NAEBUQuickHullHalfEdge@2@@Z 0000000180057c98     QuickHullConvexHullLib.obj
 0002:0000ecdc       $unwind$?init@?$MemBlock@UQuickHullHalfEdge@local@@$0A@@local@@QEAAXI@Z 0000000180057cdc     QuickHullConvexHullLib.obj
 0002:0000ece8       $unwind$??1?$MemBlock@UQuickHullFace@local@@$00@local@@QEAA@XZ 0000000180057ce8     QuickHullConvexHullLib.obj
 0002:0000ece8       $unwind$??1?$MemBlock@UQuickHullHalfEdge@local@@$0A@@local@@QEAA@XZ 0000000180057ce8     QuickHullConvexHullLib.obj
 0002:0000ecf4       $chain$0$??1?$MemBlock@UQuickHullFace@local@@$00@local@@QEAA@XZ 0000000180057cf4     QuickHullConvexHullLib.obj
 0002:0000ecf4       $chain$0$??1?$MemBlock@UQuickHullHalfEdge@local@@$0A@@local@@QEAA@XZ 0000000180057cf4     QuickHullConvexHullLib.obj
 0002:0000ed08       $chain$1$??1?$MemBlock@UQuickHullFace@local@@$00@local@@QEAA@XZ 0000000180057d08     QuickHullConvexHullLib.obj
 0002:0000ed08       $chain$1$??1?$MemBlock@UQuickHullHalfEdge@local@@$0A@@local@@QEAA@XZ 0000000180057d08     QuickHullConvexHullLib.obj
 0002:0000ed18       $unwind$?getFreeItem@?$MemBlock@UQuickHullHalfEdge@local@@$0A@@local@@QEAAPEAUQuickHullHalfEdge@2@XZ 0000000180057d18     QuickHullConvexHullLib.obj
 0002:0000ed24       $chain$1$?allocate@?$Array@PEAUQuickHullHalfEdge@local@@V?$ReflectionAllocator@PEAUQuickHullHalfEdge@local@@@shdfnd@physx@@@shdfnd@physx@@IEAAPEAPEAUQuickHullHalfEdge@local@@I@Z 0000000180057d24     QuickHullConvexHullLib.obj
 0002:0000ed3c       $chain$3$?allocate@?$Array@PEAUQuickHullHalfEdge@local@@V?$ReflectionAllocator@PEAUQuickHullHalfEdge@local@@@shdfnd@physx@@@shdfnd@physx@@IEAAPEAPEAUQuickHullHalfEdge@local@@I@Z 0000000180057d3c     QuickHullConvexHullLib.obj
 0002:0000ed50       $chain$4$?allocate@?$Array@PEAUQuickHullHalfEdge@local@@V?$ReflectionAllocator@PEAUQuickHullHalfEdge@local@@@shdfnd@physx@@@shdfnd@physx@@IEAAPEAPEAUQuickHullHalfEdge@local@@I@Z 0000000180057d50     QuickHullConvexHullLib.obj
 0002:0000ed60       $chain$0$?recreate@?$Array@PEAUQuickHullHalfEdge@local@@V?$ReflectionAllocator@PEAUQuickHullHalfEdge@local@@@shdfnd@physx@@@shdfnd@physx@@IEAAXI@Z 0000000180057d60     QuickHullConvexHullLib.obj
 0002:0000ed74       $chain$1$?recreate@?$Array@PEAUQuickHullHalfEdge@local@@V?$ReflectionAllocator@PEAUQuickHullHalfEdge@local@@@shdfnd@physx@@@shdfnd@physx@@IEAAXI@Z 0000000180057d74     QuickHullConvexHullLib.obj
 0002:0000ed84       $unwind$?init@?$MemBlock@UQuickHullFace@local@@$00@local@@QEAAXI@Z 0000000180057d84     QuickHullConvexHullLib.obj
 0002:0000ed94       $unwind$?getFreeItem@?$MemBlock@UQuickHullFace@local@@$00@local@@QEAAPEAUQuickHullFace@2@XZ 0000000180057d94     QuickHullConvexHullLib.obj
 0002:0000eda4       $chain$1$?allocate@?$Array@PEAUQuickHullFace@local@@V?$ReflectionAllocator@PEAUQuickHullFace@local@@@shdfnd@physx@@@shdfnd@physx@@IEAAPEAPEAUQuickHullFace@local@@I@Z 0000000180057da4     QuickHullConvexHullLib.obj
 0002:0000edbc       $chain$3$?allocate@?$Array@PEAUQuickHullFace@local@@V?$ReflectionAllocator@PEAUQuickHullFace@local@@@shdfnd@physx@@@shdfnd@physx@@IEAAPEAPEAUQuickHullFace@local@@I@Z 0000000180057dbc     QuickHullConvexHullLib.obj
 0002:0000edd0       $chain$4$?allocate@?$Array@PEAUQuickHullFace@local@@V?$ReflectionAllocator@PEAUQuickHullFace@local@@@shdfnd@physx@@@shdfnd@physx@@IEAAPEAPEAUQuickHullFace@local@@I@Z 0000000180057dd0     QuickHullConvexHullLib.obj
 0002:0000ede0       $chain$0$?recreate@?$Array@PEAUQuickHullFace@local@@V?$ReflectionAllocator@PEAUQuickHullFace@local@@@shdfnd@physx@@@shdfnd@physx@@IEAAXI@Z 0000000180057de0     QuickHullConvexHullLib.obj
 0002:0000edf4       $chain$1$?recreate@?$Array@PEAUQuickHullFace@local@@V?$ReflectionAllocator@PEAUQuickHullFace@local@@@shdfnd@physx@@@shdfnd@physx@@IEAAXI@Z 0000000180057df4     QuickHullConvexHullLib.obj
 0002:0000ee04       $chain$1$?allocate@?$Array@PEAUQuickHullVertex@local@@V?$ReflectionAllocator@PEAUQuickHullVertex@local@@@shdfnd@physx@@@shdfnd@physx@@IEAAPEAPEAUQuickHullVertex@local@@I@Z 0000000180057e04     QuickHullConvexHullLib.obj
 0002:0000ee1c       $chain$3$?allocate@?$Array@PEAUQuickHullVertex@local@@V?$ReflectionAllocator@PEAUQuickHullVertex@local@@@shdfnd@physx@@@shdfnd@physx@@IEAAPEAPEAUQuickHullVertex@local@@I@Z 0000000180057e1c     QuickHullConvexHullLib.obj
 0002:0000ee30       $chain$4$?allocate@?$Array@PEAUQuickHullVertex@local@@V?$ReflectionAllocator@PEAUQuickHullVertex@local@@@shdfnd@physx@@@shdfnd@physx@@IEAAPEAPEAUQuickHullVertex@local@@I@Z 0000000180057e30     QuickHullConvexHullLib.obj
 0002:0000ee40       $chain$0$?recreate@?$Array@PEAUQuickHullVertex@local@@V?$ReflectionAllocator@PEAUQuickHullVertex@local@@@shdfnd@physx@@@shdfnd@physx@@IEAAXI@Z 0000000180057e40     QuickHullConvexHullLib.obj
 0002:0000ee54       $chain$1$?recreate@?$Array@PEAUQuickHullVertex@local@@V?$ReflectionAllocator@PEAUQuickHullVertex@local@@@shdfnd@physx@@@shdfnd@physx@@IEAAXI@Z 0000000180057e54     QuickHullConvexHullLib.obj
 0002:0000ee64       $chain$1$?allocate@?$Array@UExpandPoint@local@@V?$ReflectionAllocator@UExpandPoint@local@@@shdfnd@physx@@@shdfnd@physx@@IEAAPEAUExpandPoint@local@@I@Z 0000000180057e64     QuickHullConvexHullLib.obj
 0002:0000ee7c       $chain$3$?allocate@?$Array@UExpandPoint@local@@V?$ReflectionAllocator@UExpandPoint@local@@@shdfnd@physx@@@shdfnd@physx@@IEAAPEAUExpandPoint@local@@I@Z 0000000180057e7c     QuickHullConvexHullLib.obj
 0002:0000ee90       $chain$4$?allocate@?$Array@UExpandPoint@local@@V?$ReflectionAllocator@UExpandPoint@local@@@shdfnd@physx@@@shdfnd@physx@@IEAAPEAUExpandPoint@local@@I@Z 0000000180057e90     QuickHullConvexHullLib.obj
 0002:0000eea0       $chain$0$?recreate@?$Array@UExpandPoint@local@@V?$ReflectionAllocator@UExpandPoint@local@@@shdfnd@physx@@@shdfnd@physx@@IEAAXI@Z 0000000180057ea0     QuickHullConvexHullLib.obj
 0002:0000eeb4       $chain$1$?recreate@?$Array@UExpandPoint@local@@V?$ReflectionAllocator@UExpandPoint@local@@@shdfnd@physx@@@shdfnd@physx@@IEAAXI@Z 0000000180057eb4     QuickHullConvexHullLib.obj
 0002:0000eec4       $unwind$?computeVolumeIntegralsEberly@physx@@YA_NAEBVPxConvexMeshDesc@1@MAEAUPxIntegrals@1@AEBVPxVec3@1@@Z 0000000180057ec4     VolumeIntegration.obj
 0002:0000eec4       $unwind$?computeVolumeIntegralsEberlySIMD@physx@@YA_NAEBVPxConvexMeshDesc@1@MAEAUPxIntegrals@1@AEBVPxVec3@1@@Z 0000000180057ec4     VolumeIntegration.obj
 0002:0000eec4       $unwind$__unDName          0000000180057ec4     libvcruntime:undname.obj
 0002:0000eec4       $unwind$_raise_exc         0000000180057ec4     libucrt:fpexcept.obj
 0002:0000eec4       $unwind$_raise_excf        0000000180057ec4     libucrt:fpexcept.obj
 0002:0000eecc       $unwind$?computeVolumeIntegralsSIMD@VolumeIntegratorEberly@?A0x5456bbcd@physx@@QEAA_NAEAUPxIntegrals@3@AEBVPxVec3@3@@Z 0000000180057ecc     VolumeIntegration.obj
 0002:0000ef04       $chain$1$?computeVolumeIntegralsSIMD@VolumeIntegratorEberly@?A0x5456bbcd@physx@@QEAA_NAEAUPxIntegrals@3@AEBVPxVec3@3@@Z 0000000180057f04     VolumeIntegration.obj
 0002:0000ef1c       $chain$2$?computeVolumeIntegralsSIMD@VolumeIntegratorEberly@?A0x5456bbcd@physx@@QEAA_NAEAUPxIntegrals@3@AEBVPxVec3@3@@Z 0000000180057f1c     VolumeIntegration.obj
 0002:0000ef2c       $unwind$?computeVolumeIntegrals@VolumeIntegratorEberly@?A0x5456bbcd@physx@@QEAA_NAEAUPxIntegrals@3@AEBVPxVec3@3@@Z 0000000180057f2c     VolumeIntegration.obj
 0002:0000ef64       $chain$0$?computeVolumeIntegrals@VolumeIntegratorEberly@?A0x5456bbcd@physx@@QEAA_NAEAUPxIntegrals@3@AEBVPxVec3@3@@Z 0000000180057f64     VolumeIntegration.obj
 0002:0000ef78       $chain$3$?computeVolumeIntegrals@VolumeIntegratorEberly@?A0x5456bbcd@physx@@QEAA_NAEAUPxIntegrals@3@AEBVPxVec3@3@@Z 0000000180057f78     VolumeIntegration.obj
 0002:0000ef94       $chain$4$?computeVolumeIntegrals@VolumeIntegratorEberly@?A0x5456bbcd@physx@@QEAA_NAEAUPxIntegrals@3@AEBVPxVec3@3@@Z 0000000180057f94     VolumeIntegration.obj
 0002:0000efa4       $chain$5$?computeVolumeIntegrals@VolumeIntegratorEberly@?A0x5456bbcd@physx@@QEAA_NAEAUPxIntegrals@3@AEBVPxVec3@3@@Z 0000000180057fa4     VolumeIntegration.obj
 0002:0000efb4       $chain$1$?cookingDelayHook@@YAP6A_JXZIPEAUDelayLoadInfo@@@Z 0000000180057fb4     WindowsCookingDelayLoadHook.obj
 0002:0000efcc       $chain$3$?cookingDelayHook@@YAP6A_JXZIPEAUDelayLoadInfo@@@Z 0000000180057fcc     WindowsCookingDelayLoadHook.obj
 0002:0000efcc       $chain$5$?cookingDelayHook@@YAP6A_JXZIPEAUDelayLoadInfo@@@Z 0000000180057fcc     WindowsCookingDelayLoadHook.obj
 0002:0000efe4       $chain$6$?cookingDelayHook@@YAP6A_JXZIPEAUDelayLoadInfo@@@Z 0000000180057fe4     WindowsCookingDelayLoadHook.obj
 0002:0000eff4       xdata                      0000000180057ff4     PhysXCommon_64:PhysXCommon_64.dll
 0002:0000effc       xdata                      0000000180057ffc     PhysXFoundation_64:PhysXFoundation_64.dll
 0002:0000f004       $unwind$?DloadObtainSection@@YAPEAXPEAK0@Z 0000000180058004     Delayimp:delayhlp.obj
 0002:0000f004       $unwind$strstr             0000000180058004     libvcruntime:strstr.obj
 0002:0000f014       $unwind$?DloadProtectSection@@YAXKPEAK@Z 0000000180058014     Delayimp:delayhlp.obj
 0002:0000f024       $unwind$__delayLoadHelper2 0000000180058024     Delayimp:delayhlp.obj
 0002:0000f040       $xdatasym                  0000000180058040     LIBCMT:chkstk.obj
 0002:0000f048       $unwind$?dllmain_crt_process_attach@@YAHQEAUHINSTANCE__@@QEAX@Z 0000000180058048     LIBCMT:dll_dllmain.obj
 0002:0000f084       $unwind$?fin$0@?0??dllmain_crt_process_attach@@YAHQEAUHINSTANCE__@@QEAX@Z@4HA 0000000180058084     LIBCMT:dll_dllmain.obj
 0002:0000f084       $unwind$?fin$0@?0??dllmain_crt_process_detach@@YAH_N@Z@4HA 0000000180058084     LIBCMT:dll_dllmain.obj
 0002:0000f084       $unwind$?fin$1@?0??dllmain_crt_process_detach@@YAH_N@Z@4HA 0000000180058084     LIBCMT:dll_dllmain.obj
 0002:0000f084       $unwind$_IsNonwritableInCurrentImage$filt$0 0000000180058084     LIBCMT:pesect.obj
 0002:0000f084       $unwind$?filt$0@?0??CxxCallCatchBlock@__FrameHandler3@@SAPEAXPEAU_EXCEPTION_RECORD@@@Z@4HA 0000000180058084     libvcruntime:frame.obj
 0002:0000f084       $unwind$?filt$0@?0??CxxCallCatchBlock@__FrameHandler4@@SAPEAXPEAU_EXCEPTION_RECORD@@@Z@4HA 0000000180058084     libvcruntime:frame.obj
 0002:0000f084       $unwind$?filt$0@?0??FrameUnwindToState@__FrameHandler3@@SAXPEA_KPEAU_xDISPATCHER_CONTEXT@@PEBU_s_FuncInfo@@H@Z@4HA 0000000180058084     libvcruntime:frame.obj
 0002:0000f084       $unwind$?fin$1@?0??FrameUnwindToState@__FrameHandler3@@SAXPEA_KPEAU_xDISPATCHER_CONTEXT@@PEBU_s_FuncInfo@@H@Z@4HA 0000000180058084     libvcruntime:frame.obj
 0002:0000f084       $unwind$__unDNameEx$fin$0  0000000180058084     libvcruntime:undname.obj
 0002:0000f084       $unwind$_query_new_handler$fin$0 0000000180058084     libucrt:new_handler.obj
 0002:0000f084       $unwind$?fin$0@?0???$?RV<lambda_0ae27a3a962d80f24befdcbee591983d>@@AEAV<lambda_8d0ee55de4b1038c4002e0adecdf1839>@@V<lambda_dc504788e8f1664fe9b84e20bfb512f2>@@@?$__crt_seh_guarded_call@X@@QEAAX$$QEAV<lambda_0ae27a3a962d80f24befdcbee591983d>@@AEAV<lambda_8d0ee55de4b1038c4002e0adecdf1839>@@$$QEAV<lambda_dc504788e8f1664fe9b84e20bfb512f2>@@@Z@4HA 0000000180058084     libucrt:per_thread_data.obj
 0002:0000f084       $unwind$?fin$0@?0???$?RV<lambda_2d41944a1d46af3157314b8a01080d33>@@AEAV<lambda_8f455de75cd7d7f24b4096f044d8b9e6>@@V<lambda_aa500f224e6afead328df44964fe2772>@@@?$__crt_seh_guarded_call@X@@QEAAX$$QEAV<lambda_2d41944a1d46af3157314b8a01080d33>@@AEAV<lambda_8f455de75cd7d7f24b4096f044d8b9e6>@@$$QEAV<lambda_aa500f224e6afead328df44964fe2772>@@@Z@4HA 0000000180058084     libucrt:per_thread_data.obj
 0002:0000f084       $unwind$?fin$0@?0???$?RV<lambda_aa87e3671a710a21b5dc78c0bdf72e11>@@AEAV<lambda_92619d2358a28f41a33ba319515a20b9>@@V<lambda_6992ecaafeb10aed2b74cb1fae11a551>@@@?$__crt_seh_guarded_call@X@@QEAAX$$QEAV<lambda_aa87e3671a710a21b5dc78c0bdf72e11>@@AEAV<lambda_92619d2358a28f41a33ba319515a20b9>@@$$QEAV<lambda_6992ecaafeb10aed2b74cb1fae11a551>@@@Z@4HA 0000000180058084     libucrt:per_thread_data.obj
 0002:0000f084       $unwind$?fin$0@?0???$?RV<lambda_f2e299630e499de9f9a165e60fcd3db5>@@AEAV<lambda_2ae9d31cdba2644fcbeaf08da7c24588>@@V<lambda_40d01ff24d0e7b3814fdbdcee8eab3c7>@@@?$__crt_seh_guarded_call@X@@QEAAX$$QEAV<lambda_f2e299630e499de9f9a165e60fcd3db5>@@AEAV<lambda_2ae9d31cdba2644fcbeaf08da7c24588>@@$$QEAV<lambda_40d01ff24d0e7b3814fdbdcee8eab3c7>@@@Z@4HA 0000000180058084     libucrt:per_thread_data.obj
 0002:0000f084       $unwind$__acrt_update_thread_locale_data$fin$0 0000000180058084     libucrt:locale_refcounting.obj
 0002:0000f084       $unwind$?fin$0@?0???$?RV<lambda_410d79af7f07d98d83a3f525b3859a53>@@AEAV<lambda_3e16ef9562a7dcce91392c22ab16ea36>@@V<lambda_38119f0e861e05405d8a144b9b982f0a>@@@?$__crt_seh_guarded_call@X@@QEAAX$$QEAV<lambda_410d79af7f07d98d83a3f525b3859a53>@@AEAV<lambda_3e16ef9562a7dcce91392c22ab16ea36>@@$$QEAV<lambda_38119f0e861e05405d8a144b9b982f0a>@@@Z@4HA 0000000180058084     libucrt:wsetlocale.obj
 0002:0000f084       $unwind$?fin$0@?0???$?RV<lambda_ad8af0d99a0adf03d037d7dffe354bb5>@@AEAV<lambda_c9ba49e555ba839a7b07aa3fbecb7617>@@V<lambda_2f1ebd5d68526518146ae959c9e734c8>@@@?$__crt_seh_guarded_call@H@@QEAAH$$QEAV<lambda_ad8af0d99a0adf03d037d7dffe354bb5>@@AEAV<lambda_c9ba49e555ba839a7b07aa3fbecb7617>@@$$QEAV<lambda_2f1ebd5d68526518146ae959c9e734c8>@@@Z@4HA 0000000180058084     libucrt:close.obj
 0002:0000f084       $unwind$?fin$0@?0???$?RV<lambda_a37b2b86f63e897a80ea819b0eb08c01>@@AEAV<lambda_38ce7e780aa69e748d6df282ebc68efe>@@V<lambda_99fb1378e971ab6e7edea83e3a7a83a2>@@@?$__crt_seh_guarded_call@H@@QEAAH$$QEAV<lambda_a37b2b86f63e897a80ea819b0eb08c01>@@AEAV<lambda_38ce7e780aa69e748d6df282ebc68efe>@@$$QEAV<lambda_99fb1378e971ab6e7edea83e3a7a83a2>@@@Z@4HA 0000000180058084     libucrt:commit.obj
 0002:0000f084       $unwind$__acrt_initialize_lowio$fin$0 0000000180058084     libucrt:ioinit.obj
 0002:0000f084       $unwind$__acrt_lowio_ensure_fh_exists$fin$0 0000000180058084     libucrt:osfinfo.obj
 0002:0000f084       $unwind$?fin$0@?0???$?RV<lambda_efdfa57d1f175319df784efa44bb7b81>@@AEAV<lambda_5f0a4c1567f8adc6734073e5d1e1b35c>@@V<lambda_2e8a7d3640ea6ccb4c2413664c2db6fd>@@@?$__crt_seh_guarded_call@X@@QEAAX$$QEAV<lambda_efdfa57d1f175319df784efa44bb7b81>@@AEAV<lambda_5f0a4c1567f8adc6734073e5d1e1b35c>@@$$QEAV<lambda_2e8a7d3640ea6ccb4c2413664c2db6fd>@@@Z@4HA 0000000180058084     libucrt:mbctype.obj
 0002:0000f084       $unwind$?fin$0@?0??update_thread_multibyte_data_internal@@YAPEAU__crt_multibyte_data@@QEAU__acrt_ptd@@QEAPEAU1@@Z@4HA 0000000180058084     libucrt:mbctype.obj
 0002:0000f084       $unwind$?fin$0@?0???$?RV<lambda_450d765d439847d4c735a33c368b5fc0>@@AEAV<lambda_44731a7d0e6d81c3e6aa82d741081786>@@V<lambda_601a2a7da3b7a96e9554ac7215c4b07c>@@@?$__crt_seh_guarded_call@P6AXH@Z@@QEAAP6AXH@Z$$QEAV<lambda_450d765d439847d4c735a33c368b5fc0>@@AEAV<lambda_44731a7d0e6d81c3e6aa82d741081786>@@$$QEAV<lambda_601a2a7da3b7a96e9554ac7215c4b07c>@@@Z@4HA 0000000180058084     libucrt:signal.obj
 0002:0000f084       $unwind$raise$fin$0        0000000180058084     libucrt:signal.obj
 0002:0000f084       $unwind$?filt$0@?0???R<lambda_6e4b09c48022b2350581041d5f6b0c4c>@@QEBA@XZ@4HA 0000000180058084     libucrt:exit.obj
 0002:0000f084       $unwind$?fin$0@?0???$?RV<lambda_d80eeec6fff315bfe5c115232f3240e3>@@AEAV<lambda_6e4b09c48022b2350581041d5f6b0c4c>@@V<lambda_2358e3775559c9db80273638284d5e45>@@@?$__crt_seh_guarded_call@X@@QEAAX$$QEAV<lambda_d80eeec6fff315bfe5c115232f3240e3>@@AEAV<lambda_6e4b09c48022b2350581041d5f6b0c4c>@@$$QEAV<lambda_2358e3775559c9db80273638284d5e45>@@@Z@4HA 0000000180058084     libucrt:exit.obj
 0002:0000f084       $unwind$?fin$0@?0???$?RV<lambda_7777bce6b2f8c936911f934f8298dc43>@@AEAV<lambda_f03950bc5685219e0bcd2087efbe011e>@@V<lambda_3883c3dff614d5e0c5f61bb1ac94921c>@@@?$__crt_seh_guarded_call@H@@QEAAH$$QEAV<lambda_7777bce6b2f8c936911f934f8298dc43>@@AEAV<lambda_f03950bc5685219e0bcd2087efbe011e>@@$$QEAV<lambda_3883c3dff614d5e0c5f61bb1ac94921c>@@@Z@4HA 0000000180058084     libucrt:onexit.obj
 0002:0000f084       $unwind$_fcloseall$fin$0   0000000180058084     libucrt:closeall.obj
 0002:0000f084       $unwind$?fin$0@?0???$?RV<lambda_842d9ff0dc9ef11c61343bbaebe7f885>@@AEAV<lambda_c5860995281e5c4ce005b3de8f5874ee>@@V<lambda_d90129c13df834fdcbf8d2b88dafcf2d>@@@?$__crt_seh_guarded_call@X@@QEAAX$$QEAV<lambda_842d9ff0dc9ef11c61343bbaebe7f885>@@AEAV<lambda_c5860995281e5c4ce005b3de8f5874ee>@@$$QEAV<lambda_d90129c13df834fdcbf8d2b88dafcf2d>@@@Z@4HA 0000000180058084     libucrt:fflush.obj
 0002:0000f084       $unwind$?fin$0@?0???$?RV<lambda_886d6c58226a84441f68b9f2b8217b83>@@AEAV<lambda_ab61a845afdef5b7c387490eaf3616ee>@@V<lambda_f7f22ab5edc0698d5f6905b0d3f44752>@@@?$__crt_seh_guarded_call@X@@QEAAX$$QEAV<lambda_886d6c58226a84441f68b9f2b8217b83>@@AEAV<lambda_ab61a845afdef5b7c387490eaf3616ee>@@$$QEAV<lambda_f7f22ab5edc0698d5f6905b0d3f44752>@@@Z@4HA 0000000180058084     libucrt:fflush.obj
 0002:0000f084       $unwind$_ctrlfp$filt$0     0000000180058084     libucrt:fpctrl.obj
 0002:0000f084       $unwind$common_control87$filt$0 0000000180058084     libucrt:ieee.obj
 0002:0000f08c       $unwind$?dllmain_crt_process_detach@@YAH_N@Z 000000018005808c     LIBCMT:dll_dllmain.obj
 0002:0000f0e0       $unwind$?dllmain_dispatch@@YAHQEAUHINSTANCE__@@KQEAX@Z 00000001800580e0     LIBCMT:dll_dllmain.obj
 0002:0000f108       $unwind$?filt$0@?0??dllmain_dispatch@@YAHQEAUHINSTANCE__@@KQEAX@Z@4HA 0000000180058108     LIBCMT:dll_dllmain.obj
 0002:0000f108       $unwind$?filt$0@?0??FrameUnwindToState@__FrameHandler4@@SAXPEA_KPEAU_xDISPATCHER_CONTEXT@@PEAUFuncInfo4@FH4@@H@Z@4HA 0000000180058108     libvcruntime:frame.obj
 0002:0000f108       $unwind$?fin$1@?0??FrameUnwindToState@__FrameHandler4@@SAXPEA_KPEAU_xDISPATCHER_CONTEXT@@PEAUFuncInfo4@FH4@@H@Z@4HA 0000000180058108     libvcruntime:frame.obj
 0002:0000f108       $unwind$_write_internal$fin$0 0000000180058108     libucrt:write.obj
 0002:0000f108       $unwind$?fin$0@?0??_fclose_internal@@YAHQEAU_iobuf@@AEAV__crt_cached_ptd_host@@@Z@4HA 0000000180058108     libucrt:fclose.obj
 0002:0000f110       $unwind$__isa_available_init 0000000180058110     LIBCMT:cpu_disp.obj
 0002:0000f120       $xdatasym                  0000000180058120     LIBCMT:svml_ssinf4_sse2.obj
 0002:0000f158       $xdatasym                  0000000180058158     LIBCMT:svml_ssinf4_sse4.obj
 0002:0000f18c       $unwind$__security_init_cookie 000000018005818c     LIBCMT:gs_support.obj
 0002:0000f198       $unwind$__scrt_is_nonwritable_in_current_image 0000000180058198     LIBCMT:utility.obj
 0002:0000f1b8       $unwind$__scrt_is_nonwritable_in_current_image$filt$0 00000001800581b8     LIBCMT:utility.obj
 0002:0000f1c0       $unwind$__scrt_fastfail    00000001800581c0     LIBCMT:utility_desktop.obj
 0002:0000f1d0       $xdatasym                  00000001800581d0     LIBCMT:guard_dispatch.obj
 0002:0000f1d8       $xdatasym                  00000001800581d8     LIBCMT:guard_xfg_dispatch.obj
 0002:0000f1e0       $xdatasym                  00000001800581e0     LIBCMT:svml_s_sin_cout.obj
 0002:0000f1e8       $unwind$__C_specific_handler 00000001800581e8     libvcruntime:riscchandler.obj
 0002:0000f1e8       $unwind$?GetRangeOfTrysToCheck@__FrameHandler3@@SA?AU?$pair@Viterator@TryBlockMap@__FrameHandler3@@V123@@std@@AEAVTryBlockMap@1@HPEAU_xDISPATCHER_CONTEXT@@PEBU_s_FuncInfo@@H@Z 00000001800581e8     libvcruntime:risctrnsctrl.obj
 0002:0000f1e8       $unwind$__std_type_info_name 00000001800581e8     libvcruntime:std_type_info.obj
 0002:0000f208       $xdatasym                  0000000180058208     libvcruntime:memset.obj
 0002:0000f218       $xdatasym                  0000000180058218     libvcruntime:memcpy.obj
 0002:0000f228       $unwind$__DestructExceptionObject 0000000180058228     libvcruntime:ehhelpers.obj
 0002:0000f248       $unwind$__DestructExceptionObject$filt$0 0000000180058248     libvcruntime:ehhelpers.obj
 0002:0000f248       $unwind$?fin$1@?0??CxxCallCatchBlock@__FrameHandler3@@SAPEAXPEAU_EXCEPTION_RECORD@@@Z@4HA 0000000180058248     libvcruntime:frame.obj
 0002:0000f248       $unwind$?fin$1@?0??CxxCallCatchBlock@__FrameHandler4@@SAPEAXPEAU_EXCEPTION_RECORD@@@Z@4HA 0000000180058248     libvcruntime:frame.obj
 0002:0000f254       $unwind$__unDNameEx        0000000180058254     libvcruntime:undname.obj
 0002:0000f284       $unwind$sprintf_s          0000000180058284     libvcruntime:undname.obj
 0002:0000f294       $unwind$??0DName@@QEAA@_J@Z 0000000180058294     libvcruntime:undname.obj
 0002:0000f294       $unwind$??0DName@@QEAA@_K@Z 0000000180058294     libvcruntime:undname.obj
 0002:0000f2a4       $unwind$?doPchar@DName@@AEAAXD@Z 00000001800582a4     libvcruntime:undname.obj
 0002:0000f2b0       $unwind$?getDecoratedName@UnDecorator@@CA?AVDName@@XZ 00000001800582b0     libvcruntime:undname.obj
 0002:0000f2d0       $cppxdata$?getDecoratedName@UnDecorator@@CA?AVDName@@XZ 00000001800582d0     libvcruntime:undname.obj
 0002:0000f2d9       $stateUnwindMap$?getDecoratedName@UnDecorator@@CA?AVDName@@XZ 00000001800582d9     libvcruntime:undname.obj
 0002:0000f2e0       $ip2state$?getDecoratedName@UnDecorator@@CA?AVDName@@XZ 00000001800582e0     libvcruntime:undname.obj
 0002:0000f2e8       $unwind$?getZName@UnDecorator@@CA?AVDName@@_N0@Z 00000001800582e8     libvcruntime:undname.obj
 0002:0000f30c       $unwind$?getOperatorName@UnDecorator@@CA?AVDName@@_NPEA_N@Z 000000018005830c     libvcruntime:undname.obj
 0002:0000f328       $unwind$?getScope@UnDecorator@@CA?AVDName@@XZ 0000000180058328     libvcruntime:undname.obj
 0002:0000f344       $unwind$?getScopedName@UnDecorator@@CA?AVDName@@XZ 0000000180058344     libvcruntime:undname.obj
 0002:0000f354       $unwind$?getSignedDimension@UnDecorator@@CA?AVDName@@XZ 0000000180058354     libvcruntime:undname.obj
 0002:0000f354       $unwind$_mbsdec_l          0000000180058354     libucrt:mbsdec.obj
 0002:0000f360       $unwind$?getDimension@UnDecorator@@CA?AVDName@@_N@Z 0000000180058360     libvcruntime:undname.obj
 0002:0000f378       $unwind$?getFloatingPoint@UnDecorator@@CA?AVDName@@H@Z 0000000180058378     libvcruntime:undname.obj
 0002:0000f394       $unwind$?getValueObject@UnDecorator@@CA?AVDName@@XZ 0000000180058394     libvcruntime:undname.obj
 0002:0000f3a0       $unwind$?getPointerToMember@UnDecorator@@CA?AVDName@@XZ 00000001800583a0     libvcruntime:undname.obj
 0002:0000f3ac       $unwind$?getTemplateName@UnDecorator@@CA?AVDName@@_N@Z 00000001800583ac     libvcruntime:undname.obj
 0002:0000f3c8       $unwind$?getTemplateArgumentList@UnDecorator@@CA?AVDName@@XZ 00000001800583c8     libvcruntime:undname.obj
 0002:0000f3e8       $unwind$?getTemplateNonTypeArgument@UnDecorator@@CA?AVDName@@XZ 00000001800583e8     libvcruntime:undname.obj
 0002:0000f408       $unwind$?getTemplateTypeArgument@UnDecorator@@CA?AVDName@@XZ 0000000180058408     libvcruntime:undname.obj
 0002:0000f420       $unwind$?composeDeclaration@UnDecorator@@CA?AVDName@@AEBV2@@Z 0000000180058420     libvcruntime:undname.obj
 0002:0000f43c       $unwind$?getArgumentTypes@UnDecorator@@CA?AVDName@@XZ 000000018005843c     libvcruntime:undname.obj
 0002:0000f43c       $unwind$?getBasedType@UnDecorator@@CA?AVDName@@XZ 000000018005843c     libvcruntime:undname.obj
 0002:0000f43c       $unwind$?getEnumType@UnDecorator@@CA?AVDName@@XZ 000000018005843c     libvcruntime:undname.obj
 0002:0000f448       $unwind$?getCallingConvention@UnDecorator@@CA?AVDName@@XZ 0000000180058448     libvcruntime:undname.obj
 0002:0000f458       $unwind$?getDataType@UnDecorator@@CA?AVDName@@PEAV2@@Z 0000000180058458     libvcruntime:undname.obj
 0002:0000f464       $unwind$?getExtendedDataIndirectType@UnDecorator@@CA?AVDName@@AEAW4IndirectionKind@@AEA_NH@Z 0000000180058464     libvcruntime:undname.obj
 0002:0000f464       $unwind$?getPrimaryDataType@UnDecorator@@CA?AVDName@@AEBV2@@Z 0000000180058464     libvcruntime:undname.obj
 0002:0000f464       $unwind$?getPtrRefDataType@UnDecorator@@CA?AVDName@@AEBV2@H@Z 0000000180058464     libvcruntime:undname.obj
 0002:0000f474       $unwind$?getDataIndirectType@UnDecorator@@CA?AVDName@@AEBV2@W4IndirectionKind@@0H@Z 0000000180058474     libvcruntime:undname.obj
 0002:0000f494       $unwind$?getBasicDataType@UnDecorator@@CA?AVDName@@AEBV2@@Z 0000000180058494     libvcruntime:undname.obj
 0002:0000f4ac       $unwind$?getECSUDataType@UnDecorator@@CA?AVDName@@XZ 00000001800584ac     libvcruntime:undname.obj
 0002:0000f4bc       $unwind$?getPtrRefType@UnDecorator@@CA?AVDName@@AEBV2@0W4IndirectionKind@@@Z 00000001800584bc     libvcruntime:undname.obj
 0002:0000f4d4       $unwind$?getArrayType@UnDecorator@@CA?AVDName@@AEBV2@@Z 00000001800584d4     libvcruntime:undname.obj
 0002:0000f4ec       $unwind$?getFunctionIndirectType@UnDecorator@@CA?AVDName@@AEBV2@@Z 00000001800584ec     libvcruntime:undname.obj
 0002:0000f50c       $unwind$?getArgumentList@UnDecorator@@CA?AVDName@@XZ 000000018005850c     libvcruntime:undname.obj
 0002:0000f50c       $unwind$?fp_format_f@@YAHQEBNQEAD_K12HW4__acrt_rounding_mode@@AEAV__crt_cached_ptd_host@@@Z 000000018005850c     libucrt:cvt.obj
 0002:0000f50c       $unwind$__acrt_LCMapStringEx 000000018005850c     libucrt:winapi_thunks.obj
 0002:0000f520       $unwind$?getRestrictionSpec@UnDecorator@@CA?AVDName@@XZ 0000000180058520     libvcruntime:undname.obj
 0002:0000f520       $unwind$__stdio_common_vsprintf_s 0000000180058520     libucrt:output.obj
 0002:0000f534       $unwind$?getLexicalFrame@UnDecorator@@CA?AVDName@@XZ 0000000180058534     libvcruntime:undname.obj
 0002:0000f534       $unwind$?parseDecoratedName@UnDecorator@@CA?AVDName@@XZ 0000000180058534     libvcruntime:undname.obj
 0002:0000f540       $unwind$?getExternalDataType@UnDecorator@@CA?AVDName@@AEBV2@@Z 0000000180058540     libvcruntime:undname.obj
 0002:0000f550       $unwind$?getVfTableType@UnDecorator@@CA?AVDName@@AEBV2@@Z 0000000180058550     libvcruntime:undname.obj
 0002:0000f568       $xdatasym                  0000000180058568     libvcruntime:notify.obj
 0002:0000f574       $unwind$?DecompFuncInfo@FH4@@YA_JPEAEAEAUFuncInfo4@1@_KH_N@Z 0000000180058574     libvcruntime:risctrnsctrl.obj
 0002:0000f58c       $unwind$?GetEstablisherFrame@__FrameHandler3@@SAPEA_KPEA_KPEAU_xDISPATCHER_CONTEXT@@PEBU_s_FuncInfo@@0@Z 000000018005858c     libvcruntime:risctrnsctrl.obj
 0002:0000f5a4       $unwind$?UnwindNestedFrames@__FrameHandler3@@SAXPEA_KPEAUEHExceptionRecord@@PEAU_CONTEXT@@0PEAXPEBU_s_FuncInfo@@HHPEBU_s_HandlerType@@PEAU_xDISPATCHER_CONTEXT@@E@Z 00000001800585a4     libvcruntime:risctrnsctrl.obj
 0002:0000f5a4       $unwind$?UnwindNestedFrames@__FrameHandler4@@SAXPEA_KPEAUEHExceptionRecord@@PEAU_CONTEXT@@0PEAXPEAUFuncInfo4@FH4@@HHPEAUHandlerType4@5@PEAU_xDISPATCHER_CONTEXT@@E@Z 00000001800585a4     libvcruntime:risctrnsctrl.obj
 0002:0000f5b8       $unwind$?GetRangeOfTrysToCheck@__FrameHandler4@@SA?AU?$pair@Viterator@TryBlockMap4@FH4@@V123@@std@@AEAVTryBlockMap4@FH4@@HPEAU_xDISPATCHER_CONTEXT@@PEAUFuncInfo4@5@H@Z 00000001800585b8     libvcruntime:risctrnsctrl.obj
 0002:0000f5d4       $unwind$__CxxFrameHandler3 00000001800585d4     libvcruntime:risctrnsctrl.obj
 0002:0000f5e8       $unwind$__CxxFrameHandler4 00000001800585e8     libvcruntime:risctrnsctrl.obj
 0002:0000f5fc       $unwind$??$_CallSETranslator@V__FrameHandler4@@@@YAHPEAUEHExceptionRecord@@PEA_KPEAU_CONTEXT@@PEAU_xDISPATCHER_CONTEXT@@PEAUFuncInfo4@FH4@@K1H@Z 00000001800585fc     libvcruntime:risctrnsctrl.obj
 0002:0000f61c       $unwind$?filt$0@?0???$_CallSETranslator@V__FrameHandler3@@@@YAHPEAUEHExceptionRecord@@PEA_KPEAU_CONTEXT@@PEAU_xDISPATCHER_CONTEXT@@PEBU_s_FuncInfo@@K1H@Z@4HA 000000018005861c     libvcruntime:risctrnsctrl.obj
 0002:0000f61c       $unwind$?filt$0@?0???$_CallSETranslator@V__FrameHandler4@@@@YAHPEAUEHExceptionRecord@@PEA_KPEAU_CONTEXT@@PEAU_xDISPATCHER_CONTEXT@@PEAUFuncInfo4@FH4@@K1H@Z@4HA 000000018005861c     libvcruntime:risctrnsctrl.obj
 0002:0000f628       $unwind$??$_CallSETranslator@V__FrameHandler3@@@@YAHPEAUEHExceptionRecord@@PEA_KPEAU_CONTEXT@@PEAU_xDISPATCHER_CONTEXT@@PEBU_s_FuncInfo@@K1H@Z 0000000180058628     libvcruntime:risctrnsctrl.obj
 0002:0000f648       $unwind$?try_get_function@@YAPEAXW4function_id@?A0xf6f43728@@QEBDQEBW4module_id@2@2@Z 0000000180058648     libvcruntime:winapi_downlevel.obj
 0002:0000f648       $unwind$?try_get_function@@YAPEAXW4function_id@?A0x391cf84c@@QEBDQEBW4module_id@2@2@Z 0000000180058648     libucrt:winapi_thunks.obj
 0002:0000f664       $unwind$?StateFromIp@__FrameHandler4@@SAHPEAUFuncInfo4@FH4@@PEAU_xDISPATCHER_CONTEXT@@_K@Z 0000000180058664     libvcruntime:ehstate.obj
 0002:0000f678       $unwind$?getStartStop@UWMap4@FH4@@QEAAXHHAEAViterator@12@0@Z 0000000180058678     libvcruntime:frame.obj
 0002:0000f690       $unwind$?FrameUnwindToState@__FrameHandler3@@SAXPEA_KPEAU_xDISPATCHER_CONTEXT@@PEBU_s_FuncInfo@@H@Z 0000000180058690     libvcruntime:frame.obj
 0002:0000f6dc       $unwind$?CxxCallCatchBlock@__FrameHandler3@@SAPEAXPEAU_EXCEPTION_RECORD@@@Z 00000001800586dc     libvcruntime:frame.obj
 0002:0000f718       $unwind$?FrameUnwindToState@__FrameHandler4@@SAXPEA_KPEAU_xDISPATCHER_CONTEXT@@PEAUFuncInfo4@FH4@@H@Z 0000000180058718     libvcruntime:frame.obj
 0002:0000f760       $unwind$?CxxCallCatchBlock@__FrameHandler4@@SAPEAXPEAU_EXCEPTION_RECORD@@@Z 0000000180058760     libvcruntime:frame.obj
 0002:0000f7bc       $unwind$?IsInExceptionSpec@@YAEPEAUEHExceptionRecord@@PEBU_s_ESTypeList@@@Z 00000001800587bc     libvcruntime:frame.obj
 0002:0000f7d8       $unwind$??$__InternalCxxFrameHandler@V__FrameHandler3@@@@YA?AW4_EXCEPTION_DISPOSITION@@PEAUEHExceptionRecord@@PEA_KPEAU_CONTEXT@@PEAU_xDISPATCHER_CONTEXT@@PEBU_s_FuncInfo@@H1E@Z 00000001800587d8     libvcruntime:frame.obj
 0002:0000f7d8       $unwind$?fp_format_e@@YAHQEBNQEAD_K12H_NIW4__acrt_rounding_mode@@AEAV__crt_cached_ptd_host@@@Z 00000001800587d8     libucrt:cvt.obj
 0002:0000f7f0       $unwind$??$__InternalCxxFrameHandler@V__FrameHandler4@@@@YA?AW4_EXCEPTION_DISPOSITION@@PEAUEHExceptionRecord@@PEA_KPEAU_CONTEXT@@PEAU_xDISPATCHER_CONTEXT@@PEAUFuncInfo4@FH4@@H1E@Z 00000001800587f0     libvcruntime:frame.obj
 0002:0000f808       $unwind$__GSHandlerCheck_EH 0000000180058808     LIBCMT:gshandlereh.obj
 0002:0000f808       $unwind$__GSHandlerCheck_SEH 0000000180058808     LIBCMT:gshandlerseh.obj
 0002:0000f808       $unwind$??$TypeMatchHelper@V__FrameHandler3@@@@YAHPEBU_s_HandlerType@@PEBU_s_CatchableType@@PEBU_s_ThrowInfo@@@Z 0000000180058808     libvcruntime:frame.obj
 0002:0000f808       $unwind$??$TypeMatchHelper@V__FrameHandler4@@@@YAHPEAUHandlerType4@FH4@@PEBU_s_CatchableType@@PEBU_s_ThrowInfo@@@Z 0000000180058808     libvcruntime:frame.obj
 0002:0000f808       $unwind$?initialize_stdio_handles_nolock@@YAXXZ 0000000180058808     libucrt:ioinit.obj
 0002:0000f808       $unwind$__acrt_initialize_stdio 0000000180058808     libucrt:_file.obj
 0002:0000f820       $unwind$??$BuildCatchObjectHelperInternal@V__FrameHandler3@@@@YAHPEAUEHExceptionRecord@@PEAXPEBU_s_HandlerType@@PEBU_s_CatchableType@@@Z 0000000180058820     libvcruntime:frame.obj
 0002:0000f860       $unwind$??$BuildCatchObjectHelperInternal@V__FrameHandler4@@@@YAHPEAUEHExceptionRecord@@PEAXPEAUHandlerType4@FH4@@PEBU_s_CatchableType@@@Z 0000000180058860     libvcruntime:frame.obj
 0002:0000f8a0       $unwind$??$BuildCatchObjectInternal@V__FrameHandler3@@@@YAXPEAUEHExceptionRecord@@PEAXPEBU_s_HandlerType@@PEBU_s_CatchableType@@@Z 00000001800588a0     libvcruntime:frame.obj
 0002:0000f8cc       $unwind$??$BuildCatchObjectInternal@V__FrameHandler4@@@@YAXPEAUEHExceptionRecord@@PEAXPEAUHandlerType4@FH4@@PEBU_s_CatchableType@@@Z 00000001800588cc     libvcruntime:frame.obj
 0002:0000f8f8       $unwind$??$FindHandler@V__FrameHandler3@@@@YAXPEAUEHExceptionRecord@@PEA_KPEAU_CONTEXT@@PEAU_xDISPATCHER_CONTEXT@@PEBU_s_FuncInfo@@EH1@Z 00000001800588f8     libvcruntime:frame.obj
 0002:0000f918       $unwind$??$FindHandler@V__FrameHandler4@@@@YAXPEAUEHExceptionRecord@@PEA_KPEAU_CONTEXT@@PEAU_xDISPATCHER_CONTEXT@@PEAUFuncInfo4@FH4@@EH1@Z 0000000180058918     libvcruntime:frame.obj
 0002:0000f938       $unwind$??$CatchIt@V__FrameHandler3@@@@YAXPEAUEHExceptionRecord@@PEA_KPEAU_CONTEXT@@PEAU_xDISPATCHER_CONTEXT@@PEBU_s_FuncInfo@@PEBU_s_HandlerType@@PEBU_s_CatchableType@@PEBU_s_TryBlockMapEntry@@H1EE@Z 0000000180058938     libvcruntime:frame.obj
 0002:0000f938       $unwind$??$CatchIt@V__FrameHandler4@@@@YAXPEAUEHExceptionRecord@@PEA_KPEAU_CONTEXT@@PEAU_xDISPATCHER_CONTEXT@@PEAUFuncInfo4@FH4@@PEAUHandlerType4@4@PEBU_s_CatchableType@@PEAUTryBlockMapEntry4@4@H1EE@Z 0000000180058938     libvcruntime:frame.obj
 0002:0000f950       $unwind$??$FindHandlerForForeignException@V__FrameHandler3@@@@YAXPEAUEHExceptionRecord@@PEA_KPEAU_CONTEXT@@PEAU_xDISPATCHER_CONTEXT@@PEBU_s_FuncInfo@@HH1@Z 0000000180058950     libvcruntime:frame.obj
 0002:0000f96c       $unwind$??$FindHandlerForForeignException@V__FrameHandler4@@@@YAXPEAUEHExceptionRecord@@PEA_KPEAU_CONTEXT@@PEAU_xDISPATCHER_CONTEXT@@PEAUFuncInfo4@FH4@@HH1@Z 000000018005896c     libvcruntime:frame.obj
 0002:0000f990       $xdatasym                  0000000180058990     libvcruntime:handlers.obj
 0002:0000f9b0       $unwind$_CxxThrowException 00000001800589b0     libvcruntime:throw.obj
 0002:0000f9c0       $xdatasym                  00000001800589c0     libucrt:strcmp.obj
 0002:0000f9c4       $unwind$atan2f             00000001800589c4     libucrt:atan2f.obj
 0002:0000f9e8       $xdatasym                  00000001800589e8     libucrt:cosf.obj
 0002:0000f9f0       $xdatasym                  00000001800589f0     libucrt:sinf.obj
 0002:0000f9f8       $unwind$??$free_environment@D@@YAXQEAPEAD@Z 00000001800589f8     libucrt:environment_initialization.obj
 0002:0000f9f8       $unwind$??$free_environment@_W@@YAXQEAPEA_W@Z 00000001800589f8     libucrt:environment_initialization.obj
 0002:0000f9f8       $unwind$_initterm          00000001800589f8     libucrt:initterm.obj
 0002:0000fa04       $unwind$?try_cor_exit_process@@YAXI@Z 0000000180058a04     libucrt:exit.obj
 0002:0000fa18       $ip2state$?try_cor_exit_process@@YAXI@Z 0000000180058a18     libucrt:exit.obj
 0002:0000fa20       $unwind$?common_exit@@YAXHW4_crt_exit_cleanup_mode@@W4_crt_exit_return_mode@@@Z 0000000180058a20     libucrt:exit.obj
 0002:0000fa34       $stateUnwindMap$__dcrt_uninitialize_environments_nolock 0000000180058a34     libucrt:environment_initialization.obj
 0002:0000fa34       $stateUnwindMap$?common_exit@@YAXHW4_crt_exit_cleanup_mode@@W4_crt_exit_return_mode@@@Z 0000000180058a34     libucrt:exit.obj
 0002:0000fa34       $stateUnwindMap$_execute_onexit_table 0000000180058a34     libucrt:onexit.obj
 0002:0000fa40       $ip2state$?common_exit@@YAXHW4_crt_exit_cleanup_mode@@W4_crt_exit_return_mode@@@Z 0000000180058a40     libucrt:exit.obj
 0002:0000fa48       $unwind$??R<lambda_6e4b09c48022b2350581041d5f6b0c4c>@@QEBA@XZ 0000000180058a48     libucrt:exit.obj
 0002:0000fa68       $unwind$??$?RV<lambda_d80eeec6fff315bfe5c115232f3240e3>@@AEAV<lambda_6e4b09c48022b2350581041d5f6b0c4c>@@V<lambda_2358e3775559c9db80273638284d5e45>@@@?$__crt_seh_guarded_call@X@@QEAAX$$QEAV<lambda_d80eeec6fff315bfe5c115232f3240e3>@@AEAV<lambda_6e4b09c48022b2350581041d5f6b0c4c>@@$$QEAV<lambda_2358e3775559c9db80273638284d5e45>@@@Z 0000000180058a68     libucrt:exit.obj
 0002:0000fa8c       $unwind$_configure_narrow_argv 0000000180058a8c     libucrt:argv_parsing.obj
 0002:0000faa0       $unwind$?should_round_up@@YA_NQEBN_KFW4__acrt_rounding_mode@@@Z 0000000180058aa0     libucrt:cvt.obj
 0002:0000faa0       $unwind$??$parse_command_line@D@@YAXPEADPEAPEAD0PEA_K2@Z 0000000180058aa0     libucrt:argv_parsing.obj
 0002:0000fabc       $unwind$__dcrt_uninitialize_environments_nolock 0000000180058abc     libucrt:environment_initialization.obj
 0002:0000facc       $unwind$??$create_environment@D@@YAQEAPEADQEAD@Z 0000000180058acc     libucrt:environment_initialization.obj
 0002:0000facc       $unwind$_mbtowc_internal   0000000180058acc     libucrt:mbtowc.obj
 0002:0000facc       $unwind$??$__acrt_convert_wcs_mbs_cp@D_WV<lambda_7c9dea7b4ca7285d2cdb541a38da6275>@@U__crt_win32_buffer_internal_dynamic_resizing@@@@YAHQEBDAEAV?$__crt_win32_buffer@_WU__crt_win32_buffer_internal_dynamic_resizing@@@@AEBV<lambda_7c9dea7b4ca7285d2cdb541a38da6275>@@I@Z 0000000180058acc     libucrt:argv_wildcards.obj
 0002:0000fae4       $unwind$_execute_onexit_table 0000000180058ae4     libucrt:onexit.obj
 0002:0000faf8       $ip2state$_execute_onexit_table 0000000180058af8     libucrt:onexit.obj
 0002:0000fb00       $unwind$?fp_format_f_internal@@YAHQEAD_KHQEAU_strflt@@_NAEAV__crt_cached_ptd_host@@@Z 0000000180058b00     libucrt:cvt.obj
 0002:0000fb00       $unwind$__acrt_DownlevelLocaleNameToLCID 0000000180058b00     libucrt:lcidtoname_downlevel.obj
 0002:0000fb00       $unwind$??R<lambda_f03950bc5685219e0bcd2087efbe011e>@@QEBAHXZ 0000000180058b00     libucrt:onexit.obj
 0002:0000fb18       $unwind$??$?RV<lambda_7777bce6b2f8c936911f934f8298dc43>@@AEAV<lambda_f03950bc5685219e0bcd2087efbe011e>@@V<lambda_3883c3dff614d5e0c5f61bb1ac94921c>@@@?$__crt_seh_guarded_call@H@@QEAAH$$QEAV<lambda_7777bce6b2f8c936911f934f8298dc43>@@AEAV<lambda_f03950bc5685219e0bcd2087efbe011e>@@$$QEAV<lambda_3883c3dff614d5e0c5f61bb1ac94921c>@@@Z 0000000180058b18     libucrt:onexit.obj
 0002:0000fb3c       $unwind$terminate          0000000180058b3c     libucrt:terminate.obj
 0002:0000fb5c       $unwind$?get_raw_ptd@__crt_cached_ptd_host@@QEAAPEAU__acrt_ptd@@XZ 0000000180058b5c     libucrt:output.obj
 0002:0000fb64       $chain$0$?get_raw_ptd@__crt_cached_ptd_host@@QEAAPEAU__acrt_ptd@@XZ 0000000180058b64     libucrt:output.obj
 0002:0000fb78       $chain$1$?get_raw_ptd@__crt_cached_ptd_host@@QEAAPEAU__acrt_ptd@@XZ 0000000180058b78     libucrt:output.obj
 0002:0000fb88       $unwind$?write_string@?$string_output_adapter@D@__crt_stdio_output@@QEBAXQEBDHQEAHAEAV__crt_cached_ptd_host@@@Z 0000000180058b88     libucrt:output.obj
 0002:0000fba0       $unwind$??$common_vsprintf@Vformat_validation_base@__crt_stdio_output@@D@@YAH_KQEAD0QEBDAEAV__crt_cached_ptd_host@@1@Z 0000000180058ba0     libucrt:output.obj
 0002:0000fbc0       $unwind$?process@?$output_processor@DV?$string_output_adapter@D@__crt_stdio_output@@V?$format_validation_base@DV?$string_output_adapter@D@__crt_stdio_output@@@2@@__crt_stdio_output@@QEAAHXZ 0000000180058bc0     libucrt:output.obj
 0002:0000fbd4       $unwind$?parse_int_from_format_string@?$output_processor@DV?$string_output_adapter@D@__crt_stdio_output@@V?$format_validation_base@DV?$string_output_adapter@D@__crt_stdio_output@@@2@@__crt_stdio_output@@AEAA_NQEAH@Z 0000000180058bd4     libucrt:output.obj
 0002:0000fbe8       $unwind$?state_case_type@?$output_processor@DV?$string_output_adapter@D@__crt_stdio_output@@V?$format_validation_base@DV?$string_output_adapter@D@__crt_stdio_output@@@2@@__crt_stdio_output@@AEAA_NXZ 0000000180058be8     libucrt:output.obj
 0002:0000fc0c       $unwind$?type_case_a@?$output_processor@DV?$string_output_adapter@D@__crt_stdio_output@@V?$format_validation_base@DV?$string_output_adapter@D@__crt_stdio_output@@@2@@__crt_stdio_output@@AEAA_NXZ 0000000180058c0c     libucrt:output.obj
 0002:0000fc20       $unwind$?fp_format_e_internal@@YAHQEAD_KH_NIQEAU_strflt@@2AEAV__crt_cached_ptd_host@@@Z 0000000180058c20     libucrt:cvt.obj
 0002:0000fc20       $unwind$??$parse_integer@KV?$c_string_character_source@D@__crt_strtox@@$0A@@__crt_strtox@@YAKAEAV__crt_cached_ptd_host@@V?$c_string_character_source@D@0@H_N@Z 0000000180058c20     libucrt:output.obj
 0002:0000fc3c       $unwind$??$common_lseek_nolock@_J@@YA_JH_JHAEAV__crt_cached_ptd_host@@@Z 0000000180058c3c     libucrt:lseek.obj
 0002:0000fc3c       $unwind$_invalid_parameter_internal 0000000180058c3c     libucrt:invalid_parameter.obj
 0002:0000fc3c       $unwind$??$type_case_integer@$07@?$output_processor@DV?$string_output_adapter@D@__crt_stdio_output@@V?$format_validation_base@DV?$string_output_adapter@D@__crt_stdio_output@@@2@@__crt_stdio_output@@AEAA_N_N@Z 0000000180058c3c     libucrt:output.obj
 0002:0000fc3c       $unwind$??$type_case_integer@$09@?$output_processor@DV?$string_output_adapter@D@__crt_stdio_output@@V?$format_validation_base@DV?$string_output_adapter@D@__crt_stdio_output@@@2@@__crt_stdio_output@@AEAA_N_N@Z 0000000180058c3c     libucrt:output.obj
 0002:0000fc3c       $unwind$??$type_case_integer@$0BA@@?$output_processor@DV?$string_output_adapter@D@__crt_stdio_output@@V?$format_validation_base@DV?$string_output_adapter@D@__crt_stdio_output@@@2@@__crt_stdio_output@@AEAA_N_N@Z 0000000180058c3c     libucrt:output.obj
 0002:0000fc50       $unwind$atol               0000000180058c50     libucrt:atox.obj
 0002:0000fc60       $xdatasym                  0000000180058c60     libucrt:strncmp.obj
 0002:0000fc64       $unwind$_ctrlfp            0000000180058c64     libucrt:fpctrl.obj
 0002:0000fc8c       $unwind$_call_matherr      0000000180058c8c     libucrt:libm_error.obj
 0002:0000fc94       $unwind$_handle_error      0000000180058c94     libucrt:libm_error.obj
 0002:0000fc94       $unwind$_handle_errorf     0000000180058c94     libucrt:libm_error.obj
 0002:0000fcb8       $xdatasym                  0000000180058cb8     libucrt:remainder_piby2f_forasm.obj
 0002:0000fcc0       $xdatasym                  0000000180058cc0     libucrt:remainder_piby2_forfma3.obj
 0002:0000fccc       $unwind$_sincosf_special   0000000180058ccc     libucrt:sincos_special.obj
 0002:0000fcd4       $unwind$__acrt_initialize_fma3 0000000180058cd4     libucrt:fma3_available.obj
 0002:0000fce0       $xdatasym                  0000000180058ce0     libucrt:remainder_piby2f_forc.obj
 0002:0000fcf0       $unwind$_free_base         0000000180058cf0     libucrt:free_base.obj
 0002:0000fcf0       $unwind$?destroy_fls@@YAXPEAX@Z 0000000180058cf0     libucrt:per_thread_data.obj
 0002:0000fcf0       $unwind$__acrt_locale_free_numeric 0000000180058cf0     libucrt:initnum.obj
 0002:0000fcf0       $unwind$__acrt_locale_free_lc_time_if_unreferenced 0000000180058cf0     libucrt:locale_refcounting.obj
 0002:0000fcf8       $unwind$?construct_ptd_array@@YAXQEAU__acrt_ptd@@@Z 0000000180058cf8     libucrt:per_thread_data.obj
 0002:0000fd00       $unwind$?destroy_ptd_array@@YAXQEAU__acrt_ptd@@@Z 0000000180058d00     libucrt:per_thread_data.obj
 0002:0000fd08       $unwind$??$?RV<lambda_0ae27a3a962d80f24befdcbee591983d>@@AEAV<lambda_8d0ee55de4b1038c4002e0adecdf1839>@@V<lambda_dc504788e8f1664fe9b84e20bfb512f2>@@@?$__crt_seh_guarded_call@X@@QEAAX$$QEAV<lambda_0ae27a3a962d80f24befdcbee591983d>@@AEAV<lambda_8d0ee55de4b1038c4002e0adecdf1839>@@$$QEAV<lambda_dc504788e8f1664fe9b84e20bfb512f2>@@@Z 0000000180058d08     libucrt:per_thread_data.obj
 0002:0000fd2c       $unwind$??$?RV<lambda_aa87e3671a710a21b5dc78c0bdf72e11>@@AEAV<lambda_92619d2358a28f41a33ba319515a20b9>@@V<lambda_6992ecaafeb10aed2b74cb1fae11a551>@@@?$__crt_seh_guarded_call@X@@QEAAX$$QEAV<lambda_aa87e3671a710a21b5dc78c0bdf72e11>@@AEAV<lambda_92619d2358a28f41a33ba319515a20b9>@@$$QEAV<lambda_6992ecaafeb10aed2b74cb1fae11a551>@@@Z 0000000180058d2c     libucrt:per_thread_data.obj
 0002:0000fd50       $unwind$??$?RV<lambda_f2e299630e499de9f9a165e60fcd3db5>@@AEAV<lambda_2ae9d31cdba2644fcbeaf08da7c24588>@@V<lambda_40d01ff24d0e7b3814fdbdcee8eab3c7>@@@?$__crt_seh_guarded_call@X@@QEAAX$$QEAV<lambda_f2e299630e499de9f9a165e60fcd3db5>@@AEAV<lambda_2ae9d31cdba2644fcbeaf08da7c24588>@@$$QEAV<lambda_40d01ff24d0e7b3814fdbdcee8eab3c7>@@@Z 0000000180058d50     libucrt:per_thread_data.obj
 0002:0000fd74       $unwind$??$?RV<lambda_2d41944a1d46af3157314b8a01080d33>@@AEAV<lambda_8f455de75cd7d7f24b4096f044d8b9e6>@@V<lambda_aa500f224e6afead328df44964fe2772>@@@?$__crt_seh_guarded_call@X@@QEAAX$$QEAV<lambda_2d41944a1d46af3157314b8a01080d33>@@AEAV<lambda_8f455de75cd7d7f24b4096f044d8b9e6>@@$$QEAV<lambda_aa500f224e6afead328df44964fe2772>@@@Z 0000000180058d74     libucrt:per_thread_data.obj
 0002:0000fd98       $unwind$__acrt_call_reportfault 0000000180058d98     libucrt:invalid_parameter.obj
 0002:0000fdb8       $unwind$_invalid_parameter 0000000180058db8     libucrt:invalid_parameter.obj
 0002:0000fdc4       $unwind$??$common_expand_argv_wildcards@D@@YAHQEAPEADQEAPEAPEAD@Z 0000000180058dc4     libucrt:argv_wildcards.obj
 0002:0000fddc       $unwind$__dcrt_get_narrow_environment_from_os 0000000180058ddc     libucrt:get_environment_from_os.obj
