 PhysXCommon_64

 Timestamp is 640869e8 (Wed Mar  8 11:56:40 2023)

 Preferred load address is 0000000180000000

 Start         Length     Name                   Class
 0001:00000000 000028c0H .text$di                CODE
 0001:000028c0 00135570H .text$mn                CODE
 0001:00137e30 00000040H .text$mn$00             CODE
 0001:00137e70 00000620H .text$x                 CODE
 0002:00000000 00000278H .idata$5                DATA
 0002:00000278 00000028H .00cfg                  DATA
 0002:000002a0 00000008H .CRT$XCA                DATA
 0002:000002a8 00001428H .CRT$XCU                DATA
 0002:000016d0 00000008H .CRT$XCZ                DATA
 0002:000016d8 00000008H .CRT$XIA                DATA
 0002:000016e0 00000018H .CRT$XIC                DATA
 0002:000016f8 00000008H .CRT$XIZ                DATA
 0002:00001700 00000008H .CRT$XPA                DATA
 0002:00001708 00000010H .CRT$XPX                DATA
 0002:00001718 00000008H .CRT$XPXA               DATA
 0002:00001720 00000008H .CRT$XPZ                DATA
 0002:00001728 00000008H .CRT$XTA                DATA
 0002:00001730 00000010H .CRT$XTZ                DATA
 0002:00001738 00000000H .gehcont$y              DATA
 0002:00001738 00000000H .gfids$y                DATA
 0002:00001740 0000d340H .rdata                  DATA
 0002:0000ea80 00000000H .rdata$CastGuardVftablesA DATA
 0002:0000ea80 00000000H .rdata$CastGuardVftablesC DATA
 0002:0000ea80 0000043cH .rdata$r                DATA
 0002:0000eebc 00000098H .rdata$voltmd           DATA
 0002:0000ef54 0000043cH .rdata$zzzdbg           DATA
 0002:0000f390 00000008H .rtc$IAA                DATA
 0002:0000f398 00000008H .rtc$IZZ                DATA
 0002:0000f3a0 00000008H .rtc$TAA                DATA
 0002:0000f3a8 00000008H .rtc$TZZ                DATA
 0002:0000f3b0 0000c8d8H .xdata                  DATA
 0002:0001bc88 00000084H .xdata$x                DATA
 0002:0001bd0c 00000020H .didat$2                DATA
 0002:0001bd2c 00000024H .didat$3                DATA
 0002:0001bd50 00000088H .didat$4                DATA
 0002:0001bdd8 00000318H .didat$6                DATA
 0002:0001c0f0 00000090H .didat$7                DATA
 0002:0001c180 0000a0dcH .edata                  DATA
 0002:0002625c 00000014H .idata$2                DATA
 0002:00026270 00000018H .idata$3                DATA
 0002:00026288 00000278H .idata$4                DATA
 0002:00026500 000005aeH .idata$6                DATA
 0003:00000000 00001430H .data                   DATA
 0003:00001430 000005c8H .data$r                 DATA
 0003:000019f8 000000f0H .data$rs                DATA
 0003:00001ae8 00000088H .didat$5                DATA
 0003:00001b70 00003ad0H .bss                    DATA
 0004:00000000 00007074H .pdata                  DATA
 0005:00000000 00002304H _RDATA                  DATA
 0006:00000000 000000a0H .rsrc$01                DATA
 0006:000000a0 000004b0H .rsrc$02                DATA

  Address         Publics by Value              Rva+Base               Lib:Object

 0000:00000000       ___safe_se_handler_table   0000000000000000     <absolute>
 0000:00000000       __guard_fids_count         0000000000000000     <absolute>
 0000:00000000       __guard_iat_table          0000000000000000     <absolute>
 0000:00000000       __arm64x_extra_rfe_table   0000000000000000     <absolute>
 0000:00000000       __guard_iat_count          0000000000000000     <absolute>
 0000:00000000       __guard_longjmp_count      0000000000000000     <absolute>
 0000:00000000       __hybrid_code_map          0000000000000000     <absolute>
 0000:00000000       __dynamic_value_reloc_table 0000000000000000     <absolute>
 0000:00000000       __arm64x_extra_rfe_table_size 0000000000000000     <absolute>
 0000:00000000       ___safe_se_handler_count   0000000000000000     <absolute>
 0000:00000000       __hybrid_auxiliary_iat     0000000000000000     <absolute>
 0000:00000000       __hybrid_auxiliary_iat_copy 0000000000000000     <absolute>
 0000:00000000       __arm64x_redirection_metadata 0000000000000000     <absolute>
 0000:00000000       __AbsoluteZero             0000000000000000     <absolute>
 0000:00000000       __guard_check_icall_a64n_fptr 0000000000000000     <absolute>
 0000:00000000       __guard_eh_cont_count      0000000000000000     <absolute>
 0000:00000000       __guard_fids_table         0000000000000000     <absolute>
 0000:00000000       __guard_longjmp_table      0000000000000000     <absolute>
 0000:00000000       __x64_code_ranges_to_entry_points_count 0000000000000000     <absolute>
 0000:00000000       __arm64x_redirection_metadata_count 0000000000000000     <absolute>
 0000:00000000       __x64_code_ranges_to_entry_points 0000000000000000     <absolute>
 0000:00000000       __enclave_config           0000000000000000     <absolute>
 0000:00000000       __guard_eh_cont_table      0000000000000000     <absolute>
 0000:00000000       __arm64x_native_entrypoint 0000000000000000     <absolute>
 0000:00000000       __hybrid_code_map_count    0000000000000000     <absolute>
 0000:00000100       __guard_flags              0000000000000100     <absolute>
 0000:00000000       __ImageBase                0000000180000000     <linker-defined>
 0001:000028c0       ??_GCollection@Cm@physx@@UEAAPEAXI@Z 00000001800038c0 f i CmCollection.obj
 0001:000028c0       ??_ECollection@Cm@physx@@UEAAPEAXI@Z 00000001800038c0 f i CmCollection.obj
 0001:00002970       ??_GPxCollection@physx@@MEAAPEAXI@Z 0000000180003970 f i CmCollection.obj
 0001:00002970       ??_EPxCollection@physx@@MEAAPEAXI@Z 0000000180003970 f i CmCollection.obj
 0001:000029a0       ?PxCreateCollection@@YAPEAVPxCollection@physx@@XZ 00000001800039a0 f   CmCollection.obj
 0001:00002aa0       ?add@Collection@Cm@physx@@UEAAXAEAVPxBase@3@_K@Z 0000000180003aa0 f   CmCollection.obj
 0001:00002b90       ?add@Collection@Cm@physx@@UEAAXAEAVPxCollection@3@@Z 0000000180003b90 f   CmCollection.obj
 0001:00002d30       ?addId@Collection@Cm@physx@@UEAAXAEAVPxBase@3@_K@Z 0000000180003d30 f   CmCollection.obj
 0001:00002e60       ?contains@Collection@Cm@physx@@UEBA_NAEAVPxBase@3@@Z 0000000180003e60 f   CmCollection.obj
 0001:00002f10       ?create@?$HashBase@V?$Pair@QEAVPxBase@physx@@_K@shdfnd@physx@@PEAVPxBase@3@U?$Hash@PEAVPxBase@physx@@@23@UGetKey@?$HashMapBase@PEAVPxBase@physx@@_KU?$Hash@PEAVPxBase@physx@@@shdfnd@2@VNonTrackingAllocator@42@@internal@23@VNonTrackingAllocator@23@$00@internal@shdfnd@physx@@QEAAPEAV?$Pair@QEAVPxBase@physx@@_K@34@AEBQEAVPxBase@4@AEA_N@Z 0000000180003f10 f i CmCollection.obj
 0001:00002f10       ?create@?$HashBase@V?$Pair@$$CB_KPEAVPxBase@physx@@@shdfnd@physx@@_KU?$Hash@_K@23@UGetKey@?$HashMapBase@_KPEAVPxBase@physx@@U?$Hash@_K@shdfnd@2@VNonTrackingAllocator@42@@internal@23@VNonTrackingAllocator@23@$00@internal@shdfnd@physx@@QEAAPEAV?$Pair@$$CB_KPEAVPxBase@physx@@@34@AEB_KAEA_N@Z 0000000180003f10 f i CmCollection.obj
 0001:000030b0       ?erase@?$HashBase@V?$Pair@$$CB_KPEAVPxBase@physx@@@shdfnd@physx@@_KU?$Hash@_K@23@UGetKey@?$HashMapBase@_KPEAVPxBase@physx@@U?$Hash@_K@shdfnd@2@VNonTrackingAllocator@42@@internal@23@VNonTrackingAllocator@23@$00@internal@shdfnd@physx@@QEAA_NAEB_K@Z 00000001800040b0 f i CmCollection.obj
 0001:000030b0       ?erase@?$HashBase@V?$Pair@QEAVPxBase@physx@@_K@shdfnd@physx@@PEAVPxBase@3@U?$Hash@PEAVPxBase@physx@@@23@UGetKey@?$HashMapBase@PEAVPxBase@physx@@_KU?$Hash@PEAVPxBase@physx@@@shdfnd@2@VNonTrackingAllocator@42@@internal@23@VNonTrackingAllocator@23@$00@internal@shdfnd@physx@@QEAA_NAEBQEAVPxBase@4@@Z 00000001800040b0 f i CmCollection.obj
 0001:00003250       ?find@?$HashMapBase@_KPEAVPxBase@physx@@U?$Hash@_K@shdfnd@2@VNonTrackingAllocator@42@@internal@shdfnd@physx@@QEBAPEBV?$Pair@$$CB_KPEAVPxBase@physx@@@34@AEB_K@Z 0000000180004250 f i CmCollection.obj
 0001:000032f0       ?find@Collection@Cm@physx@@UEBAPEAVPxBase@3@_K@Z 00000001800042f0 f   CmCollection.obj
 0001:00003320       ?getId@Collection@Cm@physx@@UEBA_KAEBVPxBase@3@@Z 0000000180004320 f   CmCollection.obj
 0001:000033d0       ?getIds@Collection@Cm@physx@@UEBAIPEA_KII@Z 00000001800043d0 f   CmCollection.obj
 0001:00003490       ?getNbColumns@HeightField@Gu@physx@@UEBAIXZ 0000000180004490 f   GuBounds.obj
 0001:00003490       ?getNbIds@Collection@Cm@physx@@UEBAIXZ 0000000180004490 f   CmCollection.obj
 0001:000034a0       ?getNbObjects@Collection@Cm@physx@@UEBAIXZ 00000001800044a0 f   CmCollection.obj
 0001:000034b0       ?getObject@Collection@Cm@physx@@UEBAAEAVPxBase@3@I@Z 00000001800044b0 f   CmCollection.obj
 0001:000034c0       ?getObjects@Collection@Cm@physx@@UEBAIPEAPEAVPxBase@3@II@Z 00000001800044c0 f   CmCollection.obj
 0001:00003510       ?release@Collection@Cm@physx@@UEAAXXZ 0000000180004510 f i CmCollection.obj
 0001:00003530       ?remove@Collection@Cm@physx@@UEAAXAEAVPxBase@3@@Z 0000000180004530 f   CmCollection.obj
 0001:00003620       ?remove@Collection@Cm@physx@@UEAAXAEAVPxCollection@3@@Z 0000000180004620 f   CmCollection.obj
 0001:00003730       ?removeId@Collection@Cm@physx@@UEAAX_K@Z 0000000180004730 f   CmCollection.obj
 0001:000037b0       ?reserveInternal@?$HashBase@V?$Pair@$$CB_KPEAVPxBase@physx@@@shdfnd@physx@@_KU?$Hash@_K@23@UGetKey@?$HashMapBase@_KPEAVPxBase@physx@@U?$Hash@_K@shdfnd@2@VNonTrackingAllocator@42@@internal@23@VNonTrackingAllocator@23@$00@internal@shdfnd@physx@@AEAAXI@Z 00000001800047b0 f i CmCollection.obj
 0001:000037b0       ?reserveInternal@?$HashBase@V?$Pair@QEAVPxBase@physx@@_K@shdfnd@physx@@PEAVPxBase@3@U?$Hash@PEAVPxBase@physx@@@23@UGetKey@?$HashMapBase@PEAVPxBase@physx@@_KU?$Hash@PEAVPxBase@physx@@@shdfnd@2@VNonTrackingAllocator@42@@internal@23@VNonTrackingAllocator@23@$00@internal@shdfnd@physx@@AEAAXI@Z 00000001800047b0 f i CmCollection.obj
 0001:000039a0       ??0PtrTable@Cm@physx@@QEAA@W4PxEMPTY@2@@Z 00000001800049a0 f i CmPtrTable.obj
 0001:000039c0       ??0PtrTable@Cm@physx@@QEAA@XZ 00000001800049c0 f   CmPtrTable.obj
 0001:000039d0       ??1MaterialIndicesStruct@physx@@QEAA@XZ 00000001800049d0 f   GuGeometryUnion.obj
 0001:000039d0       ??1Box@Gu@physx@@QEAA@XZ   00000001800049d0 f   GuBounds.obj
 0001:000039d0       ?requiresObjects@HeightField@Gu@physx@@UEAAXAEAVPxProcessPxBaseCallback@3@@Z 00000001800049d0 f   GuHeightField.obj
 0001:000039d0       ??1PtrTable@Cm@physx@@QEAA@XZ 00000001800049d0 f   CmPtrTable.obj
 0001:000039d0       ?requiresObjects@TriangleMesh@Gu@physx@@UEAAXAEAVPxProcessPxBaseCallback@3@@Z 00000001800049d0 f   GuTriangleMesh.obj
 0001:000039d0       ?profile@Callback@RTree@Gu@physx@@UEAAXXZ 00000001800049d0 f   GuMidphaseRTree.obj
 0001:000039d0       ??1AABBTreeBuildNode@Gu@physx@@QEAA@XZ 00000001800049d0 f   GuAABBTreeBuild.obj
 0001:000039d0       _guard_check_icall_nop     00000001800049d0 f   LIBCMT:guard_support.obj
 0001:000039d0       ??1HeightFieldData@Gu@physx@@QEAA@XZ 00000001800049d0 f   GuBounds.obj
 0001:000039d0       ?requiresObjects@ConvexMesh@Gu@physx@@UEAAXAEAVPxProcessPxBaseCallback@3@@Z 00000001800049d0 f   GuConvexMesh.obj
 0001:000039e0       ??4CmModuleUpdateLoader@Cm@physx@@QEAAAEAV012@AEBV012@@Z 00000001800049e0 f i CmWindowsModuleUpdateLoader.obj
 0001:000039e0       ??4PtrTable@Cm@physx@@QEAAAEAU012@AEBU012@@Z 00000001800049e0 f i CmPtrTable.obj
 0001:000039e0       ??4MaterialIndicesStruct@physx@@QEAAAEAU01@AEBU01@@Z 00000001800049e0 f i GuGeometryUnion.obj
 0001:000039f0       ?add@PtrTable@Cm@physx@@QEAAXPEAXAEAVPtrTableStorageManager@23@@Z 00000001800049f0 f   CmPtrTable.obj
 0001:00003ab0       ?clear@PtrTable@Cm@physx@@QEAAXAEAVPtrTableStorageManager@23@@Z 0000000180004ab0 f   CmPtrTable.obj
 0001:00003b30       ?exportExtraData@PtrTable@Cm@physx@@QEAAXAEAVPxSerializationContext@3@@Z 0000000180004b30 f   CmPtrTable.obj
 0001:00003b80       ?find@PtrTable@Cm@physx@@QEBAIPEBX@Z 0000000180004b80 f   CmPtrTable.obj
 0001:00003bb0       ?getBinaryMetaData@PtrTable@Cm@physx@@SAXAEAVPxOutputStream@3@@Z 0000000180004bb0 f   CmPtrTable.obj
 0001:00003d60       ?getCount@PtrTable@Cm@physx@@QEBAIXZ 0000000180004d60 f i CmPtrTable.obj
 0001:00003d70       ?getPtrs@PtrTable@Cm@physx@@QEBAPEBQEAXXZ 0000000180004d70 f i CmPtrTable.obj
 0001:00003d70       ?getPtrs@PtrTable@Cm@physx@@QEAAPEAPEAXXZ 0000000180004d70 f i CmPtrTable.obj
 0001:00003d80       ?importExtraData@PtrTable@Cm@physx@@QEAAXAEAVPxDeserializationContext@3@@Z 0000000180004d80 f   CmPtrTable.obj
 0001:00003db0       ?realloc@PtrTable@Cm@physx@@AEAAXIIAEAVPtrTableStorageManager@23@@Z 0000000180004db0 f   CmPtrTable.obj
 0001:00003e40       ?replaceWithLast@PtrTable@Cm@physx@@QEAAXIAEAVPtrTableStorageManager@23@@Z 0000000180004e40 f   CmPtrTable.obj
 0001:00003f40       ??0RadixSort@Cm@physx@@QEAA@XZ 0000000180004f40 f   CmRadixSort.obj
 0001:00003f70       ??1RadixSort@Cm@physx@@UEAA@XZ 0000000180004f70 f   CmRadixSort.obj
 0001:00003f80       ??_ERadixSort@Cm@physx@@UEAAPEAXI@Z 0000000180004f80 f i CmRadixSort.obj
 0001:00004010       ?GetNbHits@RadixSort@Cm@physx@@QEBAIXZ 0000000180005010 f i CmRadixSort.obj
 0001:00004020       ?GetNbTotalCalls@RadixSort@Cm@physx@@QEBAIXZ 0000000180005020 f i CmRadixSort.obj
 0001:00004030       ?GetRanks@RadixSort@Cm@physx@@QEBAPEBIXZ 0000000180005030 f i CmRadixSort.obj
 0001:00004030       ?getHeightField@HeightFieldUtil@Gu@physx@@QEBAAEBVHeightField@23@XZ 0000000180005030 f i GuCCTSweepTests.obj
 0001:00004040       ?GetRecyclable@RadixSort@Cm@physx@@QEBAPEAIXZ 0000000180005040 f i CmRadixSort.obj
 0001:00004040       ?GetValencies@BigConvexData@physx@@QEBAPEBUValency@Gu@2@XZ 0000000180005040 f i GuMetaData.obj
 0001:00004040       ?getHeightFieldGeometry@HeightFieldUtil@Gu@physx@@QEBAAEBVPxHeightFieldGeometry@3@XZ 0000000180005040 f i GuCCTSweepTests.obj
 0001:00004040       ?getPos@AABBTreeBuildNode@Gu@physx@@QEBAPEBV123@XZ 0000000180005040 f i GuAABBTreeBuild.obj
 0001:00004050       ?SetBuffers@RadixSort@Cm@physx@@QEAA_NPEAI00PEAPEAI@Z 0000000180005050 f   CmRadixSort.obj
 0001:00004090       ?Sort@RadixSort@Cm@physx@@QEAAAEAV123@PEBIIW4RadixHint@23@@Z 0000000180005090 f   CmRadixSort.obj
 0001:000046e0       ?Sort@RadixSort@Cm@physx@@QEAAAEAV123@PEBMI@Z 00000001800056e0 f   CmRadixSort.obj
 0001:00004e40       ?invalidateRanks@RadixSort@Cm@physx@@QEAAXXZ 0000000180005e40 f i CmRadixSort.obj
 0001:00004e50       ??0RadixSortBuffered@Cm@physx@@QEAA@XZ 0000000180005e50 f   CmRadixSortBuffered.obj
 0001:00004e80       ??1RadixSortBuffered@Cm@physx@@UEAA@XZ 0000000180005e80 f   CmRadixSortBuffered.obj
 0001:00004eb0       ??_ERadixSortBuffered@Cm@physx@@UEAAPEAXI@Z 0000000180005eb0 f i CmRadixSortBuffered.obj
 0001:00004fe0       ?CheckResize@RadixSortBuffered@Cm@physx@@AEAAXI@Z 0000000180005fe0 f i CmRadixSortBuffered.obj
 0001:00005020       ?Resize@RadixSortBuffered@Cm@physx@@AEAA_NI@Z 0000000180006020 f   CmRadixSortBuffered.obj
 0001:00005110       ?Sort@RadixSortBuffered@Cm@physx@@QEAAAEAV123@PEBIIW4RadixHint@23@@Z 0000000180006110 f   CmRadixSortBuffered.obj
 0001:000051b0       ?Sort@RadixSortBuffered@Cm@physx@@QEAAAEAV123@PEBMI@Z 00000001800061b0 f   CmRadixSortBuffered.obj
 0001:00005240       ?reset@RadixSortBuffered@Cm@physx@@QEAAXXZ 0000000180006240 f   CmRadixSortBuffered.obj
 0001:000052c0       ??0DebugText@Cm@physx@@QEAA@$$QEAU012@@Z 00000001800062c0 f i CmRenderOutput.obj
 0001:000052c0       ??0DebugText@Cm@physx@@QEAA@AEBU012@@Z 00000001800062c0 f i CmRenderOutput.obj
 0001:000053a0       ??0DebugText@Cm@physx@@QEAA@AEBVPxVec3@2@MPEBDZZ 00000001800063a0 f   CmRenderOutput.obj
 0001:00005400       ??0RenderOutput@Cm@physx@@QEAA@AEAVRenderBuffer@12@@Z 0000000180006400 f i CmRenderOutput.obj
 0001:00005450       ??0RenderOutput@Cm@physx@@QEAA@AEBV012@@Z 0000000180006450 f i CmRenderOutput.obj
 0001:000054f0       ??4DebugText@Cm@physx@@QEAAAEAU012@AEBU012@@Z 00000001800064f0 f i CmRenderOutput.obj
 0001:000054f0       ??4DebugText@Cm@physx@@QEAAAEAU012@$$QEAU012@@Z 00000001800064f0 f i CmRenderOutput.obj
 0001:00005620       ??6Cm@physx@@YAAEAVRenderOutput@01@AEAV201@AEBUDebugArc@01@@Z 0000000180006620 f   CmRenderOutput.obj
 0001:00005720       ??6Cm@physx@@YAAEAVRenderOutput@01@AEAV201@AEBUDebugArrow@01@@Z 0000000180006720 f   CmRenderOutput.obj
 0001:00005b10       ??6Cm@physx@@YAAEAVRenderOutput@01@AEAV201@AEBUDebugBasis@01@@Z 0000000180006b10 f   CmRenderOutput.obj
 0001:00005c10       ??6Cm@physx@@YAAEAVRenderOutput@01@AEAV201@AEBUDebugBox@01@@Z 0000000180006c10 f   CmRenderOutput.obj
 0001:00006110       ??6Cm@physx@@YAAEAVRenderOutput@01@AEAV201@AEBUDebugCircle@01@@Z 0000000180007110 f   CmRenderOutput.obj
 0001:000061f0       ??6RenderOutput@Cm@physx@@QEAAAEAV012@AEBUDebugText@12@@Z 00000001800071f0 f   CmRenderOutput.obj
 0001:00006400       ??6RenderOutput@Cm@physx@@QEAAAEAV012@AEBVPxMat44@2@@Z 0000000180007400 f   CmRenderOutput.obj
 0001:00006470       ??6RenderOutput@Cm@physx@@QEAAAEAV012@AEBVPxTransform@2@@Z 0000000180007470 f   CmRenderOutput.obj
 0001:000065f0       ??6RenderOutput@Cm@physx@@QEAAAEAV012@I@Z 00000001800075f0 f   CmRenderOutput.obj
 0001:00006600       ??6RenderOutput@Cm@physx@@QEAAAEAV012@VPxVec3@2@@Z 0000000180007600 f   CmRenderOutput.obj
 0001:00006b50       ??6RenderOutput@Cm@physx@@QEAAAEAV012@W4Primitive@012@@Z 0000000180007b50 f   CmRenderOutput.obj
 0001:00006b60       ?allocate@?$Array@DV?$ReflectionAllocator@D@shdfnd@physx@@@shdfnd@physx@@IEAAPEADI@Z 0000000180007b60 f i CmRenderOutput.obj
 0001:00006bf0       ?allocate@?$Array@UPxDebugLine@physx@@V?$ReflectionAllocator@UPxDebugLine@physx@@@shdfnd@2@@shdfnd@physx@@IEAAPEAUPxDebugLine@3@I@Z 0000000180007bf0 f i CmRenderOutput.obj
 0001:00006c90       ?allocate@?$Array@UPxDebugPoint@physx@@V?$ReflectionAllocator@UPxDebugPoint@physx@@@shdfnd@2@@shdfnd@physx@@IEAAPEAUPxDebugPoint@3@I@Z 0000000180007c90 f i CmRenderOutput.obj
 0001:00006d30       ?allocate@?$Array@UPxDebugText@physx@@V?$ReflectionAllocator@UPxDebugText@physx@@@shdfnd@2@@shdfnd@physx@@IEAAPEAUPxDebugText@3@I@Z 0000000180007d30 f i CmRenderOutput.obj
 0001:00006dd0       ?allocate@?$Array@UPxDebugTriangle@physx@@V?$ReflectionAllocator@UPxDebugTriangle@physx@@@shdfnd@2@@shdfnd@physx@@IEAAPEAUPxDebugTriangle@3@I@Z 0000000180007dd0 f i CmRenderOutput.obj
 0001:00006e70       ?copy@?$Array@UPxDebugLine@physx@@V?$ReflectionAllocator@UPxDebugLine@physx@@@shdfnd@2@@shdfnd@physx@@KAXPEAUPxDebugLine@3@0PEBU43@@Z 0000000180007e70 f i CmRenderOutput.obj
 0001:00007020       ?copy@?$Array@UPxDebugPoint@physx@@V?$ReflectionAllocator@UPxDebugPoint@physx@@@shdfnd@2@@shdfnd@physx@@KAXPEAUPxDebugPoint@3@0PEBU43@@Z 0000000180008020 f i CmRenderOutput.obj
 0001:00007120       ?copy@?$Array@UPxDebugText@physx@@V?$ReflectionAllocator@UPxDebugText@physx@@@shdfnd@2@@shdfnd@physx@@KAXPEAUPxDebugText@3@0PEBU43@@Z 0000000180008120 f i CmRenderOutput.obj
 0001:00007290       ?copy@?$Array@UPxDebugTriangle@physx@@V?$ReflectionAllocator@UPxDebugTriangle@physx@@@shdfnd@2@@shdfnd@physx@@KAXPEAUPxDebugTriangle@3@0PEBU43@@Z 0000000180008290 f i CmRenderOutput.obj
 0001:00007490       ?growAndPushBack@?$Array@DV?$ReflectionAllocator@D@shdfnd@physx@@@shdfnd@physx@@IEAAAEADAEBD@Z 0000000180008490 f i CmRenderOutput.obj
 0001:00007550       ?growAndPushBack@?$Array@UPxDebugLine@physx@@V?$ReflectionAllocator@UPxDebugLine@physx@@@shdfnd@2@@shdfnd@physx@@IEAAAEAUPxDebugLine@3@AEBU43@@Z 0000000180008550 f i CmRenderOutput.obj
 0001:00007630       ?growAndPushBack@?$Array@UPxDebugPoint@physx@@V?$ReflectionAllocator@UPxDebugPoint@physx@@@shdfnd@2@@shdfnd@physx@@IEAAAEAUPxDebugPoint@3@AEBU43@@Z 0000000180008630 f i CmRenderOutput.obj
 0001:000076f0       ?growAndPushBack@?$Array@UPxDebugText@physx@@V?$ReflectionAllocator@UPxDebugText@physx@@@shdfnd@2@@shdfnd@physx@@IEAAAEAUPxDebugText@3@AEBU43@@Z 00000001800086f0 f i CmRenderOutput.obj
 0001:000077c0       ?growAndPushBack@?$Array@UPxDebugTriangle@physx@@V?$ReflectionAllocator@UPxDebugTriangle@physx@@@shdfnd@2@@shdfnd@physx@@IEAAAEAUPxDebugTriangle@3@AEBU43@@Z 00000001800087c0 f i CmRenderOutput.obj
 0001:000078c0       ?outputCapsule@RenderOutput@Cm@physx@@QEAAAEAV123@MMAEBVPxMat44@3@@Z 00000001800088c0 f   CmRenderOutput.obj
 0001:000083a0       ?outputSegment@RenderOutput@Cm@physx@@QEAAXAEBVPxVec3@3@0@Z 00000001800093a0 f i CmRenderOutput.obj
 0001:00008460       ?recreate@?$Array@DV?$ReflectionAllocator@D@shdfnd@physx@@@shdfnd@physx@@IEAAXI@Z 0000000180009460 f i CmRenderOutput.obj
 0001:00008500       ?recreate@?$Array@UPxDebugLine@physx@@V?$ReflectionAllocator@UPxDebugLine@physx@@@shdfnd@2@@shdfnd@physx@@IEAAXI@Z 0000000180009500 f i CmRenderOutput.obj
 0001:00008590       ?reserveSegments@RenderOutput@Cm@physx@@QEAAPEAUPxDebugLine@3@I@Z 0000000180009590 f i CmRenderOutput.obj
 0001:00008600       ??DPxQuat@physx@@QEBA?AV01@AEBV01@@Z 0000000180009600 f i CmVisualization.obj
 0001:00008740       ?visualizeAngularLimit@Cm@physx@@YAXAEAVRenderOutput@12@MAEBVPxTransform@2@MM_N@Z 0000000180009740 f   CmVisualization.obj
 0001:00008900       ?visualizeDoubleCone@Cm@physx@@YAXAEAVRenderOutput@12@MAEBVPxTransform@2@M_N@Z 0000000180009900 f   CmVisualization.obj
 0001:00008b60       ?visualizeJointFrames@Cm@physx@@YAXAEAVRenderOutput@12@MAEBVPxTransform@2@1@Z 0000000180009b60 f   CmVisualization.obj
 0001:00008c20       ?visualizeLimitCone@Cm@physx@@YAXAEAVRenderOutput@12@MAEBVPxTransform@2@MM_N@Z 0000000180009c20 f   CmVisualization.obj
 0001:00008eb0       ?visualizeLinearLimit@Cm@physx@@YAXAEAVRenderOutput@12@MAEBVPxTransform@2@1M_N@Z 0000000180009eb0 f   CmVisualization.obj
 0001:00009130       ??0CmModuleUpdateLoader@Cm@physx@@QEAA@PEBD@Z 000000018000a130 f   CmWindowsModuleUpdateLoader.obj
 0001:00009170       ??1CmModuleUpdateLoader@Cm@physx@@QEAA@XZ 000000018000a170 f   CmWindowsModuleUpdateLoader.obj
 0001:000091a0       ?LoadModule@CmModuleUpdateLoader@Cm@physx@@QEAAPEAUHINSTANCE__@@PEBD0@Z 000000018000a1a0 f   CmWindowsModuleUpdateLoader.obj
 0001:000091c0       ?commonDelayHook@@YAP6A_JXZIPEAUDelayLoadInfo@@@Z 000000018000a1c0 f   CmWindowsDelayLoadHook.obj
 0001:000092a0       PxSetPhysXCommonDelayLoadHook 000000018000a2a0 f   CmWindowsDelayLoadHook.obj
 0001:000092b0       ??4Box@Gu@physx@@QEAAAEBV012@AEBV012@@Z 000000018000a2b0 f i GuBounds.obj
 0001:000092b0       ??0Box@Gu@physx@@QEAA@AEBV012@@Z 000000018000a2b0 f i GuBounds.obj
 0001:00009310       ??0Box@Gu@physx@@QEAA@AEBVPxVec3@2@0AEBVPxMat33@2@@Z 000000018000a310 f i GuBounds.obj
 0001:00009380       ??0AABBTreeBuildNode@Gu@physx@@QEAA@XZ 000000018000a380 f i GuAABBTreeBuild.obj
 0001:00009380       ??0BigConvexData@physx@@QEAA@W4PxEMPTY@1@@Z 000000018000a380 f i GuMetaData.obj
 0001:00009380       ??0Box@Gu@physx@@QEAA@XZ   000000018000a380 f i GuBounds.obj
 0001:00009380       ??0GeometryUnion@Gu@physx@@QEAA@W4PxEMPTY@2@@Z 000000018000a380 f i GuGeometryUnion.obj
 0001:00009380       ?getAABB@AABBTreeBuildNode@Gu@physx@@QEBAAEBVPxBounds3@3@XZ 000000018000a380 f i GuAABBTreeBuild.obj
 0001:00009380       ??$forward@_K@std@@YA$$QEA_KAEA_K@Z 000000018000a380 f i libvcruntime:undname.obj
 0001:00009380       ??0HeightFieldData@Gu@physx@@QEAA@W4PxEMPTY@2@@Z 000000018000a380 f i GuBounds.obj
 0001:00009380       ??0MaterialIndicesStruct@physx@@QEAA@W4PxEMPTY@1@@Z 000000018000a380 f i GuGeometryUnion.obj
 0001:00009380       ?getPaddedBounds@HeightFieldData@Gu@physx@@QEBAAEBVCenterExtentsPadded@23@XZ 000000018000a380 f i GuBounds.obj
 0001:00009380       ?getGeometry@GeometryUnion@Gu@physx@@QEBAAEBVPxGeometry@3@XZ 000000018000a380 f i GuGeometryUnion.obj
 0001:00009390       ??4HeightFieldData@Gu@physx@@QEAAAEAU012@$$QEAU012@@Z 000000018000a390 f i GuBounds.obj
 0001:00009390       ??4HeightFieldData@Gu@physx@@QEAAAEAU012@AEBU012@@Z 000000018000a390 f i GuBounds.obj
 0001:00009390       ??0HeightFieldData@Gu@physx@@QEAA@AEBU012@@Z 000000018000a390 f i GuBounds.obj
 0001:00009390       ??0HeightFieldData@Gu@physx@@QEAA@$$QEAU012@@Z 000000018000a390 f i GuBounds.obj
 0001:000093f0       ??0HeightFieldData@Gu@physx@@QEAA@XZ 000000018000a3f0 f i GuBounds.obj
 0001:00009400       ??0PxQuat@physx@@QEAA@AEBVPxMat33@1@@Z 000000018000a400 f i GuBounds.obj
 0001:000095e0       ??0ShapeData@Gu@physx@@QEAA@AEBVPxGeometry@2@AEBVPxTransform@2@M@Z 000000018000a5e0 f   GuBounds.obj
 0001:00009b40       ??1PxConvexMesh@physx@@MEAA@XZ 000000018000ab40 f i GuBounds.obj
 0001:00009b40       ??1PxHeightField@physx@@MEAA@XZ 000000018000ab40 f i GuBounds.obj
 0001:00009b50       ??_EPxTriangleMesh@physx@@MEAAPEAXI@Z 000000018000ab50 f i GuTriangleMesh.obj
 0001:00009b50       ??_EPxBVHStructure@physx@@MEAAPEAXI@Z 000000018000ab50 f i GuBVHStructure.obj
 0001:00009b50       ??_GPxBase@physx@@MEAAPEAXI@Z 000000018000ab50 f i GuBounds.obj
 0001:00009b50       ??_GPxTriangleMesh@physx@@MEAAPEAXI@Z 000000018000ab50 f i GuTriangleMesh.obj
 0001:00009b50       ??_EPxBase@physx@@MEAAPEAXI@Z 000000018000ab50 f i GuBounds.obj
 0001:00009b50       ??_GPxBVHStructure@physx@@MEAAPEAXI@Z 000000018000ab50 f i GuBVHStructure.obj
 0001:00009b80       ??_H@YAXPEAX_K1P6APEAX0@Z@Z 000000018000ab80 f i GuBounds.obj
 0001:00009bd0       ?computeAABBExtent@Box@Gu@physx@@QEBA?AVPxVec3@3@XZ 000000018000abd0 f i GuBounds.obj
 0001:00009c90       ?computeBounds@Gu@physx@@YAXAEAVPxBounds3@2@AEBVPxGeometry@2@AEBVPxTransform@2@MPEIBVCenterExtentsPadded@12@M@Z 000000018000ac90 f   GuBounds.obj
 0001:0000a570       ?computeBoundsWithCCDThreshold@Gu@physx@@YAMAEAVVec3p@12@0AEBVPxGeometry@2@AEBVPxTransform@2@PEIBVCenterExtentsPadded@12@@Z 000000018000b570 f   GuBounds.obj
 0001:0000a740       ?computeBoxPoints@Box@Gu@physx@@QEBAXPEIAVPxVec3@3@@Z 000000018000b740 f i GuBounds.obj
 0001:0000b6f0       ?getConcreteTypeName@PxConvexMesh@physx@@UEBAPEBDXZ 000000018000c6f0 f i GuBounds.obj
 0001:0000b700       ?getConcreteTypeName@PxHeightField@physx@@UEBAPEBDXZ 000000018000c700 f i GuBounds.obj
 0001:0000b710       ?getConvexEdgeThreshold@HeightField@Gu@physx@@UEBAMXZ 000000018000c710 f i GuBounds.obj
 0001:0000b720       ?getFlags@HeightField@Gu@physx@@UEBA?AV?$PxFlags@W4Enum@PxHeightFieldFlag@physx@@G@3@XZ 000000018000c720 f i GuBounds.obj
 0001:0000b730       ?getFormat@HeightField@Gu@physx@@UEBA?AW4Enum@PxHeightFieldFormat@3@XZ 000000018000c730 f i GuBounds.obj
 0001:0000b740       ?getHeight@HeightField@Gu@physx@@UEBAMMM@Z 000000018000c740 f i GuBounds.obj
 0001:0000b780       ?getHeightInternal2@HeightField@Gu@physx@@QEBAMIMM@Z 000000018000c780 f i GuBounds.obj
 0001:0000b8f0       ?getIndexBuffer@ConvexMesh@Gu@physx@@UEBAPEBEXZ 000000018000c8f0 f i GuBounds.obj
 0001:0000b930       ?getNbPolygons@ConvexMesh@Gu@physx@@UEBAIXZ 000000018000c930 f i GuBounds.obj
 0001:0000b940       ?getNbRows@HeightField@Gu@physx@@UEBAIXZ 000000018000c940 f i GuBounds.obj
 0001:0000b950       ?getNbVertices@ConvexMesh@Gu@physx@@UEBAIXZ 000000018000c950 f i GuBounds.obj
 0001:0000b960       ?getSample@HeightField@Gu@physx@@UEBAAEBUPxHeightFieldSample@3@II@Z 000000018000c960 f i GuBounds.obj
 0001:0000b970       ?getSampleStride@HeightField@Gu@physx@@UEBAIXZ 000000018000c970 f i GuBounds.obj
 0001:0000b980       ?getTimestamp@HeightField@Gu@physx@@UEBAIXZ 000000018000c980 f i GuBounds.obj
 0001:0000b990       ?getTransform@Box@Gu@physx@@QEBA?AVPxTransform@3@XZ 000000018000c990 f i GuBounds.obj
 0001:0000b9f0       ?getTriangleMaterialIndex@HeightField@Gu@physx@@UEBAGI@Z 000000018000c9f0 f i GuBounds.obj
 0001:0000ba20       ?getTriangleNormal@HeightField@Gu@physx@@UEBA?AVPxVec3@3@I@Z 000000018000ca20 f i GuBounds.obj
 0001:0000bb20       ?getVertices@ConvexMesh@Gu@physx@@UEBAPEBVPxVec3@3@XZ 000000018000cb20 f i GuBounds.obj
 0001:0000bb40       ?isKindOf@PxBase@physx@@MEBA_NPEBD@Z 000000018000cb40 f i GuBounds.obj
 0001:0000bb70       ?isKindOf@PxConvexMesh@physx@@MEBA_NPEBD@Z 000000018000cb70 f i GuBounds.obj
 0001:0000bbc0       ?isKindOf@PxHeightField@physx@@MEBA_NPEBD@Z 000000018000cbc0 f i GuBounds.obj
 0001:0000bc10       ?isReleasable@PxBase@physx@@UEBA_NXZ 000000018000cc10 f i GuBounds.obj
 0001:0000bc20       ?isValid@Box@Gu@physx@@QEBA_NXZ 000000018000cc20 f i GuBounds.obj
 0001:0000bc40       ?preExportDataReset@ConvexMesh@Gu@physx@@QEAAXXZ 000000018000cc40 f i GuBounds.obj
 0001:0000bc40       ?preExportDataReset@HeightField@Gu@physx@@QEAAXXZ 000000018000cc40 f i GuBounds.obj
 0001:0000bc50       ?rotate@Box@Gu@physx@@QEBA?AVPxVec3@3@AEBV43@@Z 000000018000cc50 f i GuBounds.obj
 0001:0000bce0       ?rotateInv@Box@Gu@physx@@QEBA?AVPxVec3@3@AEBV43@@Z 000000018000cce0 f i GuBounds.obj
 0001:0000bd70       ?setAxes@Box@Gu@physx@@QEAAXAEBVPxVec3@3@00@Z 000000018000cd70 f i GuBounds.obj
 0001:0000bdb0       ?setEmpty@Box@Gu@physx@@QEAAXXZ 000000018000cdb0 f i GuBounds.obj
 0001:0000bdf0       ?transform@Box@Gu@physx@@QEBA?AVPxVec3@3@AEBV43@@Z 000000018000cdf0 f i GuBounds.obj
 0001:0000be90       ?computeOBBPoints@Gu@physx@@YAXPEIAVPxVec3@2@AEBV32@1111@Z 000000018000ce90 f   GuBox.obj
 0001:0000c110       ?create@Box@Gu@physx@@QEAAXAEBVCapsule@23@@Z 000000018000d110 f   GuBox.obj
 0001:0000c340       ?getBoxEdges@Gu@physx@@YAPEBEXZ 000000018000d340 f   GuBox.obj
 0001:0000c350       ?computeBasis@shdfnd@physx@@YAXAEBVPxVec3@2@0AEAV32@11@Z 000000018000d350 f i GuCapsule.obj
 0001:0000c4f0       ?computeBoxAroundCapsule@Gu@physx@@YAXAEBVCapsule@12@AEAVBox@12@@Z 000000018000d4f0 f   GuCapsule.obj
 0001:0000c640       ??0HeightFieldUtil@Gu@physx@@QEAA@AEBVPxHeightFieldGeometry@2@@Z 000000018000d640 f i GuCCTSweepTests.obj
 0001:0000c640       ??0HeightFieldTraceUtil@Gu@physx@@QEAA@AEBVPxHeightFieldGeometry@2@@Z 000000018000d640 f i GuCCTSweepTests.obj
 0001:0000c680       ??4HeightFieldTraceUtil@Gu@physx@@QEAAAEAV012@AEBV012@@Z 000000018000d680 f i GuCCTSweepTests.obj
 0001:0000c680       ??4HeightFieldUtil@Gu@physx@@QEAAAEAV012@AEBV012@@Z 000000018000d680 f i GuCCTSweepTests.obj
 0001:0000c680       ??4HeightFieldTraceUtil@Gu@physx@@QEAAAEAV012@$$QEAV012@@Z 000000018000d680 f i GuCCTSweepTests.obj
 0001:0000c6a0       ??4HeightFieldUtil@Gu@physx@@QEAAAEAV012@$$QEAV012@@Z 000000018000d6a0 f i GuCCTSweepTests.obj
 0001:0000c6d0       ??_G?$EntityReport@I@Gu@physx@@UEAAPEAXI@Z 000000018000d6d0 f i GuCCTSweepTests.obj
 0001:0000c6d0       ??_E?$EntityReport@I@Gu@physx@@UEAAPEAXI@Z 000000018000d6d0 f i GuCCTSweepTests.obj
 0001:0000c730       ?ceilUp@HeightFieldTraceUtil@Gu@physx@@SAMM@Z 000000018000d730 f i GuCCTSweepTests.obj
 0001:0000c770       ?computePointNormal@HeightFieldUtil@Gu@physx@@QEBA?AVPxVec3@3@IAEBV43@AEBVPxTransform@3@MMMMAEAM@Z 000000018000d770 f i GuCCTSweepTests.obj
 0001:0000cb90       ?floorDown@HeightFieldTraceUtil@Gu@physx@@SAMM@Z 000000018000db90 f i GuCCTSweepTests.obj
 0001:0000cbd0       ?getFeatureIndex@HeightFieldUtil@Gu@physx@@SAII@Z 000000018000dbd0 f i GuCCTSweepTests.obj
 0001:0000cbe0       ?getFeatureType@HeightFieldUtil@Gu@physx@@SA?AW4Feature@123@I@Z 000000018000dbe0 f i GuCCTSweepTests.obj
 0001:0000cbf0       ?getHeightAtShapePoint@HeightFieldUtil@Gu@physx@@QEBAMMM@Z 000000018000dbf0 f i GuCCTSweepTests.obj
 0001:0000cc50       ?getNormalAtShapePoint@HeightFieldUtil@Gu@physx@@QEBA?AVPxVec3@3@MM@Z 000000018000dc50 f i GuCCTSweepTests.obj
 0001:0000cd10       ?getNormal_2@HeightField@Gu@physx@@QEBA?AVPxVec3@3@IMMMMM@Z 000000018000dd10 f i GuCCTSweepTests.obj
 0001:0000ce30       ?getOneOverColumnScale@HeightFieldUtil@Gu@physx@@QEBAMXZ 000000018000de30 f i GuCCTSweepTests.obj
 0001:0000ce40       ?getOneOverHeightScale@HeightFieldUtil@Gu@physx@@QEBAMXZ 000000018000de40 f i GuCCTSweepTests.obj
 0001:0000ce50       ?getOneOverRowScale@HeightFieldUtil@Gu@physx@@QEBAMXZ 000000018000de50 f i GuCCTSweepTests.obj
 0001:0000ce60       ?getVertexNormal@HeightFieldUtil@Gu@physx@@QEBA?AVPxVec3@3@I@Z 000000018000de60 f i GuCCTSweepTests.obj
 0001:0000cea0       ?hf2shapen@HeightFieldUtil@Gu@physx@@QEBA?AVPxVec3@3@AEBV43@@Z 000000018000dea0 f i GuCCTSweepTests.obj
 0001:0000cea0       ?shape2hfp@HeightFieldUtil@Gu@physx@@QEBA?AVPxVec3@3@AEBV43@@Z 000000018000dea0 f i GuCCTSweepTests.obj
 0001:0000cee0       ?hf2shapep@HeightFieldUtil@Gu@physx@@QEBA?AVPxVec3@3@AEBV43@@Z 000000018000dee0 f i GuCCTSweepTests.obj
 0001:0000cf20       ?hf2worldn@HeightFieldUtil@Gu@physx@@QEBA?AVPxVec3@3@AEBVPxTransform@3@AEBV43@@Z 000000018000df20 f i GuCCTSweepTests.obj
 0001:0000d090       ?hf2worldp@HeightFieldUtil@Gu@physx@@QEBA?AVPxVec3@3@AEBVPxTransform@3@AEBV43@@Z 000000018000e090 f i GuCCTSweepTests.obj
 0001:0000d210       ?isCollisionVertex@HeightFieldUtil@Gu@physx@@QEBA_NIII@Z 000000018000e210 f i GuCCTSweepTests.obj
 0001:0000d230       ?isQueryVertex@HeightFieldUtil@Gu@physx@@QEBA_NIII@Z 000000018000e230 f i GuCCTSweepTests.obj
 0001:0000d2f0       ?isShapePointOnHeightField@HeightFieldUtil@Gu@physx@@QEBA_NMM@Z 000000018000e2f0 f i GuCCTSweepTests.obj
 0001:0000d340       ?makeFeatureCode@HeightFieldUtil@Gu@physx@@SAIIW4Feature@123@@Z 000000018000e340 f i GuCCTSweepTests.obj
 0001:0000d500       ?sweepBoxTriangles_Precise@Gu@physx@@YA_NIPEBVPxTriangle@2@_NAEBVPxBoxGeometry@2@AEBVPxTransform@2@AEBVPxVec3@2@MAEAUPxSweepHit@2@PEBIMV?$PxFlags@W4Enum@PxHitFlag@physx@@G@2@@Z 000000018000e500 f   GuCCTSweepTests.obj
 0001:0000e280       ?sweepBox_BoxGeom_Precise@@YA_NAEBVPxGeometry@physx@@AEBVPxTransform@2@AEBVPxBoxGeometry@2@1AEBVBox@Gu@2@AEBVPxVec3@2@MAEAUPxSweepHit@2@V?$PxFlags@W4Enum@PxHitFlag@physx@@G@2@M@Z 000000018000f280 f   GuCCTSweepTests.obj
 0001:0000e440       ?sweepBox_CapsuleGeom_Precise@@YA_NAEBVPxGeometry@physx@@AEBVPxTransform@2@AEBVPxBoxGeometry@2@1AEBVBox@Gu@2@AEBVPxVec3@2@MAEAUPxSweepHit@2@V?$PxFlags@W4Enum@PxHitFlag@physx@@G@2@M@Z 000000018000f440 f   GuCCTSweepTests.obj
 0001:0000e810       ?sweepBox_HeightFieldGeom_Precise@@YA_NAEBVPxGeometry@physx@@AEBVPxTransform@2@AEBVPxBoxGeometry@2@1AEBVBox@Gu@2@AEBVPxVec3@2@MAEAUPxSweepHit@2@V?$PxFlags@W4Enum@PxHitFlag@physx@@G@2@M@Z 000000018000f810 f   GuCCTSweepTests.obj
 0001:0000ebe0       ?sweepBox_SphereGeom_Precise@@YA_NAEBVPxGeometry@physx@@AEBVPxTransform@2@AEBVPxBoxGeometry@2@1AEBVBox@Gu@2@AEBVPxVec3@2@MAEAUPxSweepHit@2@V?$PxFlags@W4Enum@PxHitFlag@physx@@G@2@M@Z 000000018000fbe0 f   GuCCTSweepTests.obj
 0001:0000eeb0       ?sweepCapsule_BoxGeom_Precise@@YA_NAEBVPxGeometry@physx@@AEBVPxTransform@2@AEBVPxCapsuleGeometry@2@1AEBVCapsule@Gu@2@AEBVPxVec3@2@MAEAUPxSweepHit@2@V?$PxFlags@W4Enum@PxHitFlag@physx@@G@2@M@Z 000000018000feb0 f   GuCCTSweepTests.obj
 0001:0000f510       ?computePenetration@PxGeometryQuery@physx@@SA_NAEAVPxVec3@2@AEAMAEBVPxGeometry@2@AEBVPxTransform@2@23@Z 0000000180010510 f   GuGeometryQuery.obj
 0001:0000f5f0       ?getWorldBounds@PxGeometryQuery@physx@@SA?AVPxBounds3@2@AEBVPxGeometry@2@AEBVPxTransform@2@M@Z 00000001800105f0 f   GuGeometryQuery.obj
 0001:0000f650       ?isFinite@PxQuat@physx@@QEBA_NXZ 0000000180010650 f i GuGeometryQuery.obj
 0001:0000f6c0       ?isValid@PxGeometryQuery@physx@@SA_NAEBVPxGeometry@2@@Z 00000001800106c0 f   GuGeometryQuery.obj
 0001:0000f8b0       ?overlap@PxGeometryQuery@physx@@SA_NAEBVPxGeometry@2@AEBVPxTransform@2@01@Z 00000001800108b0 f   GuGeometryQuery.obj
 0001:0000f940       ?pointDistance@PxGeometryQuery@physx@@SAMAEBVPxVec3@2@AEBVPxGeometry@2@AEBVPxTransform@2@PEAV32@@Z 0000000180010940 f   GuGeometryQuery.obj
 0001:0000ffd0       ?raycast@PxGeometryQuery@physx@@SAIAEBVPxVec3@2@0AEBVPxGeometry@2@AEBVPxTransform@2@MV?$PxFlags@W4Enum@PxHitFlag@physx@@G@2@IPEIAUPxRaycastHit@2@@Z 0000000180010fd0 f   GuGeometryQuery.obj
 0001:00010070       ?sweep@PxGeometryQuery@physx@@SA_NAEBVPxVec3@2@MAEBVPxGeometry@2@AEBVPxTransform@2@12AEAUPxSweepHit@2@V?$PxFlags@W4Enum@PxHitFlag@physx@@G@2@M@Z 0000000180011070 f   GuGeometryQuery.obj
 0001:00010470       ??0GeometryUnion@Gu@physx@@QEAA@AEBVPxGeometry@2@@Z 0000000180011470 f i GuGeometryUnion.obj
 0001:00010490       ??0GeometryUnion@Gu@physx@@QEAA@XZ 0000000180011490 f i GuGeometryUnion.obj
 0001:000104a0       ??0MaterialIndicesStruct@physx@@QEAA@XZ 00000001800114a0 f i GuGeometryUnion.obj
 0001:000104c0       ??4GeometryUnion@Gu@physx@@QEAAAEAV012@AEBV012@@Z 00000001800114c0 f i GuGeometryUnion.obj
 0001:000104c0       ??4GeometryUnion@Gu@physx@@QEAAAEAV012@$$QEAV012@@Z 00000001800114c0 f i GuGeometryUnion.obj
 0001:000104f0       ?allocate@MaterialIndicesStruct@physx@@QEAAXG@Z 00000001800114f0 f i GuGeometryUnion.obj
 0001:00010570       ?deallocate@MaterialIndicesStruct@physx@@QEAAXXZ 0000000180011570 f i GuGeometryUnion.obj
 0001:000105c0       ?getCount@BuildStats@Gu@physx@@QEBAIXZ 00000001800115c0 f i GuAABBTreeBuild.obj
 0001:000105c0       ?getType@GeometryUnion@Gu@physx@@QEBA?AW4Enum@PxGeometryType@3@XZ 00000001800115c0 f i GuGeometryUnion.obj
 0001:000105c0       ?getNumAxes@SeparatingAxes@Gu@physx@@QEBAIXZ 00000001800115c0 f i GuMTD.obj
 0001:000105d0       ?set@GeometryUnion@Gu@physx@@QEAAXAEBVPxGeometry@3@@Z 00000001800115d0 f   GuGeometryUnion.obj
 0001:000107b0       ?computeBoundsAroundVertices@Gu@physx@@YAXAEAVPxBounds3@2@IPEIBVPxVec3@2@@Z 00000001800117b0 f   GuInternal.obj
 0001:00010860       ?computeBoxPoints@Gu@physx@@YAXAEBVPxBounds3@2@PEIAVPxVec3@2@@Z 0000000180011860 f   GuInternal.obj
 0001:00010900       ?computeSweptBox@Gu@physx@@YAXAEAVBox@12@AEBVPxVec3@2@1AEBVPxMat33@2@1M@Z 0000000180011900 f   GuInternal.obj
 0001:00010e30       ?getPlane@Gu@physx@@YA?AVPxPlane@2@AEBVPxTransform@2@@Z 0000000180011e30 f   GuInternal.obj
 0001:00010ee0       ??$?_UI@@YAPEAX_KV?$ReflectionAllocator@I@shdfnd@physx@@PEBDH@Z 0000000180011ee0 f i GuMeshFactory.obj
 0001:00010f80       ??0GuMeshFactory@physx@@QEAA@XZ 0000000180011f80 f   GuMeshFactory.obj
 0001:00011110       ??1GuMeshFactory@physx@@MEAA@XZ 0000000180012110 f   GuMeshFactory.obj
 0001:00011200       ??1MeshDataBase@Gu@physx@@UEAA@XZ 0000000180012200 f i GuMeshFactory.obj
 0001:000112f0       ??1TriangleMeshData@Gu@physx@@UEAA@XZ 00000001800122f0 f i GuMeshFactory.obj
 0001:000113c0       ??_EGuMeshFactory@physx@@MEAAPEAXI@Z 00000001800123c0 f i GuMeshFactory.obj
 0001:000114d0       ??_EBV4TriangleData@Gu@physx@@UEAAPEAXI@Z 00000001800124d0 f i GuMeshFactory.obj
 0001:000114d0       ??_GBV4TriangleData@Gu@physx@@UEAAPEAXI@Z 00000001800124d0 f i GuMeshFactory.obj
 0001:00011560       ??_EMeshDataBase@Gu@physx@@UEAAPEAXI@Z 0000000180012560 f i GuMeshFactory.obj
 0001:00011560       ??_GMeshDataBase@Gu@physx@@UEAAPEAXI@Z 0000000180012560 f i GuMeshFactory.obj
 0001:000115d0       ??_ERTreeTriangleData@Gu@physx@@UEAAPEAXI@Z 00000001800125d0 f i GuMeshFactory.obj
 0001:000115d0       ??_GRTreeTriangleData@Gu@physx@@UEAAPEAXI@Z 00000001800125d0 f i GuMeshFactory.obj
 0001:00011680       ??_ETriangleMeshData@Gu@physx@@UEAAPEAXI@Z 0000000180012680 f i GuMeshFactory.obj
 0001:00011680       ??_GTriangleMeshData@Gu@physx@@UEAAPEAXI@Z 0000000180012680 f i GuMeshFactory.obj
 0001:000116f0       ?__global_array_delete@@YAXPEAX_K@Z 00000001800126f0 f i GuMeshFactory.obj
 0001:00011700       ??_V@YAXPEAX_K@Z           0000000180012700 f i LIBCMT:delete_array_size.obj
 0001:00011700       ?__global_delete@@YAXPEAX_K@Z 0000000180012700 f i GuMeshFactory.obj
 0001:00011710       ?addBVHStructure@GuMeshFactory@physx@@QEAAXPEAVBVHStructure@Gu@2@_N@Z 0000000180012710 f   GuMeshFactory.obj
 0001:00011790       ?addConvexMesh@GuMeshFactory@physx@@QEAAXPEAVConvexMesh@Gu@2@_N@Z 0000000180012790 f   GuMeshFactory.obj
 0001:00011810       ?addFactoryListener@GuMeshFactory@physx@@QEAAXAEAVGuMeshFactoryListener@2@@Z 0000000180012810 f   GuMeshFactory.obj
 0001:00011880       ?addHeightField@GuMeshFactory@physx@@QEAAXPEAVHeightField@Gu@2@_N@Z 0000000180012880 f   GuMeshFactory.obj
 0001:00011900       ?addTriangleMesh@GuMeshFactory@physx@@QEAAXPEAVTriangleMesh@Gu@2@_N@Z 0000000180012900 f   GuMeshFactory.obj
 0001:00011980       ?create@?$HashBase@PEAVBVHStructure@Gu@physx@@PEAV123@U?$Hash@PEAVBVHStructure@Gu@physx@@@shdfnd@3@UGetKey@?$HashSetBase@PEAVBVHStructure@Gu@physx@@U?$Hash@PEAVBVHStructure@Gu@physx@@@shdfnd@3@VNonTrackingAllocator@53@$00@internal@53@VNonTrackingAllocator@53@$00@internal@shdfnd@physx@@QEAAPEAPEAVBVHStructure@Gu@4@AEBQEAV564@AEA_N@Z 0000000180012980 f i GuMeshFactory.obj
 0001:00011980       ?create@?$HashBase@PEAVConvexMesh@Gu@physx@@PEAV123@U?$Hash@PEAVConvexMesh@Gu@physx@@@shdfnd@3@UGetKey@?$HashSetBase@PEAVConvexMesh@Gu@physx@@U?$Hash@PEAVConvexMesh@Gu@physx@@@shdfnd@3@VNonTrackingAllocator@53@$00@internal@53@VNonTrackingAllocator@53@$00@internal@shdfnd@physx@@QEAAPEAPEAVConvexMesh@Gu@4@AEBQEAV564@AEA_N@Z 0000000180012980 f i GuMeshFactory.obj
 0001:00011980       ?create@?$HashBase@PEAVHeightField@Gu@physx@@PEAV123@U?$Hash@PEAVHeightField@Gu@physx@@@shdfnd@3@UGetKey@?$HashSetBase@PEAVHeightField@Gu@physx@@U?$Hash@PEAVHeightField@Gu@physx@@@shdfnd@3@VNonTrackingAllocator@53@$00@internal@53@VNonTrackingAllocator@53@$00@internal@shdfnd@physx@@QEAAPEAPEAVHeightField@Gu@4@AEBQEAV564@AEA_N@Z 0000000180012980 f i GuMeshFactory.obj
 0001:00011980       ?create@?$HashBase@PEAVTriangleMesh@Gu@physx@@PEAV123@U?$Hash@PEAVTriangleMesh@Gu@physx@@@shdfnd@3@UGetKey@?$HashSetBase@PEAVTriangleMesh@Gu@physx@@U?$Hash@PEAVTriangleMesh@Gu@physx@@@shdfnd@3@VNonTrackingAllocator@53@$00@internal@53@VNonTrackingAllocator@53@$00@internal@shdfnd@physx@@QEAAPEAPEAVTriangleMesh@Gu@4@AEBQEAV564@AEA_N@Z 0000000180012980 f i GuMeshFactory.obj
 0001:00011b20       ?createBVHStructure@GuMeshFactory@physx@@IEAAPEAVPxBVHStructure@2@AEAUBVHStructureData@Gu@2@@Z 0000000180012b20 f   GuMeshFactory.obj
 0001:00011c20       ?createBVHStructure@GuMeshFactory@physx@@QEAAPEAVPxBVHStructure@2@AEAVPxInputStream@2@@Z 0000000180012c20 f   GuMeshFactory.obj
 0001:00011d40       ?createBVHStructure@GuMeshFactory@physx@@QEAAPEAVPxBVHStructure@2@PEAX@Z 0000000180012d40 f   GuMeshFactory.obj
 0001:00011d50       ?createConvexMesh@GuMeshFactory@physx@@IEAAPEAVPxConvexMesh@2@AEAUConvexHullInitData@Gu@2@@Z 0000000180012d50 f   GuMeshFactory.obj
 0001:00011e40       ?createConvexMesh@GuMeshFactory@physx@@QEAAPEAVPxConvexMesh@2@AEAVPxInputStream@2@@Z 0000000180012e40 f   GuMeshFactory.obj
 0001:00011f60       ?createConvexMesh@GuMeshFactory@physx@@QEAAPEAVPxConvexMesh@2@PEAX@Z 0000000180012f60 f   GuMeshFactory.obj
 0001:00011f70       ?createHeightField@GuMeshFactory@physx@@QEAAPEAVPxHeightField@2@AEAVPxInputStream@2@@Z 0000000180012f70 f   GuMeshFactory.obj
 0001:00012090       ?createHeightField@GuMeshFactory@physx@@QEAAPEAVPxHeightField@2@PEAX@Z 0000000180013090 f   GuMeshFactory.obj
 0001:00012190       ?createTriangleMesh@GuMeshFactory@physx@@IEAAPEAVPxTriangleMesh@2@AEAVTriangleMeshData@Gu@2@@Z 0000000180013190 f   GuMeshFactory.obj
 0001:00012320       ?createTriangleMesh@GuMeshFactory@physx@@QEAAPEAVPxTriangleMesh@2@AEAVPxInputStream@2@@Z 0000000180013320 f   GuMeshFactory.obj
 0001:00012380       ?createTriangleMesh@GuMeshFactory@physx@@QEAAPEAVPxTriangleMesh@2@PEAX@Z 0000000180013380 f   GuMeshFactory.obj
 0001:00012390       ?erase@?$HashBase@PEAVConvexMesh@Gu@physx@@PEAV123@U?$Hash@PEAVConvexMesh@Gu@physx@@@shdfnd@3@UGetKey@?$HashSetBase@PEAVConvexMesh@Gu@physx@@U?$Hash@PEAVConvexMesh@Gu@physx@@@shdfnd@3@VNonTrackingAllocator@53@$00@internal@53@VNonTrackingAllocator@53@$00@internal@shdfnd@physx@@QEAA_NAEBQEAVConvexMesh@Gu@4@@Z 0000000180013390 f i GuMeshFactory.obj
 0001:00012390       ?erase@?$HashBase@PEAVBVHStructure@Gu@physx@@PEAV123@U?$Hash@PEAVBVHStructure@Gu@physx@@@shdfnd@3@UGetKey@?$HashSetBase@PEAVBVHStructure@Gu@physx@@U?$Hash@PEAVBVHStructure@Gu@physx@@@shdfnd@3@VNonTrackingAllocator@53@$00@internal@53@VNonTrackingAllocator@53@$00@internal@shdfnd@physx@@QEAA_NAEBQEAVBVHStructure@Gu@4@@Z 0000000180013390 f i GuMeshFactory.obj
 0001:00012390       ?erase@?$HashBase@PEAVTriangleMesh@Gu@physx@@PEAV123@U?$Hash@PEAVTriangleMesh@Gu@physx@@@shdfnd@3@UGetKey@?$HashSetBase@PEAVTriangleMesh@Gu@physx@@U?$Hash@PEAVTriangleMesh@Gu@physx@@@shdfnd@3@VNonTrackingAllocator@53@$00@internal@53@VNonTrackingAllocator@53@$00@internal@shdfnd@physx@@QEAA_NAEBQEAVTriangleMesh@Gu@4@@Z 0000000180013390 f i GuMeshFactory.obj
 0001:00012390       ?erase@?$HashBase@PEAVHeightField@Gu@physx@@PEAV123@U?$Hash@PEAVHeightField@Gu@physx@@@shdfnd@3@UGetKey@?$HashSetBase@PEAVHeightField@Gu@physx@@U?$Hash@PEAVHeightField@Gu@physx@@@shdfnd@3@VNonTrackingAllocator@53@$00@internal@53@VNonTrackingAllocator@53@$00@internal@shdfnd@physx@@QEAA_NAEBQEAVHeightField@Gu@4@@Z 0000000180013390 f i GuMeshFactory.obj
 0001:00012500       ?getBVHStructures@GuMeshFactory@physx@@QEBAIPEAPEAVPxBVHStructure@2@II@Z 0000000180013500 f   GuMeshFactory.obj
 0001:000125a0       ?getConvexMeshes@GuMeshFactory@physx@@QEBAIPEAPEAVPxConvexMesh@2@II@Z 00000001800135a0 f   GuMeshFactory.obj
 0001:00012630       ?getHeightFields@GuMeshFactory@physx@@QEBAIPEAPEAVPxHeightField@2@II@Z 0000000180013630 f   GuMeshFactory.obj
 0001:000126d0       ?getNbBVHStructures@GuMeshFactory@physx@@QEBAIXZ 00000001800136d0 f   GuMeshFactory.obj
 0001:00012710       ?getNbConvexMeshes@GuMeshFactory@physx@@QEBAIXZ 0000000180013710 f   GuMeshFactory.obj
 0001:00012750       ?getNbHeightFields@GuMeshFactory@physx@@QEBAIXZ 0000000180013750 f   GuMeshFactory.obj
 0001:00012790       ?getNbTriangleMeshes@GuMeshFactory@physx@@QEBAIXZ 0000000180013790 f   GuMeshFactory.obj
 0001:000127d0       ?getTriangleMeshes@GuMeshFactory@physx@@QEBAIPEAPEAVPxTriangleMesh@2@II@Z 00000001800137d0 f   GuMeshFactory.obj
 0001:00012860       ?growAndPushBack@?$Array@PEAVGuMeshFactoryListener@physx@@V?$ReflectionAllocator@PEAVGuMeshFactoryListener@physx@@@shdfnd@2@@shdfnd@physx@@IEAAAEAPEAVGuMeshFactoryListener@3@AEBQEAV43@@Z 0000000180013860 f i GuMeshFactory.obj
 0001:00013810       ?notifyFactoryListener@GuMeshFactory@physx@@QEAAXPEBVPxBase@2@G@Z 0000000180014810 f   GuMeshFactory.obj
 0001:00013880       ?release@GuMeshFactory@physx@@QEAAXXZ 0000000180014880 f   GuMeshFactory.obj
 0001:00013920       ?removeBVHStructure@GuMeshFactory@physx@@QEAA_NAEAVPxBVHStructure@2@@Z 0000000180014920 f   GuMeshFactory.obj
 0001:00013970       ?removeConvexMesh@GuMeshFactory@physx@@QEAA_NAEAVPxConvexMesh@2@@Z 0000000180014970 f   GuMeshFactory.obj
 0001:000139c0       ?removeFactoryListener@GuMeshFactory@physx@@QEAAXAEAVGuMeshFactoryListener@2@@Z 00000001800149c0 f   GuMeshFactory.obj
 0001:00013a50       ?removeHeightField@GuMeshFactory@physx@@QEAA_NAEAVPxHeightField@2@@Z 0000000180014a50 f   GuMeshFactory.obj
 0001:00013aa0       ?removeTriangleMesh@GuMeshFactory@physx@@QEAA_NAEAVPxTriangleMesh@2@@Z 0000000180014aa0 f   GuMeshFactory.obj
 0001:00013af0       ?reserveInternal@?$HashBase@PEAVTriangleMesh@Gu@physx@@PEAV123@U?$Hash@PEAVTriangleMesh@Gu@physx@@@shdfnd@3@UGetKey@?$HashSetBase@PEAVTriangleMesh@Gu@physx@@U?$Hash@PEAVTriangleMesh@Gu@physx@@@shdfnd@3@VNonTrackingAllocator@53@$00@internal@53@VNonTrackingAllocator@53@$00@internal@shdfnd@physx@@AEAAXI@Z 0000000180014af0 f i GuMeshFactory.obj
 0001:00013af0       ?reserveInternal@?$HashBase@PEAVBVHStructure@Gu@physx@@PEAV123@U?$Hash@PEAVBVHStructure@Gu@physx@@@shdfnd@3@UGetKey@?$HashSetBase@PEAVBVHStructure@Gu@physx@@U?$Hash@PEAVBVHStructure@Gu@physx@@@shdfnd@3@VNonTrackingAllocator@53@$00@internal@53@VNonTrackingAllocator@53@$00@internal@shdfnd@physx@@AEAAXI@Z 0000000180014af0 f i GuMeshFactory.obj
 0001:00013af0       ?reserveInternal@?$HashBase@PEAVConvexMesh@Gu@physx@@PEAV123@U?$Hash@PEAVConvexMesh@Gu@physx@@@shdfnd@3@UGetKey@?$HashSetBase@PEAVConvexMesh@Gu@physx@@U?$Hash@PEAVConvexMesh@Gu@physx@@@shdfnd@3@VNonTrackingAllocator@53@$00@internal@53@VNonTrackingAllocator@53@$00@internal@shdfnd@physx@@AEAAXI@Z 0000000180014af0 f i GuMeshFactory.obj
 0001:00013af0       ?reserveInternal@?$HashBase@PEAVHeightField@Gu@physx@@PEAV123@U?$Hash@PEAVHeightField@Gu@physx@@@shdfnd@3@UGetKey@?$HashSetBase@PEAVHeightField@Gu@physx@@U?$Hash@PEAVHeightField@Gu@physx@@@shdfnd@3@VNonTrackingAllocator@53@$00@internal@53@VNonTrackingAllocator@53@$00@internal@shdfnd@physx@@AEAAXI@Z 0000000180014af0 f i GuMeshFactory.obj
 0001:00013cc0       ??4BigConvexData@physx@@QEAAAEAV01@AEBV01@@Z 0000000180014cc0 f i GuMetaData.obj
 0001:00013ce0       ?GetAdjacentVerts@BigConvexData@physx@@QEBAPEBEXZ 0000000180014ce0 f i GuMetaData.obj
 0001:00013cf0       ?GetNbNeighbors@BigConvexData@physx@@QEBAGI@Z 0000000180014cf0 f i GuMetaData.obj
 0001:00013cf0       ?GetValency@BigConvexData@physx@@QEBAGI@Z 0000000180014cf0 f i GuMetaData.obj
 0001:00013d00       ?GetNbSamples@BigConvexData@physx@@QEBAIXZ 0000000180014d00 f i GuMetaData.obj
 0001:00013d10       ?GetNbVerts@BigConvexData@physx@@QEBAIXZ 0000000180014d10 f i GuMetaData.obj
 0001:00013d10       ?raw_length@pcharNode@@UEBAHXZ 0000000180014d10 f i libvcruntime:undname.obj
 0001:00013d10       ?length@pcharNode@@UEBAHXZ 0000000180014d10 f i libvcruntime:undname.obj
 0001:00013d20       ?GetNeighbors@BigConvexData@physx@@QEBAPEBEI@Z 0000000180014d20 f i GuMetaData.obj
 0001:00013d30       ?GetOffset@BigConvexData@physx@@QEBAGI@Z 0000000180014d30 f i GuMetaData.obj
 0001:00013d40       ?GetSubdiv@BigConvexData@physx@@QEBAIXZ 0000000180014d40 f i GuMetaData.obj
 0001:00013d50       ?getBinaryMetaData@BV4Tree@Gu@physx@@SAXAEAVPxOutputStream@3@@Z 0000000180014d50 f   GuMetaData.obj
 0001:000140e0       ?getBinaryMetaData@BV4TriangleMesh@Gu@physx@@SAXAEAVPxOutputStream@3@@Z 00000001800150e0 f   GuMetaData.obj
 0001:000143c0       ?getBinaryMetaData@BigConvexData@physx@@SAXAEAVPxOutputStream@2@@Z 00000001800153c0 f   GuMetaData.obj
 0001:00014680       ?getBinaryMetaData@ConvexMesh@Gu@physx@@SAXAEAVPxOutputStream@3@@Z 0000000180015680 f   GuMetaData.obj
 0001:00014d10       ?getBinaryMetaData@GeometryUnion@Gu@physx@@SAXAEAVPxOutputStream@3@@Z 0000000180015d10 f   GuMetaData.obj
 0001:00015360       ?getBinaryMetaData@HeightField@Gu@physx@@SAXAEAVPxOutputStream@3@@Z 0000000180016360 f   GuMetaData.obj
 0001:00015790       ?getBinaryMetaData@MaterialIndicesStruct@physx@@SAXAEAVPxOutputStream@2@@Z 0000000180016790 f   GuMetaData.obj
 0001:00015930       ?getBinaryMetaData@RTree@Gu@physx@@SAXAEAVPxOutputStream@3@@Z 0000000180016930 f   GuMetaData.obj
 0001:00015c60       ?getBinaryMetaData@RTreeTriangleMesh@Gu@physx@@SAXAEAVPxOutputStream@3@@Z 0000000180016c60 f   GuMetaData.obj
 0001:00016500       ?getBinaryMetaData@TriangleMesh@Gu@physx@@SAXAEAVPxOutputStream@3@@Z 0000000180017500 f   GuMetaData.obj
 0001:00017970       ?doSupport@?$SupportLocalImpl@VConvexHullV@Gu@physx@@@Gu@physx@@UEBA?AT__m128@@AEBT4@@Z 0000000180018970 f i GuMTD.obj
 0001:00017a50       ?doSupport@?$SupportLocalImpl@VConvexHullV@Gu@physx@@@Gu@physx@@UEBAXAEBT__m128@@AEAT4@1@Z 0000000180018a50 f i GuMTD.obj
 0001:00017db0       ?populateVerts@?$SupportLocalImpl@VConvexHullV@Gu@physx@@@Gu@physx@@UEBAXPEBEIPEBVPxVec3@3@PEAT__m128@@@Z 0000000180018db0 f i GuMTD.obj
 0001:00017e10       ??_E?$SupportLocalImpl@VBoxV@Gu@physx@@@Gu@physx@@UEAAPEAXI@Z 0000000180018e10 f i GuMTD.obj
 0001:00017e10       ??_G?$SupportLocalImpl@VTriangleV@Gu@physx@@@Gu@physx@@UEAAPEAXI@Z 0000000180018e10 f i GuPCMContactConvexCommon.obj
 0001:00017e10       ??_E?$SupportLocalImpl@VConvexHullV@Gu@physx@@@Gu@physx@@UEAAPEAXI@Z 0000000180018e10 f i GuMTD.obj
 0001:00017e10       ??_G?$SupportLocalImpl@VBoxV@Gu@physx@@@Gu@physx@@UEAAPEAXI@Z 0000000180018e10 f i GuMTD.obj
 0001:00017e10       ??_E?$SupportLocalImpl@VConvexHullNoScaleV@Gu@physx@@@Gu@physx@@UEAAPEAXI@Z 0000000180018e10 f i GuMTD.obj
 0001:00017e10       ??_G?$SupportLocalImpl@VConvexHullV@Gu@physx@@@Gu@physx@@UEAAPEAXI@Z 0000000180018e10 f i GuMTD.obj
 0001:00017e10       ??_E?$SupportLocalImpl@VTriangleV@Gu@physx@@@Gu@physx@@UEAAPEAXI@Z 0000000180018e10 f i GuPCMContactConvexCommon.obj
 0001:00017e10       ??_G?$SupportLocalImpl@VConvexHullNoScaleV@Gu@physx@@@Gu@physx@@UEAAPEAXI@Z 0000000180018e10 f i GuMTD.obj
 0001:00017e40       ?doSupport@?$SupportLocalImpl@VConvexHullNoScaleV@Gu@physx@@@Gu@physx@@UEBA?AT__m128@@AEBT4@@Z 0000000180018e40 f i GuMTD.obj
 0001:00017e90       ?doSupport@?$SupportLocalImpl@VConvexHullNoScaleV@Gu@physx@@@Gu@physx@@UEBAXAEBT__m128@@AEAT4@1@Z 0000000180018e90 f i GuMTD.obj
 0001:00018010       ?populateVerts@?$SupportLocalImpl@VBoxV@Gu@physx@@@Gu@physx@@UEBAXPEBEIPEBVPxVec3@3@PEAT__m128@@@Z 0000000180019010 f i GuMTD.obj
 0001:00018010       ?populateVerts@?$SupportLocalImpl@VConvexHullNoScaleV@Gu@physx@@@Gu@physx@@UEBAXPEBEIPEBVPxVec3@3@PEAT__m128@@@Z 0000000180019010 f i GuMTD.obj
 0001:00018050       ?doSupport@?$SupportLocalImpl@VBoxV@Gu@physx@@@Gu@physx@@UEBA?AT__m128@@AEBT4@@Z 0000000180019050 f i GuMTD.obj
 0001:00018080       ?doSupport@?$SupportLocalImpl@VBoxV@Gu@physx@@@Gu@physx@@UEBAXAEBT__m128@@AEAT4@1@Z 0000000180019080 f i GuMTD.obj
 0001:000180d0       ??_ESupportLocal@Gu@physx@@UEAAPEAXI@Z 00000001800190d0 f i GuMTD.obj
 0001:000180d0       ??_GSupportLocal@Gu@physx@@UEAAPEAXI@Z 00000001800190d0 f i GuMTD.obj
 0001:00019ea0       ??$gjk@U?$LocalConvex@VCapsuleV@Gu@physx@@@Gu@physx@@U?$LocalConvex@VConvexHullV@Gu@physx@@@23@@Gu@physx@@YA?AW4GjkStatus@01@AEBU?$LocalConvex@VCapsuleV@Gu@physx@@@01@AEBU?$LocalConvex@VConvexHullV@Gu@physx@@@01@AEBT__m128@@2AEAT5@333@Z 000000018001aea0 f i GuMTD.obj
 0001:0001ac10       ??0MultiplePersistentContactManifold@Gu@physx@@QEAA@XZ 000000018001bc10 f i GuMTD.obj
 0001:0001ac60       ??0PolygonalBox@Gu@physx@@QEAA@AEBV012@@Z 000000018001bc60 f i GuMTD.obj
 0001:0001aee0       ??0SeparatingAxes@Gu@physx@@QEAA@AEBV012@@Z 000000018001bee0 f i GuMTD.obj
 0001:0001aee0       ??0SeparatingAxes@Gu@physx@@QEAA@$$QEAV012@@Z 000000018001bee0 f i GuMTD.obj
 0001:0001aff0       ??0SeparatingAxes@Gu@physx@@QEAA@XZ 000000018001bff0 f i GuMTD.obj
 0001:0001b000       ??4MultiplePersistentContactManifold@Gu@physx@@QEAAAEAV012@$$QEAV012@@Z 000000018001c000 f i GuMTD.obj
 0001:0001b310       ??4MultiplePersistentContactManifold@Gu@physx@@QEAAAEAV012@AEBV012@@Z 000000018001c310 f i GuMTD.obj
 0001:0001b330       ??4SeparatingAxes@Gu@physx@@QEAAAEAV012@AEBV012@@Z 000000018001c330 f i GuMTD.obj
 0001:0001b330       ??4SeparatingAxes@Gu@physx@@QEAAAEAV012@$$QEAV012@@Z 000000018001c330 f i GuMTD.obj
 0001:0001b440       ??_G?$LocalConvex@VCapsuleV@Gu@physx@@@Gu@physx@@UEAAPEAXI@Z 000000018001c440 f i GuMTD.obj
 0001:0001b440       ??_GGjkConvexBase@Gu@physx@@UEAAPEAXI@Z 000000018001c440 f i GuMTD.obj
 0001:0001b440       ??_G?$LocalConvex@VTriangleV@Gu@physx@@@Gu@physx@@UEAAPEAXI@Z 000000018001c440 f i GuSweepTests.obj
 0001:0001b440       ??_G?$LocalConvex@VConvexHullV@Gu@physx@@@Gu@physx@@UEAAPEAXI@Z 000000018001c440 f i GuMTD.obj
 0001:0001b440       ??_G?$LocalConvex@VBoxV@Gu@physx@@@Gu@physx@@UEAAPEAXI@Z 000000018001c440 f i GuSweepTests.obj
 0001:0001b440       ??_E?$LocalConvex@VTriangleV@Gu@physx@@@Gu@physx@@UEAAPEAXI@Z 000000018001c440 f i GuSweepTests.obj
 0001:0001b440       ??_E?$LocalConvex@VConvexHullV@Gu@physx@@@Gu@physx@@UEAAPEAXI@Z 000000018001c440 f i GuMTD.obj
 0001:0001b440       ??_EGjkConvexBase@Gu@physx@@UEAAPEAXI@Z 000000018001c440 f i GuMTD.obj
 0001:0001b440       ??_E?$LocalConvex@VCapsuleV@Gu@physx@@@Gu@physx@@UEAAPEAXI@Z 000000018001c440 f i GuMTD.obj
 0001:0001b440       ??_E?$LocalConvex@VBoxV@Gu@physx@@@Gu@physx@@UEAAPEAXI@Z 000000018001c440 f i GuSweepTests.obj
 0001:0001b440       ??_E?$LocalConvex@VConvexHullNoScaleV@Gu@physx@@@Gu@physx@@UEAAPEAXI@Z 000000018001c440 f i GuPCMContactBoxConvex.obj
 0001:0001b440       ??_G?$LocalConvex@VConvexHullNoScaleV@Gu@physx@@@Gu@physx@@UEAAPEAXI@Z 000000018001c440 f i GuPCMContactBoxConvex.obj
 0001:0001bbd0       ?clearManifold@MultiplePersistentContactManifold@Gu@physx@@QEAAXXZ 000000018001cbd0 f i GuMTD.obj
 0001:0001f7d0       ?getAxes@SeparatingAxes@Gu@physx@@QEBAPEBVPxVec3@3@XZ 00000001800207d0 f i GuMTD.obj
 0001:0001f7e0       ?getCenter@?$LocalConvex@VBoxV@Gu@physx@@@Gu@physx@@UEBA?AT__m128@@XZ 00000001800207e0 f i GuSweepTests.obj
 0001:0001f7e0       ?getCenter@?$LocalConvex@VCapsuleV@Gu@physx@@@Gu@physx@@UEBA?AT__m128@@XZ 00000001800207e0 f i GuMTD.obj
 0001:0001f7e0       ?getCenter@?$LocalConvex@VConvexHullNoScaleV@Gu@physx@@@Gu@physx@@UEBA?AT__m128@@XZ 00000001800207e0 f i GuPCMContactBoxConvex.obj
 0001:0001f7e0       ?getCenter@?$LocalConvex@VConvexHullV@Gu@physx@@@Gu@physx@@UEBA?AT__m128@@XZ 00000001800207e0 f i GuMTD.obj
 0001:0001f7e0       ?getCenter@?$LocalConvex@VTriangleV@Gu@physx@@@Gu@physx@@UEBA?AT__m128@@XZ 00000001800207e0 f i GuSweepTests.obj
 0001:0001f7f0       ?getEmptyManifold@MultiplePersistentContactManifold@Gu@physx@@QEAAPEAVSinglePersistentContactManifold@23@XZ 00000001800207f0 f i GuMTD.obj
 0001:0001f810       ?getManifold@MultiplePersistentContactManifold@Gu@physx@@QEAAPEAVSinglePersistentContactManifold@23@I@Z 0000000180020810 f i GuMTD.obj
 0001:0001f830       ?getSweepMargin@?$RelativeConvex@VCapsuleV@Gu@physx@@@Gu@physx@@UEBA?AT__m128@@XZ 0000000180020830 f i GuCCDSweepPrimitives.obj
 0001:0001f830       ?getSweepMargin@?$LocalConvex@VCapsuleV@Gu@physx@@@Gu@physx@@UEBA?AT__m128@@XZ 0000000180020830 f i GuMTD.obj
 0001:0001f840       ?getSweepMargin@?$LocalConvex@VConvexHullV@Gu@physx@@@Gu@physx@@UEBA?AT__m128@@XZ 0000000180020840 f i GuMTD.obj
 0001:0001f840       ?getSweepMargin@?$RelativeConvex@VConvexHullNoScaleV@Gu@physx@@@Gu@physx@@UEBA?AT__m128@@XZ 0000000180020840 f i GuPCMContactConvexConvex.obj
 0001:0001f840       ?getSweepMargin@?$RelativeConvex@VConvexHullV@Gu@physx@@@Gu@physx@@UEBA?AT__m128@@XZ 0000000180020840 f i GuOverlapTests.obj
 0001:0001f840       ?getSweepMargin@?$LocalConvex@VBoxV@Gu@physx@@@Gu@physx@@UEBA?AT__m128@@XZ 0000000180020840 f i GuSweepTests.obj
 0001:0001f840       ?getSweepMargin@?$RelativeConvex@VBoxV@Gu@physx@@@Gu@physx@@UEBA?AT__m128@@XZ 0000000180020840 f i GuOverlapTests.obj
 0001:0001f840       ?getSweepMargin@?$LocalConvex@VConvexHullNoScaleV@Gu@physx@@@Gu@physx@@UEBA?AT__m128@@XZ 0000000180020840 f i GuPCMContactBoxConvex.obj
 0001:0001f860       ?hillClimbing@ConvexHullV@Gu@physx@@QEBAIAEBT__m128@@@Z 0000000180020860 f i GuMTD.obj
 0001:0001fa90       ?initialize@MultiplePersistentContactManifold@Gu@physx@@QEAAXXZ 0000000180020a90 f i GuMTD.obj
 0001:0001faf0       ?invalidate@MultiplePersistentContactManifold@Gu@physx@@QEAAIAEBVPsTransformV@aos@shdfnd@3@AEBT__m128@@1@Z 0000000180020af0 f i GuMTD.obj
 0001:0001fb70       ?invalidate@MultiplePersistentContactManifold@Gu@physx@@QEAAIAEBVPsTransformV@aos@shdfnd@3@AEBT__m128@@@Z 0000000180020b70 f i GuMTD.obj
 0001:0001fbf0       ?maxTransformPositionDelta@MultiplePersistentContactManifold@Gu@physx@@QEAA?AT__m128@@AEBT4@@Z 0000000180020bf0 f i GuMTD.obj
 0001:0001fc30       ?maxTransformQuatDelta@MultiplePersistentContactManifold@Gu@physx@@QEAA?AT__m128@@AEBT4@@Z 0000000180020c30 f i GuMTD.obj
 0001:0001fc70       ?pointConvexDistance@@YA_NAEAVPxVec3@physx@@0AEAMAEBV12@PEBVConvexMesh@Gu@2@AEBVPxMeshScale@2@AEBVPxTransform@2@@Z 0000000180020c70 f   GuMTD.obj
 0001:00020a30       ?reduceManifoldContactsInDifferentPatches@MultiplePersistentContactManifold@Gu@physx@@QEAAIPEAPEAUPCMContactPatch@23@IPEAVMeshPersistentContact@23@IAEBT__m128@@@Z 0000000180021a30 f i GuMTD.obj
 0001:00020b90       ?refineContactPatchConnective@MultiplePersistentContactManifold@Gu@physx@@QEAAXPEAPEAUPCMContactPatch@23@IPEAVMeshPersistentContact@23@AEBT__m128@@@Z 0000000180021b90 f i GuMTD.obj
 0001:00020c80       ?refreshManifold@MultiplePersistentContactManifold@Gu@physx@@QEAAXAEBVPsMatTransformV@aos@shdfnd@3@AEBT__m128@@1@Z 0000000180021c80 f i GuMTD.obj
 0001:00020d80       ?reset@SeparatingAxes@Gu@physx@@QEAAXXZ 0000000180021d80 f i GuMTD.obj
 0001:00020d90       ?setRelativeTransform@MultiplePersistentContactManifold@Gu@physx@@QEAAXAEBVPsTransformV@aos@shdfnd@3@@Z 0000000180021d90 f i GuMTD.obj
 0001:00020da0       ?support@?$LocalConvex@VCapsuleV@Gu@physx@@@Gu@physx@@UEBA?AT__m128@@AEBT4@@Z 0000000180021da0 f i GuMTD.obj
 0001:00020e00       ?support@?$LocalConvex@VCapsuleV@Gu@physx@@@Gu@physx@@UEBA?AT__m128@@AEBT4@AEAH@Z 0000000180021e00 f i GuMTD.obj
 0001:00020e70       ?support@?$LocalConvex@VConvexHullV@Gu@physx@@@Gu@physx@@UEBA?AT__m128@@AEBT4@@Z 0000000180021e70 f i GuMTD.obj
 0001:00020f50       ?support@?$LocalConvex@VConvexHullV@Gu@physx@@@Gu@physx@@UEBA?AT__m128@@AEBT4@AEAH@Z 0000000180021f50 f i GuMTD.obj
 0001:00021020       ?supportPoint@?$LocalConvex@VCapsuleV@Gu@physx@@@Gu@physx@@UEBA?AT__m128@@H@Z 0000000180022020 f i GuMTD.obj
 0001:00021050       ?supportPoint@?$LocalConvex@VConvexHullV@Gu@physx@@@Gu@physx@@UEBA?AT__m128@@H@Z 0000000180022050 f i GuMTD.obj
 0001:000210a0       ?supportVertexIndex@ConvexHullV@Gu@physx@@QEBAIAEBT__m128@@@Z 00000001800220a0 f i GuMTD.obj
 0001:00021320       ?toBuffer@MultiplePersistentContactManifold@Gu@physx@@QEAAXPEIAE@Z 0000000180022320 f i GuMTD.obj
 0001:00021400       ?supportPoint@?$RelativeConvex@VBoxV@Gu@physx@@@Gu@physx@@UEBA?AT__m128@@H@Z 0000000180022400 f i GuOverlapTests.obj
 0001:00021470       ?support@?$RelativeConvex@VBoxV@Gu@physx@@@Gu@physx@@UEBA?AT__m128@@AEBT4@@Z 0000000180022470 f i GuOverlapTests.obj
 0001:000214f0       ?support@?$RelativeConvex@VBoxV@Gu@physx@@@Gu@physx@@UEBA?AT__m128@@AEBT4@AEAH@Z 00000001800224f0 f i GuOverlapTests.obj
 0001:00021580       ?getCenter@?$RelativeConvex@VCapsuleV@Gu@physx@@@Gu@physx@@UEBA?AT__m128@@XZ 0000000180022580 f i GuCCDSweepPrimitives.obj
 0001:00021580       ?getCenter@?$RelativeConvex@VTriangleV@Gu@physx@@@Gu@physx@@UEBA?AT__m128@@XZ 0000000180022580 f i GuCCDSweepPrimitives.obj
 0001:00021580       ?getCenter@?$RelativeConvex@VConvexHullNoScaleV@Gu@physx@@@Gu@physx@@UEBA?AT__m128@@XZ 0000000180022580 f i GuPCMContactConvexConvex.obj
 0001:00021580       ?getCenter@?$RelativeConvex@VConvexHullV@Gu@physx@@@Gu@physx@@UEBA?AT__m128@@XZ 0000000180022580 f i GuOverlapTests.obj
 0001:00021580       ?getCenter@?$RelativeConvex@VBoxV@Gu@physx@@@Gu@physx@@UEBA?AT__m128@@XZ 0000000180022580 f i GuOverlapTests.obj
 0001:000215c0       ??_E?$RelativeConvex@VTriangleV@Gu@physx@@@Gu@physx@@UEAAPEAXI@Z 00000001800225c0 f i GuCCDSweepPrimitives.obj
 0001:000215c0       ??_E?$RelativeConvex@VConvexHullNoScaleV@Gu@physx@@@Gu@physx@@UEAAPEAXI@Z 00000001800225c0 f i GuPCMContactConvexConvex.obj
 0001:000215c0       ??_G?$RelativeConvex@VCapsuleV@Gu@physx@@@Gu@physx@@UEAAPEAXI@Z 00000001800225c0 f i GuCCDSweepPrimitives.obj
 0001:000215c0       ??_E?$RelativeConvex@VBoxV@Gu@physx@@@Gu@physx@@UEAAPEAXI@Z 00000001800225c0 f i GuOverlapTests.obj
 0001:000215c0       ??_G?$RelativeConvex@VConvexHullNoScaleV@Gu@physx@@@Gu@physx@@UEAAPEAXI@Z 00000001800225c0 f i GuPCMContactConvexConvex.obj
 0001:000215c0       ??_E?$RelativeConvex@VConvexHullV@Gu@physx@@@Gu@physx@@UEAAPEAXI@Z 00000001800225c0 f i GuOverlapTests.obj
 0001:000215c0       ??_E?$RelativeConvex@VCapsuleV@Gu@physx@@@Gu@physx@@UEAAPEAXI@Z 00000001800225c0 f i GuCCDSweepPrimitives.obj
 0001:000215c0       ??_G?$RelativeConvex@VBoxV@Gu@physx@@@Gu@physx@@UEAAPEAXI@Z 00000001800225c0 f i GuOverlapTests.obj
 0001:000215c0       ??_G?$RelativeConvex@VConvexHullV@Gu@physx@@@Gu@physx@@UEAAPEAXI@Z 00000001800225c0 f i GuOverlapTests.obj
 0001:000215c0       ??_G?$RelativeConvex@VTriangleV@Gu@physx@@@Gu@physx@@UEAAPEAXI@Z 00000001800225c0 f i GuCCDSweepPrimitives.obj
 0001:00023780       ?supportPoint@?$RelativeConvex@VConvexHullV@Gu@physx@@@Gu@physx@@UEBA?AT__m128@@H@Z 0000000180024780 f i GuOverlapTests.obj
 0001:00023800       ?support@?$RelativeConvex@VConvexHullV@Gu@physx@@@Gu@physx@@UEBA?AT__m128@@AEBT4@@Z 0000000180024800 f i GuOverlapTests.obj
 0001:00023930       ?support@?$RelativeConvex@VConvexHullV@Gu@physx@@@Gu@physx@@UEBA?AT__m128@@AEBT4@AEAH@Z 0000000180024930 f i GuOverlapTests.obj
 0001:00023a90       ??$gjk@U?$RelativeConvex@VBoxV@Gu@physx@@@Gu@physx@@U?$LocalConvex@VConvexHullV@Gu@physx@@@23@@Gu@physx@@YA?AW4GjkStatus@01@AEBU?$RelativeConvex@VBoxV@Gu@physx@@@01@AEBU?$LocalConvex@VConvexHullV@Gu@physx@@@01@AEBT__m128@@2AEAT5@333@Z 0000000180024a90 f i GuOverlapTests.obj
 0001:00024850       ??$gjk@U?$RelativeConvex@VConvexHullV@Gu@physx@@@Gu@physx@@U?$LocalConvex@VConvexHullV@Gu@physx@@@23@@Gu@physx@@YA?AW4GjkStatus@01@AEBU?$RelativeConvex@VConvexHullV@Gu@physx@@@01@AEBU?$LocalConvex@VConvexHullV@Gu@physx@@@01@AEBT__m128@@2AEAT5@333@Z 0000000180025850 f i GuOverlapTests.obj
 0001:000256e0       ?ComputeCubemapNearestOffset@physx@@YAIAEBVPxVec3@1@I@Z 00000001800266e0 f i GuOverlapTests.obj
 0001:000257e0       ?getOverlapFuncTable@Gu@physx@@YAPEAY06Q6A_NAEBVPxGeometry@2@AEBVPxTransform@2@01PEAUTriggerCache@12@@ZXZ 00000001800267e0 f   GuOverlapTests.obj
 0001:00027270       ?registerHeightFields@Gu@physx@@YAXXZ 0000000180028270 f   GuOverlapTests.obj
 0001:000272c0       ?raycast_box@@YAIAEBVPxGeometry@physx@@AEBVPxTransform@2@AEBVPxVec3@2@2MV?$PxFlags@W4Enum@PxHitFlag@physx@@G@2@IPEIAUPxRaycastHit@2@@Z 00000001800282c0 f   GuRaycastTests.obj
 0001:000278f0       ?raycast_sphere@@YAIAEBVPxGeometry@physx@@AEBVPxTransform@2@AEBVPxVec3@2@2MV?$PxFlags@W4Enum@PxHitFlag@physx@@G@2@IPEIAUPxRaycastHit@2@@Z 00000001800288f0 f   GuRaycastTests.obj
 0001:00027a80       ?raycast_capsule@@YAIAEBVPxGeometry@physx@@AEBVPxTransform@2@AEBVPxVec3@2@2MV?$PxFlags@W4Enum@PxHitFlag@physx@@G@2@IPEIAUPxRaycastHit@2@@Z 0000000180028a80 f   GuRaycastTests.obj
 0001:00027fe0       ?raycast_plane@@YAIAEBVPxGeometry@physx@@AEBVPxTransform@2@AEBVPxVec3@2@2MV?$PxFlags@W4Enum@PxHitFlag@physx@@G@2@IPEIAUPxRaycastHit@2@@Z 0000000180028fe0 f   GuRaycastTests.obj
 0001:00028150       ?raycast_convexMesh@@YAIAEBVPxGeometry@physx@@AEBVPxTransform@2@AEBVPxVec3@2@2MV?$PxFlags@W4Enum@PxHitFlag@physx@@G@2@IPEIAUPxRaycastHit@2@@Z 0000000180029150 f   GuRaycastTests.obj
 0001:00028c80       ?raycast_triangleMesh@@YAIAEBVPxGeometry@physx@@AEBVPxTransform@2@AEBVPxVec3@2@2MV?$PxFlags@W4Enum@PxHitFlag@physx@@G@2@IPEIAUPxRaycastHit@2@@Z 0000000180029c80 f   GuRaycastTests.obj
 0001:00029fa0       ??Dphysx@@YA?AVMatrix34@Cm@0@AEBVPxMeshScale@0@AEBVPxTransform@0@@Z 000000018002afa0 f i GuRaycastTests.obj
 0001:0002abe0       ?getRaycastFuncTable@Gu@physx@@YAAEAY06Q6AIAEBVPxGeometry@2@AEBVPxTransform@2@AEBVPxVec3@2@2MV?$PxFlags@W4Enum@PxHitFlag@physx@@G@2@IPEIAUPxRaycastHit@2@@ZXZ 000000018002bbe0 f   GuRaycastTests.obj
 0001:0002abf0       ?raycast_heightField@@YAIAEBVPxGeometry@physx@@AEBVPxTransform@2@AEBVPxVec3@2@2MV?$PxFlags@W4Enum@PxHitFlag@physx@@G@2@IPEIAUPxRaycastHit@2@@Z 000000018002bbf0 f   GuRaycastTests.obj
 0001:0002b330       ?registerHeightFields_Raycasts@@YAXXZ 000000018002c330 f   GuRaycastTests.obj
 0001:0002b340       ?ReadHeader@Gu@physx@@YA_NEEEEAEAIAEA_NAEAVPxInputStream@2@@Z 000000018002c340 f   GuSerialize.obj
 0001:0002b4a0       ?ReadIndices@Gu@physx@@YAXGIPEAGAEAVPxInputStream@2@_N@Z 000000018002c4a0 f   GuSerialize.obj
 0001:0002b5f0       ?StoreIndices@Gu@physx@@YAXGIPEBGAEAVPxOutputStream@2@_N@Z 000000018002c5f0 f   GuSerialize.obj
 0001:0002b6b0       ?StoreIndices@Gu@physx@@YAXIIPEBIAEAVPxOutputStream@2@_N@Z 000000018002c6b0 f   GuSerialize.obj
 0001:0002b7d0       ?WriteHeader@Gu@physx@@YA_NEEEEI_NAEAVPxOutputStream@2@@Z 000000018002c7d0 f   GuSerialize.obj
 0001:0002b900       ?computeMaxIndex@physx@@YAGPEBGI@Z 000000018002c900 f   GuSerialize.obj
 0001:0002b930       ?computeMaxIndex@physx@@YAIPEBII@Z 000000018002c930 f   GuSerialize.obj
 0001:0002b960       ?readChunk@physx@@YAXAEAC000AEAVPxInputStream@1@@Z 000000018002c960 f   GuSerialize.obj
 0001:0002b9e0       ?readDword@physx@@YAI_NAEAVPxInputStream@1@@Z 000000018002c9e0 f   GuSerialize.obj
 0001:0002ba40       ?readFloat@physx@@YAM_NAEAVPxInputStream@1@@Z 000000018002ca40 f   GuSerialize.obj
 0001:0002baa0       ?readFloatBuffer@physx@@YA_NPEAMI_NAEAVPxInputStream@1@@Z 000000018002caa0 f   GuSerialize.obj
 0001:0002bb20       ?readHeader@physx@@YA_NCCCCAEAIAEA_NAEAVPxInputStream@1@@Z 000000018002cb20 f   GuSerialize.obj
 0001:0002bc70       ?readIndices@physx@@YAXIIPEAIAEAVPxInputStream@1@_N@Z 000000018002cc70 f   GuSerialize.obj
 0001:0002bd60       ?readWord@physx@@YAG_NAEAVPxInputStream@1@@Z 000000018002cd60 f   GuSerialize.obj
 0001:0002bda0       ?readWordBuffer@physx@@YAXPEAGI_NAEAVPxInputStream@1@@Z 000000018002cda0 f   GuSerialize.obj
 0001:0002be10       ?storeIndices@physx@@YAXIIPEBIAEAVPxOutputStream@1@_N@Z 000000018002ce10 f   GuSerialize.obj
 0001:0002bf00       ?writeDword@physx@@YAXI_NAEAVPxOutputStream@1@@Z 000000018002cf00 f   GuSerialize.obj
 0001:0002bf50       ?writeFloat@physx@@YAXM_NAEAVPxOutputStream@1@@Z 000000018002cf50 f   GuSerialize.obj
 0001:0002bfa0       ?writeFloatBuffer@physx@@YAXPEBMI_NAEAVPxOutputStream@1@@Z 000000018002cfa0 f   GuSerialize.obj
 0001:0002c040       ?writeHeader@physx@@YA_NCCCCI_NAEAVPxOutputStream@1@@Z 000000018002d040 f   GuSerialize.obj
 0001:0002c170       ?writeWord@physx@@YAXG_NAEAVPxOutputStream@1@@Z 000000018002d170 f   GuSerialize.obj
 0001:0002c1b0       ?writeWordBuffer@physx@@YAXPEBGI_NAEAVPxOutputStream@1@@Z 000000018002d1b0 f   GuSerialize.obj
 0001:0002c230       ??Dphysx@@YA?AVMatrix34@Cm@0@AEBVPxTransform@0@AEBVPxMeshScale@0@@Z 000000018002d230 f i GuSweepMTD.obj
 0001:0002c880       ??_G?$MeshHitCallback@UPxRaycastHit@physx@@@Gu@physx@@UEAAPEAXI@Z 000000018002d880 f i GuSweepMTD.obj
 0001:0002c880       ??_E?$MeshHitCallback@UPxRaycastHit@physx@@@Gu@physx@@UEAAPEAXI@Z 000000018002d880 f i GuSweepMTD.obj
 0001:0002c8b0       ??_EMeshMTDGenerationCallback@@UEAAPEAXI@Z 000000018002d8b0 f i GuSweepMTD.obj
 0001:0002c8b0       ??_GMeshMTDGenerationCallback@@UEAAPEAXI@Z 000000018002d8b0 f i GuSweepMTD.obj
 0001:0002c8e0       ??_GMidPhaseQueryLocalReport@@UEAAPEAXI@Z 000000018002d8e0 f i GuSweepMTD.obj
 0001:0002c8e0       ??_EMidPhaseQueryLocalReport@@UEAAPEAXI@Z 000000018002d8e0 f i GuSweepMTD.obj
 0001:0002c910       ?allocate@?$ReflectionAllocator@I@shdfnd@physx@@QEAAPEAX_KPEBDH@Z 000000018002d910 f i GuSweepMTD.obj
 0001:0002c9b0       ?computeBox_HeightFieldMTD@Gu@physx@@YA_NAEBVPxHeightFieldGeometry@2@AEBVPxTransform@2@AEBVBox@12@1M_NIAEAUPxSweepHit@2@@Z 000000018002d9b0 f   GuSweepMTD.obj
 0001:0002d830       ?computeBox_TriangleMeshMTD@Gu@physx@@YA_NAEBVPxTriangleMeshGeometry@2@AEBVPxTransform@2@AEBVBox@12@1M_NAEAUPxSweepHit@2@@Z 000000018002e830 f   GuSweepMTD.obj
 0001:0002e470       ?computeCapsule_CapsuleMTD@Gu@physx@@YA_NAEBVCapsule@12@0AEAUPxSweepHit@2@@Z 000000018002f470 f   GuSweepMTD.obj
 0001:0002e6b0       ?computeCapsule_HeightFieldMTD@Gu@physx@@YA_NAEBVPxHeightFieldGeometry@2@AEBVPxTransform@2@AEAVCapsuleV@12@M_NIAEAUPxSweepHit@2@@Z 000000018002f6b0 f   GuSweepMTD.obj
 0001:0002eec0       ?computeCapsule_TriangleMeshMTD@Gu@physx@@YA_NAEBVPxTriangleMeshGeometry@2@AEBVPxTransform@2@AEAVCapsuleV@12@M_NAEAUPxSweepHit@2@@Z 000000018002fec0 f   GuSweepMTD.obj
 0001:0002f760       ?computeConvex_HeightFieldMTD@Gu@physx@@YA_NAEBVPxHeightFieldGeometry@2@AEBVPxTransform@2@AEBVPxConvexMeshGeometry@2@1M_NIAEAUPxSweepHit@2@@Z 0000000180030760 f   GuSweepMTD.obj
 0001:00030ad0       ?computeConvex_TriangleMeshMTD@Gu@physx@@YA_NAEBVPxTriangleMeshGeometry@2@AEBVPxTransform@2@AEBVPxConvexMeshGeometry@2@1M_NAEAUPxSweepHit@2@@Z 0000000180031ad0 f   GuSweepMTD.obj
 0001:00031d00       ?computePlane_BoxMTD@Gu@physx@@YA_NAEBVPxPlane@2@AEBVBox@12@AEAUPxSweepHit@2@@Z 0000000180032d00 f   GuSweepMTD.obj
 0001:00032030       ?computePlane_CapsuleMTD@Gu@physx@@YA_NAEBVPxPlane@2@AEBVCapsule@12@AEAUPxSweepHit@2@@Z 0000000180033030 f   GuSweepMTD.obj
 0001:00032150       ?computePlane_ConvexMTD@Gu@physx@@YA_NAEBVPxPlane@2@AEBVPxConvexMeshGeometry@2@AEBVPxTransform@2@AEAUPxSweepHit@2@@Z 0000000180033150 f   GuSweepMTD.obj
 0001:00032cc0       ?computeSphere_CapsuleMTD@Gu@physx@@YA_NAEBVSphere@12@AEBVCapsule@12@AEAUPxSweepHit@2@@Z 0000000180033cc0 f   GuSweepMTD.obj
 0001:00032e70       ?computeSphere_SphereMTD@Gu@physx@@YA_NAEBVSphere@12@0AEAUPxSweepHit@2@@Z 0000000180033e70 f   GuSweepMTD.obj
 0001:00032f60       ?getInverse@PxMat33@physx@@QEBA?BV12@XZ 0000000180033f60 f i GuSweepMTD.obj
 0001:000331b0       ?growAndPushBack@?$Array@IV?$ReflectionAllocator@I@shdfnd@physx@@@shdfnd@physx@@IEAAAEAIAEBI@Z 00000001800341b0 f i GuSweepMTD.obj
 0001:00033280       ?init@FastVertex2ShapeScaling@Cm@physx@@QEAAXAEBVPxVec3@3@AEBVPxQuat@3@@Z 0000000180034280 f i GuSweepMTD.obj
 0001:00033660       ?onEvent@MidPhaseQueryLocalReport@@UEAA_NIPEAI@Z 0000000180034660 f i GuSweepMTD.obj
 0001:000336d0       ?processHit@MeshMTDGenerationCallback@@UEAA_NAEBUPxRaycastHit@physx@@AEBVPxVec3@3@11AEAMPEBI@Z 00000001800346d0 f i GuSweepMTD.obj
 0001:00033720       ?recreate@?$Array@IV?$ReflectionAllocator@I@shdfnd@physx@@@shdfnd@physx@@IEAAXI@Z 0000000180034720 f i GuSweepMTD.obj
 0001:000337e0       ??$gjkPenetration@U?$LocalConvex@VCapsuleV@Gu@physx@@@Gu@physx@@U?$LocalConvex@VConvexHullV@Gu@physx@@@23@@Gu@physx@@YA?AW4GjkStatus@01@AEBU?$LocalConvex@VCapsuleV@Gu@physx@@@01@AEBU?$LocalConvex@VConvexHullV@Gu@physx@@@01@AEBT__m128@@2_NPEIAE4AEAEAEAUGjkOutput@01@@Z 00000001800347e0 f i GuSweepSharedTests.obj
 0001:00034db0       ??$gjkPenetration@U?$RelativeConvex@VBoxV@Gu@physx@@@Gu@physx@@U?$LocalConvex@VConvexHullV@Gu@physx@@@23@@Gu@physx@@YA?AW4GjkStatus@01@AEBU?$RelativeConvex@VBoxV@Gu@physx@@@01@AEBU?$LocalConvex@VConvexHullV@Gu@physx@@@01@AEBT__m128@@2_NPEIAE4AEAEAEAUGjkOutput@01@@Z 0000000180035db0 f i GuSweepSharedTests.obj
 0001:000363a0       ??$gjkPenetration@U?$RelativeConvex@VConvexHullV@Gu@physx@@@Gu@physx@@U?$LocalConvex@VConvexHullV@Gu@physx@@@23@@Gu@physx@@YA?AW4GjkStatus@01@AEBU?$RelativeConvex@VConvexHullV@Gu@physx@@@01@AEBU?$LocalConvex@VConvexHullV@Gu@physx@@@01@AEBT__m128@@2_NPEIAE4AEAEAEAUGjkOutput@01@@Z 00000001800373a0 f i GuSweepSharedTests.obj
 0001:00037a00       ??$gjkRaycast@U?$LocalConvex@VCapsuleV@Gu@physx@@@Gu@physx@@U?$LocalConvex@VConvexHullV@Gu@physx@@@23@@Gu@physx@@YA_NAEBU?$LocalConvex@VCapsuleV@Gu@physx@@@01@AEBU?$LocalConvex@VConvexHullV@Gu@physx@@@01@AEBT__m128@@222AEAT4@33M@Z 0000000180038a00 f i GuSweepSharedTests.obj
 0001:00038750       ??$gjkRaycast@U?$RelativeConvex@VBoxV@Gu@physx@@@Gu@physx@@U?$LocalConvex@VConvexHullV@Gu@physx@@@23@@Gu@physx@@YA_NAEBU?$RelativeConvex@VBoxV@Gu@physx@@@01@AEBU?$LocalConvex@VConvexHullV@Gu@physx@@@01@AEBT__m128@@222AEAT4@33M@Z 0000000180039750 f i GuSweepSharedTests.obj
 0001:00039510       ??$gjkRaycast@U?$RelativeConvex@VConvexHullV@Gu@physx@@@Gu@physx@@U?$LocalConvex@VConvexHullV@Gu@physx@@@23@@Gu@physx@@YA_NAEBU?$RelativeConvex@VConvexHullV@Gu@physx@@@01@AEBU?$LocalConvex@VConvexHullV@Gu@physx@@@01@AEBT__m128@@222AEAT4@33M@Z 000000018003a510 f i GuSweepSharedTests.obj
 0001:0003a3a0       ??$gjkRaycastPenetration@U?$RelativeConvex@VConvexHullV@Gu@physx@@@Gu@physx@@U?$LocalConvex@VConvexHullV@Gu@physx@@@23@@Gu@physx@@YA_NAEBU?$RelativeConvex@VConvexHullV@Gu@physx@@@01@AEBU?$LocalConvex@VConvexHullV@Gu@physx@@@01@AEBT__m128@@222AEAT4@33M_N@Z 000000018003b3a0 f i GuSweepSharedTests.obj
 0001:0003afd0       ?sweepBox_ConvexGeom@@YA_NAEBVPxGeometry@physx@@AEBVPxTransform@2@AEBVPxBoxGeometry@2@1AEBVBox@Gu@2@AEBVPxVec3@2@MAEAUPxSweepHit@2@V?$PxFlags@W4Enum@PxHitFlag@physx@@G@2@M@Z 000000018003bfd0 f   GuSweepSharedTests.obj
 0001:0003bdf0       ?sweepBox_PlaneGeom@@YA_NAEBVPxGeometry@physx@@AEBVPxTransform@2@AEBVPxBoxGeometry@2@1AEBVBox@Gu@2@AEBVPxVec3@2@MAEAUPxSweepHit@2@V?$PxFlags@W4Enum@PxHitFlag@physx@@G@2@M@Z 000000018003cdf0 f   GuSweepSharedTests.obj
 0001:0003c290       ?sweepCapsuleTriangles@Gu@physx@@YA_NIPEBVPxTriangle@2@_NAEBVPxCapsuleGeometry@2@AEBVPxTransform@2@AEBVPxVec3@2@MAEAUPxSweepHit@2@PEBIMV?$PxFlags@W4Enum@PxHitFlag@physx@@G@2@@Z 000000018003d290 f   GuSweepSharedTests.obj
 0001:0003c480       ?sweepCapsule_CapsuleGeom@@YA_NAEBVPxGeometry@physx@@AEBVPxTransform@2@AEBVPxCapsuleGeometry@2@1AEBVCapsule@Gu@2@AEBVPxVec3@2@MAEAUPxSweepHit@2@V?$PxFlags@W4Enum@PxHitFlag@physx@@G@2@M@Z 000000018003d480 f   GuSweepSharedTests.obj
 0001:0003c660       ?sweepCapsule_ConvexGeom@@YA_NAEBVPxGeometry@physx@@AEBVPxTransform@2@AEBVPxCapsuleGeometry@2@1AEBVCapsule@Gu@2@AEBVPxVec3@2@MAEAUPxSweepHit@2@V?$PxFlags@W4Enum@PxHitFlag@physx@@G@2@M@Z 000000018003d660 f   GuSweepSharedTests.obj
 0001:0003d3f0       ?sweepCapsule_PlaneGeom@@YA_NAEBVPxGeometry@physx@@AEBVPxTransform@2@AEBVPxCapsuleGeometry@2@1AEBVCapsule@Gu@2@AEBVPxVec3@2@MAEAUPxSweepHit@2@V?$PxFlags@W4Enum@PxHitFlag@physx@@G@2@M@Z 000000018003e3f0 f   GuSweepSharedTests.obj
 0001:0003d6e0       ?sweepCapsule_SphereGeom@@YA_NAEBVPxGeometry@physx@@AEBVPxTransform@2@AEBVPxCapsuleGeometry@2@1AEBVCapsule@Gu@2@AEBVPxVec3@2@MAEAUPxSweepHit@2@V?$PxFlags@W4Enum@PxHitFlag@physx@@G@2@M@Z 000000018003e6e0 f   GuSweepSharedTests.obj
 0001:0003d870       ?sweepConvex_BoxGeom@@YA_NAEBVPxGeometry@physx@@AEBVPxTransform@2@AEBVPxConvexMeshGeometry@2@1AEBVPxVec3@2@MAEAUPxSweepHit@2@V?$PxFlags@W4Enum@PxHitFlag@physx@@G@2@M@Z 000000018003e870 f   GuSweepSharedTests.obj
 0001:0003da80       ?sweepConvex_CapsuleGeom@@YA_NAEBVPxGeometry@physx@@AEBVPxTransform@2@AEBVPxConvexMeshGeometry@2@1AEBVPxVec3@2@MAEAUPxSweepHit@2@V?$PxFlags@W4Enum@PxHitFlag@physx@@G@2@M@Z 000000018003ea80 f   GuSweepSharedTests.obj
 0001:0003dca0       ?sweepConvex_ConvexGeom@@YA_NAEBVPxGeometry@physx@@AEBVPxTransform@2@AEBVPxConvexMeshGeometry@2@1AEBVPxVec3@2@MAEAUPxSweepHit@2@V?$PxFlags@W4Enum@PxHitFlag@physx@@G@2@M@Z 000000018003eca0 f   GuSweepSharedTests.obj
 0001:0003ec40       ?sweepConvex_PlaneGeom@@YA_NAEBVPxGeometry@physx@@AEBVPxTransform@2@AEBVPxConvexMeshGeometry@2@1AEBVPxVec3@2@MAEAUPxSweepHit@2@V?$PxFlags@W4Enum@PxHitFlag@physx@@G@2@M@Z 000000018003fc40 f   GuSweepSharedTests.obj
 0001:0003f090       ?sweepConvex_SphereGeom@@YA_NAEBVPxGeometry@physx@@AEBVPxTransform@2@AEBVPxConvexMeshGeometry@2@1AEBVPxVec3@2@MAEAUPxSweepHit@2@V?$PxFlags@W4Enum@PxHitFlag@physx@@G@2@M@Z 0000000180040090 f   GuSweepSharedTests.obj
 0001:0003fcb0       ?sweepCapsule_BoxGeom@@YA_NAEBVPxGeometry@physx@@AEBVPxTransform@2@AEBVPxCapsuleGeometry@2@1AEBVCapsule@Gu@2@AEBVPxVec3@2@MAEAUPxSweepHit@2@V?$PxFlags@W4Enum@PxHitFlag@physx@@G@2@M@Z 0000000180040cb0 f   GuSweepTests.obj
 0001:000405a0       ?sweepBox_SphereGeom@@YA_NAEBVPxGeometry@physx@@AEBVPxTransform@2@AEBVPxBoxGeometry@2@1AEBVBox@Gu@2@AEBVPxVec3@2@MAEAUPxSweepHit@2@V?$PxFlags@W4Enum@PxHitFlag@physx@@G@2@M@Z 00000001800415a0 f   GuSweepTests.obj
 0001:00040c70       ?sweepBox_CapsuleGeom@@YA_NAEBVPxGeometry@physx@@AEBVPxTransform@2@AEBVPxBoxGeometry@2@1AEBVBox@Gu@2@AEBVPxVec3@2@MAEAUPxSweepHit@2@V?$PxFlags@W4Enum@PxHitFlag@physx@@G@2@M@Z 0000000180041c70 f   GuSweepTests.obj
 0001:00041570       ?sweepBox_BoxGeom@@YA_NAEBVPxGeometry@physx@@AEBVPxTransform@2@AEBVPxBoxGeometry@2@1AEBVBox@Gu@2@AEBVPxVec3@2@MAEAUPxSweepHit@2@V?$PxFlags@W4Enum@PxHitFlag@physx@@G@2@M@Z 0000000180042570 f   GuSweepTests.obj
 0001:00041f10       ??$gjkPenetration@U?$LocalConvex@VCapsuleV@Gu@physx@@@Gu@physx@@U?$LocalConvex@VBoxV@Gu@physx@@@23@@Gu@physx@@YA?AW4GjkStatus@01@AEBU?$LocalConvex@VCapsuleV@Gu@physx@@@01@AEBU?$LocalConvex@VBoxV@Gu@physx@@@01@AEBT__m128@@2_NPEIAE4AEAEAEAUGjkOutput@01@@Z 0000000180042f10 f i GuSweepTests.obj
 0001:00043430       ??$gjkPenetration@U?$RelativeConvex@VBoxV@Gu@physx@@@Gu@physx@@U?$LocalConvex@VBoxV@Gu@physx@@@23@@Gu@physx@@YA?AW4GjkStatus@01@AEBU?$RelativeConvex@VBoxV@Gu@physx@@@01@AEBU?$LocalConvex@VBoxV@Gu@physx@@@01@AEBT__m128@@2_NPEIAE4AEAEAEAUGjkOutput@01@@Z 0000000180044430 f i GuSweepTests.obj
 0001:00044970       ??$gjkRaycast@U?$LocalConvex@VCapsuleV@Gu@physx@@@Gu@physx@@U?$LocalConvex@VBoxV@Gu@physx@@@23@@Gu@physx@@YA_NAEBU?$LocalConvex@VCapsuleV@Gu@physx@@@01@AEBU?$LocalConvex@VBoxV@Gu@physx@@@01@AEBT__m128@@222AEAT4@33M@Z 0000000180045970 f i GuSweepTests.obj
 0001:00045550       ??$gjkRaycast@U?$LocalConvex@VTriangleV@Gu@physx@@@Gu@physx@@U?$LocalConvex@VBoxV@Gu@physx@@@23@@Gu@physx@@YA_NAEBU?$LocalConvex@VTriangleV@Gu@physx@@@01@AEBU?$LocalConvex@VBoxV@Gu@physx@@@01@AEBT__m128@@222AEAT4@33M@Z 0000000180046550 f i GuSweepTests.obj
 0001:000461a0       ??$gjkRaycast@U?$RelativeConvex@VBoxV@Gu@physx@@@Gu@physx@@U?$LocalConvex@VBoxV@Gu@physx@@@23@@Gu@physx@@YA_NAEBU?$RelativeConvex@VBoxV@Gu@physx@@@01@AEBU?$LocalConvex@VBoxV@Gu@physx@@@01@AEBT__m128@@222AEAT4@33M@Z 00000001800471a0 f i GuSweepTests.obj
 0001:00046de0       ?getSweepFuncTable@Gu@physx@@YAAEBUGeomSweepFuncs@12@XZ 0000000180047de0 f   GuSweepTests.obj
 0001:00046df0       ?getSweepMargin@?$RelativeConvex@VTriangleV@Gu@physx@@@Gu@physx@@UEBA?AT__m128@@XZ 0000000180047df0 f i GuCCDSweepPrimitives.obj
 0001:00046df0       ?getSweepMargin@?$LocalConvex@VTriangleV@Gu@physx@@@Gu@physx@@UEBA?AT__m128@@XZ 0000000180047df0 f i GuSweepTests.obj
 0001:00046e00       ?registerHeightFields_Sweeps@@YAXXZ 0000000180047e00 f   GuSweepTests.obj
 0001:00046e40       ?support@?$LocalConvex@VBoxV@Gu@physx@@@Gu@physx@@UEBA?AT__m128@@AEBT4@@Z 0000000180047e40 f i GuSweepTests.obj
 0001:00046e70       ?support@?$LocalConvex@VBoxV@Gu@physx@@@Gu@physx@@UEBA?AT__m128@@AEBT4@AEAH@Z 0000000180047e70 f i GuSweepTests.obj
 0001:00046eb0       ?support@?$LocalConvex@VTriangleV@Gu@physx@@@Gu@physx@@UEBA?AT__m128@@AEBT4@@Z 0000000180047eb0 f i GuSweepTests.obj
 0001:00046f40       ?support@?$LocalConvex@VTriangleV@Gu@physx@@@Gu@physx@@UEBA?AT__m128@@AEBT4@AEAH@Z 0000000180047f40 f i GuSweepTests.obj
 0001:00047020       ?supportPoint@?$LocalConvex@VBoxV@Gu@physx@@@Gu@physx@@UEBA?AT__m128@@H@Z 0000000180048020 f i GuSweepTests.obj
 0001:00047060       ?supportPoint@?$LocalConvex@VTriangleV@Gu@physx@@@Gu@physx@@UEBA?AT__m128@@H@Z 0000000180048060 f i GuSweepTests.obj
 0001:00047080       ?sweepBoxTriangles@Gu@physx@@YA_NIPEBVPxTriangle@2@_NAEBVPxBoxGeometry@2@AEBVPxTransform@2@AEBVPxVec3@2@MAEAUPxSweepHit@2@PEBIMV?$PxFlags@W4Enum@PxHitFlag@physx@@G@2@@Z 0000000180048080 f   GuSweepTests.obj
 0001:00047b00       ??$?_UV?$ReflectionAllocator@VAABBTreeBuildNode@Gu@physx@@@shdfnd@physx@@@UserAllocated@shdfnd@physx@@SAPEAX_KV?$ReflectionAllocator@VAABBTreeBuildNode@Gu@physx@@@12@PEBDH@Z 0000000180048b00 f i GuAABBTreeBuild.obj
 0001:00047ba0       ??$copy@V?$ReflectionAllocator@USlab@NodeAllocator@Gu@physx@@@shdfnd@physx@@@?$Array@USlab@NodeAllocator@Gu@physx@@V?$ReflectionAllocator@USlab@NodeAllocator@Gu@physx@@@shdfnd@4@@shdfnd@physx@@IEAAXAEBV012@@Z 0000000180048ba0 f i GuAABBTreeBuild.obj
 0001:00047c20       ??4AABBTreeBuildNode@Gu@physx@@QEAAAEAV012@AEBV012@@Z 0000000180048c20 f i GuAABBTreeBuild.obj
 0001:00047c20       ??0AABBTreeBuildNode@Gu@physx@@QEAA@AEBV012@@Z 0000000180048c20 f i GuAABBTreeBuild.obj
 0001:00047c60       ??0AABBTreeBuildParams@Gu@physx@@QEAA@IIPEBVPxBounds3@2@@Z 0000000180048c60 f i GuAABBTreeBuild.obj
 0001:00047c80       ??0BuildStats@Gu@physx@@QEAA@XZ 0000000180048c80 f i GuAABBTreeBuild.obj
 0001:00047c90       ??0NodeAllocator@Gu@physx@@QEAA@AEBV012@@Z 0000000180048c90 f i GuAABBTreeBuild.obj
 0001:00047cd0       ??0NodeAllocator@Gu@physx@@QEAA@XZ 0000000180048cd0 f   GuAABBTreeBuild.obj
 0001:00047cf0       ??1AABBTreeBuildParams@Gu@physx@@QEAA@XZ 0000000180048cf0 f i GuAABBTreeBuild.obj
 0001:00047cf0       ?reset@AABBTreeBuildParams@Gu@physx@@QEAAXXZ 0000000180048cf0 f i GuAABBTreeBuild.obj
 0001:00047d50       ??1NodeAllocator@Gu@physx@@QEAA@XZ 0000000180048d50 f   GuAABBTreeBuild.obj
 0001:00047da0       ??4AABBTreeBuildParams@Gu@physx@@QEAAAEAV012@AEBV012@@Z 0000000180048da0 f i GuAABBTreeBuild.obj
 0001:00047dc0       ??4BuildStats@Gu@physx@@QEAAAEAU012@$$QEAU012@@Z 0000000180048dc0 f i GuAABBTreeBuild.obj
 0001:00047dd0       ??4BuildStats@Gu@physx@@QEAAAEAU012@AEBU012@@Z 0000000180048dd0 f i GuAABBTreeBuild.obj
 0001:00047de0       ??4NodeAllocator@Gu@physx@@QEAAAEAV012@AEBV012@@Z 0000000180048de0 f i GuAABBTreeBuild.obj
 0001:00047e90       ??_FAABBTreeBuildParams@Gu@physx@@QEAAXXZ 0000000180048e90 f i GuAABBTreeBuild.obj
 0001:00047eb0       ?_buildHierarchy@AABBTreeBuildNode@Gu@physx@@QEAAXAEAVAABBTreeBuildParams@23@AEAUBuildStats@23@AEAVNodeAllocator@23@QEAI@Z 0000000180048eb0 f   GuAABBTreeBuild.obj
 0001:00047f40       ?allocate@?$Array@USlab@NodeAllocator@Gu@physx@@V?$ReflectionAllocator@USlab@NodeAllocator@Gu@physx@@@shdfnd@4@@shdfnd@physx@@IEAAPEAUSlab@NodeAllocator@Gu@3@I@Z 0000000180048f40 f i GuAABBTreeBuild.obj
 0001:00047fe0       ?buildAABBTree@Gu@physx@@YA_NAEAVAABBTreeBuildParams@12@AEAVNodeAllocator@12@AEAUBuildStats@12@AEAPEAI@Z 0000000180048fe0 f   GuAABBTreeBuild.obj
 0001:00048040       ?getBiNode@NodeAllocator@Gu@physx@@QEAAPEAVAABBTreeBuildNode@23@XZ 0000000180049040 f   GuAABBTreeBuild.obj
 0001:00048170       ?getNbTriangles@TriangleMesh@Gu@physx@@UEBAIXZ 0000000180049170 f i GuTriangleMesh.obj
 0001:00048170       ?getNbPrimitives@AABBTreeBuildNode@Gu@physx@@QEBAIXZ 0000000180049170 f i GuAABBTreeBuild.obj
 0001:00048170       ?getNbRuntimePrimitives@AABBTreeBuildNode@Gu@physx@@QEBAIXZ 0000000180049170 f i GuAABBTreeBuild.obj
 0001:00048180       ?getNeg@AABBTreeBuildNode@Gu@physx@@QEBAPEBV123@XZ 0000000180049180 f i GuAABBTreeBuild.obj
 0001:000481a0       ?getPrimitives@AABBTreeBuildNode@Gu@physx@@QEBAPEBIPEBI@Z 00000001800491a0 f i GuAABBTreeBuild.obj
 0001:000481a0       ?getPrimitives@AABBTreeBuildNode@Gu@physx@@QEAAPEAIPEAI@Z 00000001800491a0 f i GuAABBTreeBuild.obj
 0001:000481b0       ?growAndPushBack@?$Array@USlab@NodeAllocator@Gu@physx@@V?$ReflectionAllocator@USlab@NodeAllocator@Gu@physx@@@shdfnd@4@@shdfnd@physx@@IEAAAEAUSlab@NodeAllocator@Gu@3@AEBU4563@@Z 00000001800491b0 f i GuAABBTreeBuild.obj
 0001:00048270       ?increaseCount@BuildStats@Gu@physx@@QEAAXI@Z 0000000180049270 f i GuAABBTreeBuild.obj
 0001:00048280       ?init@NodeAllocator@Gu@physx@@QEAAXII@Z 0000000180049280 f   GuAABBTreeBuild.obj
 0001:00048390       ?initAABBTreeBuild@Gu@physx@@YA_NAEAVAABBTreeBuildParams@12@AEAVNodeAllocator@12@AEAUBuildStats@12@AEAPEAI@Z 0000000180049390 f   GuAABBTreeBuild.obj
 0001:000485a0       ?isLeaf@AABBTreeBuildNode@Gu@physx@@QEBA_NXZ 00000001800495a0 f i GuAABBTreeBuild.obj
 0001:000485b0       ?recreate@?$Array@USlab@NodeAllocator@Gu@physx@@V?$ReflectionAllocator@USlab@NodeAllocator@Gu@physx@@@shdfnd@4@@shdfnd@physx@@IEAAXI@Z 00000001800495b0 f i GuAABBTreeBuild.obj
 0001:00048660       ?release@NodeAllocator@Gu@physx@@QEAAXXZ 0000000180049660 f   GuAABBTreeBuild.obj
 0001:00048710       ?reset@BuildStats@Gu@physx@@QEAAXXZ 0000000180049710 f i GuAABBTreeBuild.obj
 0001:00048720       ?resize@?$Array@USlab@NodeAllocator@Gu@physx@@V?$ReflectionAllocator@USlab@NodeAllocator@Gu@physx@@@shdfnd@4@@shdfnd@physx@@QEAAXIAEBUSlab@NodeAllocator@Gu@3@@Z 0000000180049720 f i GuAABBTreeBuild.obj
 0001:000487a0       ?setCount@BuildStats@Gu@physx@@QEAAXI@Z 00000001800497a0 f i GuAABBTreeBuild.obj
 0001:000487b0       ?setNbRunTimePrimitives@AABBTreeBuildNode@Gu@physx@@QEAAXI@Z 00000001800497b0 f i GuAABBTreeBuild.obj
 0001:00048920       ?subdivide@AABBTreeBuildNode@Gu@physx@@QEAAXAEBVAABBTreeBuildParams@23@AEAUBuildStats@23@AEAVNodeAllocator@23@QEAI@Z 0000000180049920 f   GuAABBTreeBuild.obj
 0001:00048b00       ??0BVHStructure@Gu@physx@@QEAA@PEAVGuMeshFactory@2@@Z 0000000180049b00 f   GuBVHStructure.obj
 0001:00048b60       ??0BVHStructure@Gu@physx@@QEAA@PEAVGuMeshFactory@2@AEAUBVHStructureData@12@@Z 0000000180049b60 f   GuBVHStructure.obj
 0001:00048bd0       ??R?$AABBTreeOverlap@UAABBAABBTest@Gu@physx@@UBVHTree@23@UBVHNode@23@IUBVHCallback@23@@Gu@physx@@QEAA_NPEBIPEBVPxBounds3@2@AEBUBVHTree@12@AEBUAABBAABBTest@12@AEAUBVHCallback@12@@Z 0000000180049bd0 f i GuBVHStructure.obj
 0001:00048e50       ??R?$AABBTreeRaycast@$00UBVHTree@Gu@physx@@UBVHNode@23@IUBVHCallback@23@@Gu@physx@@QEAA_NPEBIPEBVPxBounds3@2@AEBUBVHTree@12@AEBVPxVec3@2@3AEAM3AEAUBVHCallback@12@@Z 0000000180049e50 f i GuBVHStructure.obj
 0001:000494e0       ??R?$AABBTreeRaycast@$0A@UBVHTree@Gu@physx@@UBVHNode@23@IUBVHCallback@23@@Gu@physx@@QEAA_NPEBIPEBVPxBounds3@2@AEBUBVHTree@12@AEBVPxVec3@2@3AEAM3AEAUBVHCallback@12@@Z 000000018004a4e0 f i GuBVHStructure.obj
 0001:00049b28       ??_EBVHStructure@Gu@physx@@WBA@EAAPEAXI@Z 000000018004ab28 f i GuBVHStructure.obj
 0001:00049b40       ??_GBVHStructure@Gu@physx@@UEAAPEAXI@Z 000000018004ab40 f i GuBVHStructure.obj
 0001:00049b40       ??_EBVHStructure@Gu@physx@@UEAAPEAXI@Z 000000018004ab40 f i GuBVHStructure.obj
 0001:00049ba0       ??_GRefCountable@Cm@physx@@UEAAPEAXI@Z 000000018004aba0 f i GuBVHStructure.obj
 0001:00049ba0       ??_ERefCountable@Cm@physx@@UEAAPEAXI@Z 000000018004aba0 f i GuBVHStructure.obj
 0001:00049bd0       ?allocate@?$Array@PEBUBVHNode@Gu@physx@@V?$InlineAllocator@$0IAA@V?$ReflectionAllocator@PEBUBVHNode@Gu@physx@@@shdfnd@physx@@@shdfnd@3@@shdfnd@physx@@IEAAPEAPEBUBVHNode@Gu@3@I@Z 000000018004abd0 f i GuBVHStructure.obj
 0001:00049c90       ?createVolumes@BVHStructure@Gu@physx@@AEBAXXZ 000000018004ac90 f   GuBVHStructure.obj
 0001:00049d20       ?getBounds@BVHStructure@Gu@physx@@UEBAPEBVPxBounds3@3@XZ 000000018004ad20 f i GuBVHStructure.obj
 0001:00049d20       ?getTriangles@TriangleMesh@Gu@physx@@UEBAPEBXXZ 000000018004ad20 f i GuTriangleMesh.obj
 0001:00049d30       ?getConcreteTypeName@PxBVHStructure@physx@@UEBAPEBDXZ 000000018004ad30 f i GuBVHStructure.obj
 0001:00049d40       ?getNbBounds@BVHStructure@Gu@physx@@UEBAIXZ 000000018004ad40 f i GuBVHStructure.obj
 0001:00049d50       ?isKindOf@PxBVHStructure@physx@@MEBA_NPEBD@Z 000000018004ad50 f i GuBVHStructure.obj
 0001:00049da0       ?load@BVHStructure@Gu@physx@@QEAA_NAEAVPxInputStream@3@@Z 000000018004ada0 f   GuBVHStructure.obj
 0001:00049f70       ?onRefCountZero@BVHStructure@Gu@physx@@UEAAXXZ 000000018004af70 f   GuBVHStructure.obj
 0001:0004a0a0       ?onRefCountZero@RefCountable@Cm@physx@@UEAAXXZ 000000018004b0a0 f i GuBVHStructure.obj
 0001:0004a0c0       ?overlap@BVHStructure@Gu@physx@@UEBAIAEBVPxBounds3@3@IPEIAI@Z 000000018004b0c0 f   GuBVHStructure.obj
 0001:0004a200       ?raycast@BVHStructure@Gu@physx@@UEBAIAEBVPxVec3@3@0MIPEIAI@Z 000000018004b200 f   GuBVHStructure.obj
 0001:0004a2d0       ?recreate@?$Array@PEBUBVHNode@Gu@physx@@V?$InlineAllocator@$0IAA@V?$ReflectionAllocator@PEBUBVHNode@Gu@physx@@@shdfnd@physx@@@shdfnd@3@@shdfnd@physx@@IEAAXI@Z 000000018004b2d0 f i GuBVHStructure.obj
 0001:0004a380       ?release@HeightField@Gu@physx@@UEAAXXZ 000000018004b380 f   GuHeightField.obj
 0001:0004a380       ?release@ConvexMesh@Gu@physx@@UEAAXXZ 000000018004b380 f   GuConvexMesh.obj
 0001:0004a380       ?release@BVHStructure@Gu@physx@@UEAAXXZ 000000018004b380 f   GuBVHStructure.obj
 0001:0004a380       ?release@TriangleMesh@Gu@physx@@UEAAXXZ 000000018004b380 f   GuTriangleMesh.obj
 0001:0004a3b0       ?resizeUninitialized@?$Array@PEBUBVHNode@Gu@physx@@V?$InlineAllocator@$0IAA@V?$ReflectionAllocator@PEBUBVHNode@Gu@physx@@@shdfnd@physx@@@shdfnd@3@@shdfnd@physx@@QEAAXI@Z 000000018004b3b0 f i GuBVHStructure.obj
 0001:0004a400       ?sweep@BVHStructure@Gu@physx@@UEBAIAEBVPxBounds3@3@AEBVPxVec3@3@MIPEIAI@Z 000000018004b400 f   GuBVHStructure.obj
 0001:0004a5f0       ?SweepAnyShapeHeightfield@Gu@physx@@YAMAEBUCCDShape@12@0AEBVPxTransform@2@111MAEAVPxVec3@2@2MAEAIM@Z 000000018004b5f0 f   GuCCDSweepConvexMesh.obj
 0001:0004b710       ?SweepAnyShapeMesh@Gu@physx@@YAMAEBUCCDShape@12@0AEBVPxTransform@2@111MAEAVPxVec3@2@2MAEAIM@Z 000000018004c710 f   GuCCDSweepConvexMesh.obj
 0001:0004cde0       ?SweepEstimateAnyShapeHeightfield@Gu@physx@@YAMAEBUCCDShape@12@0AEBVPxTransform@2@111MM@Z 000000018004dde0 f   GuCCDSweepConvexMesh.obj
 0001:0004d640       ?SweepEstimateAnyShapeMesh@Gu@physx@@YAMAEBUCCDShape@12@0AEBVPxTransform@2@111MM@Z 000000018004e640 f   GuCCDSweepConvexMesh.obj
 0001:0004e490       ?growAndPushBack@?$Array@IV?$InlineAllocator@$0BAA@V?$ReflectionAllocator@I@shdfnd@physx@@@shdfnd@physx@@@shdfnd@physx@@IEAAAEAIAEBI@Z 000000018004f490 f i GuCCDSweepConvexMesh.obj
 0001:0004ebc0       ?recreate@?$Array@IV?$InlineAllocator@$0BAA@V?$ReflectionAllocator@I@shdfnd@physx@@@shdfnd@physx@@@shdfnd@physx@@IEAAXI@Z 000000018004fbc0 f i GuCCDSweepConvexMesh.obj
 0001:0004eca0       ?resize@?$Array@IV?$InlineAllocator@$0BAA@V?$ReflectionAllocator@I@shdfnd@physx@@@shdfnd@physx@@@shdfnd@physx@@QEAAXIAEBI@Z 000000018004fca0 f i GuCCDSweepConvexMesh.obj
 0001:0004ed70       ?resize@?$Array@IV?$ReflectionAllocator@I@shdfnd@physx@@@shdfnd@physx@@QEAAXIAEBI@Z 000000018004fd70 f i GuCCDSweepConvexMesh.obj
 0001:0004ee30       ?transformBoxOrthonormal@physx@@YA?AVBox@Gu@1@AEBV231@AEBVPxTransform@1@@Z 000000018004fe30 f i GuCCDSweepConvexMesh.obj
 0001:0004f2c0       ?UnimplementedSweep@Gu@physx@@YAMAEBUCCDShape@12@0AEBVPxTransform@2@111MAEAVPxVec3@2@2MAEAIM@Z 00000001800502c0 f   GuCCDSweepPrimitives.obj
 0001:0004f2d0       ??$SweepGeomGeom@VCapsuleV@Gu@physx@@V123@@Gu@physx@@YAMAEBUCCDShape@01@0AEBVPxTransform@1@111MAEAVPxVec3@1@2MAEAIM@Z 00000001800502d0 f i GuCCDSweepPrimitives.obj
 0001:0004f400       ??$SweepGeomGeom@VCapsuleV@Gu@physx@@VBoxV@23@@Gu@physx@@YAMAEBUCCDShape@01@0AEBVPxTransform@1@111MAEAVPxVec3@1@2MAEAIM@Z 0000000180050400 f i GuCCDSweepPrimitives.obj
 0001:0004f560       ??$SweepGeomGeom@VCapsuleV@Gu@physx@@VConvexHullV@23@@Gu@physx@@YAMAEBUCCDShape@01@0AEBVPxTransform@1@111MAEAVPxVec3@1@2MAEAIM@Z 0000000180050560 f i GuCCDSweepPrimitives.obj
 0001:0004fac0       ??$SweepGeomGeom@VBoxV@Gu@physx@@V123@@Gu@physx@@YAMAEBUCCDShape@01@0AEBVPxTransform@1@111MAEAVPxVec3@1@2MAEAIM@Z 0000000180050ac0 f i GuCCDSweepPrimitives.obj
 0001:0004fc50       ??$SweepGeomGeom@VBoxV@Gu@physx@@VConvexHullV@23@@Gu@physx@@YAMAEBUCCDShape@01@0AEBVPxTransform@1@111MAEAVPxVec3@1@2MAEAIM@Z 0000000180050c50 f i GuCCDSweepPrimitives.obj
 0001:000501d0       ??$SweepGeomGeom@VConvexHullV@Gu@physx@@V123@@Gu@physx@@YAMAEBUCCDShape@01@0AEBVPxTransform@1@111MAEAVPxVec3@1@2MAEAIM@Z 00000001800511d0 f i GuCCDSweepPrimitives.obj
 0001:00050af0       ?UnimplementedTriangleSweep@Gu@physx@@YAMAEBVGeometryUnion@12@0AEBVPxTransform@2@111MAEAVPxVec3@2@2AEBVFastVertex2ShapeScaling@Cm@2@AEAVTriangleV@12@M@Z 0000000180051af0 f   GuCCDSweepPrimitives.obj
 0001:00050b00       ??$SweepGeomTriangles@VCapsuleV@Gu@physx@@@Gu@physx@@YAMAEBVGeometryUnion@01@0AEBVPxTransform@1@111MAEAVPxVec3@1@2AEBVFastVertex2ShapeScaling@Cm@1@AEAVTriangleV@01@M@Z 0000000180051b00 f i GuCCDSweepPrimitives.obj
 0001:00050bd0       ??$SweepGeomTriangles@VBoxV@Gu@physx@@@Gu@physx@@YAMAEBVGeometryUnion@01@0AEBVPxTransform@1@111MAEAVPxVec3@1@2AEBVFastVertex2ShapeScaling@Cm@1@AEAVTriangleV@01@M@Z 0000000180051bd0 f i GuCCDSweepPrimitives.obj
 0001:00050cd0       ??$SweepGeomTriangles@VConvexHullV@Gu@physx@@@Gu@physx@@YAMAEBVGeometryUnion@01@0AEBVPxTransform@1@111MAEAVPxVec3@1@2AEBVFastVertex2ShapeScaling@Cm@1@AEAVTriangleV@01@M@Z 0000000180051cd0 f i GuCCDSweepPrimitives.obj
 0001:000511e0       ?supportPoint@?$RelativeConvex@VCapsuleV@Gu@physx@@@Gu@physx@@UEBA?AT__m128@@H@Z 00000001800521e0 f i GuCCDSweepPrimitives.obj
 0001:00051240       ?support@?$RelativeConvex@VCapsuleV@Gu@physx@@@Gu@physx@@UEBA?AT__m128@@AEBT4@@Z 0000000180052240 f i GuCCDSweepPrimitives.obj
 0001:000512f0       ?support@?$RelativeConvex@VCapsuleV@Gu@physx@@@Gu@physx@@UEBA?AT__m128@@AEBT4@AEAH@Z 00000001800522f0 f i GuCCDSweepPrimitives.obj
 0001:000513b0       ?supportPoint@?$RelativeConvex@VTriangleV@Gu@physx@@@Gu@physx@@UEBA?AT__m128@@H@Z 00000001800523b0 f i GuCCDSweepPrimitives.obj
 0001:00051400       ?support@?$RelativeConvex@VTriangleV@Gu@physx@@@Gu@physx@@UEBA?AT__m128@@AEBT4@@Z 0000000180052400 f i GuCCDSweepPrimitives.obj
 0001:00051500       ?support@?$RelativeConvex@VTriangleV@Gu@physx@@@Gu@physx@@UEBA?AT__m128@@AEBT4@AEAH@Z 0000000180052500 f i GuCCDSweepPrimitives.obj
 0001:00055420       ??$gjkPenetration@U?$RelativeConvex@VCapsuleV@Gu@physx@@@Gu@physx@@U?$LocalConvex@VBoxV@Gu@physx@@@23@@Gu@physx@@YA?AW4GjkStatus@01@AEBU?$RelativeConvex@VCapsuleV@Gu@physx@@@01@AEBU?$LocalConvex@VBoxV@Gu@physx@@@01@AEBT__m128@@2_NPEIAE4AEAEAEAUGjkOutput@01@@Z 0000000180056420 f i GuCCDSweepPrimitives.obj
 0001:000569b0       ??$gjkPenetration@U?$RelativeConvex@VCapsuleV@Gu@physx@@@Gu@physx@@U?$LocalConvex@VCapsuleV@Gu@physx@@@23@@Gu@physx@@YA?AW4GjkStatus@01@AEBU?$RelativeConvex@VCapsuleV@Gu@physx@@@01@AEBU?$LocalConvex@VCapsuleV@Gu@physx@@@01@AEBT__m128@@2_NPEIAE4AEAEAEAUGjkOutput@01@@Z 00000001800579b0 f i GuCCDSweepPrimitives.obj
 0001:00057f40       ??$gjkPenetration@U?$RelativeConvex@VCapsuleV@Gu@physx@@@Gu@physx@@U?$LocalConvex@VConvexHullV@Gu@physx@@@23@@Gu@physx@@YA?AW4GjkStatus@01@AEBU?$RelativeConvex@VCapsuleV@Gu@physx@@@01@AEBU?$LocalConvex@VConvexHullV@Gu@physx@@@01@AEBT__m128@@2_NPEIAE4AEAEAEAUGjkOutput@01@@Z 0000000180058f40 f i GuCCDSweepPrimitives.obj
 0001:00059550       ??$gjkPenetration@U?$RelativeConvex@VTriangleV@Gu@physx@@@Gu@physx@@U?$LocalConvex@VBoxV@Gu@physx@@@23@@Gu@physx@@YA?AW4GjkStatus@01@AEBU?$RelativeConvex@VTriangleV@Gu@physx@@@01@AEBU?$LocalConvex@VBoxV@Gu@physx@@@01@AEBT__m128@@2_NPEIAE4AEAEAEAUGjkOutput@01@@Z 000000018005a550 f i GuCCDSweepPrimitives.obj
 0001:0005aae0       ??$gjkPenetration@U?$RelativeConvex@VTriangleV@Gu@physx@@@Gu@physx@@U?$LocalConvex@VCapsuleV@Gu@physx@@@23@@Gu@physx@@YA?AW4GjkStatus@01@AEBU?$RelativeConvex@VTriangleV@Gu@physx@@@01@AEBU?$LocalConvex@VCapsuleV@Gu@physx@@@01@AEBT__m128@@2_NPEIAE4AEAEAEAUGjkOutput@01@@Z 000000018005bae0 f i GuCCDSweepPrimitives.obj
 0001:0005c090       ??$gjkPenetration@U?$RelativeConvex@VTriangleV@Gu@physx@@@Gu@physx@@U?$LocalConvex@VConvexHullV@Gu@physx@@@23@@Gu@physx@@YA?AW4GjkStatus@01@AEBU?$RelativeConvex@VTriangleV@Gu@physx@@@01@AEBU?$LocalConvex@VConvexHullV@Gu@physx@@@01@AEBT__m128@@2_NPEIAE4AEAEAEAUGjkOutput@01@@Z 000000018005d090 f i GuCCDSweepPrimitives.obj
 0001:0005d6c0       ??$gjkRaycast@U?$RelativeConvex@VCapsuleV@Gu@physx@@@Gu@physx@@U?$LocalConvex@VBoxV@Gu@physx@@@23@@Gu@physx@@YA_NAEBU?$RelativeConvex@VCapsuleV@Gu@physx@@@01@AEBU?$LocalConvex@VBoxV@Gu@physx@@@01@AEBT__m128@@222AEAT4@33M@Z 000000018005e6c0 f i GuCCDSweepPrimitives.obj
 0001:0005e350       ??$gjkRaycast@U?$RelativeConvex@VCapsuleV@Gu@physx@@@Gu@physx@@U?$LocalConvex@VCapsuleV@Gu@physx@@@23@@Gu@physx@@YA_NAEBU?$RelativeConvex@VCapsuleV@Gu@physx@@@01@AEBU?$LocalConvex@VCapsuleV@Gu@physx@@@01@AEBT__m128@@222AEAT4@33M@Z 000000018005f350 f i GuCCDSweepPrimitives.obj
 0001:0005f020       ??$gjkRaycast@U?$RelativeConvex@VCapsuleV@Gu@physx@@@Gu@physx@@U?$LocalConvex@VConvexHullV@Gu@physx@@@23@@Gu@physx@@YA_NAEBU?$RelativeConvex@VCapsuleV@Gu@physx@@@01@AEBU?$LocalConvex@VConvexHullV@Gu@physx@@@01@AEBT__m128@@222AEAT4@33M@Z 0000000180060020 f i GuCCDSweepPrimitives.obj
 0001:0005fe10       ??$gjkRaycast@U?$RelativeConvex@VTriangleV@Gu@physx@@@Gu@physx@@U?$LocalConvex@VBoxV@Gu@physx@@@23@@Gu@physx@@YA_NAEBU?$RelativeConvex@VTriangleV@Gu@physx@@@01@AEBU?$LocalConvex@VBoxV@Gu@physx@@@01@AEBT__m128@@222AEAT4@33M@Z 0000000180060e10 f i GuCCDSweepPrimitives.obj
 0001:00060b20       ??$gjkRaycast@U?$RelativeConvex@VTriangleV@Gu@physx@@@Gu@physx@@U?$LocalConvex@VCapsuleV@Gu@physx@@@23@@Gu@physx@@YA_NAEBU?$RelativeConvex@VTriangleV@Gu@physx@@@01@AEBU?$LocalConvex@VCapsuleV@Gu@physx@@@01@AEBT__m128@@222AEAT4@33M@Z 0000000180061b20 f i GuCCDSweepPrimitives.obj
 0001:00061880       ??$gjkRaycast@U?$RelativeConvex@VTriangleV@Gu@physx@@@Gu@physx@@U?$LocalConvex@VConvexHullV@Gu@physx@@@23@@Gu@physx@@YA_NAEBU?$RelativeConvex@VTriangleV@Gu@physx@@@01@AEBU?$LocalConvex@VConvexHullV@Gu@physx@@@01@AEBT__m128@@222AEAT4@33M@Z 0000000180062880 f i GuCCDSweepPrimitives.obj
 0001:00062720       ?SweepShapeShape@Gu@physx@@YAMAEBUCCDShape@12@0AEBVPxTransform@2@111MAEAVPxVec3@2@2MAEAIM@Z 0000000180063720 f   GuCCDSweepPrimitives.obj
 0001:00062740       ?SweepShapeTriangle@Gu@physx@@YAMAEBVGeometryUnion@12@0AEBVPxTransform@2@111MAEAVPxVec3@2@2AEBVFastVertex2ShapeScaling@Cm@2@AEAVTriangleV@12@M@Z 0000000180063740 f   GuCCDSweepPrimitives.obj
 0001:00062760       ?barycentricCoordinates@Gu@physx@@YAXAEBT__m128@@000AEAT3@1@Z 0000000180063760 f   GuBarycentricCoordinates.obj
 0001:000628b0       ?barycentricCoordinates@Gu@physx@@YAXAEBT__m128@@00AEAT3@@Z 00000001800638b0 f   GuBarycentricCoordinates.obj
 0001:00062920       ?addAxis@SeparatingAxes@Gu@physx@@QEAA_NAEBVPxVec3@3@@Z 0000000180063920 f   GuSeparatingAxes.obj
 0001:000629e0       ?contactBoxBox@Gu@physx@@YA_NAEBVGeometryUnion@12@0AEBVPxTransform@2@1AEBUNarrowPhaseParams@12@AEAUCache@12@AEAVContactBuffer@12@PEAVRenderOutput@Cm@2@@Z 00000001800639e0 f   GuContactBoxBox.obj
 0001:00066ec0       ?contactCapsuleBox@Gu@physx@@YA_NAEBVGeometryUnion@12@0AEBVPxTransform@2@1AEBUNarrowPhaseParams@12@AEAUCache@12@AEAVContactBuffer@12@PEAVRenderOutput@Cm@2@@Z 0000000180067ec0 f   GuContactCapsuleBox.obj
 0001:00067460       ?contactCapsuleCapsule@Gu@physx@@YA_NAEBVGeometryUnion@12@0AEBVPxTransform@2@1AEBUNarrowPhaseParams@12@AEAUCache@12@AEAVContactBuffer@12@PEAVRenderOutput@Cm@2@@Z 0000000180068460 f   GuContactCapsuleCapsule.obj
 0001:00069d80       ?contactCapsuleConvex@Gu@physx@@YA_NAEBVGeometryUnion@12@0AEBVPxTransform@2@1AEBUNarrowPhaseParams@12@AEAUCache@12@AEAVContactBuffer@12@PEAVRenderOutput@Cm@2@@Z 000000018006ad80 f   GuContactCapsuleConvex.obj
 0001:0006c270       ?contactCapsuleHeightfield@Gu@physx@@YA_NAEBVGeometryUnion@12@0AEBVPxTransform@2@1AEBUNarrowPhaseParams@12@AEAUCache@12@AEAVContactBuffer@12@PEAVRenderOutput@Cm@2@@Z 000000018006d270 f   GuContactCapsuleMesh.obj
 0001:0006c8a0       ?contactCapsuleMesh@Gu@physx@@YA_NAEBVGeometryUnion@12@0AEBVPxTransform@2@1AEBUNarrowPhaseParams@12@AEAUCache@12@AEAVContactBuffer@12@PEAVRenderOutput@Cm@2@@Z 000000018006d8a0 f   GuContactCapsuleMesh.obj
 0001:0006d9b0       ?transformFast@PxBounds3@physx@@SA?AV12@AEBVPxTransform@2@AEBV12@@Z 000000018006e9b0 f i GuContactCapsuleMesh.obj
 0001:0006dd90       ?transformQueryBounds@FastVertex2ShapeScaling@Cm@physx@@QEBAXAEAVPxVec3@3@0AEAVPxMat33@3@@Z 000000018006ed90 f i GuContactCapsuleMesh.obj
 0001:000720d0       ?contactBoxConvex@Gu@physx@@YA_NAEBVGeometryUnion@12@0AEBVPxTransform@2@1AEBUNarrowPhaseParams@12@AEAUCache@12@AEAVContactBuffer@12@PEAVRenderOutput@Cm@2@@Z 00000001800730d0 f   GuContactConvexConvex.obj
 0001:00072260       ?contactConvexConvex@Gu@physx@@YA_NAEBVGeometryUnion@12@0AEBVPxTransform@2@1AEBUNarrowPhaseParams@12@AEAUCache@12@AEAVContactBuffer@12@PEAVRenderOutput@Cm@2@@Z 0000000180073260 f   GuContactConvexConvex.obj
 0001:000726b0       ?transformPlaneToShapeSpace@FastVertex2ShapeScaling@Cm@physx@@QEBAXAEBVPxVec3@3@MAEAV43@AEAM@Z 00000001800736b0 f i GuContactConvexConvex.obj
 0001:000727a0       ??0?$CacheMap@UCachedEdge@Gu@physx@@$0IA@@Gu@physx@@QEAA@XZ 00000001800737a0 f i GuContactConvexMesh.obj
 0001:00072860       ??0?$CacheMap@UCachedVertex@Gu@physx@@$0IA@@Gu@physx@@QEAA@XZ 0000000180073860 f i GuContactConvexMesh.obj
 0001:00072e30       ??_GConvexMeshContactGenerationCallback@@UEAAPEAXI@Z 0000000180073e30 f i GuContactConvexMesh.obj
 0001:00072e30       ??_EConvexMeshContactGenerationCallback@@UEAAPEAXI@Z 0000000180073e30 f i GuContactConvexMesh.obj
 0001:00072e90       ?addData@?$CacheMap@UCachedEdge@Gu@physx@@$0IA@@Gu@physx@@QEAA_NAEBUCachedEdge@23@@Z 0000000180073e90 f i GuContactConvexMesh.obj
 0001:00072f70       ?addData@?$CacheMap@UCachedVertex@Gu@physx@@$0IA@@Gu@physx@@QEAA_NAEBUCachedVertex@23@@Z 0000000180073f70 f i GuContactConvexMesh.obj
 0001:00073340       ?contactBoxHeightfield@Gu@physx@@YA_NAEBVGeometryUnion@12@0AEBVPxTransform@2@1AEBUNarrowPhaseParams@12@AEAUCache@12@AEAVContactBuffer@12@PEAVRenderOutput@Cm@2@@Z 0000000180074340 f   GuContactConvexMesh.obj
 0001:000734a0       ?contactBoxMesh@Gu@physx@@YA_NAEBVGeometryUnion@12@0AEBVPxTransform@2@1AEBUNarrowPhaseParams@12@AEAUCache@12@AEAVContactBuffer@12@PEAVRenderOutput@Cm@2@@Z 00000001800744a0 f   GuContactConvexMesh.obj
 0001:00073650       ?contactConvexHeightfield@Gu@physx@@YA_NAEBVGeometryUnion@12@0AEBVPxTransform@2@1AEBUNarrowPhaseParams@12@AEAUCache@12@AEAVContactBuffer@12@PEAVRenderOutput@Cm@2@@Z 0000000180074650 f   GuContactConvexMesh.obj
 0001:00073780       ?contactConvexMesh@Gu@physx@@YA_NAEBVGeometryUnion@12@0AEBVPxTransform@2@1AEBUNarrowPhaseParams@12@AEAUCache@12@AEAVContactBuffer@12@PEAVRenderOutput@Cm@2@@Z 0000000180074780 f   GuContactConvexMesh.obj
 0001:00076eb0       ?processHit@ConvexMeshContactGenerationCallback@@UEAA_NAEBUPxRaycastHit@physx@@AEBVPxVec3@3@11AEAMPEBI@Z 0000000180077eb0 f i GuContactConvexMesh.obj
 0001:00077780       ?recreate@?$Array@IV?$InlineAllocator@$0BBAA@V?$ReflectionAllocator@I@shdfnd@physx@@@shdfnd@physx@@@shdfnd@physx@@IEAAXI@Z 0000000180078780 f i GuContactConvexMesh.obj
 0001:000787b0       ?contactPlaneBox@Gu@physx@@YA_NAEBVGeometryUnion@12@0AEBVPxTransform@2@1AEBUNarrowPhaseParams@12@AEAUCache@12@AEAVContactBuffer@12@PEAVRenderOutput@Cm@2@@Z 00000001800797b0 f   GuContactPlaneBox.obj
 0001:000793b0       ?contactPlaneCapsule@Gu@physx@@YA_NAEBVGeometryUnion@12@0AEBVPxTransform@2@1AEBUNarrowPhaseParams@12@AEAUCache@12@AEAVContactBuffer@12@PEAVRenderOutput@Cm@2@@Z 000000018007a3b0 f   GuContactPlaneCapsule.obj
 0001:000799c0       ?contactPlaneConvex@Gu@physx@@YA_NAEBVGeometryUnion@12@0AEBVPxTransform@2@1AEBUNarrowPhaseParams@12@AEAUCache@12@AEAVContactBuffer@12@PEAVRenderOutput@Cm@2@@Z 000000018007a9c0 f   GuContactPlaneConvex.obj
 0001:0007b7d0       ?contactPolygonPolygonExt@Gu@physx@@YA_NIPEBVPxVec3@2@PEBEAEBVMatrix34@Cm@2@AEBVPxPlane@2@AEBVPxMat33@2@I01234AEBV32@22IIAEAVContactBuffer@12@_N5M@Z 000000018007c7d0 f   GuContactPolygonPolygon.obj
 0001:0007cf10       ?findRotationMatrixFromZ@Gu@physx@@YA?AVPxMat33@2@AEBVPxVec3@2@@Z 000000018007df10 f   GuContactPolygonPolygon.obj
 0001:0007d940       ?contactSphereBox@Gu@physx@@YA_NAEBVGeometryUnion@12@0AEBVPxTransform@2@1AEBUNarrowPhaseParams@12@AEAUCache@12@AEAVContactBuffer@12@PEAVRenderOutput@Cm@2@@Z 000000018007e940 f   GuContactSphereBox.obj
 0001:0007df20       ?contactSphereCapsule@Gu@physx@@YA_NAEBVGeometryUnion@12@0AEBVPxTransform@2@1AEBUNarrowPhaseParams@12@AEAUCache@12@AEAVContactBuffer@12@PEAVRenderOutput@Cm@2@@Z 000000018007ef20 f   GuContactSphereCapsule.obj
 0001:0007ecf0       ?contactSphereHeightfield@Gu@physx@@YA_NAEBVGeometryUnion@12@0AEBVPxTransform@2@1AEBUNarrowPhaseParams@12@AEAUCache@12@AEAVContactBuffer@12@PEAVRenderOutput@Cm@2@@Z 000000018007fcf0 f   GuContactSphereMesh.obj
 0001:0007f6c0       ?contactSphereMesh@Gu@physx@@YA_NAEBVGeometryUnion@12@0AEBVPxTransform@2@1AEBUNarrowPhaseParams@12@AEAUCache@12@AEAVContactBuffer@12@PEAVRenderOutput@Cm@2@@Z 00000001800806c0 f   GuContactSphereMesh.obj
 0001:00081930       ?contactSpherePlane@Gu@physx@@YA_NAEBVGeometryUnion@12@0AEBVPxTransform@2@1AEBUNarrowPhaseParams@12@AEAUCache@12@AEAVContactBuffer@12@PEAVRenderOutput@Cm@2@@Z 0000000180082930 f   GuContactSpherePlane.obj
 0001:00081b30       ?contactSphereSphere@Gu@physx@@YA_NAEBVGeometryUnion@12@0AEBVPxTransform@2@1AEBUNarrowPhaseParams@12@AEAUCache@12@AEAVContactBuffer@12@PEAVRenderOutput@Cm@2@@Z 0000000180082b30 f   GuContactSphereSphere.obj
 0001:00081ca0       ?selectNormal@Gu@physx@@YA_NEMM@Z 0000000180082ca0 f   GuFeatureCode.obj
 0001:00081d20       ??0BigConvexData@physx@@QEAA@XZ 0000000180082d20 f   GuBigConvexData.obj
 0001:00081d40       ??1BigConvexData@physx@@QEAA@XZ 0000000180082d40 f   GuBigConvexData.obj
 0001:00081dc0       ?ComputeNearestOffset@BigConvexData@physx@@QEBAIAEBVPxVec3@2@@Z 0000000180082dc0 f   GuBigConvexData.obj
 0001:00081ec0       ?ComputeOffset@BigConvexData@physx@@QEBAIAEBVPxVec3@2@@Z 0000000180082ec0 f   GuBigConvexData.obj
 0001:00081fc0       ?CreateOffsets@BigConvexData@physx@@IEAAXXZ 0000000180082fc0 f   GuBigConvexData.obj
 0001:00082010       ?Load@BigConvexData@physx@@QEAA_NAEAVPxInputStream@2@@Z 0000000180083010 f   GuBigConvexData.obj
 0001:00082120       ?VLoad@BigConvexData@physx@@IEAA_NAEAVPxInputStream@2@@Z 0000000180083120 f   GuBigConvexData.obj
 0001:000822c0       ?exportExtraData@BigConvexData@physx@@QEAAXAEAVPxSerializationContext@2@@Z 00000001800832c0 f   GuBigConvexData.obj
 0001:00082340       ?importExtraData@BigConvexData@physx@@QEAAXAEAVPxDeserializationContext@2@@Z 0000000180083340 f   GuBigConvexData.obj
 0001:000823b0       ?findUniqueConvexEdges@Gu@physx@@YAIIPEIAUConvexEdge@12@IPEIBUHullPolygonData@12@PEIBE@Z 00000001800833b0 f   GuConvexHelper.obj
 0001:000824f0       ?getConvexData@Gu@physx@@YA_NAEBVGeometryUnion@12@AEAVFastVertex2ShapeScaling@Cm@2@AEAVPxBounds3@2@AEAUPolygonalData@12@@Z 00000001800834f0 f   GuConvexHelper.obj
 0001:00082770       ?getScaledConvex@Gu@physx@@YAXAEAPEAVPxVec3@2@AEAPEAEPEAV32@PEAE_NPEBV32@PEBEIAEBVFastVertex2ShapeScaling@Cm@2@@Z 0000000180083770 f   GuConvexHelper.obj
 0001:000828a0       ??0ConvexMesh@Gu@physx@@QEAA@AEAVGuMeshFactory@2@AEAUConvexHullInitData@12@@Z 00000001800838a0 f   GuConvexMesh.obj
 0001:000829d0       ??0ConvexMesh@Gu@physx@@QEAA@XZ 00000001800839d0 f   GuConvexMesh.obj
 0001:00082a70       ??1ConvexMesh@Gu@physx@@UEAA@XZ 0000000180083a70 f   GuConvexMesh.obj
 0001:00082b10       ??_EConvexMesh@Gu@physx@@UEAAPEAXI@Z 0000000180083b10 f i GuConvexMesh.obj
 0001:00082c20       ??_EConvexMesh@Gu@physx@@WBA@EAAPEAXI@Z 0000000180083c20 f i GuConvexMesh.obj
 0001:00082c30       ??_EPxConvexMesh@physx@@MEAAPEAXI@Z 0000000180083c30 f i GuConvexMesh.obj
 0001:00082c30       ??_EPxHeightField@physx@@MEAAPEAXI@Z 0000000180083c30 f i GuHeightField.obj
 0001:00082cc0       ?acquireReference@ConvexMesh@Gu@physx@@UEAAXXZ 0000000180083cc0 f   GuConvexMesh.obj
 0001:00082cc0       ?acquireReference@TriangleMesh@Gu@physx@@UEAAXXZ 0000000180083cc0 f   GuTriangleMesh.obj
 0001:00082cc0       ?acquireReference@HeightField@Gu@physx@@UEAAXXZ 0000000180083cc0 f   GuHeightField.obj
 0001:00083190       ?createObject@ConvexMesh@Gu@physx@@SAPEAV123@AEAPEAEAEAVPxDeserializationContext@3@@Z 0000000180084190 f   GuConvexMesh.obj
 0001:000831f0       ?exportExtraData@ConvexMesh@Gu@physx@@UEAAXAEAVPxSerializationContext@3@@Z 00000001800841f0 f   GuConvexMesh.obj
 0001:000832c0       ?getLocalBounds@ConvexMesh@Gu@physx@@UEBA?AVPxBounds3@3@XZ 00000001800842c0 f   GuConvexMesh.obj
 0001:00083350       ?getMassInformation@ConvexMesh@Gu@physx@@UEBAXAEAMAEAVPxMat33@3@AEAVPxVec3@3@@Z 0000000180084350 f   GuConvexMesh.obj
 0001:000833c0       ?getPolygonData@ConvexMesh@Gu@physx@@UEBA_NIAEAUPxHullPolygon@3@@Z 00000001800843c0 f   GuConvexMesh.obj
 0001:00083410       ?getReferenceCount@ConvexMesh@Gu@physx@@UEBAIXZ 0000000180084410 f   GuConvexMesh.obj
 0001:00083410       ?getReferenceCount@HeightField@Gu@physx@@UEBAIXZ 0000000180084410 f   GuHeightField.obj
 0001:00083410       ?getReferenceCount@TriangleMesh@Gu@physx@@UEBAIXZ 0000000180084410 f   GuTriangleMesh.obj
 0001:00083410       ?raw_length@pairNode@@UEBAHXZ 0000000180084410 f   libvcruntime:undname.obj
 0001:00083420       ?importExtraData@ConvexMesh@Gu@physx@@QEAAXAEAVPxDeserializationContext@3@@Z 0000000180084420 f   GuConvexMesh.obj
 0001:000834e0       ?isGpuCompatible@ConvexMesh@Gu@physx@@UEBA_NXZ 00000001800844e0 f   GuConvexMesh.obj
 0001:00083500       ?load@ConvexMesh@Gu@physx@@QEAA_NAEAVPxInputStream@3@@Z 0000000180084500 f   GuConvexMesh.obj
 0001:000837b0       ?onRefCountZero@ConvexMesh@Gu@physx@@UEAAXXZ 00000001800847b0 f   GuConvexMesh.obj
 0001:000838a0       ??Dphysx@@YA?AVMatrix34@Cm@0@AEBVPxMeshScale@0@AEBV120@@Z 00000001800848a0 f i GuConvexUtilsInternal.obj
 0001:00083e70       ?computeHullOBB@Gu@physx@@YAXAEAVBox@12@AEBVPxBounds3@2@MAEBVMatrix34@Cm@2@2AEBVFastVertex2ShapeScaling@62@_N@Z 0000000180084e70 f   GuConvexUtilsInternal.obj
 0001:00084320       ?computeOBBAroundConvex@Gu@physx@@YAXAEAVBox@12@AEBVPxConvexMeshGeometry@2@PEBVPxConvexMesh@2@AEBVPxTransform@2@@Z 0000000180085320 f   GuConvexUtilsInternal.obj
 0001:00084c30       ?computeVertexSpaceOBB@Gu@physx@@YAXAEAVBox@12@AEBV312@AEBVPxTransform@2@AEBVPxMeshScale@2@@Z 0000000180085c30 f   GuConvexUtilsInternal.obj
 0001:00084fe0       ?transform@physx@@YA?AVBox@Gu@1@AEBVMatrix34@Cm@1@AEBV231@@Z 0000000180085fe0 f i GuConvexUtilsInternal.obj
 0001:00085230       ?localSearch@physx@@YAXAEAIAEBVPxVec3@1@PEBV21@PEBUBigConvexRawData@Gu@1@@Z 0000000180086230 f   GuHillClimbing.obj
 0001:00085360       ??0PCMPolygonalBox@Gu@physx@@QEAA@AEBVPxVec3@2@@Z 0000000180086360 f   GuPCMShapeConvex.obj
 0001:00085360       ??0PolygonalBox@Gu@physx@@QEAA@AEBVPxVec3@2@@Z 0000000180086360 f   GuShapeConvex.obj
 0001:00086820       ?getPolygonalData@PolygonalBox@Gu@physx@@QEBAXPEIAUPolygonalData@23@@Z 0000000180087820 f   GuShapeConvex.obj
 0001:00086880       ?getPolygonalData_Convex@Gu@physx@@YAXPEIAUPolygonalData@12@PEIBUConvexHullData@12@AEBVFastVertex2ShapeScaling@Cm@2@@Z 0000000180087880 f   GuShapeConvex.obj
 0001:000869e0       ?distancePointBoxSquared@Gu@physx@@YAMAEBVPxVec3@2@00AEBVPxMat33@2@PEAV32@@Z 00000001800879e0 f   GuDistancePointBox.obj
 0001:00086b30       ?closestPtPointTriangle@Gu@physx@@YA?AVPxVec3@2@AEBV32@000AEAM1@Z 0000000180087b30 f   GuDistancePointTriangle.obj
 0001:00087050       ?distancePointTriangleSquared@Gu@physx@@YA?AT__m128@@AEBT3@000AEAT3@11@Z 0000000180088050 f   GuDistancePointTriangle.obj
 0001:00087da0       ?distanceSegmentBoxSquared@Gu@physx@@YAMAEBVPxVec3@2@000AEBVPxMat33@2@PEAMPEAV32@@Z 0000000180088da0 f   GuDistanceSegmentBox.obj
 0001:00088620       ?distanceSegmentSegmentSquared4@Gu@physx@@YA?AT__m128@@AEBT3@000000000AEAT3@1@Z 0000000180089620 f   GuDistanceSegmentSegment.obj
 0001:00088940       ?distanceSegmentSegmentSquared@Gu@physx@@YA?AT__m128@@AEBT3@000AEAT3@1@Z 0000000180089940 f   GuDistanceSegmentSegment.obj
 0001:00088b00       ?distanceSegmentSegmentSquared@Gu@physx@@YAMAEBVPxVec3@2@000PEAM1@Z 0000000180089b00 f   GuDistanceSegmentSegment.obj
 0001:00088d90       ?distanceSegmentSegmentSquared@Gu@physx@@YAMAEBVPxVec3@2@0M00MPEAM1@Z 0000000180089d90 f   GuDistanceSegmentSegment.obj
 0001:000894e0       ?distanceSegmentTriangleSquared@Gu@physx@@YA?AT__m128@@AEBT3@0000AEAT3@1@Z 000000018008a4e0 f   GuDistanceSegmentTriangle.obj
 0001:00089c20       ?distanceSegmentTriangleSquared@Gu@physx@@YAMAEBVPxVec3@2@0000PEAM11@Z 000000018008ac20 f   GuDistanceSegmentTriangle.obj
 0001:0008b2b0       ?PenetrationDepth@EPA@Gu@physx@@QEAA?AW4GjkStatus@23@AEBUGjkConvex@23@0PEIBT__m128@@1E_NT6@AEAUGjkOutput@23@@Z 000000018008c2b0 f   GuEPA.obj
 0001:0008bdc0       ?addFacet@EPA@Gu@physx@@QEAAPEAVFacet@23@IIIAEBT__m128@@@Z 000000018008cdc0 f   GuEPA.obj
 0001:0008c210       ?epaPenetration@Gu@physx@@YA?AW4GjkStatus@12@AEBUGjkConvex@12@0PEIBE1E_NT__m128@@AEAUGjkOutput@12@@Z 000000018008d210 f   GuEPA.obj
 0001:0008c380       ?silhouette@Facet@Gu@physx@@QEAAXAEBT__m128@@PEIBT4@1AEAVEdgeBuffer@23@AEAV?$InlineDeferredIDPool@$0EA@@Cm@3@@Z 000000018008d380 f   GuEPA.obj
 0001:0008c550       ?closestPtPointTetrahedron@Gu@physx@@YA?AT__m128@@PEIAT3@00AEAI@Z 000000018008d550 f   GuGJKSimplex.obj
 0001:0008ccd0       ?closestPtPointTetrahedron@Gu@physx@@YA?AT__m128@@PEIAT3@00PEIAH1AEAI@Z 000000018008dcd0 f   GuGJKSimplex.obj
 0001:0008e780       ??$gjk@UGjkConvex@Gu@physx@@U123@@Gu@physx@@YA?AW4GjkStatus@01@AEBUGjkConvex@01@0AEBT__m128@@1AEAT4@222@Z 000000018008f780 f i GuGJKTest.obj
 0001:0008f3b0       ??$gjkPenetration@UGjkConvex@Gu@physx@@U123@@Gu@physx@@YA?AW4GjkStatus@01@AEBUGjkConvex@01@0AEBT__m128@@1_NPEIAE3AEAEAEAUGjkOutput@01@@Z 00000001800903b0 f i GuGJKTest.obj
 0001:000907f0       ?testEpaPenetration@Gu@physx@@YA?AW4GjkStatus@12@AEAUGjkConvex@12@0PEBE1EAEAUGjkOutput@12@@Z 00000001800917f0 f   GuGJKTest.obj
 0001:00090840       ?testGjk@Gu@physx@@YA?AW4GjkStatus@12@AEAUGjkConvex@12@0AEBT__m128@@1AEAT5@222@Z 0000000180091840 f   GuGJKTest.obj
 0001:00090850       ?testGjkPenetration@Gu@physx@@YA?AW4GjkStatus@12@AEAUGjkConvex@12@0AEBT__m128@@1PEAE2AEAEAEAUGjkOutput@12@@Z 0000000180091850 f   GuGJKTest.obj
 0001:000908a0       ??0HeightField@Gu@physx@@QEAA@AEAVGuMeshFactory@2@AEAUHeightFieldData@12@@Z 00000001800918a0 f   GuHeightField.obj
 0001:00090970       ??0HeightField@Gu@physx@@QEAA@PEAVGuMeshFactory@2@@Z 0000000180091970 f   GuHeightField.obj
 0001:000909e0       ??1HeightField@Gu@physx@@UEAA@XZ 00000001800919e0 f   GuHeightField.obj
 0001:00090a50       ??_EHeightField@Gu@physx@@UEAAPEAXI@Z 0000000180091a50 f i GuHeightField.obj
 0001:00090bcc       ??_EHeightField@Gu@physx@@WBA@EAAPEAXI@Z 0000000180091bcc f i GuHeightField.obj
 0001:00090be0       ?computeCellCoordinates@HeightField@Gu@physx@@QEBAIMMAEAM0@Z 0000000180091be0 f   GuHeightField.obj
 0001:00090ce0       ?createObject@HeightField@Gu@physx@@SAPEAV123@AEAPEAEAEAVPxDeserializationContext@3@@Z 0000000180091ce0 f   GuHeightField.obj
 0001:00090d50       ?exportExtraData@HeightField@Gu@physx@@UEAAXAEAVPxSerializationContext@3@@Z 0000000180091d50 f   GuHeightField.obj
 0001:00090da0       ?getEdgeTriangleIndices@physx@@YAIAEBVHeightField@Gu@1@AEBUEdgeData@1@PEIAI@Z 0000000180091da0 f   GuHeightField.obj
 0001:00090ed0       ?getVertexEdgeIndices@physx@@YAIAEBVHeightField@Gu@1@IIIQEAUEdgeData@1@@Z 0000000180091ed0 f   GuHeightField.obj
 0001:000910b0       ?importExtraData@HeightField@Gu@physx@@QEAAXAEAVPxDeserializationContext@3@@Z 00000001800920b0 f   GuHeightField.obj
 0001:000910d0       ?isCollisionVertexPreca@HeightField@Gu@physx@@QEBA_NIIIG@Z 00000001800920d0 f   GuHeightField.obj
 0001:00091170       ?isConvexVertex@HeightField@Gu@physx@@QEBA_NIII@Z 0000000180092170 f i GuHeightField.obj
 0001:00091240       ?isSolidVertex@HeightField@Gu@physx@@QEBA_NIIIGAEA_N@Z 0000000180092240 f   GuHeightField.obj
 0001:000913c0       ?load@HeightField@Gu@physx@@QEAA_NAEAVPxInputStream@3@@Z 00000001800923c0 f   GuHeightField.obj
 0001:00091740       ?loadFromDesc@HeightField@Gu@physx@@QEAA_NAEBVPxHeightFieldDesc@3@@Z 0000000180092740 f   GuHeightField.obj
 0001:00091960       ?modifySamples@HeightField@Gu@physx@@UEAA_NHHAEBVPxHeightFieldDesc@3@_N@Z 0000000180092960 f   GuHeightField.obj
 0001:00091cc0       ?onRefCountZero@HeightField@Gu@physx@@UEAAXXZ 0000000180092cc0 f   GuHeightField.obj
 0001:00091d50       ?parseTrianglesForCollisionVertices@HeightField@Gu@physx@@QEAAXG@Z 0000000180092d50 f   GuHeightField.obj
 0001:00092230       ?releaseMemory@HeightField@Gu@physx@@QEAAXXZ 0000000180093230 f   GuHeightField.obj
 0001:00092280       ?resizeAndClear@?$BitMapBase@VNonTrackingAllocator@shdfnd@physx@@@Cm@physx@@QEAAXI@Z 0000000180093280 f i GuHeightField.obj
 0001:00092340       ?saveCells@HeightField@Gu@physx@@UEBAIPEAXI@Z 0000000180093340 f   GuHeightField.obj
 0001:00092380       ?computeLocalBounds@HeightFieldUtil@Gu@physx@@QEBAXAEAVPxBounds3@3@@Z 0000000180093380 f   GuHeightFieldUtil.obj
 0001:00092450       ?findClosestPointOnEdge@HeightFieldUtil@Gu@physx@@QEBAMIIIIAEBVPxVec3@3@AEAV43@@Z 0000000180093450 f   GuHeightFieldUtil.obj
 0001:00092740       ?findClosestPointsOnCell@HeightFieldUtil@Gu@physx@@QEBAIIIVPxVec3@3@PEIAV43@PEIAI_N33@Z 0000000180093740 f   GuHeightFieldUtil.obj
 0001:00092ec0       ?findProjectionOnTriangle@HeightFieldUtil@Gu@physx@@QEBA_NIIIAEBVPxVec3@3@AEAV43@@Z 0000000180093ec0 f   GuHeightFieldUtil.obj
 0001:00093160       ?getEdge@HeightFieldUtil@Gu@physx@@QEBAXIIIIAEAVPxVec3@3@0@Z 0000000180094160 f   GuHeightFieldUtil.obj
 0001:00093390       ?getEdgeFaceIndex@HeightFieldUtil@Gu@physx@@QEBAII@Z 0000000180094390 f   GuHeightFieldUtil.obj
 0001:00093580       ?getEdgeFaceIndex@HeightFieldUtil@Gu@physx@@QEBAIIIII@Z 0000000180094580 f   GuHeightFieldUtil.obj
 0001:00093730       ?getEdgeFaceIndex@HeightFieldUtil@Gu@physx@@QEBAIIIPEIBI@Z 0000000180094730 f   GuHeightFieldUtil.obj
 0001:000937c0       ?getFaceIndexAtShapePoint@HeightFieldUtil@Gu@physx@@QEBAIMM@Z 00000001800947c0 f   GuHeightFieldUtil.obj
 0001:000938d0       ?getTriangle@HeightFieldUtil@Gu@physx@@QEBAIAEBVPxTransform@3@AEAVPxTriangle@3@PEAI2I_N3@Z 00000001800948d0 f   GuHeightFieldUtil.obj
 0001:000943b0       ?getTriangleAdjacencyIndices@HeightField@Gu@physx@@QEBAXIIIIAEAI00@Z 00000001800953b0 f i GuHeightFieldUtil.obj
 0001:00094590       ?getTriangleVertexIndices@HeightField@Gu@physx@@QEBAXIAEAI00@Z 0000000180095590 f i GuHeightFieldUtil.obj
 0001:00094650       ?getVertexFaceIndex@HeightFieldUtil@Gu@physx@@QEBAIIII@Z 0000000180095650 f   GuHeightFieldUtil.obj
 0001:00094890       ?getVertexNormal@HeightFieldUtil@Gu@physx@@QEBA?AVPxVec3@3@III@Z 0000000180095890 f   GuHeightFieldUtil.obj
 0001:00094be0       ?overlapAABBTriangles@HeightFieldUtil@Gu@physx@@QEBA_NAEBVPxTransform@3@AEBVPxBounds3@3@IPEAV?$EntityReport@I@23@@Z 0000000180095be0 f   GuHeightFieldUtil.obj
 0001:00095210       ??$traceSegment@UTriggerTraceSegmentCallback@Gu@physx@@$0A@$0A@@HeightFieldTraceUtil@Gu@physx@@QEBAXAEBVPxVec3@2@0MPEAUTriggerTraceSegmentCallback@12@AEBVPxBounds3@2@_NPEBV32@@Z 0000000180096210 f i GuOverlapTestsHF.obj
 0001:000961f0       ?GeomOverlapCallback_BoxHeightfield@@YA_NAEBVPxGeometry@physx@@AEBVPxTransform@2@01PEAUTriggerCache@Gu@2@@Z 00000001800971f0 f   GuOverlapTestsHF.obj
 0001:00096510       ?GeomOverlapCallback_CapsuleHeightfield@@YA_NAEBVPxGeometry@physx@@AEBVPxTransform@2@01PEAUTriggerCache@Gu@2@@Z 0000000180097510 f   GuOverlapTestsHF.obj
 0001:00096750       ?GeomOverlapCallback_ConvexHeightfield@@YA_NAEBVPxGeometry@physx@@AEBVPxTransform@2@01PEAUTriggerCache@Gu@2@@Z 0000000180097750 f   GuOverlapTestsHF.obj
 0001:000967c0       ?GeomOverlapCallback_SphereHeightfield@@YA_NAEBVPxGeometry@physx@@AEBVPxTransform@2@01PEAUTriggerCache@Gu@2@@Z 00000001800977c0 f   GuOverlapTestsHF.obj
 0001:00096990       ?checkOverlapAABB_heightFieldGeom@Gu@physx@@YA_NAEBVPxGeometry@2@AEBVPxTransform@2@AEBVPxBounds3@2@@Z 0000000180097990 f   GuOverlapTestsHF.obj
 0001:00099c30       ??$gjkRaycast@U?$LocalConvex@VTriangleV@Gu@physx@@@Gu@physx@@U?$LocalConvex@VConvexHullV@Gu@physx@@@23@@Gu@physx@@YA_NAEBU?$LocalConvex@VTriangleV@Gu@physx@@@01@AEBU?$LocalConvex@VConvexHullV@Gu@physx@@@01@AEBT__m128@@222AEAT4@33M@Z 000000018009ac30 f i GuSweepsHF.obj
 0001:0009aa00       ??$traceSegment@VCapsuleTraceSegmentReport@@$0A@$00@HeightFieldTraceUtil@Gu@physx@@QEBAXAEBVPxVec3@2@0MPEAVCapsuleTraceSegmentReport@@AEBVPxBounds3@2@_NPEBV32@@Z 000000018009ba00 f i GuSweepsHF.obj
 0001:0009aa00       ??$traceSegment@VBoxTraceSegmentReport@@$0A@$00@HeightFieldTraceUtil@Gu@physx@@QEBAXAEBVPxVec3@2@0MPEAVBoxTraceSegmentReport@@AEBVPxBounds3@2@_NPEBV32@@Z 000000018009ba00 f i GuSweepsHF.obj
 0001:0009aa00       ??$traceSegment@VConvexTraceSegmentReport@@$0A@$00@HeightFieldTraceUtil@Gu@physx@@QEBAXAEBVPxVec3@2@0MPEAVConvexTraceSegmentReport@@AEBVPxBounds3@2@_NPEBV32@@Z 000000018009ba00 f i GuSweepsHF.obj
 0001:0009b420       ??0ConvexTraceSegmentReport@@QEAA@AEBVHeightFieldUtil@Gu@physx@@AEBUConvexHullData@23@AEBVPxMeshScale@3@AEBVPxTransform@3@3AEBVPxVec3@3@MV?$PxFlags@W4Enum@PxHitFlag@physx@@G@3@M@Z 000000018009c420 f i GuSweepsHF.obj
 0001:0009bdc0       ??_EBoxTraceSegmentReport@@UEAAPEAXI@Z 000000018009cdc0 f i GuSweepsHF.obj
 0001:0009bdc0       ??_GBoxTraceSegmentReport@@UEAAPEAXI@Z 000000018009cdc0 f i GuSweepsHF.obj
 0001:0009bdf0       ??_ECapsuleTraceSegmentReport@@UEAAPEAXI@Z 000000018009cdf0 f i GuSweepsHF.obj
 0001:0009bdf0       ??_GCapsuleTraceSegmentReport@@UEAAPEAXI@Z 000000018009cdf0 f i GuSweepsHF.obj
 0001:0009be20       ??_GConvexTraceSegmentReport@@UEAAPEAXI@Z 000000018009ce20 f i GuSweepsHF.obj
 0001:0009be20       ??_EConvexTraceSegmentReport@@UEAAPEAXI@Z 000000018009ce20 f i GuSweepsHF.obj
 0001:0009be50       ??_GHeightFieldTraceSegmentReport@@UEAAPEAXI@Z 000000018009ce50 f i GuSweepsHF.obj
 0001:0009be50       ??_EHeightFieldTraceSegmentReport@@UEAAPEAXI@Z 000000018009ce50 f i GuSweepsHF.obj
 0001:0009be80       ?finalizeHit@ConvexTraceSegmentReport@@QEAA_NAEAUPxSweepHit@physx@@AEBVPxHeightFieldGeometry@3@AEBVPxTransform@3@AEBVPxConvexMeshGeometry@3@2AEBVPxVec3@3@M@Z 000000018009ce80 f i GuSweepsHF.obj
 0001:0009c0d0       ?onEvent@BoxTraceSegmentReport@@UEAA_NIPEAI@Z 000000018009d0d0 f i GuSweepsHF.obj
 0001:0009c540       ?onEvent@CapsuleTraceSegmentReport@@UEAA_NIPEAI@Z 000000018009d540 f i GuSweepsHF.obj
 0001:0009c770       ?onEvent@ConvexTraceSegmentReport@@UEAA_NIPEAI@Z 000000018009d770 f i GuSweepsHF.obj
 0001:0009cd30       ?prepare@?$OverlapTraceSegment@VConvexTraceSegmentReport@@@HeightFieldTraceUtil@Gu@physx@@QEAAXAEBVPxVec3@4@00AEAM1@Z 000000018009dd30 f i GuSweepsHF.obj
 0001:0009cd30       ?prepare@?$OverlapTraceSegment@VCapsuleTraceSegmentReport@@@HeightFieldTraceUtil@Gu@physx@@QEAAXAEBVPxVec3@4@00AEAM1@Z 000000018009dd30 f i GuSweepsHF.obj
 0001:0009cd30       ?prepare@?$OverlapTraceSegment@VBoxTraceSegmentReport@@@HeightFieldTraceUtil@Gu@physx@@QEAAXAEBVPxVec3@4@00AEAM1@Z 000000018009dd30 f i GuSweepsHF.obj
 0001:0009cfd0       ?sweepBox_HeightFieldGeom@@YA_NAEBVPxGeometry@physx@@AEBVPxTransform@2@AEBVPxBoxGeometry@2@1AEBVBox@Gu@2@AEBVPxVec3@2@MAEAUPxSweepHit@2@V?$PxFlags@W4Enum@PxHitFlag@physx@@G@2@M@Z 000000018009dfd0 f   GuSweepsHF.obj
 0001:0009de20       ?sweepCapsule_HeightFieldGeom@@YA_NAEBVPxGeometry@physx@@AEBVPxTransform@2@AEBVPxCapsuleGeometry@2@1AEBVCapsule@Gu@2@AEBVPxVec3@2@MAEAUPxSweepHit@2@V?$PxFlags@W4Enum@PxHitFlag@physx@@G@2@M@Z 000000018009ee20 f   GuSweepsHF.obj
 0001:0009e780       ?sweepConvex_HeightFieldGeom@@YA_NAEBVPxGeometry@physx@@AEBVPxTransform@2@AEBVPxConvexMeshGeometry@2@1AEBVPxVec3@2@MAEAUPxSweepHit@2@V?$PxFlags@W4Enum@PxHitFlag@physx@@G@2@M@Z 000000018009f780 f   GuSweepsHF.obj
 0001:0009f150       ?testVertexIndex@?$OverlapTraceSegment@VBoxTraceSegmentReport@@@HeightFieldTraceUtil@Gu@physx@@QEAA_NI@Z 00000001800a0150 f i GuSweepsHF.obj
 0001:0009f150       ?testVertexIndex@?$OverlapTraceSegment@VConvexTraceSegmentReport@@@HeightFieldTraceUtil@Gu@physx@@QEAA_NI@Z 00000001800a0150 f i GuSweepsHF.obj
 0001:0009f150       ?testVertexIndex@?$OverlapTraceSegment@VCapsuleTraceSegmentReport@@@HeightFieldTraceUtil@Gu@physx@@QEAA_NI@Z 00000001800a0150 f i GuSweepsHF.obj
 0001:0009f2a0       ?intersectOBBOBB@Gu@physx@@YA_NAEBVPxVec3@2@0AEBVPxMat33@2@001_N@Z 00000001800a02a0 f   GuIntersectionBoxBox.obj
 0001:0009f900       ?intersectCapsuleTriangle@Gu@physx@@YA_NAEBVPxVec3@2@000AEBVCapsule@12@AEBUCapsuleTriangleOverlapData@12@@Z 00000001800a0900 f   GuIntersectionCapsuleTriangle.obj
 0001:000a0490       ?intersectEdgeEdge@Gu@physx@@YA_NAEBVPxVec3@2@0000AEAMAEAV32@@Z 00000001800a1490 f   GuIntersectionEdgeEdge.obj
 0001:000a07c0       ?intersectRayAABB2@Gu@physx@@YA_NAEBT__m128@@0000AEAT3@1@Z 00000001800a17c0 f   GuIntersectionRayBox.obj
 0001:000a0880       ?intersectRayAABB2@Gu@physx@@YA_NAEBVPxVec3@2@000MAEAM1@Z 00000001800a1880 f   GuIntersectionRayBox.obj
 0001:000a0a30       ?intersectRayAABB@Gu@physx@@YAHAEBVPxVec3@2@000AEAM1@Z 00000001800a1a30 f   GuIntersectionRayBox.obj
 0001:000a0b50       ?rayAABBIntersect2@Gu@physx@@YAIAEBVPxVec3@2@000AEAV32@AEAM@Z 00000001800a1b50 f   GuIntersectionRayBox.obj
 0001:000a0d60       ?intersectRayCapsuleInternal@Gu@physx@@YAIAEBVPxVec3@2@000MQEAM@Z 00000001800a1d60 f   GuIntersectionRayCapsule.obj
 0001:000a15f0       ?intersectRaySphere@Gu@physx@@YA_NAEBVPxVec3@2@0M0MAEAMPEAV32@@Z 00000001800a25f0 f   GuIntersectionRaySphere.obj
 0001:000a16e0       ?intersectRaySphereBasic@Gu@physx@@YA_NAEBVPxVec3@2@0M0MAEAMPEAV32@@Z 00000001800a26e0 f   GuIntersectionRaySphere.obj
 0001:000a1840       ?intersectSphereBox@Gu@physx@@YA_NAEBVSphere@12@AEBVBox@12@@Z 00000001800a2840 f   GuIntersectionSphereBox.obj
 0001:000a1a70       ?intersectTriangleBox@Gu@physx@@YAHAEBVBoxPadded@12@AEBVPxVec3@2@11@Z 00000001800a2a70 f   GuIntersectionTriangleBox.obj
 0001:000a2040       ?intersectTriangleBoxBV4@@YAHAEBVPxVec3@physx@@00AEBVPxMat33@2@00@Z 00000001800a3040 f   GuIntersectionTriangleBox.obj
 0001:000a2480       ?intersectTriangleBox_ReferenceCode@Gu@physx@@YAHAEBVPxVec3@2@0000@Z 00000001800a3480 f   GuIntersectionTriangleBox.obj
 0001:000a2cf0       ?intersectTriangleBox_Unsafe@Gu@physx@@YAHAEBVPxVec3@2@0000@Z 00000001800a3cf0 f   GuIntersectionTriangleBox.obj
 0001:000a30c0       ??0BV4Tree@Gu@physx@@QEAA@PEAVSourceMesh@12@AEBVPxBounds3@2@@Z 00000001800a40c0 f   GuBV4.obj
 0001:000a3180       ??0BV4Tree@Gu@physx@@QEAA@W4PxEMPTY@2@@Z 00000001800a4180 f   GuBV4.obj
 0001:000a3190       ??0BV4Tree@Gu@physx@@QEAA@XZ 00000001800a4190 f   GuBV4.obj
 0001:000a31c0       ??0SourceMesh@Gu@physx@@QEAA@XZ 00000001800a41c0 f   GuBV4.obj
 0001:000a31e0       ??0SourceMeshBase@Gu@physx@@QEAA@XZ 00000001800a41e0 f   GuBV4.obj
 0001:000a31f0       ??1BV4Tree@Gu@physx@@QEAA@XZ 00000001800a41f0 f   GuBV4.obj
 0001:000a3250       ??1SourceMeshBase@Gu@physx@@QEAA@XZ 00000001800a4250 f   GuBV4.obj
 0001:000a3250       ??1SourceMesh@Gu@physx@@QEAA@XZ 00000001800a4250 f   GuBV4.obj
 0001:000a32a0       ??4BV4Tree@Gu@physx@@QEAAXAEAV012@@Z 00000001800a42a0 f   GuBV4.obj
 0001:000a3330       ??4SourceMesh@Gu@physx@@QEAAXAEAV012@@Z 00000001800a4330 f   GuBV4.obj
 0001:000a3380       ?exportExtraData@BV4Tree@Gu@physx@@QEAAXAEAVPxSerializationContext@3@@Z 00000001800a4380 f   GuBV4.obj
 0001:000a33d0       ?importExtraData@BV4Tree@Gu@physx@@QEAAXAEAVPxDeserializationContext@3@@Z 00000001800a43d0 f   GuBV4.obj
 0001:000a3400       ?init@BV4Tree@Gu@physx@@QEAA_NPEAVSourceMesh@23@AEBVPxBounds3@3@@Z 00000001800a4400 f   GuBV4.obj
 0001:000a3400       ?init@BV32Tree@Gu@physx@@QEAA_NPEAVSourceMesh@23@AEBVPxBounds3@3@@Z 00000001800a4400 f   GuBV32.obj
 0001:000a34a0       ?load@BV4Tree@Gu@physx@@QEAA_NAEAVPxInputStream@3@_N@Z 00000001800a44a0 f   GuBV4.obj
 0001:000a36c0       ?remapTopology@SourceMesh@Gu@physx@@QEAAXPEBI@Z 00000001800a46c0 f   GuBV4.obj
 0001:000a3990       ??0AABBTree@Gu@physx@@QEAA@XZ 00000001800a4990 f   GuBV4Build.obj
 0001:000a39a0       ??0BVData@@QEAA@XZ         00000001800a49a0 f   GuBV4Build.obj
 0001:000a39d0       ??1AABBTree@Gu@physx@@QEAA@XZ 00000001800a49d0 f   GuBV4Build.obj
 0001:000a39e0       ?BuildBV4Ex@Gu@physx@@YA_NAEAVBV4Tree@12@AEAVSourceMesh@12@MI@Z 00000001800a49e0 f   GuBV4Build.obj
 0001:000a4eb0       ?allocateNode@BV4BuildParams@@QEAAPEAUBV4Node@@XZ 00000001800a5eb0 f   GuBV4Build.obj
 0001:000a4fd0       ?buildFromMesh@AABBTree@Gu@physx@@QEAA_NAEAVSourceMesh@23@I@Z 00000001800a5fd0 f   GuBV4Build.obj
 0001:000a5b90       ?release@AABBTree@Gu@physx@@QEAAXXZ 00000001800a6b90 f   GuBV4Build.obj
 0001:000a5c30       ?releaseNodes@BV4BuildParams@@QEAAXXZ 00000001800a6c30 f   GuBV4Build.obj
 0001:000a5f00       ?walk@AABBTree@Gu@physx@@QEBAIP6A_NPEBVAABBTreeNode@23@IPEAX@Z1@Z 00000001800a6f00 f   GuBV4Build.obj
 0001:000a8120       ?GenericSweep_AABB_CB@@YAXAEBVBox@Gu@physx@@AEBVPxVec3@3@MAEBVBV4Tree@23@P6A_NPEAX111IAEAM@Z3I@Z 00000001800a9120 f   GuBV4_AABBSweep.obj
 0001:000a8250       ?Sweep_AABB_BV4@@YAHAEBVBox@Gu@physx@@AEBVPxVec3@3@MAEBVBV4Tree@23@PEIAVSweepHit@23@I@Z 00000001800a9250 f   GuBV4_AABBSweep.obj
 0001:000ac490       ?BV4_OverlapBoxAll@@YAIAEBVBox@Gu@physx@@AEBVBV4Tree@23@PEIBVPxMat44@3@PEAIIAEA_N@Z 00000001800ad490 f   GuBV4_BoxOverlap.obj
 0001:000acca0       ?BV4_OverlapBoxAny@@YAHAEBVBox@Gu@physx@@AEBVBV4Tree@23@PEIBVPxMat44@3@@Z 00000001800adca0 f   GuBV4_BoxOverlap.obj
 0001:000ad460       ?BV4_OverlapBoxCB@@YAXAEBVBox@Gu@physx@@AEBVBV4Tree@23@P6A_NPEAXAEBVPxVec3@3@33IPEBI@Z2@Z 00000001800ae460 f   GuBV4_BoxOverlap.obj
 0001:000ad920       ?BV4_OverlapCapsuleAll@@YAIAEBVCapsule@Gu@physx@@AEBVBV4Tree@23@PEIBVPxMat44@3@PEAIIAEA_N@Z 00000001800ae920 f   GuBV4_BoxOverlap.obj
 0001:000ae030       ?BV4_OverlapCapsuleAny@@YAHAEBVCapsule@Gu@physx@@AEBVBV4Tree@23@PEIBVPxMat44@3@@Z 00000001800af030 f   GuBV4_BoxOverlap.obj
 0001:000b0160       ?BV4_CapsuleSweepSingle@@YAHAEBVCapsule@Gu@physx@@AEBVPxVec3@3@MAEBVBV4Tree@23@PEIAVSweepHit@23@I@Z 00000001800b1160 f   GuBV4_CapsuleSweep.obj
 0001:000b3650       ?BV4_CapsuleSweepSingleAA@@YAHAEBVCapsule@Gu@physx@@AEBVPxVec3@3@MAEBVBV4Tree@23@PEIAVSweepHit@23@I@Z 00000001800b4650 f   GuBV4_CapsuleSweepAA.obj
 0001:000b7e60       ?BV4_BoxSweepSingle@@YAHAEBVBox@Gu@physx@@AEBVPxVec3@3@MAEBVBV4Tree@23@PEIBVPxMat44@3@PEIAVSweepHit@23@I@Z 00000001800b8e60 f   GuBV4_OBBSweep.obj
 0001:000b8590       ?BV4_GenericSweepCB@@YAXAEBVBox@Gu@physx@@AEBVPxVec3@3@MAEBVBV4Tree@23@P6A_NPEAX111IAEAM@Z3_N@Z 00000001800b9590 f   GuBV4_OBBSweep.obj
 0001:000b8760       ?Sweep_OBB_BV4@@YAHAEBVBox@Gu@physx@@AEBVPxVec3@3@MAEBVBV4Tree@23@PEIAVSweepHit@23@I@Z 00000001800b9760 f   GuBV4_OBBSweep.obj
 0001:000ba730       ?BV4_RaycastCB@@YAXAEBVPxVec3@physx@@0AEBVBV4Tree@Gu@2@PEIBVPxMat44@2@MMIP6A?AW4HitCode@42@PEAX000IMMM@Z3@Z 00000001800bb730 f   GuBV4_Raycast.obj
 0001:000bab50       ?BV4_RaycastSingle@@YAHAEBVPxVec3@physx@@0AEBVBV4Tree@Gu@2@PEIBVPxMat44@2@PEIAUPxRaycastHit@2@MMIV?$PxFlags@W4Enum@PxHitFlag@physx@@G@2@@Z 00000001800bbb50 f   GuBV4_Raycast.obj
 0001:000bc8b0       ?BV4_OverlapSphereAll@@YAIAEBVSphere@Gu@physx@@AEBVBV4Tree@23@PEIBVPxMat44@3@PEAIIAEA_N@Z 00000001800bd8b0 f   GuBV4_SphereOverlap.obj
 0001:000bcbd0       ?BV4_OverlapSphereAny@@YAHAEBVSphere@Gu@physx@@AEBVBV4Tree@23@PEIBVPxMat44@3@@Z 00000001800bdbd0 f   GuBV4_SphereOverlap.obj
 0001:000be9e0       ?BV4_GenericSweepCB_Old@@YAXAEBVPxVec3@physx@@00MAEBVBV4Tree@Gu@2@PEIBVPxMat44@2@P6A_NPEAX000IAEAM@Z3@Z 00000001800bf9e0 f   GuBV4_SphereSweep.obj
 0001:000bede0       ?BV4_SphereSweepSingle@@YAHAEBVSphere@Gu@physx@@AEBVPxVec3@3@MAEBVBV4Tree@23@PEIBVPxMat44@3@PEIAVSweepHit@23@I@Z 00000001800bfde0 f   GuBV4_SphereSweep.obj
 0001:000c00a0       ?computeSweepData@physx@@YAMAEBVPxTriangleMeshGeometry@1@AEAVPxVec3@1@11M@Z 00000001800c10a0 f i GuMidphaseBV4.obj
 0001:000c1540       ?intersectBoxVsMesh_BV4@Gu@physx@@YA_NAEBVBox@12@AEBVTriangleMesh@12@AEBVPxTransform@2@AEBVPxMeshScale@2@PEAULimitedResults@12@@Z 00000001800c2540 f   GuMidphaseBV4.obj
 0001:000c2060       ?intersectCapsuleVsMesh_BV4@Gu@physx@@YA_NAEBVCapsule@12@AEBVTriangleMesh@12@AEBVPxTransform@2@AEBVPxMeshScale@2@PEAULimitedResults@12@@Z 00000001800c3060 f   GuMidphaseBV4.obj
 0001:000c28a0       ?intersectOBB_BV4@Gu@physx@@YAXPEBVTriangleMesh@12@AEBVBox@12@AEAU?$MeshHitCallback@UPxRaycastHit@physx@@@12@_N3@Z 00000001800c38a0 f   GuMidphaseBV4.obj
 0001:000c28c0       ?intersectSphereVsMesh_BV4@Gu@physx@@YA_NAEBVSphere@12@AEBVTriangleMesh@12@AEBVPxTransform@2@AEBVPxMeshScale@2@PEAULimitedResults@12@@Z 00000001800c38c0 f   GuMidphaseBV4.obj
 0001:000c3000       ?raycast_triangleMesh_BV4@Gu@physx@@YAIPEBVTriangleMesh@12@AEBVPxTriangleMeshGeometry@2@AEBVPxTransform@2@AEBVPxVec3@2@3MV?$PxFlags@W4Enum@PxHitFlag@physx@@G@2@IPEIAUPxRaycastHit@2@@Z 00000001800c4000 f   GuMidphaseBV4.obj
 0001:000c3e10       ?sweepBox_MeshGeom_BV4@Gu@physx@@YA_NPEBVTriangleMesh@12@AEBVPxTriangleMeshGeometry@2@AEBVPxTransform@2@AEBVBox@12@AEBVPxVec3@2@MAEAUPxSweepHit@2@V?$PxFlags@W4Enum@PxHitFlag@physx@@G@2@M@Z 00000001800c4e10 f   GuMidphaseBV4.obj
 0001:000c5530       ?sweepCapsule_MeshGeom_BV4@Gu@physx@@YA_NPEBVTriangleMesh@12@AEBVPxTriangleMeshGeometry@2@AEBVPxTransform@2@AEBVCapsule@12@AEBVPxVec3@2@MAEAUPxSweepHit@2@V?$PxFlags@W4Enum@PxHitFlag@physx@@G@2@M@Z 00000001800c6530 f   GuMidphaseBV4.obj
 0001:000c6020       ?sweepConvex_MeshGeom_BV4@Gu@physx@@YAXPEBVTriangleMesh@12@AEBVBox@12@AEBVPxVec3@2@MAEAUSweepConvexMeshHitCallback@12@_N@Z 00000001800c7020 f   GuMidphaseBV4.obj
 0001:000c6060       ?transform@PxMeshScale@physx@@QEBA?AVPxVec3@2@AEBV32@@Z 00000001800c7060 f i GuMidphaseBV4.obj
 0001:000c62a0       ?findOverlapHeightField@PxMeshQuery@physx@@SAIAEBVPxGeometry@2@AEBVPxTransform@2@AEBVPxHeightFieldGeometry@2@1PEAIIIAEA_N@Z 00000001800c72a0 f   GuMeshQuery.obj
 0001:000c6990       ?findOverlapTriangleMesh@PxMeshQuery@physx@@SAIAEBVPxGeometry@2@AEBVPxTransform@2@AEBVPxTriangleMeshGeometry@2@1PEAIIIAEA_N@Z 00000001800c7990 f   GuMeshQuery.obj
 0001:000c6ca0       ?getTriangle@PxMeshQuery@physx@@SAXAEBVPxHeightFieldGeometry@2@AEBVPxTransform@2@IAEAVPxTriangle@2@PEAI3@Z 00000001800c7ca0 f   GuMeshQuery.obj
 0001:000c6d20       ?getTriangle@PxMeshQuery@physx@@SAXAEBVPxTriangleMeshGeometry@2@AEBVPxTransform@2@IAEAVPxTriangle@2@PEAI3@Z 00000001800c7d20 f   GuMeshQuery.obj
 0001:000c7220       ?sweep@PxMeshQuery@physx@@SA_NAEBVPxVec3@2@MAEBVPxGeometry@2@AEBVPxTransform@2@IPEBVPxTriangle@2@AEAUPxSweepHit@2@V?$PxFlags@W4Enum@PxHitFlag@physx@@G@2@PEBIM_N@Z 00000001800c8220 f   GuMeshQuery.obj
 0001:000c74b0       ??$collide@$00$00@MeshRayCollider@@SAXAEBVPxVec3@physx@@0M_NPEBVRTreeTriangleMesh@Gu@2@AEAU?$MeshHitCallback@UPxRaycastHit@physx@@@42@PEBV12@@Z 00000001800c84b0 f i GuMidphaseRTree.obj
 0001:000c7830       ??$collide@$00$0A@@MeshRayCollider@@SAXAEBVPxVec3@physx@@0M_NPEBVRTreeTriangleMesh@Gu@2@AEAU?$MeshHitCallback@UPxRaycastHit@physx@@@42@PEBV12@@Z 00000001800c8830 f i GuMidphaseRTree.obj
 0001:000c7a70       ??$collide@$0A@$00@MeshRayCollider@@SAXAEBVPxVec3@physx@@0M_NPEBVRTreeTriangleMesh@Gu@2@AEAU?$MeshHitCallback@UPxRaycastHit@physx@@@42@PEBV12@@Z 00000001800c8a70 f i GuMidphaseRTree.obj
 0001:000c9e30       ??0?$RayRTreeCallback@$00$0A@@@QEAA@MAEAU?$MeshHitCallback@UPxRaycastHit@physx@@@Gu@physx@@HPEBXPEBVPxVec3@3@AEBV43@3M_N2@Z 00000001800cae30 f i GuMidphaseRTree.obj
 0001:000c9f60       ??1?$RayRTreeCallback@$00$00@@UEAA@XZ 00000001800caf60 f i GuMidphaseRTree.obj
 0001:000c9ff0       ??1?$RayRTreeCallback@$0A@$0A@@@UEAA@XZ 00000001800caff0 f i GuMidphaseRTree.obj
 0001:000c9ff0       ??1?$RayRTreeCallback@$00$0A@@@UEAA@XZ 00000001800caff0 f i GuMidphaseRTree.obj
 0001:000ca080       ??1?$RayRTreeCallback@$0A@$00@@UEAA@XZ 00000001800cb080 f i GuMidphaseRTree.obj
 0001:000ca108       ??_E?$RayRTreeCallback@$00$00@@W7EAAPEAXI@Z 00000001800cb108 f i GuMidphaseRTree.obj
 0001:000ca114       ??_E?$RayRTreeCallback@$0A@$0A@@@W7EAAPEAXI@Z 00000001800cb114 f i GuMidphaseRTree.obj
 0001:000ca114       ??_E?$RayRTreeCallback@$00$0A@@@W7EAAPEAXI@Z 00000001800cb114 f i GuMidphaseRTree.obj
 0001:000ca120       ??_E?$RayRTreeCallback@$0A@$00@@W7EAAPEAXI@Z 00000001800cb120 f i GuMidphaseRTree.obj
 0001:000ca190       ??_G?$RayRTreeCallback@$00$00@@UEAAPEAXI@Z 00000001800cb190 f i GuMidphaseRTree.obj
 0001:000ca190       ??_E?$RayRTreeCallback@$00$00@@UEAAPEAXI@Z 00000001800cb190 f i GuMidphaseRTree.obj
 0001:000ca1d0       ??_G?$RayRTreeCallback@$00$0A@@@UEAAPEAXI@Z 00000001800cb1d0 f i GuMidphaseRTree.obj
 0001:000ca1d0       ??_E?$RayRTreeCallback@$0A@$0A@@@UEAAPEAXI@Z 00000001800cb1d0 f i GuMidphaseRTree.obj
 0001:000ca1d0       ??_G?$RayRTreeCallback@$0A@$0A@@@UEAAPEAXI@Z 00000001800cb1d0 f i GuMidphaseRTree.obj
 0001:000ca1d0       ??_E?$RayRTreeCallback@$00$0A@@@UEAAPEAXI@Z 00000001800cb1d0 f i GuMidphaseRTree.obj
 0001:000ca210       ??_E?$RayRTreeCallback@$0A@$00@@UEAAPEAXI@Z 00000001800cb210 f i GuMidphaseRTree.obj
 0001:000ca210       ??_G?$RayRTreeCallback@$0A@$00@@UEAAPEAXI@Z 00000001800cb210 f i GuMidphaseRTree.obj
 0001:000ca250       ??_GCallback@RTree@Gu@physx@@UEAAPEAXI@Z 00000001800cb250 f i GuMidphaseRTree.obj
 0001:000ca250       ??_ECallback@RTree@Gu@physx@@UEAAPEAXI@Z 00000001800cb250 f i GuMidphaseRTree.obj
 0001:000ca280       ??_ECallbackRaycast@RTree@Gu@physx@@UEAAPEAXI@Z 00000001800cb280 f i GuMidphaseRTree.obj
 0001:000ca280       ??_GCallbackRefit@RTree@Gu@physx@@UEAAPEAXI@Z 00000001800cb280 f i GuTriangleMeshRTree.obj
 0001:000ca280       ??_GCallbackRaycast@RTree@Gu@physx@@UEAAPEAXI@Z 00000001800cb280 f i GuMidphaseRTree.obj
 0001:000ca280       ??_ECallbackRefit@RTree@Gu@physx@@UEAAPEAXI@Z 00000001800cb280 f i GuTriangleMeshRTree.obj
 0001:000ca2b0       ??_ERayMeshColliderCallback@@UEAAPEAXI@Z 00000001800cb2b0 f i GuMidphaseRTree.obj
 0001:000ca2b0       ??_GRayMeshColliderCallback@@UEAAPEAXI@Z 00000001800cb2b0 f i GuMidphaseRTree.obj
 0001:000ca2e0       ?collideOBB@MeshRayCollider@@SAXAEBVBox@Gu@physx@@_NPEBVRTreeTriangleMesh@34@AEAU?$MeshHitCallback@UPxRaycastHit@physx@@@34@1@Z 00000001800cb2e0 f   GuMidphaseRTree.obj
 0001:000ca7b0       ?intersectBoxVsMesh_RTREE@Gu@physx@@YA_NAEBVBox@12@AEBVTriangleMesh@12@AEBVPxTransform@2@AEBVPxMeshScale@2@PEAULimitedResults@12@@Z 00000001800cb7b0 f   GuMidphaseRTree.obj
 0001:000ca820       ?intersectCapsuleVsMesh_RTREE@Gu@physx@@YA_NAEBVCapsule@12@AEBVTriangleMesh@12@AEBVPxTransform@2@AEBVPxMeshScale@2@PEAULimitedResults@12@@Z 00000001800cb820 f   GuMidphaseRTree.obj
 0001:000ca8a0       ?intersectOBB_RTREE@Gu@physx@@YAXPEBVTriangleMesh@12@AEBVBox@12@AEAU?$MeshHitCallback@UPxRaycastHit@physx@@@12@_N3@Z 00000001800cb8a0 f   GuMidphaseRTree.obj
 0001:000ca8d0       ?intersectSphereVsMesh_RTREE@Gu@physx@@YA_NAEBVSphere@12@AEBVTriangleMesh@12@AEBVPxTransform@2@AEBVPxMeshScale@2@PEAULimitedResults@12@@Z 00000001800cb8d0 f   GuMidphaseRTree.obj
 0001:000cb700       ?processHit@RayMeshColliderCallback@@UEAA_NAEBUPxRaycastHit@physx@@AEBVPxVec3@3@11AEAMPEBI@Z 00000001800cc700 f i GuMidphaseRTree.obj
 0001:000cbe90       ?processResults@?$RayRTreeCallback@$00$00@@UEAA_NIPEAI@Z 00000001800cce90 f i GuMidphaseRTree.obj
 0001:000cc240       ?processResults@?$RayRTreeCallback@$00$00@@UEAA_NIPEAIAEAM@Z 00000001800cd240 f i GuMidphaseRTree.obj
 0001:000cc5d0       ?processResults@?$RayRTreeCallback@$00$0A@@@UEAA_NIPEAI@Z 00000001800cd5d0 f i GuMidphaseRTree.obj
 0001:000cc5d0       ?processResults@?$RayRTreeCallback@$0A@$0A@@@UEAA_NIPEAI@Z 00000001800cd5d0 f i GuMidphaseRTree.obj
 0001:000cc860       ?processResults@?$RayRTreeCallback@$0A@$0A@@@UEAA_NIPEAIAEAM@Z 00000001800cd860 f i GuMidphaseRTree.obj
 0001:000cc860       ?processResults@?$RayRTreeCallback@$00$0A@@@UEAA_NIPEAIAEAM@Z 00000001800cd860 f i GuMidphaseRTree.obj
 0001:000ccb00       ?processResults@?$RayRTreeCallback@$0A@$00@@UEAA_NIPEAI@Z 00000001800cdb00 f i GuMidphaseRTree.obj
 0001:000cd160       ?processResults@?$RayRTreeCallback@$0A@$00@@UEAA_NIPEAIAEAM@Z 00000001800ce160 f i GuMidphaseRTree.obj
 0001:000cd7d0       ?raycast_triangleMesh_RTREE@Gu@physx@@YAIPEBVTriangleMesh@12@AEBVPxTriangleMeshGeometry@2@AEBVPxTransform@2@AEBVPxVec3@2@3MV?$PxFlags@W4Enum@PxHitFlag@physx@@G@2@IPEIAUPxRaycastHit@2@@Z 00000001800ce7d0 f   GuMidphaseRTree.obj
 0001:000cdf70       ?sweepBox_MeshGeom_RTREE@Gu@physx@@YA_NPEBVTriangleMesh@12@AEBVPxTriangleMeshGeometry@2@AEBVPxTransform@2@AEBVBox@12@AEBVPxVec3@2@MAEAUPxSweepHit@2@V?$PxFlags@W4Enum@PxHitFlag@physx@@G@2@M@Z 00000001800cef70 f   GuMidphaseRTree.obj
 0001:000cf4d0       ?sweepCapsule_MeshGeom_RTREE@Gu@physx@@YA_NPEBVTriangleMesh@12@AEBVPxTriangleMeshGeometry@2@AEBVPxTransform@2@AEBVCapsule@12@AEBVPxVec3@2@MAEAUPxSweepHit@2@V?$PxFlags@W4Enum@PxHitFlag@physx@@G@2@M@Z 00000001800d04d0 f   GuMidphaseRTree.obj
 0001:000cfcd0       ?sweepConvex_MeshGeom_RTREE@Gu@physx@@YAXPEBVTriangleMesh@12@AEBVBox@12@AEBVPxVec3@2@MAEAUSweepConvexMeshHitCallback@12@_N@Z 00000001800d0cd0 f   GuMidphaseRTree.obj
 0001:000cfd20       ??$gjk@U?$RelativeConvex@VTriangleV@Gu@physx@@@Gu@physx@@U?$LocalConvex@VConvexHullV@Gu@physx@@@23@@Gu@physx@@YA?AW4GjkStatus@01@AEBU?$RelativeConvex@VTriangleV@Gu@physx@@@01@AEBU?$LocalConvex@VConvexHullV@Gu@physx@@@01@AEBT__m128@@2AEAT5@333@Z 00000001800d0d20 f i GuOverlapTestsMesh.obj
 0001:000d0bb0       ??0ConvexVsMeshOverlapCallback@@QEAA@AEBVConvexMesh@Gu@physx@@AEBVPxMeshScale@3@AEBVFastVertex2ShapeScaling@Cm@3@AEBVPxTransform@3@3_NAEBVBox@23@@Z 00000001800d1bb0 f i GuOverlapTestsMesh.obj
 0001:000d1440       ??_GConvexVsMeshOverlapCallback@@UEAAPEAXI@Z 00000001800d2440 f i GuOverlapTestsMesh.obj
 0001:000d1440       ??_EConvexVsMeshOverlapCallback@@UEAAPEAXI@Z 00000001800d2440 f i GuOverlapTestsMesh.obj
 0001:000d1470       ?GeomOverlapCallback_BoxMesh@@YA_NAEBVPxGeometry@physx@@AEBVPxTransform@2@01PEAUTriggerCache@Gu@2@@Z 00000001800d2470 f   GuOverlapTestsMesh.obj
 0001:000d1580       ?GeomOverlapCallback_CapsuleMesh@@YA_NAEBVPxGeometry@physx@@AEBVPxTransform@2@01PEAUTriggerCache@Gu@2@@Z 00000001800d2580 f   GuOverlapTestsMesh.obj
 0001:000d1690       ?GeomOverlapCallback_ConvexMesh@@YA_NAEBVPxGeometry@physx@@AEBVPxTransform@2@01PEAUTriggerCache@Gu@2@@Z 00000001800d2690 f   GuOverlapTestsMesh.obj
 0001:000d1c80       ?GeomOverlapCallback_SphereMesh@@YA_NAEBVPxGeometry@physx@@AEBVPxTransform@2@01PEAUTriggerCache@Gu@2@@Z 00000001800d2c80 f   GuOverlapTestsMesh.obj
 0001:000d1cf0       ?checkOverlapAABB_triangleGeom@Gu@physx@@YA_NAEBVPxGeometry@2@AEBVPxTransform@2@AEBVPxBounds3@2@@Z 00000001800d2cf0 f   GuOverlapTestsMesh.obj
 0001:000d1df0       ?processHit@ConvexVsMeshOverlapCallback@@UEAA_NAEBUPxRaycastHit@physx@@AEBVPxVec3@3@11AEAMPEBI@Z 00000001800d2df0 f i GuOverlapTestsMesh.obj
 0001:000d2170       ??0RTree@Gu@physx@@QEAA@W4PxEMPTY@2@@Z 00000001800d3170 f   GuRTree.obj
 0001:000d2180       ?exportExtraData@RTree@Gu@physx@@QEAAXAEAVPxSerializationContext@3@@Z 00000001800d3180 f   GuRTree.obj
 0001:000d21c0       ?importExtraData@RTree@Gu@physx@@QEAAXAEAVPxDeserializationContext@3@@Z 00000001800d31c0 f   GuRTree.obj
 0001:000d21f0       ?load@RTree@Gu@physx@@QEAA_NAEAVPxInputStream@3@I_N@Z 00000001800d31f0 f   GuRTree.obj
 0001:000d24f0       ?refitAllStaticTree@RTree@Gu@physx@@QEAAXAEAUCallbackRefit@123@PEAVPxBounds3@3@@Z 00000001800d34f0 f   GuRTree.obj
 0001:000d2a50       ?validate@RTree@Gu@physx@@QEAAXPEAUCallbackRefit@123@@Z 00000001800d3a50 f   GuRTree.obj
 0001:000d2bb0       ?validateRecursive@RTree@Gu@physx@@IEAAXIURTreeNodeQ@23@PEAURTreePage@23@PEAUCallbackRefit@123@@Z 00000001800d3bb0 f   GuRTree.obj
 0001:000d2ce0       ??$traverseRay@$00@RTree@Gu@physx@@QEBAXAEBVPxVec3@2@0IPEAIPEAUCallbackRaycast@012@PEBV32@M@Z 00000001800d3ce0 f i GuRTreeQueries.obj
 0001:000d3080       ??$traverseRay@$0A@@RTree@Gu@physx@@QEBAXAEBVPxVec3@2@0IPEAIPEAUCallbackRaycast@012@PEBV32@M@Z 00000001800d4080 f i GuRTreeQueries.obj
 0001:000d33d0       ?traverseAABB@RTree@Gu@physx@@QEBAXAEBVPxVec3@3@0IPEAIPEAUCallback@123@@Z 00000001800d43d0 f   GuRTreeQueries.obj
 0001:000d3590       ?traverseOBB@RTree@Gu@physx@@QEBAXAEBVBox@23@IPEAIPEAUCallback@123@@Z 00000001800d4590 f   GuRTreeQueries.obj
 0001:000d3e70       ??0SweepBoxMeshHitCallback@Gu@physx@@QEAA@W4Enum@CallbackMode@12@AEBVMatrix34Padded@12@M_NAEBVBox@12@AEBVPxVec3@2@44AEBV?$PxFlags@W4Enum@PxHitFlag@physx@@G@2@M2M@Z 00000001800d4e70 f   GuSweepsMesh.obj
 0001:000d3f80       ??0SweepCapsuleMeshHitCallback@Gu@physx@@QEAA@AEAUPxSweepHit@2@AEBVMatrix34@Cm@2@M_NAEBVCapsule@12@AEBVPxVec3@2@AEBV?$PxFlags@W4Enum@PxHitFlag@physx@@G@2@2M@Z 00000001800d4f80 f   GuSweepsMesh.obj
 0001:000d4050       ??0SweepConvexMeshHitCallback@Gu@physx@@QEAA@AEBUConvexHullData@12@AEBVPxMeshScale@2@AEBVFastVertex2ShapeScaling@Cm@2@AEBVPxTransform@2@3AEBVPxVec3@2@MV?$PxFlags@W4Enum@PxHitFlag@physx@@G@2@_NM6M@Z 00000001800d5050 f   GuSweepsMesh.obj
 0001:000d49d0       ??_GSweepBoxMeshHitCallback@Gu@physx@@UEAAPEAXI@Z 00000001800d59d0 f i GuSweepsMesh.obj
 0001:000d49d0       ??_ESweepBoxMeshHitCallback@Gu@physx@@UEAAPEAXI@Z 00000001800d59d0 f i GuSweepsMesh.obj
 0001:000d4a00       ??_ESweepCapsuleMeshHitCallback@Gu@physx@@UEAAPEAXI@Z 00000001800d5a00 f i GuSweepsMesh.obj
 0001:000d4a00       ??_GSweepCapsuleMeshHitCallback@Gu@physx@@UEAAPEAXI@Z 00000001800d5a00 f i GuSweepsMesh.obj
 0001:000d4a30       ??_ESweepConvexMeshHitCallback@Gu@physx@@UEAAPEAXI@Z 00000001800d5a30 f i GuSweepsMesh.obj
 0001:000d4a30       ??_GSweepConvexMeshHitCallback@Gu@physx@@UEAAPEAXI@Z 00000001800d5a30 f i GuSweepsMesh.obj
 0001:000d4a60       ??_ESweepShapeMeshHitCallback@Gu@physx@@UEAAPEAXI@Z 00000001800d5a60 f i GuSweepsMesh.obj
 0001:000d4a60       ??_GSweepShapeMeshHitCallback@Gu@physx@@UEAAPEAXI@Z 00000001800d5a60 f i GuSweepsMesh.obj
 0001:000d4a90       ?finalizeHit@SweepBoxMeshHitCallback@Gu@physx@@QEBA_NAEAUPxSweepHit@3@AEBVPxTriangleMeshGeometry@3@AEBVPxTransform@3@2AEBVPxVec3@3@_N4@Z 00000001800d5a90 f   GuSweepsMesh.obj
 0001:000d5160       ?finalizeHit@SweepCapsuleMeshHitCallback@Gu@physx@@QEBA_NAEAUPxSweepHit@3@AEBVCapsule@23@AEBVPxTriangleMeshGeometry@3@AEBVPxTransform@3@_N@Z 00000001800d6160 f   GuSweepsMesh.obj
 0001:000d52f0       ?finalizeHit@SweepConvexMeshHitCallback@Gu@physx@@QEAA_NAEAUPxSweepHit@3@AEBVPxTriangleMeshGeometry@3@AEBVPxTransform@3@AEBVPxConvexMeshGeometry@3@2AEBVPxVec3@3@M_N555@Z 00000001800d62f0 f   GuSweepsMesh.obj
 0001:000d57e0       ?processHit@SweepBoxMeshHitCallback@Gu@physx@@UEAA_NAEBUPxRaycastHit@3@AEBVPxVec3@3@11AEAMPEBI@Z 00000001800d67e0 f   GuSweepsMesh.obj
 0001:000d5ff0       ?processHit@SweepCapsuleMeshHitCallback@Gu@physx@@UEAA_NAEBUPxRaycastHit@3@AEBVPxVec3@3@11AEAMPEBI@Z 00000001800d6ff0 f   GuSweepsMesh.obj
 0001:000d6520       ?processHit@SweepConvexMeshHitCallback@Gu@physx@@UEAA_NAEBUPxRaycastHit@3@AEBVPxVec3@3@11AEAMPEBI@Z 00000001800d7520 f   GuSweepsMesh.obj
 0001:000d6c70       ?sweepBox_MeshGeom@@YA_NAEBVPxGeometry@physx@@AEBVPxTransform@2@AEBVPxBoxGeometry@2@1AEBVBox@Gu@2@AEBVPxVec3@2@MAEAUPxSweepHit@2@V?$PxFlags@W4Enum@PxHitFlag@physx@@G@2@M@Z 00000001800d7c70 f   GuSweepsMesh.obj
 0001:000d6d00       ?sweepCapsule_MeshGeom@@YA_NAEBVPxGeometry@physx@@AEBVPxTransform@2@AEBVPxCapsuleGeometry@2@1AEBVCapsule@Gu@2@AEBVPxVec3@2@MAEAUPxSweepHit@2@V?$PxFlags@W4Enum@PxHitFlag@physx@@G@2@M@Z 00000001800d7d00 f   GuSweepsMesh.obj
 0001:000d6d90       ?sweepConvex_MeshGeom@@YA_NAEBVPxGeometry@physx@@AEBVPxTransform@2@AEBVPxConvexMeshGeometry@2@1AEBVPxVec3@2@MAEAUPxSweepHit@2@V?$PxFlags@W4Enum@PxHitFlag@physx@@G@2@M@Z 00000001800d7d90 f   GuSweepsMesh.obj
 0001:000d79d0       ??0TriangleMesh@Gu@physx@@QEAA@AEAVGuMeshFactory@2@AEAVTriangleMeshData@12@@Z 00000001800d89d0 f   GuTriangleMesh.obj
 0001:000d7b60       ??1TriangleMesh@Gu@physx@@UEAA@XZ 00000001800d8b60 f   GuTriangleMesh.obj
 0001:000d7d14       ??_ETriangleMesh@Gu@physx@@WBA@EAAPEAXI@Z 00000001800d8d14 f i GuTriangleMesh.obj
 0001:000d7d20       ??_GTriangleMesh@Gu@physx@@UEAAPEAXI@Z 00000001800d8d20 f i GuTriangleMesh.obj
 0001:000d7d20       ??_ETriangleMesh@Gu@physx@@UEAAPEAXI@Z 00000001800d8d20 f i GuTriangleMesh.obj
 0001:000d7d90       ?exportExtraData@TriangleMesh@Gu@physx@@UEAAXAEAVPxSerializationContext@3@@Z 00000001800d8d90 f   GuTriangleMesh.obj
 0001:000d7ed0       ?getLocalBounds@TriangleMesh@Gu@physx@@UEBA?AVPxBounds3@3@XZ 00000001800d8ed0 f i GuTriangleMesh.obj
 0001:000d7f60       ?getNbVertices@TriangleMesh@Gu@physx@@UEBAIXZ 00000001800d8f60 f i GuTriangleMesh.obj
 0001:000d7f70       ?getTriangleMaterialIndex@TriangleMesh@Gu@physx@@UEBAGI@Z 00000001800d8f70 f i GuTriangleMesh.obj
 0001:000d7f90       ?getTriangleMeshFlags@TriangleMesh@Gu@physx@@UEBA?AV?$PxFlags@W4Enum@PxTriangleMeshFlag@physx@@E@3@XZ 00000001800d8f90 f i GuTriangleMesh.obj
 0001:000d7fa0       ?getTrianglesRemap@TriangleMesh@Gu@physx@@UEBAPEBIXZ 00000001800d8fa0 f i GuTriangleMesh.obj
 0001:000d7fb0       ?getVertices@TriangleMesh@Gu@physx@@UEBAPEBVPxVec3@3@XZ 00000001800d8fb0 f i GuTriangleMesh.obj
 0001:000d7fc0       ?getVerticesForModification@TriangleMesh@Gu@physx@@UEAAPEAVPxVec3@3@XZ 00000001800d8fc0 f   GuTriangleMesh.obj
 0001:000d8000       ?importExtraData@TriangleMesh@Gu@physx@@QEAAXAEAVPxDeserializationContext@3@@Z 00000001800d9000 f   GuTriangleMesh.obj
 0001:000d8110       ?isKindOf@PxTriangleMesh@physx@@MEBA_NPEBD@Z 00000001800d9110 f i GuTriangleMesh.obj
 0001:000d8160       ?onRefCountZero@TriangleMesh@Gu@physx@@UEAAXXZ 00000001800d9160 f   GuTriangleMesh.obj
 0001:000d8200       ?refitBVH@TriangleMesh@Gu@physx@@UEAA?AVPxBounds3@3@XZ 00000001800d9200 f   GuTriangleMesh.obj
 0001:000d82d0       ??0BV4TriangleMesh@Gu@physx@@QEAA@AEAVGuMeshFactory@2@AEAVTriangleMeshData@12@@Z 00000001800d92d0 f   GuTriangleMeshBV4.obj
 0001:000d8364       ??_EBV4TriangleMesh@Gu@physx@@WBA@EAAPEAXI@Z 00000001800d9364 f i GuTriangleMeshBV4.obj
 0001:000d8370       ??_EBV4TriangleMesh@Gu@physx@@UEAAPEAXI@Z 00000001800d9370 f i GuTriangleMeshBV4.obj
 0001:000d8370       ??_GBV4TriangleMesh@Gu@physx@@UEAAPEAXI@Z 00000001800d9370 f i GuTriangleMeshBV4.obj
 0001:000d8400       ?createObject@BV4TriangleMesh@Gu@physx@@SAPEAVTriangleMesh@23@AEAPEAEAEAVPxDeserializationContext@3@@Z 00000001800d9400 f   GuTriangleMeshBV4.obj
 0001:000d84f0       ?exportExtraData@BV4TriangleMesh@Gu@physx@@UEAAXAEAVPxSerializationContext@3@@Z 00000001800d94f0 f   GuTriangleMeshBV4.obj
 0001:000d8530       ?getConcreteTypeName@BV4TriangleMesh@Gu@physx@@UEBAPEBDXZ 00000001800d9530 f i GuTriangleMeshBV4.obj
 0001:000d8540       ?getMidphaseID@BV4TriangleMesh@Gu@physx@@UEBA?AW4Enum@PxMeshMidPhase@3@XZ 00000001800d9540 f i GuTriangleMeshBV4.obj
 0001:000d8540       ?length@charNode@@UEBAHXZ  00000001800d9540 f i libvcruntime:undname.obj
 0001:000d8540       _get_startup_argv_mode     00000001800d9540 f i LIBCMT:argv_mode.obj
 0001:000d8540       DllMain                    00000001800d9540 f i LIBCMT:dll_dllmain_stub.obj
 0001:000d8540       ?raw_length@charNode@@UEBAHXZ 00000001800d9540 f i libvcruntime:undname.obj
 0001:000d8550       ??0RTreeTriangleMesh@Gu@physx@@QEAA@AEAVGuMeshFactory@2@AEAVTriangleMeshData@12@@Z 00000001800d9550 f   GuTriangleMeshRTree.obj
 0001:000d86c8       ??_ERTreeTriangleMesh@Gu@physx@@WBA@EAAPEAXI@Z 00000001800d96c8 f i GuTriangleMeshRTree.obj
 0001:000d86e0       ??_E?$RefitCallback@I@physx@@UEAAPEAXI@Z 00000001800d96e0 f i GuTriangleMeshRTree.obj
 0001:000d86e0       ??_E?$RefitCallback@G@physx@@UEAAPEAXI@Z 00000001800d96e0 f i GuTriangleMeshRTree.obj
 0001:000d86e0       ??_G?$RefitCallback@I@physx@@UEAAPEAXI@Z 00000001800d96e0 f i GuTriangleMeshRTree.obj
 0001:000d86e0       ??_G?$RefitCallback@G@physx@@UEAAPEAXI@Z 00000001800d96e0 f i GuTriangleMeshRTree.obj
 0001:000d8710       ??_GRTreeTriangleMesh@Gu@physx@@UEAAPEAXI@Z 00000001800d9710 f i GuTriangleMeshRTree.obj
 0001:000d8710       ??_ERTreeTriangleMesh@Gu@physx@@UEAAPEAXI@Z 00000001800d9710 f i GuTriangleMeshRTree.obj
 0001:000d87d0       ?createObject@RTreeTriangleMesh@Gu@physx@@SAPEAVTriangleMesh@23@AEAPEAEAEAVPxDeserializationContext@3@@Z 00000001800d97d0 f   GuTriangleMeshRTree.obj
 0001:000d8870       ?exportExtraData@RTreeTriangleMesh@Gu@physx@@UEAAXAEAVPxSerializationContext@3@@Z 00000001800d9870 f   GuTriangleMeshRTree.obj
 0001:000d88b0       ?getConcreteTypeName@RTreeTriangleMesh@Gu@physx@@UEBAPEBDXZ 00000001800d98b0 f i GuTriangleMeshRTree.obj
 0001:000d88c0       ?getMidphaseID@RTreeTriangleMesh@Gu@physx@@UEBA?AW4Enum@PxMeshMidPhase@3@XZ 00000001800d98c0 f i GuTriangleMeshRTree.obj
 0001:000d88d0       ?getVerticesForModification@RTreeTriangleMesh@Gu@physx@@UEAAPEAVPxVec3@3@XZ 00000001800d98d0 f   GuTriangleMeshRTree.obj
 0001:000d88e0       ?recomputeBounds@?$RefitCallback@G@physx@@UEAAXIAEAT__m128@@0@Z 00000001800d98e0 f i GuTriangleMeshRTree.obj
 0001:000d8c10       ?recomputeBounds@?$RefitCallback@I@physx@@UEAAXIAEAT__m128@@0@Z 00000001800d9c10 f i GuTriangleMeshRTree.obj
 0001:000d8f30       ?refitBVH@RTreeTriangleMesh@Gu@physx@@UEAA?AVPxBounds3@3@XZ 00000001800d9f30 f   GuTriangleMeshRTree.obj
 0001:000d9150       ??0BV32Tree@Gu@physx@@QEAA@PEAVSourceMesh@12@AEBVPxBounds3@2@@Z 00000001800da150 f   GuBV32.obj
 0001:000d9210       ??0BV32Tree@Gu@physx@@QEAA@XZ 00000001800da210 f   GuBV32.obj
 0001:000d9240       ??1BV32Tree@Gu@physx@@QEAA@XZ 00000001800da240 f   GuBV32.obj
 0001:000d9250       ?calculateLeafNode@BV32Tree@Gu@physx@@QEAAXAEAUBV32Data@23@@Z 00000001800da250 f   GuBV32.obj
 0001:000d9490       ?createSOAformatNode@BV32Tree@Gu@physx@@QEAAXAEAUBV32DataPacked@23@AEBUBV32Data@23@IAEAI2@Z 00000001800da490 f   GuBV32.obj
 0001:000d98e0       ?load@BV32Tree@Gu@physx@@QEAA_NAEAVPxInputStream@3@_N@Z 00000001800da8e0 f   GuBV32.obj
 0001:000d9b00       ?release@BV32Tree@Gu@physx@@QEAAXXZ 00000001800dab00 f   GuBV32.obj
 0001:000d9b90       ??0BV32Node@@QEAA@XZ       00000001800dab90 f i GuBV32Build.obj
 0001:000d9eb0       ?BuildBV32Ex@Gu@physx@@YA_NAEAVBV32Tree@12@AEAVSourceMesh@12@MI@Z 00000001800daeb0 f   GuBV32Build.obj
 0001:000dd670       ?pcmContactBoxBox@Gu@physx@@YA_NAEBVGeometryUnion@12@0AEBVPxTransform@2@1AEBUNarrowPhaseParams@12@AEAUCache@12@AEAVContactBuffer@12@PEAVRenderOutput@Cm@2@@Z 00000001800de670 f   GuPCMContactBoxBox.obj
 0001:000de480       ??$gjkPenetration@U?$RelativeConvex@VBoxV@Gu@physx@@@Gu@physx@@U?$LocalConvex@VConvexHullNoScaleV@Gu@physx@@@23@@Gu@physx@@YA?AW4GjkStatus@01@AEBU?$RelativeConvex@VBoxV@Gu@physx@@@01@AEBU?$LocalConvex@VConvexHullNoScaleV@Gu@physx@@@01@AEBT__m128@@2_NPEIAE4AEAEAEAUGjkOutput@01@@Z 00000001800df480 f i GuPCMContactBoxConvex.obj
 0001:000e0070       ?pcmContactBoxConvex@Gu@physx@@YA_NAEBVGeometryUnion@12@0AEBVPxTransform@2@1AEBUNarrowPhaseParams@12@AEAUCache@12@AEAVContactBuffer@12@PEAVRenderOutput@Cm@2@@Z 00000001800e1070 f   GuPCMContactBoxConvex.obj
 0001:000e0f00       ?support@?$LocalConvex@VConvexHullNoScaleV@Gu@physx@@@Gu@physx@@UEBA?AT__m128@@AEBT4@@Z 00000001800e1f00 f i GuPCMContactBoxConvex.obj
 0001:000e0f50       ?support@?$LocalConvex@VConvexHullNoScaleV@Gu@physx@@@Gu@physx@@UEBA?AT__m128@@AEBT4@AEAH@Z 00000001800e1f50 f i GuPCMContactBoxConvex.obj
 0001:000e0fb0       ?supportPoint@?$LocalConvex@VConvexHullNoScaleV@Gu@physx@@@Gu@physx@@UEBA?AT__m128@@H@Z 00000001800e1fb0 f i GuPCMContactBoxConvex.obj
 0001:000e0fe0       ?pcmContactCapsuleBox@Gu@physx@@YA_NAEBVGeometryUnion@12@0AEBVPxTransform@2@1AEBUNarrowPhaseParams@12@AEAUCache@12@AEAVContactBuffer@12@PEAVRenderOutput@Cm@2@@Z 00000001800e1fe0 f   GuPCMContactCapsuleBox.obj
 0001:000e1f40       ?pcmContactCapsuleCapsule@Gu@physx@@YA_NAEBVGeometryUnion@12@0AEBVPxTransform@2@1AEBUNarrowPhaseParams@12@AEAUCache@12@AEAVContactBuffer@12@PEAVRenderOutput@Cm@2@@Z 00000001800e2f40 f   GuPCMContactCapsuleCapsule.obj
 0001:000e27c0       ??$gjkPenetration@U?$LocalConvex@VCapsuleV@Gu@physx@@@Gu@physx@@U?$LocalConvex@VConvexHullNoScaleV@Gu@physx@@@23@@Gu@physx@@YA?AW4GjkStatus@01@AEBU?$LocalConvex@VCapsuleV@Gu@physx@@@01@AEBU?$LocalConvex@VConvexHullNoScaleV@Gu@physx@@@01@AEBT__m128@@2_NPEIAE4AEAEAEAUGjkOutput@01@@Z 00000001800e37c0 f i GuPCMContactCapsuleConvex.obj
 0001:000e3f20       ?pcmContactCapsuleConvex@Gu@physx@@YA_NAEBVGeometryUnion@12@0AEBVPxTransform@2@1AEBUNarrowPhaseParams@12@AEAUCache@12@AEAVContactBuffer@12@PEAVRenderOutput@Cm@2@@Z 00000001800e4f20 f   GuPCMContactCapsuleConvex.obj
 0001:000e5130       ??0PCMMeshContactGeneration@Gu@physx@@QEAA@AEBT__m128@@0AEBVPsTransformV@aos@shdfnd@2@1AEAVMultiplePersistentContactManifold@12@AEAVContactBuffer@12@PEAV?$InlineArray@I$0EEA@V?$ReflectionAllocator@I@shdfnd@physx@@@62@PEAVRenderOutput@Cm@2@@Z 00000001800e6130 f i GuPCMContactCapsuleHeightField.obj
 0001:000e5a40       ??_GPCMCapsuleVsHeightfieldContactGenerationCallback@physx@@UEAAPEAXI@Z 00000001800e6a40 f i GuPCMContactCapsuleHeightField.obj
 0001:000e5a40       ??_EPCMCapsuleVsHeightfieldContactGenerationCallback@physx@@UEAAPEAXI@Z 00000001800e6a40 f i GuPCMContactCapsuleHeightField.obj
 0001:000e5a70       ?onEvent@?$PCMHeightfieldContactGenerationCallback@UPCMCapsuleVsHeightfieldContactGenerationCallback@physx@@@Gu@physx@@UEAA_NIPEAI@Z 00000001800e6a70 f i GuPCMContactCapsuleHeightField.obj
 0001:000e6030       ?pcmContactCapsuleHeightField@Gu@physx@@YA_NAEBVGeometryUnion@12@0AEBVPxTransform@2@1AEBUNarrowPhaseParams@12@AEAUCache@12@AEAVContactBuffer@12@PEAVRenderOutput@Cm@2@@Z 00000001800e7030 f   GuPCMContactCapsuleHeightField.obj
 0001:000e6d50       ??$processTriangleCache@$0BA@@PCMCapsuleVsMeshContactGenerationCallback@physx@@QEAAXAEAU?$TriangleCache@$0BA@@Gu@1@@Z 00000001800e7d50 f i GuPCMContactCapsuleMesh.obj
 0001:000e6de0       ??_GPCMCapsuleVsMeshContactGenerationCallback@physx@@UEAAPEAXI@Z 00000001800e7de0 f i GuPCMContactCapsuleMesh.obj
 0001:000e6de0       ??_EPCMCapsuleVsMeshContactGenerationCallback@physx@@UEAAPEAXI@Z 00000001800e7de0 f i GuPCMContactCapsuleMesh.obj
 0001:000e6e10       ?pcmContactCapsuleMesh@Gu@physx@@YA_NAEBVGeometryUnion@12@0AEBVPxTransform@2@1AEBUNarrowPhaseParams@12@AEAUCache@12@AEAVContactBuffer@12@PEAVRenderOutput@Cm@2@@Z 00000001800e7e10 f   GuPCMContactCapsuleMesh.obj
 0001:000e7d20       ?processHit@?$PCMMeshContactGenerationCallback@UPCMCapsuleVsMeshContactGenerationCallback@physx@@@Gu@physx@@UEAA_NAEBUPxRaycastHit@3@AEBVPxVec3@3@11AEAMPEBI@Z 00000001800e8d20 f i GuPCMContactCapsuleMesh.obj
 0001:000e80e0       ??$sort@USortedTriangle@Gu@physx@@U?$Less@USortedTriangle@Gu@physx@@@shdfnd@3@V?$ReflectionAllocator@USortedTriangle@Gu@physx@@@53@@shdfnd@physx@@YAXPEAUSortedTriangle@Gu@1@IAEBU?$Less@USortedTriangle@Gu@physx@@@01@AEBV?$ReflectionAllocator@USortedTriangle@Gu@physx@@@01@I@Z 00000001800e90e0 f i GuPCMContactConvexCommon.obj
 0001:000e8570       ?addContactsToPatch@PCMConvexVsMeshContactGeneration@Gu@physx@@QEAAXAEBT__m128@@I@Z 00000001800e9570 f   GuPCMContactConvexCommon.obj
 0001:000e8e90       ?addToPatch@PCMSphereVsMeshContactGeneration@Gu@physx@@QEAAXAEBT__m128@@0T4@I@Z 00000001800e9e90 f   GuPCMContactConvexCommon.obj
 0001:000e9530       ?allocate@?$ReflectionAllocator@USortedTriangle@Gu@physx@@@shdfnd@physx@@QEAAPEAX_KPEBDH@Z 00000001800ea530 f i GuPCMContactConvexCommon.obj
 0001:000e95d0       ?doSupport@?$SupportLocalImpl@VTriangleV@Gu@physx@@@Gu@physx@@UEBA?AT__m128@@AEBT4@@Z 00000001800ea5d0 f i GuPCMContactConvexCommon.obj
 0001:000e9660       ?doSupport@?$SupportLocalImpl@VTriangleV@Gu@physx@@@Gu@physx@@UEBAXAEBT__m128@@AEAT4@1@Z 00000001800ea660 f i GuPCMContactConvexCommon.obj
 0001:000e96d0       ?generateContacts@PCMCapsuleVsMeshContactGeneration@Gu@physx@@SA_NAEBT__m128@@0000I000PEAVMeshPersistentContact@23@AEAI@Z 00000001800ea6d0 f   GuPCMContactConvexCommon.obj
 0001:000e9b50       ?generateEE@PCMCapsuleVsMeshContactGeneration@Gu@physx@@QEAAXAEBT__m128@@000I00PEAVMeshPersistentContact@23@AEAI@Z 00000001800eab50 f   GuPCMContactConvexCommon.obj
 0001:000e9dd0       ?generateEEMTD@PCMCapsuleVsMeshContactGeneration@Gu@physx@@SAXAEBT__m128@@000I00PEAVMeshPersistentContact@23@AEAI@Z 00000001800eadd0 f   GuPCMContactConvexCommon.obj
 0001:000ea020       ?generateLastContacts@PCMConvexVsMeshContactGeneration@Gu@physx@@QEAAXXZ 00000001800eb020 f   GuPCMContactConvexCommon.obj
 0001:000ea560       ?generateLastContacts@PCMSphereVsMeshContactGeneration@Gu@physx@@QEAAXXZ 00000001800eb560 f   GuPCMContactConvexCommon.obj
 0001:000ea9d0       ?growAndPushBack@?$Array@USortedTriangle@Gu@physx@@V?$InlineAllocator@$0IAA@V?$ReflectionAllocator@USortedTriangle@Gu@physx@@@shdfnd@physx@@@shdfnd@3@@shdfnd@physx@@IEAAAEAUSortedTriangle@Gu@3@AEBU453@@Z 00000001800eb9d0 f i GuPCMContactConvexCommon.obj
 0001:000eb050       ?pcmDistanceSegmentTriangleSquared@Gu@physx@@YA?AT__m128@@AEBT3@0000AEAT3@11@Z 00000001800ec050 f   GuPCMContactConvexCommon.obj
 0001:000eb990       ?populateVerts@?$SupportLocalImpl@VTriangleV@Gu@physx@@@Gu@physx@@UEBAXPEBEIPEBVPxVec3@3@PEAT__m128@@@Z 00000001800ec990 f i GuPCMContactConvexCommon.obj
 0001:000ebad0       ?processTriangle@PCMCapsuleVsMeshContactGeneration@Gu@physx@@QEAA_NPEBVPxVec3@3@IEPEBI@Z 00000001800ecad0 f   GuPCMContactConvexCommon.obj
 0001:000ec670       ?processTriangle@PCMCapsuleVsMeshContactGeneration@Gu@physx@@SA_NAEBVTriangleV@23@IAEBVCapsuleV@23@AEBT__m128@@EPEAVMeshPersistentContact@23@AEAI@Z 00000001800ed670 f   GuPCMContactConvexCommon.obj
 0001:000ec9b0       ?processTriangle@PCMConvexVsMeshContactGeneration@Gu@physx@@QEAA_NPEBVPxVec3@3@IEPEBI@Z 00000001800ed9b0 f   GuPCMContactConvexCommon.obj
 0001:000ecf20       ?processTriangle@PCMConvexVsMeshContactGeneration@Gu@physx@@SA_NAEBUPolygonalData@23@PEAVSupportLocal@23@PEBVPxVec3@3@IEAEBT__m128@@_NAEBVPsTransformV@aos@shdfnd@3@AEBVPsMatTransformV@9shdfnd@3@PEAVMeshPersistentContact@23@AEAI@Z 00000001800edf20 f   GuPCMContactConvexCommon.obj
 0001:000ed1a0       ?processTriangle@PCMSphereVsMeshContactGeneration@Gu@physx@@QEAA_NPEBVPxVec3@3@IEPEBI@Z 00000001800ee1a0 f   GuPCMContactConvexCommon.obj
 0001:000ed5b0       ??$gjkPenetration@U?$RelativeConvex@VConvexHullNoScaleV@Gu@physx@@@Gu@physx@@U?$LocalConvex@VConvexHullNoScaleV@Gu@physx@@@23@@Gu@physx@@YA?AW4GjkStatus@01@AEBU?$RelativeConvex@VConvexHullNoScaleV@Gu@physx@@@01@AEBU?$LocalConvex@VConvexHullNoScaleV@Gu@physx@@@01@AEBT__m128@@2_NPEIAE4AEAEAEAUGjkOutput@01@@Z 00000001800ee5b0 f i GuPCMContactConvexConvex.obj
 0001:000eeb20       ??$gjkPenetration@U?$RelativeConvex@VConvexHullNoScaleV@Gu@physx@@@Gu@physx@@U?$LocalConvex@VConvexHullV@Gu@physx@@@23@@Gu@physx@@YA?AW4GjkStatus@01@AEBU?$RelativeConvex@VConvexHullNoScaleV@Gu@physx@@@01@AEBU?$LocalConvex@VConvexHullV@Gu@physx@@@01@AEBT__m128@@2_NPEIAE4AEAEAEAUGjkOutput@01@@Z 00000001800efb20 f i GuPCMContactConvexConvex.obj
 0001:000f0100       ??$gjkPenetration@U?$RelativeConvex@VConvexHullV@Gu@physx@@@Gu@physx@@U?$LocalConvex@VConvexHullNoScaleV@Gu@physx@@@23@@Gu@physx@@YA?AW4GjkStatus@01@AEBU?$RelativeConvex@VConvexHullV@Gu@physx@@@01@AEBU?$LocalConvex@VConvexHullNoScaleV@Gu@physx@@@01@AEBT__m128@@2_NPEIAE4AEAEAEAUGjkOutput@01@@Z 00000001800f1100 f i GuPCMContactConvexConvex.obj
 0001:000f20d0       ?pcmContactConvexConvex@Gu@physx@@YA_NAEBVGeometryUnion@12@0AEBVPxTransform@2@1AEBUNarrowPhaseParams@12@AEAUCache@12@AEAVContactBuffer@12@PEAVRenderOutput@Cm@2@@Z 00000001800f30d0 f   GuPCMContactConvexConvex.obj
 0001:000f3240       ?support@?$RelativeConvex@VConvexHullNoScaleV@Gu@physx@@@Gu@physx@@UEBA?AT__m128@@AEBT4@@Z 00000001800f4240 f i GuPCMContactConvexConvex.obj
 0001:000f32f0       ?support@?$RelativeConvex@VConvexHullNoScaleV@Gu@physx@@@Gu@physx@@UEBA?AT__m128@@AEBT4@AEAH@Z 00000001800f42f0 f i GuPCMContactConvexConvex.obj
 0001:000f33b0       ?supportPoint@?$RelativeConvex@VConvexHullNoScaleV@Gu@physx@@@Gu@physx@@UEBA?AT__m128@@H@Z 00000001800f43b0 f i GuPCMContactConvexConvex.obj
 0001:000f3410       ??_EPCMConvexVsHeightfieldContactGenerationCallback@physx@@UEAAPEAXI@Z 00000001800f4410 f i GuPCMContactConvexHeightField.obj
 0001:000f3410       ??_GPCMConvexVsHeightfieldContactGenerationCallback@physx@@UEAAPEAXI@Z 00000001800f4410 f i GuPCMContactConvexHeightField.obj
 0001:000f3440       ?PCMContactConvexHeightfield@Gu@physx@@YA_NAEBUPolygonalData@12@PEAVSupportLocal@12@AEBT__m128@@AEBVPxBounds3@2@AEBVPxHeightFieldGeometry@2@AEBVPxTransform@2@5MAEAVContactBuffer@12@AEBVFastVertex2ShapeScaling@Cm@2@_NAEAVMultiplePersistentContactManifold@12@PEAVRenderOutput@Cm@2@@Z 00000001800f4440 f   GuPCMContactConvexHeightField.obj
 0001:000f3ef0       ?onEvent@?$PCMHeightfieldContactGenerationCallback@UPCMConvexVsHeightfieldContactGenerationCallback@physx@@@Gu@physx@@UEAA_NIPEAI@Z 00000001800f4ef0 f i GuPCMContactConvexHeightField.obj
 0001:000f44b0       ?pcmContactBoxHeightField@Gu@physx@@YA_NAEBVGeometryUnion@12@0AEBVPxTransform@2@1AEBUNarrowPhaseParams@12@AEAUCache@12@AEAVContactBuffer@12@PEAVRenderOutput@Cm@2@@Z 00000001800f54b0 f   GuPCMContactConvexHeightField.obj
 0001:000f4730       ?pcmContactConvexHeightField@Gu@physx@@YA_NAEBVGeometryUnion@12@0AEBVPxTransform@2@1AEBUNarrowPhaseParams@12@AEAUCache@12@AEAVContactBuffer@12@PEAVRenderOutput@Cm@2@@Z 00000001800f5730 f   GuPCMContactConvexHeightField.obj
 0001:000f4dd0       ??$processTriangleCache@$0BA@@PCMConvexVsMeshContactGenerationCallback@physx@@QEAAXAEAU?$TriangleCache@$0BA@@Gu@1@@Z 00000001800f5dd0 f i GuPCMContactConvexMesh.obj
 0001:000f4e60       ??_GPCMConvexVsMeshContactGenerationCallback@physx@@UEAAPEAXI@Z 00000001800f5e60 f i GuPCMContactConvexMesh.obj
 0001:000f4e60       ??_EPCMConvexVsMeshContactGenerationCallback@physx@@UEAAPEAXI@Z 00000001800f5e60 f i GuPCMContactConvexMesh.obj
 0001:000f4e90       ?PCMContactConvexMesh@Gu@physx@@YA_NAEBUPolygonalData@12@PEAVSupportLocal@12@AEBT__m128@@AEBVPxBounds3@2@AEBUPxTriangleMeshGeometryLL@2@AEBVPxTransform@2@5MAEAVContactBuffer@12@AEBVFastVertex2ShapeScaling@Cm@2@7_N8AEAVMultiplePersistentContactManifold@12@PEAVRenderOutput@Cm@2@@Z 00000001800f5e90 f   GuPCMContactConvexMesh.obj
 0001:000f5a40       ?pcmContactBoxMesh@Gu@physx@@YA_NAEBVGeometryUnion@12@0AEBVPxTransform@2@1AEBUNarrowPhaseParams@12@AEAUCache@12@AEAVContactBuffer@12@PEAVRenderOutput@Cm@2@@Z 00000001800f6a40 f   GuPCMContactConvexMesh.obj
 0001:000f5d60       ?pcmContactConvexMesh@Gu@physx@@YA_NAEBVGeometryUnion@12@0AEBVPxTransform@2@1AEBUNarrowPhaseParams@12@AEAUCache@12@AEAVContactBuffer@12@PEAVRenderOutput@Cm@2@@Z 00000001800f6d60 f   GuPCMContactConvexMesh.obj
 0001:000f6520       ?processHit@?$PCMMeshContactGenerationCallback@UPCMConvexVsMeshContactGenerationCallback@physx@@@Gu@physx@@UEAA_NAEBUPxRaycastHit@3@AEBVPxVec3@3@11AEAMPEBI@Z 00000001800f7520 f i GuPCMContactConvexMesh.obj
 0001:000f6950       ?addGJKEPAContacts@Gu@physx@@YA_NPEBUGjkConvex@12@0AEBVPsMatTransformV@aos@shdfnd@2@W4GjkStatus@12@PEAVPersistentContact@12@T__m128@@4AEAUGjkOutput@12@AEAVPersistentContactManifold@12@@Z 00000001800f7950 f   GuPCMContactGenBoxConvex.obj
 0001:000f6b50       ?buildPartialHull@Gu@physx@@YAXAEBUPolygonalData@12@PEAVSupportLocal@12@AEAVSeparatingAxes@12@AEBT__m128@@3@Z 00000001800f7b50 f   GuPCMContactGenBoxConvex.obj
 0001:000f6e10       ?computeMTD@Gu@physx@@YA_NAEAUPolygonalData@12@0PEAVSupportLocal@12@1AEAT__m128@@2@Z 00000001800f7e10 f   GuPCMContactGenBoxConvex.obj
 0001:000f7470       ?generateFullContactManifold@Gu@physx@@YA_NAEAUPolygonalData@12@0PEAVSupportLocal@12@1PEAVPersistentContact@12@AEAIAEBT__m128@@444MM_NPEAVRenderOutput@Cm@2@M@Z 00000001800f8470 f   GuPCMContactGenBoxConvex.obj
 0001:000f8ca0       ?generatedContacts@Gu@physx@@YAXAEAUPolygonalData@12@0AEBUHullPolygonData@12@1PEAVSupportLocal@12@2AEBVPsMatTransformV@aos@shdfnd@2@PEAVPersistentContact@12@AEAIAEBT__m128@@PEAVRenderOutput@Cm@2@@Z 00000001800f9ca0 f   GuPCMContactGenBoxConvex.obj
 0001:000fa3c0       ?computeMTD@Gu@physx@@YA_NAEBVCapsuleV@12@AEAUPolygonalData@12@PEAVSupportLocal@12@AEAT__m128@@3@Z 00000001800fb3c0 f   GuPCMContactGenSphereCapsule.obj
 0001:000fa4b0       ?generateCapsuleBoxFullContactManifold@Gu@physx@@YA_NAEBVCapsuleV@12@AEAUPolygonalData@12@PEAVSupportLocal@12@AEBVPsMatTransformV@aos@shdfnd@2@PEAVPersistentContact@12@AEAIAEBT__m128@@AEAT__m128@@6M_NMPEAVRenderOutput@Cm@2@@Z 00000001800fb4b0 f   GuPCMContactGenSphereCapsule.obj
 0001:000fad30       ?generateFullContactManifold@Gu@physx@@YA_NAEBVCapsuleV@12@AEAUPolygonalData@12@PEAVSupportLocal@12@AEBVPsMatTransformV@aos@shdfnd@2@PEAVPersistentContact@12@AEAIAEBT__m128@@AEAT__m128@@6M_NM@Z 00000001800fbd30 f   GuPCMContactGenSphereCapsule.obj
 0001:000fb630       ?generateSphereFullContactManifold@Gu@physx@@YA_NAEBVCapsuleV@12@AEAUPolygonalData@12@PEAVSupportLocal@12@PEAVPersistentContact@12@AEAIAEBT__m128@@AEAT7@_N@Z 00000001800fc630 f   GuPCMContactGenSphereCapsule.obj
 0001:000fba80       ?generatedCapsuleBoxFaceContacts@Gu@physx@@YAXAEBVCapsuleV@12@AEAUPolygonalData@12@AEBUHullPolygonData@12@PEAVSupportLocal@12@AEBVPsMatTransformV@aos@shdfnd@2@PEAVPersistentContact@12@AEAIAEBT__m128@@7@Z 00000001800fca80 f   GuPCMContactGenSphereCapsule.obj
 0001:000fc220       ?generatedContactsEEContacts@Gu@physx@@YAXAEBVCapsuleV@12@AEAUPolygonalData@12@AEBUHullPolygonData@12@PEAVSupportLocal@12@AEBVPsMatTransformV@aos@shdfnd@2@PEAVPersistentContact@12@AEAIAEBT__m128@@7@Z 00000001800fd220 f   GuPCMContactGenSphereCapsule.obj
 0001:000fce90       ?pcmContactPlaneBox@Gu@physx@@YA_NAEBVGeometryUnion@12@0AEBVPxTransform@2@1AEBUNarrowPhaseParams@12@AEAUCache@12@AEAVContactBuffer@12@PEAVRenderOutput@Cm@2@@Z 00000001800fde90 f   GuPCMContactPlaneBox.obj
 0001:000fda40       ?pcmContactPlaneCapsule@Gu@physx@@YA_NAEBVGeometryUnion@12@0AEBVPxTransform@2@1AEBUNarrowPhaseParams@12@AEAUCache@12@AEAVContactBuffer@12@PEAVRenderOutput@Cm@2@@Z 00000001800fea40 f   GuPCMContactPlaneCapsule.obj
 0001:000fe1e0       ?pcmContactPlaneConvex@Gu@physx@@YA_NAEBVGeometryUnion@12@0AEBVPxTransform@2@1AEBUNarrowPhaseParams@12@AEAUCache@12@AEAVContactBuffer@12@PEAVRenderOutput@Cm@2@@Z 00000001800ff1e0 f   GuPCMContactPlaneConvex.obj
 0001:000feb40       ?pcmContactSphereBox@Gu@physx@@YA_NAEBVGeometryUnion@12@0AEBVPxTransform@2@1AEBUNarrowPhaseParams@12@AEAUCache@12@AEAVContactBuffer@12@PEAVRenderOutput@Cm@2@@Z 00000001800ffb40 f   GuPCMContactSphereBox.obj
 0001:000fefb0       ?pcmContactSphereCapsule@Gu@physx@@YA_NAEBVGeometryUnion@12@0AEBVPxTransform@2@1AEBUNarrowPhaseParams@12@AEAUCache@12@AEAVContactBuffer@12@PEAVRenderOutput@Cm@2@@Z 00000001800fffb0 f   GuPCMContactSphereCapsule.obj
 0001:000ff410       ?pcmContactSphereConvex@Gu@physx@@YA_NAEBVGeometryUnion@12@0AEBVPxTransform@2@1AEBUNarrowPhaseParams@12@AEAUCache@12@AEAVContactBuffer@12@PEAVRenderOutput@Cm@2@@Z 0000000180100410 f   GuPCMContactSphereConvex.obj
 0001:001000f0       ??1?$Array@USortedTriangle@Gu@physx@@V?$InlineAllocator@$0IAA@V?$ReflectionAllocator@USortedTriangle@Gu@physx@@@shdfnd@physx@@@shdfnd@3@@shdfnd@physx@@QEAA@XZ 00000001801010f0 f i GuPCMContactSphereHeightField.obj
 0001:00100160       ??_EPCMSphereVsHeightfieldContactGenerationCallback@physx@@UEAAPEAXI@Z 0000000180101160 f i GuPCMContactSphereHeightField.obj
 0001:00100160       ??_GPCMSphereVsHeightfieldContactGenerationCallback@physx@@UEAAPEAXI@Z 0000000180101160 f i GuPCMContactSphereHeightField.obj
 0001:001001b0       ?onEvent@?$PCMHeightfieldContactGenerationCallback@UPCMSphereVsHeightfieldContactGenerationCallback@physx@@@Gu@physx@@UEAA_NIPEAI@Z 00000001801011b0 f i GuPCMContactSphereHeightField.obj
 0001:00100770       ?pcmContactSphereHeightField@Gu@physx@@YA_NAEBVGeometryUnion@12@0AEBVPxTransform@2@1AEBUNarrowPhaseParams@12@AEAUCache@12@AEAVContactBuffer@12@PEAVRenderOutput@Cm@2@@Z 0000000180101770 f   GuPCMContactSphereHeightField.obj
 0001:00101210       ??$processTriangleCache@$0BA@@PCMSphereVsMeshContactGenerationCallback@physx@@QEAAXAEAU?$TriangleCache@$0BA@@Gu@1@@Z 0000000180102210 f i GuPCMContactSphereMesh.obj
 0001:001012a0       ??_EPCMSphereVsMeshContactGenerationCallback@physx@@UEAAPEAXI@Z 00000001801022a0 f i GuPCMContactSphereMesh.obj
 0001:001012a0       ??_GPCMSphereVsMeshContactGenerationCallback@physx@@UEAAPEAXI@Z 00000001801022a0 f i GuPCMContactSphereMesh.obj
 0001:001012f0       ?pcmContactSphereMesh@Gu@physx@@YA_NAEBVGeometryUnion@12@0AEBVPxTransform@2@1AEBUNarrowPhaseParams@12@AEAUCache@12@AEAVContactBuffer@12@PEAVRenderOutput@Cm@2@@Z 00000001801022f0 f   GuPCMContactSphereMesh.obj
 0001:00101ee0       ?processHit@?$PCMMeshContactGenerationCallback@UPCMSphereVsMeshContactGenerationCallback@physx@@@Gu@physx@@UEAA_NAEBUPxRaycastHit@3@AEBVPxVec3@3@11AEAMPEBI@Z 0000000180102ee0 f i GuPCMContactSphereMesh.obj
 0001:001022a0       ?pcmContactSpherePlane@Gu@physx@@YA_NAEBVGeometryUnion@12@0AEBVPxTransform@2@1AEBUNarrowPhaseParams@12@AEAUCache@12@AEAVContactBuffer@12@PEAVRenderOutput@Cm@2@@Z 00000001801032a0 f   GuPCMContactSpherePlane.obj
 0001:00102430       ?pcmContactSphereSphere@Gu@physx@@YA_NAEBVGeometryUnion@12@0AEBVPxTransform@2@1AEBUNarrowPhaseParams@12@AEAUCache@12@AEAVContactBuffer@12@PEAVRenderOutput@Cm@2@@Z 0000000180103430 f   GuPCMContactSphereSphere.obj
 0001:00102510       ?getPCMConvexData@Gu@physx@@YAXAEBVConvexHullV@12@_NAEAUPolygonalData@12@@Z 0000000180103510 f   GuPCMShapeConvex.obj
 0001:00102670       ?getPCMConvexData@Gu@physx@@YA_NAEBVGeometryUnion@12@AEAVFastVertex2ShapeScaling@Cm@2@AEAVPxBounds3@2@AEAUPolygonalData@12@@Z 0000000180103670 f   GuPCMShapeConvex.obj
 0001:00102a30       ?getPolygonalData@PCMPolygonalBox@Gu@physx@@QEBAXPEIAUPolygonalData@23@@Z 0000000180103a30 f   GuPCMShapeConvex.obj
 0001:00102a80       ?generatePolyDataContactManifold@PCMConvexVsMeshContactGeneration@Gu@physx@@QEAA_NAEAVTriangleV@23@IIEPEAVMeshPersistentContact@23@AEAIAEBT__m128@@AEAT6@@Z 0000000180103a80 f   GuPCMTriangleContactGen.obj
 0001:00102ba0       ?generateTriangleFullContactManifold@PCMConvexVsMeshContactGeneration@Gu@physx@@QEAA_NAEAVTriangleV@23@IPEBIEAEBUPolygonalData@23@PEAV?$SupportLocalImpl@VTriangleV@Gu@physx@@@23@PEAVSupportLocal@23@PEAVMeshPersistentContact@23@AEAIAEBT__m128@@AEAT9@@Z 0000000180103ba0 f   GuPCMTriangleContactGen.obj
 0001:001034a0       ?generateTriangleFullContactManifold@PCMConvexVsMeshContactGeneration@Gu@physx@@SA_NAEAVTriangleV@23@IEAEBUPolygonalData@23@PEAV?$SupportLocalImpl@VTriangleV@Gu@physx@@@23@PEAVSupportLocal@23@PEAVMeshPersistentContact@23@AEAIAEBT__m128@@AEAT9@PEAVRenderOutput@Cm@3@@Z 00000001801044a0 f   GuPCMTriangleContactGen.obj
 0001:00105bc0       ?addBatchManifoldContacts2@PersistentContactManifold@Gu@physx@@QEAAXPEBVPersistentContact@23@I@Z 0000000180106bc0 f   GuPersistentContactManifold.obj
 0001:00105c30       ?addBatchManifoldContacts@PersistentContactManifold@Gu@physx@@QEAAXPEBVPersistentContact@23@IM@Z 0000000180106c30 f   GuPersistentContactManifold.obj
 0001:00105cb0       ?addBatchManifoldContactsCluster@PersistentContactManifold@Gu@physx@@QEAAXPEBVPersistentContact@23@I@Z 0000000180106cb0 f   GuPersistentContactManifold.obj
 0001:00105f30       ?addManifoldContactPoints@MultiplePersistentContactManifold@Gu@physx@@QEAAXPEAVMeshPersistentContact@23@IPEAPEAUPCMContactPatch@23@IAEBT__m128@@2E@Z 0000000180106f30 f   GuPersistentContactManifold.obj
 0001:00106340       ?addManifoldContactsToContactBuffer@MultiplePersistentContactManifold@Gu@physx@@QEAA_NAEAVContactBuffer@23@AEBVPsTransformV@aos@shdfnd@3@1AEBT__m128@@@Z 0000000180107340 f   GuPersistentContactManifold.obj
 0001:001065f0       ?addManifoldContactsToContactBuffer@MultiplePersistentContactManifold@Gu@physx@@QEAA_NAEAVContactBuffer@23@AEBVPsTransformV@aos@shdfnd@3@@Z 00000001801075f0 f   GuPersistentContactManifold.obj
 0001:00106860       ?addManifoldContactsToContactBuffer@PersistentContactManifold@Gu@physx@@QEAAXAEAVContactBuffer@23@AEBT__m128@@1AEBVPsTransformV@aos@shdfnd@3@11@Z 0000000180107860 f   GuPersistentContactManifold.obj
 0001:001069f0       ?addManifoldContactsToContactBuffer@PersistentContactManifold@Gu@physx@@QEAAXAEAVContactBuffer@23@AEBT__m128@@AEBVPsMatTransformV@aos@shdfnd@3@@Z 00000001801079f0 f   GuPersistentContactManifold.obj
 0001:00106a90       ?addManifoldContactsToContactBuffer@PersistentContactManifold@Gu@physx@@QEAAXAEAVContactBuffer@23@AEBT__m128@@AEBVPsTransformV@aos@shdfnd@3@1@Z 0000000180107a90 f   GuPersistentContactManifold.obj
 0001:00106bf0       ?addManifoldPoint2@PersistentContactManifold@Gu@physx@@QEAAIAEBT__m128@@000@Z 0000000180107bf0 f   GuPersistentContactManifold.obj
 0001:00106d20       ?addManifoldPoint@Gu@physx@@YAXPEAVPersistentContact@12@AEAVPersistentContactManifold@12@AEAUGjkOutput@12@AEBVPsMatTransformV@aos@shdfnd@2@T__m128@@@Z 0000000180107d20 f   GuPersistentContactManifold.obj
 0001:00106ed0       ?addManifoldPoint@PersistentContactManifold@Gu@physx@@QEAAIAEBT__m128@@000@Z 0000000180107ed0 f   GuPersistentContactManifold.obj
 0001:00107320       ?drawLine@MultiplePersistentContactManifold@Gu@physx@@SAXAEAVRenderOutput@Cm@3@AEBT__m128@@1I@Z 0000000180108320 f   GuPersistentContactManifold.obj
 0001:001073e0       ?drawLine@MultiplePersistentContactManifold@Gu@physx@@SAXAEAVRenderOutput@Cm@3@VPxVec3@3@1I@Z 00000001801083e0 f   GuPersistentContactManifold.obj
 0001:001074a0       ?drawManifold@MultiplePersistentContactManifold@Gu@physx@@QEAAXAEAVRenderOutput@Cm@3@AEBVPsTransformV@aos@shdfnd@3@1@Z 00000001801084a0 f   GuPersistentContactManifold.obj
 0001:00107c50       ?drawPoint@MultiplePersistentContactManifold@Gu@physx@@SAXAEAVRenderOutput@Cm@3@AEBT__m128@@MI@Z 0000000180108c50 f   GuPersistentContactManifold.obj
 0001:00107e30       ?drawPolygon@MultiplePersistentContactManifold@Gu@physx@@SAXAEAVRenderOutput@Cm@3@AEBVPsTransformV@aos@shdfnd@3@PEAT__m128@@II@Z 0000000180108e30 f   GuPersistentContactManifold.obj
 0001:001080a0       ?findRotationMatrixFromZAxis@Gu@physx@@YA?AUMat33V@aos@shdfnd@2@AEBT__m128@@@Z 00000001801090a0 f   GuPersistentContactManifold.obj
 0001:00108320       ?fromBuffer@MultiplePersistentContactManifold@Gu@physx@@QEAAXPEIAE@Z 0000000180109320 f   GuPersistentContactManifold.obj
 0001:00108470       ?reduceBatchContacts2@PersistentContactManifold@Gu@physx@@QEAAXPEBVPersistentContact@23@I@Z 0000000180109470 f   GuPersistentContactManifold.obj
 0001:00108670       ?reduceBatchContacts@PersistentContactManifold@Gu@physx@@QEAAXPEBVPersistentContact@23@IM@Z 0000000180109670 f   GuPersistentContactManifold.obj
 0001:00108b30       ?reduceBatchContactsCapsule@SinglePersistentContactManifold@Gu@physx@@QEAA?AT__m128@@PEBVMeshPersistentContact@23@IAEAUPCMContactPatch@23@@Z 0000000180109b30 f   GuPersistentContactManifold.obj
 0001:00108dc0       ?reduceBatchContactsCluster@PersistentContactManifold@Gu@physx@@QEAAXPEBVPersistentContact@23@I@Z 0000000180109dc0 f   GuPersistentContactManifold.obj
 0001:00109260       ?reduceBatchContactsConvex@SinglePersistentContactManifold@Gu@physx@@QEAA?AT__m128@@PEBVMeshPersistentContact@23@IAEAUPCMContactPatch@23@@Z 000000018010a260 f   GuPersistentContactManifold.obj
 0001:00109860       ?reduceContacts@SinglePersistentContactManifold@Gu@physx@@SAIPEAVMeshPersistentContact@23@I@Z 000000018010a860 f   GuPersistentContactManifold.obj
 0001:00109d70       ?reduceContactsForPCM@PersistentContactManifold@Gu@physx@@QEAAIAEBT__m128@@00@Z 000000018010ad70 f   GuPersistentContactManifold.obj
 0001:0010a310       ?refreshContactPoints@SinglePersistentContactManifold@Gu@physx@@QEAA?AT__m128@@AEBVPsMatTransformV@aos@shdfnd@3@AEBT4@1@Z 000000018010b310 f   GuPersistentContactManifold.obj
 0001:0010a460       ?replaceManifoldPoint@PersistentContactManifold@Gu@physx@@QEAA_NAEBT__m128@@000@Z 000000018010b460 f   GuPersistentContactManifold.obj
 0001:0010a530       ?sweepBoxBox@Gu@physx@@YA_NAEBVBox@12@0AEBVPxVec3@2@MV?$PxFlags@W4Enum@PxHitFlag@physx@@G@2@AEAUPxSweepHit@2@@Z 000000018010b530 f   GuSweepBoxBox.obj
 0001:0010bb30       ?sweepBoxSphere@Gu@physx@@YA_NAEBVBox@12@MAEBVPxVec3@2@1MAEAMAEAV42@V?$PxFlags@W4Enum@PxHitFlag@physx@@G@2@@Z 000000018010cb30 f   GuSweepBoxSphere.obj
 0001:0010c770       ?sweepBoxTriangle@Gu@physx@@YA_NAEBVPxTriangle@2@AEBVPxBounds3@2@AEBVPxVec3@2@2AEAV52@3AEAM_N@Z 000000018010d770 f   GuSweepBoxTriangle_FeatureBased.obj
 0001:0010de10       ?triBoxSweepTestBoxSpace@Gu@physx@@YAHAEBVPxTriangle@2@AEBVPxVec3@2@11MAEAM_N@Z 000000018010ee10 f   GuSweepBoxTriangle_SAT.obj
 0001:0010f720       ?sweepCapsuleBox@Gu@physx@@YA_NAEBVCapsule@12@AEBVPxTransform@2@AEBVPxVec3@2@2MAEAV52@AEAM3V?$PxFlags@W4Enum@PxHitFlag@physx@@G@2@@Z 0000000180110720 f   GuSweepCapsuleBox.obj
 0001:0010fa90       ?distancePointSegmentSquared@Gu@physx@@YAMAEBVSegment@12@AEBVPxVec3@2@PEAM@Z 0000000180110a90 f i GuSweepCapsuleCapsule.obj
 0001:0010fe10       ?sweepCapsuleCapsule@Gu@physx@@YA_NAEBVCapsule@12@0AEBVPxVec3@2@MAEAMAEAV42@3IAEAG@Z 0000000180110e10 f   GuSweepCapsuleCapsule.obj
 0001:00110be0       ?sweepCapsuleTriangles_Precise@Gu@physx@@YA_NIPEIBVPxTriangle@2@AEBVCapsule@12@AEBVPxVec3@2@MPEIBIAEAUPxSweepHit@2@AEAV52@V?$PxFlags@W4Enum@PxHitFlag@physx@@G@2@_NPEBVBoxPadded@12@@Z 0000000180111be0 f   GuSweepCapsuleTriangle.obj
 0001:00112c70       ?sweepSphereCapsule@Gu@physx@@YA_NAEBVSphere@12@AEBVCapsule@12@AEBVPxVec3@2@MAEAMAEAV52@4V?$PxFlags@W4Enum@PxHitFlag@physx@@G@2@@Z 0000000180113c70 f   GuSweepSphereCapsule.obj
 0001:00113310       ?sweepSphereSphere@Gu@physx@@YA_NAEBVPxVec3@2@M0M0AEAMAEAV32@@Z 0000000180114310 f   GuSweepSphereSphere.obj
 0001:001135a0       ?sweepSphereTriangles@Gu@physx@@YA_NIPEIBVPxTriangle@2@AEBVPxVec3@2@M1MPEIBIAEAUPxSweepHit@2@AEAV42@_N555@Z 00000001801145a0 f   GuSweepSphereTriangle.obj
 0001:00113e50       ?sweepSphereVSQuad@Gu@physx@@YA_NPEIBVPxVec3@2@AEBV32@1M1AEAM@Z 0000000180114e50 f   GuSweepSphereTriangle.obj
 0001:001152e0       ?sweepSphereVSTri@Gu@physx@@YA_NPEIBVPxVec3@2@AEBV32@1M1AEAMAEA_N_N@Z 00000001801162e0 f   GuSweepSphereTriangle.obj
 0001:001161d0       ??$gjk@U?$LocalConvex@VTriangleV@Gu@physx@@@Gu@physx@@U?$LocalConvex@VBoxV@Gu@physx@@@23@@Gu@physx@@YA?AW4GjkStatus@01@AEBU?$LocalConvex@VTriangleV@Gu@physx@@@01@AEBU?$LocalConvex@VBoxV@Gu@physx@@@01@AEBT__m128@@2AEAT5@333@Z 00000001801171d0 f i GuSweepTriangleUtils.obj
 0001:00116ec0       ?computeBoxTriImpactData@Gu@physx@@YAXAEAVPxVec3@2@0AEBV32@1AEBVPxTriangle@2@M@Z 0000000180117ec0 f   GuSweepTriangleUtils.obj
 0001:00117150       ?computeEdgeEdgeNormal@Gu@physx@@YAXAEAVPxVec3@2@AEBV32@1111M@Z 0000000180118150 f   GuSweepTriangleUtils.obj
 0001:00117410       ?computeSphereTriImpactData@Gu@physx@@YAXAEAVPxVec3@2@0AEBV32@1MAEBVPxTriangle@2@@Z 0000000180118410 f   GuSweepTriangleUtils.obj
 0001:001178ec       __imp_load_PxGetFoundation 00000001801188ec f   PhysXFoundation_64:PhysXFoundation_64.dll
 0001:001178f8       __tailMerge_physxfoundation_64_dll 00000001801188f8     PhysXFoundation_64:PhysXFoundation_64.dll
 0001:00117971       __imp_load_?getAllocator@shdfnd@physx@@YAAEAVPxAllocatorCallback@2@XZ 0000000180118971 f   PhysXFoundation_64:PhysXFoundation_64.dll
 0001:0011797d       __imp_load_?getInstance@Foundation@shdfnd@physx@@SAAEAV123@XZ 000000018011897d f   PhysXFoundation_64:PhysXFoundation_64.dll
 0001:00117989       __imp_load_?error@Foundation@shdfnd@physx@@QEAAXW4Enum@PxErrorCode@3@PEBDH1ZZ 0000000180118989 f   PhysXFoundation_64:PhysXFoundation_64.dll
 0001:00117995       __imp_load_?vsnprintf@shdfnd@physx@@YAHPEAD_KPEBD0@Z 0000000180118995 f   PhysXFoundation_64:PhysXFoundation_64.dll
 0001:001179a1       __imp_load_??0MutexImpl@shdfnd@physx@@QEAA@XZ 00000001801189a1 f   PhysXFoundation_64:PhysXFoundation_64.dll
 0001:001179ad       __imp_load_??1MutexImpl@shdfnd@physx@@QEAA@XZ 00000001801189ad f   PhysXFoundation_64:PhysXFoundation_64.dll
 0001:001179b9       __imp_load_?lock@MutexImpl@shdfnd@physx@@QEAAXXZ 00000001801189b9 f   PhysXFoundation_64:PhysXFoundation_64.dll
 0001:001179c5       __imp_load_?unlock@MutexImpl@shdfnd@physx@@QEAAXXZ 00000001801189c5 f   PhysXFoundation_64:PhysXFoundation_64.dll
 0001:001179d1       __imp_load_?getSize@MutexImpl@shdfnd@physx@@SAIXZ 00000001801189d1 f   PhysXFoundation_64:PhysXFoundation_64.dll
 0001:001179dd       __imp_load_?atomicDecrement@shdfnd@physx@@YAHPECH@Z 00000001801189dd f   PhysXFoundation_64:PhysXFoundation_64.dll
 0001:001179e9       __imp_load_?PxTransformFromSegment@physx@@YA?AVPxTransform@1@AEBVPxVec3@1@0PEAM@Z 00000001801189e9 f   PhysXFoundation_64:PhysXFoundation_64.dll
 0001:001179f5       __imp_load_?optimizeBoundingBox@shdfnd@physx@@YA?AVPxVec3@2@AEAVPxMat33@2@@Z 00000001801189f5 f   PhysXFoundation_64:PhysXFoundation_64.dll
 0001:00117a01       __imp_load_?allocate@TempAllocator@shdfnd@physx@@QEAAPEAX_KPEBDH@Z 0000000180118a01 f   PhysXFoundation_64:PhysXFoundation_64.dll
 0001:00117a0d       __imp_load_?deallocate@TempAllocator@shdfnd@physx@@QEAAXPEAX@Z 0000000180118a0d f   PhysXFoundation_64:PhysXFoundation_64.dll
 0001:00117a19       __imp_load_?atomicIncrement@shdfnd@physx@@YAHPECH@Z 0000000180118a19 f   PhysXFoundation_64:PhysXFoundation_64.dll
 0001:00117a28       ?DloadAcquireSectionWriteAccess@@YAXXZ 0000000180118a28 f i Delayimp:delayhlp.obj
 0001:00117ad4       ?DloadGetSRWLockFunctionPointers@@YAEXZ 0000000180118ad4 f i Delayimp:delayhlp.obj
 0001:00117b70       ?DloadMakePermanentImageCommit@@YAXPEAX_K@Z 0000000180118b70 f i Delayimp:delayhlp.obj
 0001:00117c08       ?DloadObtainSection@@YAPEAXPEAK0@Z 0000000180118c08 f i Delayimp:delayhlp.obj
 0001:00117ca4       ?DloadProtectSection@@YAXKPEAK@Z 0000000180118ca4 f i Delayimp:delayhlp.obj
 0001:00117d34       ?DloadReleaseSectionWriteAccess@@YAXXZ 0000000180118d34 f i Delayimp:delayhlp.obj
 0001:00117dc8       __delayLoadHelper2         0000000180118dc8 f   Delayimp:delayhlp.obj
 0001:0011809c       ??_V@YAXPEAX@Z             000000018011909c f   LIBCMT:delete_array.obj
 0001:0011809c       ??3@YAXPEAX_K@Z            000000018011909c f   LIBCMT:delete_scalar_size.obj
 0001:001180a4       ??_Etype_info@@UEAAPEAXI@Z 00000001801190a4 f i LIBCMT:std_type_info_static.obj
 0001:001180a4       ??_Gtype_info@@UEAAPEAXI@Z 00000001801190a4 f i LIBCMT:std_type_info_static.obj
 0001:001180d0       ?__scrt_initialize_type_info@@YAXXZ 00000001801190d0 f   LIBCMT:tncleanup.obj
 0001:001180e0       ?__scrt_uninitialize_type_info@@YAXXZ 00000001801190e0 f   LIBCMT:tncleanup.obj
 0001:00118100       __chkstk                   0000000180119100 f   LIBCMT:chkstk.obj
 0001:00118100       _alloca_probe              0000000180119100 f   LIBCMT:chkstk.obj
 0001:00118150       __vdecl_sinf4              0000000180119150 f   LIBCMT:svml_ssinf4_dispatch.obj
 0001:00118170       __libm_sse2_sincosf_       0000000180119170 f   LIBCMT:svml_ssinf4_dispatch.obj
 0001:001181b3       __libm_sse2_sincosf4_      00000001801191b3 f   LIBCMT:svml_ssinf4_dispatch.obj
 0001:001181c0       ??3@YAXPEAX@Z              00000001801191c0 f   LIBCMT:delete_scalar.obj
 0001:001184e8       _DllMainCRTStartup         00000001801194e8 f   LIBCMT:dll_dllmain.obj
 0001:00118528       __isa_available_init       0000000180119528 f   LIBCMT:cpu_disp.obj
 0001:001186d0       __sse2_sinf4@@16           00000001801196d0 f   LIBCMT:svml_ssinf4_sse2.obj
 0001:00119010       __sse4_sinf4@@16           000000018011a010 f   LIBCMT:svml_ssinf4_sse4.obj
 0001:00119784       __security_init_cookie     000000018011a784 f   LIBCMT:gs_support.obj
 0001:00119830       __local_stdio_printf_options 000000018011a830 f i LIBCMT:default_local_stdio_options.obj
 0001:00119838       __local_stdio_scanf_options 000000018011a838 f i LIBCMT:default_local_stdio_options.obj
 0001:00119840       __scrt_initialize_default_local_stdio_options 000000018011a840 f   LIBCMT:default_local_stdio_options.obj
 0001:0011985c       __scrt_acquire_startup_lock 000000018011a85c f   LIBCMT:utility.obj
 0001:00119898       __scrt_dllmain_after_initialize_c 000000018011a898 f   LIBCMT:utility.obj
 0001:001198cc       __scrt_dllmain_before_initialize_c 000000018011a8cc f   LIBCMT:utility.obj
 0001:001198e4       __scrt_dllmain_crt_thread_attach 000000018011a8e4 f   LIBCMT:utility.obj
 0001:0011990c       __scrt_dllmain_crt_thread_detach 000000018011a90c f   LIBCMT:utility.obj
 0001:00119924       __scrt_dllmain_exception_filter 000000018011a924 f   LIBCMT:utility.obj
 0001:00119984       __scrt_dllmain_uninitialize_c 000000018011a984 f   LIBCMT:utility.obj
 0001:001199b4       __scrt_dllmain_uninitialize_critical 000000018011a9b4 f   LIBCMT:utility.obj
 0001:001199c8       __scrt_initialize_crt      000000018011a9c8 f   LIBCMT:utility.obj
 0001:00119a14       __scrt_initialize_onexit_tables 000000018011aa14 f   LIBCMT:utility.obj
 0001:00119aa0       __scrt_is_nonwritable_in_current_image 000000018011aaa0 f   LIBCMT:utility.obj
 0001:00119b38       __scrt_release_startup_lock 000000018011ab38 f   LIBCMT:utility.obj
 0001:00119b5c       __scrt_uninitialize_crt    000000018011ab5c f   LIBCMT:utility.obj
 0001:00119b88       __scrt_get_dyn_tls_init_callback 000000018011ab88 f   LIBCMT:dyn_tls_init.obj
 0001:00119b90       __crt_debugger_hook        000000018011ab90 f   LIBCMT:utility_desktop.obj
 0001:00119b98       __scrt_fastfail            000000018011ab98 f   LIBCMT:utility_desktop.obj
 0001:00119ce4       _RTC_Initialize            000000018011ace4 f   LIBCMT:initsect.obj
 0001:00119d20       _RTC_Terminate             000000018011ad20 f   LIBCMT:initsect.obj
 0001:00119d60       __common_ssin_cout_rare    000000018011ad60 f   LIBCMT:svml_s_sin_cout.obj
 0001:00119dd0       __scrt_is_ucrt_dll_in_use  000000018011add0 f   LIBCMT:ucrt_detection.obj
 0001:00119ddc       _get_purecall_handler      000000018011addc f   libvcruntime:purevirt.obj
 0001:00119de8       _purecall                  000000018011ade8 f   libvcruntime:purevirt.obj
 0001:00119e0c       __std_type_info_compare    000000018011ae0c f   libvcruntime:std_type_info.obj
 0001:00119e34       __std_type_info_destroy_list 000000018011ae34 f   libvcruntime:std_type_info.obj
 0001:00119e60       __std_type_info_name       000000018011ae60 f   libvcruntime:std_type_info.obj
 0001:00119f90       memcpy_repmovs             000000018011af90 f   libvcruntime:memcpy.obj
 0001:00119fb0       memmove                    000000018011afb0 f   libvcruntime:memcpy.obj
 0001:00119fb0       memcpy                     000000018011afb0 f   libvcruntime:memcpy.obj
 0001:0011a640       memset_repmovs             000000018011b640 f   libvcruntime:memset.obj
 0001:0011a660       memset                     000000018011b660 f   libvcruntime:memset.obj
 0001:0011a7f0       strstr                     000000018011b7f0 f   libvcruntime:strstr.obj
 0001:0011a9ec       __C_specific_handler       000000018011b9ec f   libvcruntime:riscchandler.obj
 0001:0011abf8       __vcrt_initialize          000000018011bbf8 f   libvcruntime:initialization.obj
 0001:0011ac20       __vcrt_thread_attach       000000018011bc20 f   libvcruntime:initialization.obj
 0001:0011ac34       __vcrt_thread_detach       000000018011bc34 f   libvcruntime:initialization.obj
 0001:0011ac48       __vcrt_uninitialize        000000018011bc48 f   libvcruntime:initialization.obj
 0001:0011ac64       __vcrt_uninitialize_critical 000000018011bc64 f   libvcruntime:initialization.obj
 0001:0011ac74       __DestructExceptionObject  000000018011bc74 f   libvcruntime:ehhelpers.obj
 0001:0011ace4       ?_CallMemberFunction0@@YAXQEAX0@Z 000000018011bce4 f i libvcruntime:ehhelpers.obj
 0001:0011ace8       _IsExceptionObjectToBeDestroyed 000000018011bce8 f   libvcruntime:ehhelpers.obj
 0001:0011ad18       __AdjustPointer            000000018011bd18 f   libvcruntime:ehhelpers.obj
 0001:0011ad3c       __FrameUnwindFilter        000000018011bd3c f   libvcruntime:ehhelpers.obj
 0001:0011ada4       __std_terminate            000000018011bda4 f   libvcruntime:ehhelpers.obj
 0001:0011adb0       ??$?0$00@DName@@QEAA@PEBDU?$StringLifeSelector@$00@@@Z 000000018011bdb0 f i libvcruntime:undname.obj
 0001:0011adf0       ??$?0$01@DName@@QEAA@PEBDU?$StringLifeSelector@$01@@@Z 000000018011bdf0 f i libvcruntime:undname.obj
 0001:0011adf0       ??$?0$0A@@DName@@QEAA@PEBDU?$StringLifeSelector@$0A@@@@Z 000000018011bdf0 f i libvcruntime:undname.obj
 0001:0011ae30       ??$?0$0A@@pcharNode@@QEAA@PEBDHU?$StringLifeSelector@$0A@@@@Z 000000018011be30 f i libvcruntime:undname.obj
 0001:0011ae30       ??$?0$01@pcharNode@@QEAA@PEBDHU?$StringLifeSelector@$01@@@Z 000000018011be30 f i libvcruntime:undname.obj
 0001:0011aea4       ??$append@VpcharNode@@@DName@@AEAAXPEBVpcharNode@@@Z 000000018011bea4 f i libvcruntime:undname.obj
 0001:0011aea4       ??$append@VcharNode@@@DName@@AEAAXPEBVcharNode@@@Z 000000018011bea4 f i libvcruntime:undname.obj
 0001:0011aea4       ??$append@VDNameStatusNode@@@DName@@AEAAXPEBVDNameStatusNode@@@Z 000000018011bea4 f i libvcruntime:undname.obj
 0001:0011aea4       ??$append@VDNameNode@@@DName@@AEAAXPEBVDNameNode@@@Z 000000018011bea4 f i libvcruntime:undname.obj
 0001:0011af08       ??$doPchar@$00@DName@@AEAAXPEBDH@Z 000000018011bf08 f i libvcruntime:undname.obj
 0001:0011afac       ??$doPchar@$0A@@DName@@AEAAXPEBDH@Z 000000018011bfac f i libvcruntime:undname.obj
 0001:0011afac       ??$doPchar@$01@DName@@AEAAXPEBDH@Z 000000018011bfac f i libvcruntime:undname.obj
 0001:0011b044       ??0DName@@QEAA@AEAPEBDD@Z  000000018011c044 f   libvcruntime:undname.obj
 0001:0011b0f4       ??0DName@@QEAA@AEBUStringLiteral@@@Z 000000018011c0f4 f   libvcruntime:undname.obj
 0001:0011b120       ??0DName@@QEAA@PEAV0@@Z    000000018011c120 f   libvcruntime:undname.obj
 0001:0011b1a4       ??0DName@@QEAA@_J@Z        000000018011c1a4 f   libvcruntime:undname.obj
 0001:0011b24c       ??0DName@@QEAA@_K@Z        000000018011c24c f   libvcruntime:undname.obj
 0001:0011b2dc       ??2@YAPEAX_KAEAV_HeapManager@@H@Z 000000018011c2dc f   libvcruntime:undname.obj
 0001:0011b308       ??AReplicator@@QEBA?AVDName@@H@Z 000000018011c308 f   libvcruntime:undname.obj
 0001:0011b348       ??HDName@@QEBA?AV0@AEBUStringLiteral@@@Z 000000018011c348 f   libvcruntime:undname.obj
 0001:0011b374       ??HDName@@QEBA?AV0@AEBV0@@Z 000000018011c374 f   libvcruntime:undname.obj
 0001:0011b3a0       ??HDName@@QEBA?AV0@D@Z     000000018011c3a0 f   libvcruntime:undname.obj
 0001:0011b3cc       ??HDName@@QEBA?AV0@W4DNameStatus@@@Z 000000018011c3cc f   libvcruntime:undname.obj
 0001:0011b3f8       ??YDName@@QEAAAEAV0@AEBUStringLiteral@@@Z 000000018011c3f8 f   libvcruntime:undname.obj
 0001:0011b478       ??YDName@@QEAAAEAV0@AEBV0@@Z 000000018011c478 f   libvcruntime:undname.obj
 0001:0011b52c       ??YDName@@QEAAAEAV0@D@Z    000000018011c52c f   libvcruntime:undname.obj
 0001:0011b598       ??YDName@@QEAAAEAV0@W4DNameStatus@@@Z 000000018011c598 f   libvcruntime:undname.obj
 0001:0011b604       ??YReplicator@@QEAAAEAV0@AEBVDName@@@Z 000000018011c604 f   libvcruntime:undname.obj
 0001:0011b65c       ?UScore@UnDecorator@@SA?AUStringLiteral@@W4Tokens@@@Z 000000018011c65c f   libvcruntime:undname.obj
 0001:0011b6a8       ?composeDeclaration@UnDecorator@@CA?AVDName@@AEBV2@@Z 000000018011c6a8 f i libvcruntime:undname.obj
 0001:0011c550       ?doPchar@DName@@AEAAXD@Z   000000018011d550 f   libvcruntime:undname.obj
 0001:0011c5a0       ?getAddressOf@UnDecorator@@CA?AVDName@@XZ 000000018011d5a0 f   libvcruntime:undname.obj
 0001:0011c630       ?getArgumentList@UnDecorator@@CA?AVDName@@XZ 000000018011d630 f   libvcruntime:undname.obj
 0001:0011c7c4       ?getArgumentTypes@UnDecorator@@CA?AVDName@@XZ 000000018011d7c4 f   libvcruntime:undname.obj
 0001:0011c920       ?getArrayAccess@UnDecorator@@CA?AVDName@@XZ 000000018011d920 f   libvcruntime:undname.obj
 0001:0011c9bc       ?getArrayObject@UnDecorator@@CA?AVDName@@XZ 000000018011d9bc f   libvcruntime:undname.obj
 0001:0011ca84       ?getArrayType@UnDecorator@@CA?AVDName@@AEBV2@@Z 000000018011da84 f i libvcruntime:undname.obj
 0001:0011cccc       ?getBasedType@UnDecorator@@CA?AVDName@@XZ 000000018011dccc f   libvcruntime:undname.obj
 0001:0011cdc4       ?getBasicDataType@UnDecorator@@CA?AVDName@@AEBV2@@Z 000000018011ddc4 f   libvcruntime:undname.obj
 0001:0011d374       ?getCallingConvention@UnDecorator@@CA?AVDName@@XZ 000000018011e374 f   libvcruntime:undname.obj
 0001:0011d4b4       ?getDataIndirectType@UnDecorator@@CA?AVDName@@AEBV2@W4IndirectionKind@@0H@Z 000000018011e4b4 f   libvcruntime:undname.obj
 0001:0011dd4c       ?getDataType@UnDecorator@@CA?AVDName@@PEAV2@@Z 000000018011ed4c f   libvcruntime:undname.obj
 0001:0011de60       ?getDecoratedName@UnDecorator@@CA?AVDName@@XZ 000000018011ee60 f   libvcruntime:undname.obj
 0001:0011e144       ?getDimension@UnDecorator@@CA?AVDName@@_N@Z 000000018011f144 f   libvcruntime:undname.obj
 0001:0011e290       ?getDispatchTarget@UnDecorator@@CA?AVDName@@XZ 000000018011f290 f   libvcruntime:undname.obj
 0001:0011e2dc       ?getECSUDataType@UnDecorator@@CA?AVDName@@XZ 000000018011f2dc f   libvcruntime:undname.obj
 0001:0011e4bc       ?getEnumType@UnDecorator@@CA?AVDName@@XZ 000000018011f4bc f i libvcruntime:undname.obj
 0001:0011e5ec       ?getExtendedDataIndirectType@UnDecorator@@CA?AVDName@@AEAW4IndirectionKind@@AEA_NH@Z 000000018011f5ec f   libvcruntime:undname.obj
 0001:0011e7f4       ?getExternalDataType@UnDecorator@@CA?AVDName@@AEBV2@@Z 000000018011f7f4 f i libvcruntime:undname.obj
 0001:0011e8b4       ?getFloatingPoint@UnDecorator@@CA?AVDName@@H@Z 000000018011f8b4 f   libvcruntime:undname.obj
 0001:0011e9dc       ?getFunctionIndirectType@UnDecorator@@CA?AVDName@@AEBV2@@Z 000000018011f9dc f   libvcruntime:undname.obj
 0001:0011ef14       ?getLastChar@DNameStatusNode@@UEBADXZ 000000018011ff14 f i libvcruntime:undname.obj
 0001:0011ef20       ?getLastChar@charNode@@UEBADXZ 000000018011ff20 f i libvcruntime:undname.obj
 0001:0011ef24       ?getLastChar@pDNameNode@@UEBADXZ 000000018011ff24 f i libvcruntime:undname.obj
 0001:0011ef50       ?getLastChar@pairNode@@UEBADXZ 000000018011ff50 f i libvcruntime:undname.obj
 0001:0011ef88       ?getLastChar@pcharNode@@UEBADXZ 000000018011ff88 f i libvcruntime:undname.obj
 0001:0011ef9c       ?getLexicalFrame@UnDecorator@@CA?AVDName@@XZ 000000018011ff9c f i libvcruntime:undname.obj
 0001:0011f000       ?getMemberAccess@UnDecorator@@CA?AVDName@@XZ 0000000180120000 f   libvcruntime:undname.obj
 0001:0011f094       ?getMemoryWithBuffer@_HeapManager@@QEAAPEAX_K@Z 0000000180120094 f   libvcruntime:undname.obj
 0001:0011f124       ?getNoexcept@UnDecorator@@CA?AVDName@@XZ 0000000180120124 f   libvcruntime:undname.obj
 0001:0011f188       ?getNumberOfDimensions@UnDecorator@@CAHXZ 0000000180120188 f   libvcruntime:undname.obj
 0001:0011f1fc       ?getOperatorName@UnDecorator@@CA?AVDName@@_NPEA_N@Z 00000001801201fc f i libvcruntime:undname.obj
 0001:0011fbf0       ?getPointerToMember@UnDecorator@@CA?AVDName@@XZ 0000000180120bf0 f   libvcruntime:undname.obj
 0001:0011fce8       ?getPrimaryDataType@UnDecorator@@CA?AVDName@@AEBV2@@Z 0000000180120ce8 f   libvcruntime:undname.obj
 0001:0011ff9c       ?getPtrRefDataType@UnDecorator@@CA?AVDName@@AEBV2@H@Z 0000000180120f9c f   libvcruntime:undname.obj
 0001:00120168       ?getPtrRefType@UnDecorator@@CA?AVDName@@AEBV2@0W4IndirectionKind@@@Z 0000000180121168 f   libvcruntime:undname.obj
 0001:00120340       ?getRestrictionSpec@UnDecorator@@CA?AVDName@@XZ 0000000180121340 f   libvcruntime:undname.obj
 0001:0012050c       ?getReturnType@UnDecorator@@CA?AVDName@@PEAV2@@Z 000000018012150c f   libvcruntime:undname.obj
 0001:00120540       ?getScope@UnDecorator@@CA?AVDName@@XZ 0000000180121540 f   libvcruntime:undname.obj
 0001:001209f4       ?getScopedName@UnDecorator@@CA?AVDName@@XZ 00000001801219f4 f   libvcruntime:undname.obj
 0001:00120b30       ?getSignedDimension@UnDecorator@@CA?AVDName@@XZ 0000000180121b30 f   libvcruntime:undname.obj
 0001:00120bb8       ?getString@DNameStatusNode@@UEBAPEADPEAD0@Z 0000000180121bb8 f i libvcruntime:undname.obj
 0001:00120c00       ?getString@charNode@@UEBAPEADPEAD0@Z 0000000180121c00 f i libvcruntime:undname.obj
 0001:00120c14       ?getString@pDNameNode@@UEBAPEADPEAD0@Z 0000000180121c14 f i libvcruntime:undname.obj
 0001:00120c44       ?getString@pairNode@@UEBAPEADPEAD0@Z 0000000180121c44 f i libvcruntime:undname.obj
 0001:00120c90       ?getString@pcharNode@@UEBAPEADPEAD0@Z 0000000180121c90 f i libvcruntime:undname.obj
 0001:00120cc8       ?getStringEncoding@UnDecorator@@CA?AVDName@@W4PrefixKind@@H@Z 0000000180121cc8 f   libvcruntime:undname.obj
 0001:00120dac       ?getStringObject@UnDecorator@@CA?AVDName@@XZ 0000000180121dac f   libvcruntime:undname.obj
 0001:00120e14       ?getSymbolName@UnDecorator@@CA?AVDName@@XZ 0000000180121e14 f i libvcruntime:undname.obj
 0001:00120e60       ?getTemplateArgumentList@UnDecorator@@CA?AVDName@@XZ 0000000180121e60 f   libvcruntime:undname.obj
 0001:001210d4       ?getTemplateName@UnDecorator@@CA?AVDName@@_N@Z 00000001801220d4 f   libvcruntime:undname.obj
 0001:00121368       ?getTemplateNonTypeArgument@UnDecorator@@CA?AVDName@@XZ 0000000180122368 f   libvcruntime:undname.obj
 0001:0012189c       ?getTemplateTypeArgument@UnDecorator@@CA?AVDName@@XZ 000000018012289c f   libvcruntime:undname.obj
 0001:00121a04       ?getThrowTypes@UnDecorator@@CA?AVDName@@XZ 0000000180122a04 f   libvcruntime:undname.obj
 0001:00121a28       ?getTypeEncoding@UnDecorator@@CAHXZ 0000000180122a28 f i libvcruntime:undname.obj
 0001:00121db8       ?getUndecoratedName@UnDecorator@@QEAAPEADPEADH@Z 0000000180122db8 f i libvcruntime:undname.obj
 0001:00121f0c       ?getUnionObject@UnDecorator@@CA?AVDName@@XZ 0000000180122f0c f   libvcruntime:undname.obj
 0001:00121fe4       ?getVCallThunkType@UnDecorator@@CA?AVDName@@XZ 0000000180122fe4 f i libvcruntime:undname.obj
 0001:0012205c       ?getValue@UnDecorator@@CA?AV?$optional@_K@std@@XZ 000000018012305c f   libvcruntime:undname.obj
 0001:001220d0       ?getValueObject@UnDecorator@@CA?AVDName@@XZ 00000001801230d0 f   libvcruntime:undname.obj
 0001:00122228       ?getVdispMapType@UnDecorator@@CA?AVDName@@AEBV2@@Z 0000000180123228 f i libvcruntime:undname.obj
 0001:001222a4       ?getVfTableType@UnDecorator@@CA?AVDName@@AEBV2@@Z 00000001801232a4 f i libvcruntime:undname.obj
 0001:001224ac       ?getZName@UnDecorator@@CA?AVDName@@_N0@Z 00000001801234ac f   libvcruntime:undname.obj
 0001:00122794       ?length@DNameStatusNode@@UEBAHXZ 0000000180123794 f i libvcruntime:undname.obj
 0001:00122794       ?raw_length@DNameStatusNode@@UEBAHXZ 0000000180123794 f i libvcruntime:undname.obj
 0001:00122798       ?length@pDNameNode@@UEBAHXZ 0000000180123798 f i libvcruntime:undname.obj
 0001:001227c0       ?length@pairNode@@UEBAHXZ  00000001801237c0 f i libvcruntime:undname.obj
 0001:00122808       ?parseDecoratedName@UnDecorator@@CA?AVDName@@XZ 0000000180123808 f   libvcruntime:undname.obj
 0001:0012291c       ?raw_length@pDNameNode@@UEBAHXZ 000000018012391c f i libvcruntime:undname.obj
 0001:00122920       __unDName                  0000000180123920 f   libvcruntime:undname.obj
 0001:00122948       __unDNameEx                0000000180123948 f   libvcruntime:undname.obj
 0001:00122a7c       sprintf_s                  0000000180123a7c f i libvcruntime:undname.obj
 0001:00122ae0       _NLG_Notify                0000000180123ae0 f   libvcruntime:notify.obj
 0001:00122b00       __NLG_Dispatch2            0000000180123b00 f   libvcruntime:notify.obj
 0001:00122b10       __NLG_Return2              0000000180123b10 f   libvcruntime:notify.obj
 0001:00122b14       __except_validate_context_record 0000000180123b14 f   libvcruntime:jbcxrval.obj
 0001:00122b4c       __vcrt_freefls             0000000180123b4c f   libvcruntime:per_thread_data.obj
 0001:00122b6c       __vcrt_freeptd             0000000180123b6c f   libvcruntime:per_thread_data.obj
 0001:00122bbc       __vcrt_getptd              0000000180123bbc f   libvcruntime:per_thread_data.obj
 0001:00122bd8       __vcrt_getptd_noexit       0000000180123bd8 f   libvcruntime:per_thread_data.obj
 0001:00122c98       __vcrt_initialize_ptd      0000000180123c98 f   libvcruntime:per_thread_data.obj
 0001:00122ce0       __vcrt_uninitialize_ptd    0000000180123ce0 f   libvcruntime:per_thread_data.obj
 0001:00122d04       __vcrt_initialize_locks    0000000180123d04 f   libvcruntime:locks.obj
 0001:00122d38       __vcrt_lock                0000000180123d38 f   libvcruntime:locks.obj
 0001:00122d54       __vcrt_uninitialize_locks  0000000180123d54 f   libvcruntime:locks.obj
 0001:00122d8c       __vcrt_unlock              0000000180123d8c f   libvcruntime:locks.obj
 0001:00122da8       ??$_CallSETranslator@V__FrameHandler3@@@@YAHPEAUEHExceptionRecord@@PEA_KPEAU_CONTEXT@@PEAU_xDISPATCHER_CONTEXT@@PEBU_s_FuncInfo@@K1H@Z 0000000180123da8 f i libvcruntime:risctrnsctrl.obj
 0001:00122dfc       ??$_CallSETranslator@V__FrameHandler4@@@@YAHPEAUEHExceptionRecord@@PEA_KPEAU_CONTEXT@@PEAU_xDISPATCHER_CONTEXT@@PEAUFuncInfo4@FH4@@K1H@Z 0000000180123dfc f i libvcruntime:risctrnsctrl.obj
 0001:00122e50       ?CatchTryBlock@__FrameHandler3@@SAPEBU_s_TryBlockMapEntry@@PEBU_s_FuncInfo@@H@Z 0000000180123e50 f   libvcruntime:risctrnsctrl.obj
 0001:00122ea4       ?DecompFuncInfo@FH4@@YA_JPEAEAEAUFuncInfo4@1@_KH_N@Z 0000000180123ea4 f i libvcruntime:risctrnsctrl.obj
 0001:00122fc8       ?ExecutionInCatch@__FrameHandler3@@SA_NPEAU_xDISPATCHER_CONTEXT@@PEBU_s_FuncInfo@@@Z 0000000180123fc8 f   libvcruntime:risctrnsctrl.obj
 0001:00122ff4       ?ExecutionInCatch@__FrameHandler4@@SA_NPEAU_xDISPATCHER_CONTEXT@@PEAUFuncInfo4@FH4@@@Z 0000000180123ff4 f   libvcruntime:risctrnsctrl.obj
 0001:00122ffc       ?FrameUnwindToEmptyState@__FrameHandler3@@SAXPEA_KPEAU_xDISPATCHER_CONTEXT@@PEBU_s_FuncInfo@@@Z 0000000180123ffc f   libvcruntime:risctrnsctrl.obj
 0001:00123060       ?FrameUnwindToEmptyState@__FrameHandler4@@SAXPEA_KPEAU_xDISPATCHER_CONTEXT@@PEAUFuncInfo4@FH4@@@Z 0000000180124060 f   libvcruntime:risctrnsctrl.obj
 0001:00123094       ?GetEstablisherFrame@__FrameHandler3@@SAPEA_KPEA_KPEAU_xDISPATCHER_CONTEXT@@PEBU_s_FuncInfo@@0@Z 0000000180124094 f   libvcruntime:risctrnsctrl.obj
 0001:00123160       ?GetEstablisherFrame@__FrameHandler4@@SAPEA_KPEA_KPEAU_xDISPATCHER_CONTEXT@@PEAUFuncInfo4@FH4@@0@Z 0000000180124160 f   libvcruntime:risctrnsctrl.obj
 0001:00123184       ?GetRangeOfTrysToCheck@__FrameHandler3@@SA?AU?$pair@Viterator@TryBlockMap@__FrameHandler3@@V123@@std@@AEAVTryBlockMap@1@HPEAU_xDISPATCHER_CONTEXT@@PEBU_s_FuncInfo@@H@Z 0000000180124184 f   libvcruntime:risctrnsctrl.obj
 0001:001232c4       ?GetRangeOfTrysToCheck@__FrameHandler4@@SA?AU?$pair@Viterator@TryBlockMap4@FH4@@V123@@std@@AEAVTryBlockMap4@FH4@@HPEAU_xDISPATCHER_CONTEXT@@PEAUFuncInfo4@5@H@Z 00000001801242c4 f   libvcruntime:risctrnsctrl.obj
 0001:0012342c       ?UnwindNestedFrames@__FrameHandler3@@SAXPEA_KPEAUEHExceptionRecord@@PEAU_CONTEXT@@0PEAXPEBU_s_FuncInfo@@HHPEBU_s_HandlerType@@PEAU_xDISPATCHER_CONTEXT@@E@Z 000000018012442c f   libvcruntime:risctrnsctrl.obj
 0001:00123530       ?UnwindNestedFrames@__FrameHandler4@@SAXPEA_KPEAUEHExceptionRecord@@PEAU_CONTEXT@@0PEAXPEAUFuncInfo4@FH4@@HHPEAUHandlerType4@5@PEAU_xDISPATCHER_CONTEXT@@E@Z 0000000180124530 f   libvcruntime:risctrnsctrl.obj
 0001:00123650       ?setBuffer@TryBlockMap4@FH4@@QEAAXViterator@12@@Z 0000000180124650 f i libvcruntime:risctrnsctrl.obj
 0001:00123810       _CreateFrameInfo           0000000180124810 f   libvcruntime:risctrnsctrl.obj
 0001:0012384c       _FindAndUnlinkFrame        000000018012484c f   libvcruntime:risctrnsctrl.obj
 0001:001238a0       _GetImageBase              00000001801248a0 f   libvcruntime:risctrnsctrl.obj
 0001:001238b4       _GetThrowImageBase         00000001801248b4 f   libvcruntime:risctrnsctrl.obj
 0001:001238c8       _SetImageBase              00000001801248c8 f   libvcruntime:risctrnsctrl.obj
 0001:001238e0       _SetThrowImageBase         00000001801248e0 f   libvcruntime:risctrnsctrl.obj
 0001:001238f8       __CxxFrameHandler3         00000001801248f8 f   libvcruntime:risctrnsctrl.obj
 0001:00123980       __CxxFrameHandler4         0000000180124980 f   libvcruntime:risctrnsctrl.obj
 0001:00123b90       __vcrt_FlsAlloc            0000000180124b90 f   libvcruntime:winapi_downlevel.obj
 0001:00123bd8       __vcrt_FlsFree             0000000180124bd8 f   libvcruntime:winapi_downlevel.obj
 0001:00123c20       __vcrt_FlsGetValue         0000000180124c20 f   libvcruntime:winapi_downlevel.obj
 0001:00123c68       __vcrt_FlsSetValue         0000000180124c68 f   libvcruntime:winapi_downlevel.obj
 0001:00123cbc       __vcrt_InitializeCriticalSectionEx 0000000180124cbc f   libvcruntime:winapi_downlevel.obj
 0001:00123d20       ?GetCurrentState@__FrameHandler3@@SAHPEA_KPEAU_xDISPATCHER_CONTEXT@@PEBU_s_FuncInfo@@@Z 0000000180124d20 f   libvcruntime:ehstate.obj
 0001:00123d48       ?GetUnwindTryBlock@__FrameHandler3@@SAHPEA_KPEAU_xDISPATCHER_CONTEXT@@PEBU_s_FuncInfo@@@Z 0000000180124d48 f   libvcruntime:ehstate.obj
 0001:00123d74       ?SetState@__FrameHandler3@@SAXPEA_KPEBU_s_FuncInfo@@H@Z 0000000180124d74 f   libvcruntime:ehstate.obj
 0001:00123d80       ?SetUnwindTryBlock@__FrameHandler3@@SAXPEA_KPEAU_xDISPATCHER_CONTEXT@@PEBU_s_FuncInfo@@H@Z 0000000180124d80 f   libvcruntime:ehstate.obj
 0001:00123dbc       ?StateFromControlPc@__FrameHandler3@@SAHPEBU_s_FuncInfo@@PEAU_xDISPATCHER_CONTEXT@@@Z 0000000180124dbc f   libvcruntime:ehstate.obj
 0001:00123dc4       ?StateFromControlPc@__FrameHandler4@@SAHPEAUFuncInfo4@FH4@@PEAU_xDISPATCHER_CONTEXT@@@Z 0000000180124dc4 f   libvcruntime:ehstate.obj
 0001:00123dcc       ?StateFromIp@__FrameHandler3@@SAHPEBU_s_FuncInfo@@PEAU_xDISPATCHER_CONTEXT@@_K@Z 0000000180124dcc f   libvcruntime:ehstate.obj
 0001:00123e34       ?StateFromIp@__FrameHandler4@@SAHPEAUFuncInfo4@FH4@@PEAU_xDISPATCHER_CONTEXT@@_K@Z 0000000180124e34 f   libvcruntime:ehstate.obj
 0001:00125518       ??$TypeMatchHelper@V__FrameHandler3@@@@YAHPEBU_s_HandlerType@@PEBU_s_CatchableType@@PEBU_s_ThrowInfo@@@Z 0000000180126518 f i libvcruntime:frame.obj
 0001:00125658       ??$TypeMatchHelper@V__FrameHandler4@@@@YAHPEAUHandlerType4@FH4@@PEBU_s_CatchableType@@PEBU_s_ThrowInfo@@@Z 0000000180126658 f i libvcruntime:frame.obj
 0001:0012579c       ??$__InternalCxxFrameHandler@V__FrameHandler3@@@@YA?AW4_EXCEPTION_DISPOSITION@@PEAUEHExceptionRecord@@PEA_KPEAU_CONTEXT@@PEAU_xDISPATCHER_CONTEXT@@PEBU_s_FuncInfo@@H1E@Z 000000018012679c f i libvcruntime:frame.obj
 0001:001259d4       ??$__InternalCxxFrameHandler@V__FrameHandler4@@@@YA?AW4_EXCEPTION_DISPOSITION@@PEAUEHExceptionRecord@@PEA_KPEAU_CONTEXT@@PEAU_xDISPATCHER_CONTEXT@@PEAUFuncInfo4@FH4@@H1E@Z 00000001801269d4 f i libvcruntime:frame.obj
 0001:00125c68       ??0HandlerMap4@FH4@@QEAA@PEBUTryBlockMapEntry4@1@_KH@Z 0000000180126c68 f i libvcruntime:frame.obj
 0001:00125ce4       ??0TryBlockMap4@FH4@@QEAA@PEBUFuncInfo4@1@_K@Z 0000000180126ce4 f i libvcruntime:frame.obj
 0001:00125dbc       ??0bad_exception@std@@QEAA@AEBV01@@Z 0000000180126dbc f i libvcruntime:frame.obj
 0001:00125df8       ??0bad_exception@std@@QEAA@XZ 0000000180126df8 f i libvcruntime:frame.obj
 0001:00125e18       ??0exception@std@@QEAA@AEBV01@@Z 0000000180126e18 f i libvcruntime:frame.obj
 0001:00125e4c       ??1bad_exception@std@@UEAA@XZ 0000000180126e4c f i libvcruntime:frame.obj
 0001:00125e60       ??_Gbad_exception@std@@UEAAPEAXI@Z 0000000180126e60 f i libvcruntime:frame.obj
 0001:00125e60       ??_Eexception@std@@UEAAPEAXI@Z 0000000180126e60 f i libvcruntime:frame.obj
 0001:00125e60       ??_Gexception@std@@UEAAPEAXI@Z 0000000180126e60 f i libvcruntime:frame.obj
 0001:00125e60       ??_Ebad_exception@std@@UEAAPEAXI@Z 0000000180126e60 f i libvcruntime:frame.obj
 0001:00125ea4       ?CxxCallCatchBlock@__FrameHandler3@@SAPEAXPEAU_EXCEPTION_RECORD@@@Z 0000000180126ea4 f   libvcruntime:frame.obj
 0001:00126090       ?CxxCallCatchBlock@__FrameHandler4@@SAPEAXPEAU_EXCEPTION_RECORD@@@Z 0000000180127090 f   libvcruntime:frame.obj
 0001:001262e0       ?DecompHandler@HandlerMap4@FH4@@AEAAXXZ 00000001801272e0 f i libvcruntime:frame.obj
 0001:00126520       ?FrameUnwindToState@__FrameHandler3@@SAXPEA_KPEAU_xDISPATCHER_CONTEXT@@PEBU_s_FuncInfo@@H@Z 0000000180127520 f   libvcruntime:frame.obj
 0001:001266ac       ?FrameUnwindToState@__FrameHandler4@@SAXPEA_KPEAU_xDISPATCHER_CONTEXT@@PEAUFuncInfo4@FH4@@H@Z 00000001801276ac f   libvcruntime:frame.obj
 0001:00126994       ?GetHandlerSearchState@__FrameHandler3@@SAHPEA_KPEAU_xDISPATCHER_CONTEXT@@PEBU_s_FuncInfo@@@Z 0000000180127994 f i libvcruntime:frame.obj
 0001:00126ba4       ?ReadEntry@UWMap4@FH4@@AEAAXPEAPEAE@Z 0000000180127ba4 f i libvcruntime:frame.obj
 0001:00126c44       ?_CallMemberFunction1@@YAXQEAX00@Z 0000000180127c44 f i libvcruntime:frame.obj
 0001:00126c50       ?_CallMemberFunction2@@YAXQEAX00H@Z 0000000180127c50 f i libvcruntime:frame.obj
 0001:00126c60       ?getStartStop@UWMap4@FH4@@QEAAXHHAEAViterator@12@0@Z 0000000180127c60 f i libvcruntime:frame.obj
 0001:00126d30       ?getStateFromIterators@UWMap4@FH4@@SAHAEBViterator@12@H0H0@Z 0000000180127d30 f i libvcruntime:frame.obj
 0001:00126df8       ?what@exception@std@@UEBAPEBDXZ 0000000180127df8 f i libvcruntime:frame.obj
 0001:00126e20       _CallSettingFrame          0000000180127e20 f   libvcruntime:handlers.obj
 0001:00126e70       _CallSettingFrame_LookupContinuationIndex 0000000180127e70 f   libvcruntime:handlers.obj
 0001:00126ea0       _CallSettingFrame_NotifyContinuationAddr 0000000180127ea0 f   libvcruntime:handlers.obj
 0001:00126ed0       _CallSettingFrameEncoded   0000000180127ed0 f   libvcruntime:handlers.obj
 0001:00126f18       __std_exception_copy       0000000180127f18 f   libvcruntime:std_exception.obj
 0001:00126fa8       __std_exception_destroy    0000000180127fa8 f   libvcruntime:std_exception.obj
 0001:00126fd0       _CxxThrowException         0000000180127fd0 f   libvcruntime:throw.obj
 0001:00127070       cosf                       0000000180128070 f   libucrt:cosf.obj
 0001:00127570       sinf                       0000000180128570 f   libucrt:sinf.obj
 0001:00127c70       tanf                       0000000180128c70 f   libucrt:tanf.obj
 0001:00128300       strcmp                     0000000180129300 f   libucrt:strcmp.obj
 0001:00128368       _fpclass                   0000000180129368 f   libucrt:ieeemisc.obj
 0001:001283f0       acosf                      00000001801293f0 f   libucrt:acosf.obj
 0001:0012861c       free                       000000018012961c f   libucrt:free.obj
 0001:00128630       _initterm                  0000000180129630 f   libucrt:initterm.obj
 0001:00128674       _initterm_e                0000000180129674 f   libucrt:initterm.obj
 0001:001286bc       _seh_filter_dll            00000001801296bc f   libucrt:exception_filter.obj
 0001:001286d0       _seh_filter_exe            00000001801296d0 f   libucrt:exception_filter.obj
 0001:00128af4       __acrt_initialize_thread_local_exit_callback 0000000180129af4 f   libucrt:exit.obj
 0001:00128afc       _cexit                     0000000180129afc f   libucrt:exit.obj
 0001:00128b0c       _exit                      0000000180129b0c f   libucrt:exit.obj
 0001:00128b18       _is_c_termination_complete 0000000180129b18 f   libucrt:exit.obj
 0001:00128ce0       __acrt_allocate_buffer_for_argv 0000000180129ce0 f   libucrt:argv_parsing.obj
 0001:00128d40       _configure_narrow_argv     0000000180129d40 f   libucrt:argv_parsing.obj
 0001:001290c8       __dcrt_uninitialize_environments_nolock 000000018012a0c8 f   libucrt:environment_initialization.obj
 0001:0012910c       _initialize_narrow_environment 000000018012a10c f   libucrt:environment_initialization.obj
 0001:00129270       _execute_onexit_table      000000018012a270 f   libucrt:onexit.obj
 0001:001292b4       _initialize_onexit_table   000000018012a2b4 f   libucrt:onexit.obj
 0001:00129314       __acrt_uninitialize_command_line 000000018012a314 f   libucrt:argv_data.obj
 0001:0012940c       __acrt_initialize          000000018012a40c f   libucrt:initialization.obj
 0001:00129420       __acrt_thread_attach       000000018012a420 f   libucrt:initialization.obj
 0001:00129434       __acrt_thread_detach       000000018012a434 f   libucrt:initialization.obj
 0001:00129444       __acrt_uninitialize        000000018012a444 f   libucrt:initialization.obj
 0001:0012947c       __acrt_uninitialize_critical 000000018012a47c f   libucrt:initialization.obj
 0001:0012948c       terminate                  000000018012a48c f   libucrt:terminate.obj
 0001:001294b8       abort                      000000018012a4b8 f   libucrt:abort.obj
 0001:00129510       malloc                     000000018012a510 f   libucrt:malloc.obj
 0001:00129518       strcpy_s                   000000018012a518 f   libucrt:strcpy_s.obj
 0001:00129728       ??$ensure_buffer_is_big_enough@D@formatting_buffer@__crt_stdio_output@@QEAA_N_KAEAV__crt_cached_ptd_host@@@Z 000000018012a728 f i libucrt:output.obj
 0001:001297d0       ??$parse_integer@KV?$c_string_character_source@D@__crt_strtox@@$0A@@__crt_strtox@@YAKAEAV__crt_cached_ptd_host@@V?$c_string_character_source@D@0@H_N@Z 000000018012a7d0 f i libucrt:output.obj
 0001:00129a80       ??$type_case_integer@$07@?$output_processor@DV?$string_output_adapter@D@__crt_stdio_output@@V?$format_validation_base@DV?$string_output_adapter@D@__crt_stdio_output@@@2@@__crt_stdio_output@@AEAA_N_N@Z 000000018012aa80 f i libucrt:output.obj
 0001:00129c68       ??$type_case_integer@$09@?$output_processor@DV?$string_output_adapter@D@__crt_stdio_output@@V?$format_validation_base@DV?$string_output_adapter@D@__crt_stdio_output@@@2@@__crt_stdio_output@@AEAA_N_N@Z 000000018012ac68 f i libucrt:output.obj
 0001:00129e50       ??$type_case_integer@$0BA@@?$output_processor@DV?$string_output_adapter@D@__crt_stdio_output@@V?$format_validation_base@DV?$string_output_adapter@D@__crt_stdio_output@@@2@@__crt_stdio_output@@AEAA_N_N@Z 000000018012ae50 f i libucrt:output.obj
 0001:0012a038       ??$type_case_integer_parse_into_buffer@I$07@?$output_processor@DV?$string_output_adapter@D@__crt_stdio_output@@V?$format_validation_base@DV?$string_output_adapter@D@__crt_stdio_output@@@2@@__crt_stdio_output@@AEAAXI_N@Z 000000018012b038 f i libucrt:output.obj
 0001:0012a0b4       ??$type_case_integer_parse_into_buffer@I$09@?$output_processor@DV?$string_output_adapter@D@__crt_stdio_output@@V?$format_validation_base@DV?$string_output_adapter@D@__crt_stdio_output@@@2@@__crt_stdio_output@@AEAAXI_N@Z 000000018012b0b4 f i libucrt:output.obj
 0001:0012a15c       ??$type_case_integer_parse_into_buffer@I$0BA@@?$output_processor@DV?$string_output_adapter@D@__crt_stdio_output@@V?$format_validation_base@DV?$string_output_adapter@D@__crt_stdio_output@@@2@@__crt_stdio_output@@AEAAXI_N@Z 000000018012b15c f i libucrt:output.obj
 0001:0012a1e8       ??$type_case_integer_parse_into_buffer@_K$07@?$output_processor@DV?$string_output_adapter@D@__crt_stdio_output@@V?$format_validation_base@DV?$string_output_adapter@D@__crt_stdio_output@@@2@@__crt_stdio_output@@AEAAX_K_N@Z 000000018012b1e8 f i libucrt:output.obj
 0001:0012a264       ??$type_case_integer_parse_into_buffer@_K$09@?$output_processor@DV?$string_output_adapter@D@__crt_stdio_output@@V?$format_validation_base@DV?$string_output_adapter@D@__crt_stdio_output@@@2@@__crt_stdio_output@@AEAAX_K_N@Z 000000018012b264 f i libucrt:output.obj
 0001:0012a310       ??$type_case_integer_parse_into_buffer@_K$0BA@@?$output_processor@DV?$string_output_adapter@D@__crt_stdio_output@@V?$format_validation_base@DV?$string_output_adapter@D@__crt_stdio_output@@@2@@__crt_stdio_output@@AEAAX_K_N@Z 000000018012b310 f i libucrt:output.obj
 0001:0012a39c       ?crop_zeroes@__crt_stdio_output@@YAXPEADQEAU__crt_locale_pointers@@@Z 000000018012b39c f i libucrt:output.obj
 0001:0012a410       ?get_raw_ptd@__crt_cached_ptd_host@@QEAAPEAU__acrt_ptd@@XZ 000000018012b410 f i libucrt:output.obj
 0001:0012a478       ?parse_int_from_format_string@?$output_processor@DV?$string_output_adapter@D@__crt_stdio_output@@V?$format_validation_base@DV?$string_output_adapter@D@__crt_stdio_output@@@2@@__crt_stdio_output@@AEAA_NQEAH@Z 000000018012b478 f i libucrt:output.obj
 0001:0012a508       ?process@?$output_processor@DV?$string_output_adapter@D@__crt_stdio_output@@V?$format_validation_base@DV?$string_output_adapter@D@__crt_stdio_output@@@2@@__crt_stdio_output@@QEAAHXZ 000000018012b508 f i libucrt:output.obj
 0001:0012a898       ?state_case_size@?$output_processor@DV?$string_output_adapter@D@__crt_stdio_output@@V?$format_validation_base@DV?$string_output_adapter@D@__crt_stdio_output@@@2@@__crt_stdio_output@@AEAA_NXZ 000000018012b898 f i libucrt:output.obj
 0001:0012aa1c       ?state_case_type@?$output_processor@DV?$string_output_adapter@D@__crt_stdio_output@@V?$format_validation_base@DV?$string_output_adapter@D@__crt_stdio_output@@@2@@__crt_stdio_output@@AEAA_NXZ 000000018012ba1c f i libucrt:output.obj
 0001:0012ade8       ?type_case_Z@?$output_processor@DV?$string_output_adapter@D@__crt_stdio_output@@V?$format_validation_base@DV?$string_output_adapter@D@__crt_stdio_output@@@2@@__crt_stdio_output@@AEAA_NXZ 000000018012bde8 f i libucrt:output.obj
 0001:0012ae60       ?type_case_a@?$output_processor@DV?$string_output_adapter@D@__crt_stdio_output@@V?$format_validation_base@DV?$string_output_adapter@D@__crt_stdio_output@@@2@@__crt_stdio_output@@AEAA_NXZ 000000018012be60 f i libucrt:output.obj
 0001:0012b0ac       ?type_case_c_tchar@?$output_processor@DV?$string_output_adapter@D@__crt_stdio_output@@V?$format_validation_base@DV?$string_output_adapter@D@__crt_stdio_output@@@2@@__crt_stdio_output@@AEAA_ND@Z 000000018012c0ac f i libucrt:output.obj
 0001:0012b170       ?type_case_n@?$output_processor@DV?$string_output_adapter@D@__crt_stdio_output@@V?$format_validation_base@DV?$string_output_adapter@D@__crt_stdio_output@@@2@@__crt_stdio_output@@AEAA_NXZ 000000018012c170 f i libucrt:output.obj
 0001:0012b224       ?type_case_s@?$output_processor@DV?$string_output_adapter@D@__crt_stdio_output@@V?$format_validation_base@DV?$string_output_adapter@D@__crt_stdio_output@@@2@@__crt_stdio_output@@AEAA_NXZ 000000018012c224 f i libucrt:output.obj
 0001:0012b2c0       ?update_locale_slow@__crt_cached_ptd_host@@AEAAXXZ 000000018012c2c0 f i libucrt:output.obj
 0001:0012b338       ?write_string@?$string_output_adapter@D@__crt_stdio_output@@QEBAXQEBDHQEAHAEAV__crt_cached_ptd_host@@@Z 000000018012c338 f i libucrt:output.obj
 0001:0012b3dc       __stdio_common_vsprintf_s  000000018012c3dc f   libucrt:output.obj
 0001:0012b4f0       ??$parse_integer@KV?$c_string_character_source@D@__crt_strtox@@$00@__crt_strtox@@YAKAEAV__crt_cached_ptd_host@@V?$c_string_character_source@D@0@H_N@Z 000000018012c4f0 f i libucrt:atox.obj
 0001:0012b7d0       _ischartype_l              000000018012c7d0 f i libucrt:atox.obj
 0001:0012b848       atol                       000000018012c848 f   libucrt:atox.obj
 0001:0012b910       strncmp                    000000018012c910 f   libucrt:strncmp.obj
 0001:0012b990       calloc                     000000018012c990 f   libucrt:calloc.obj
 0001:0012b998       wcsncmp                    000000018012c998 f   libucrt:wcsncmp.obj
 0001:0012b9d0       __remainder_piby2d2f_forAsm 000000018012c9d0 f   libucrt:remainder_piby2f_forasm.obj
 0001:0012bb20       __remainder_piby2_fma3     000000018012cb20 f   libucrt:remainder_piby2_forfma3.obj
 0001:0012bd10       __remainder_piby2_fma3_bdl 000000018012cd10 f   libucrt:remainder_piby2_forfma3.obj
 0001:0012bd88       _cosf_special              000000018012cd88 f   libucrt:sincos_special.obj
 0001:0012be28       _sinf_special              000000018012ce28 f   libucrt:sincos_special.obj
 0001:0012be3c       _tanf_special              000000018012ce3c f   libucrt:sincos_special.obj
 0001:0012be50       _clrfp                     000000018012ce50 f   libucrt:fpctrl.obj
 0001:0012be70       _ctrlfp                    000000018012ce70 f   libucrt:fpctrl.obj
 0001:0012beec       _set_statfp                000000018012ceec f   libucrt:fpctrl.obj
 0001:0012bf0c       _statfp                    000000018012cf0c f   libucrt:fpctrl.obj
 0001:0012bf20       __acrt_initialize_fma3     000000018012cf20 f   libucrt:fma3_available.obj
 0001:0012bf90       __remainder_piby2d2f_forC  000000018012cf90 f   libucrt:remainder_piby2f_forc.obj
 0001:0012c240       _handle_error              000000018012d240 f   libucrt:libm_error.obj
 0001:0012c368       _handle_errorf             000000018012d368 f   libucrt:libm_error.obj
 0001:0012c49c       _handle_nan                000000018012d49c f   libucrt:libm_error.obj
 0001:0012c4b8       _handle_nanf               000000018012d4b8 f   libucrt:libm_error.obj
 0001:0012c4c8       _free_base                 000000018012d4c8 f   libucrt:free_base.obj
 0001:0012c87c       __acrt_freeptd             000000018012d87c f   libucrt:per_thread_data.obj
 0001:0012c8c0       __acrt_getptd              000000018012d8c0 f   libucrt:per_thread_data.obj
 0001:0012c994       __acrt_getptd_head         000000018012d994 f   libucrt:per_thread_data.obj
 0001:0012ca38       __acrt_getptd_noexit       000000018012da38 f   libucrt:per_thread_data.obj
 0001:0012cb00       __acrt_getptd_noexit_explicit 000000018012db00 f   libucrt:per_thread_data.obj
 0001:0012cbc0       __acrt_initialize_ptd      000000018012dbc0 f   libucrt:per_thread_data.obj
 0001:0012cbfc       __acrt_uninitialize_ptd    000000018012dbfc f   libucrt:per_thread_data.obj
 0001:0012cc20       __acrt_initialize_locks    000000018012dc20 f   libucrt:locks.obj
 0001:0012cc68       __acrt_lock                000000018012dc68 f   libucrt:locks.obj
 0001:0012cc84       __acrt_uninitialize_locks  000000018012dc84 f   libucrt:locks.obj
 0001:0012ccbc       __acrt_unlock              000000018012dcbc f   libucrt:locks.obj
 0001:0012ccd8       __acrt_get_process_end_policy 000000018012dcd8 f   libucrt:win_policies.obj
 0001:0012cd14       ?get_raw_ptd_noexit@__crt_cached_ptd_host@@QEAAPEAU__acrt_ptd@@XZ 000000018012dd14 f i libucrt:invalid_parameter.obj
 0001:0012cd80       ?value@?$dual_state_global@P6AXPEB_W00I_K@Z@__crt_state_management@@QEAAAEAP6AXPEB_W00I_K@ZAEAV__crt_cached_ptd_host@@@Z 000000018012dd80 f i libucrt:invalid_parameter.obj
 0001:0012cdcc       __acrt_call_reportfault    000000018012ddcc f   libucrt:invalid_parameter.obj
 0001:0012cf28       __acrt_initialize_invalid_parameter_handler 000000018012df28 f   libucrt:invalid_parameter.obj
 0001:0012cf30       _invalid_parameter         000000018012df30 f   libucrt:invalid_parameter.obj
 0001:0012cfcc       _invalid_parameter_internal 000000018012dfcc f   libucrt:invalid_parameter.obj
 0001:0012d09c       _invalid_parameter_noinfo  000000018012e09c f   libucrt:invalid_parameter.obj
 0001:0012d0bc       _invoke_watson             000000018012e0bc f   libucrt:invalid_parameter.obj
 0001:0012d104       __acrt_errno_from_os_error 000000018012e104 f   libucrt:errno.obj
 0001:0012d14c       __acrt_errno_map_os_error  000000018012e14c f   libucrt:errno.obj
 0001:0012d194       __acrt_errno_map_os_error_ptd 000000018012e194 f   libucrt:errno.obj
 0001:0012d1b8       __doserrno                 000000018012e1b8 f   libucrt:errno.obj
 0001:0012d1d8       _errno                     000000018012e1d8 f   libucrt:errno.obj
 0001:0012d1f8       _calloc_base               000000018012e1f8 f   libucrt:calloc_base.obj
 0001:0012d284       ??$__acrt_convert_wcs_mbs_cp@D_WV<lambda_7c9dea7b4ca7285d2cdb541a38da6275>@@U__crt_win32_buffer_internal_dynamic_resizing@@@@YAHQEBDAEAV?$__crt_win32_buffer@_WU__crt_win32_buffer_internal_dynamic_resizing@@@@AEBV<lambda_7c9dea7b4ca7285d2cdb541a38da6275>@@I@Z 000000018012e284 f i libucrt:argv_wildcards.obj
 0001:0012d400       ??$__acrt_convert_wcs_mbs_cp@_WDV<lambda_d8593a27d1aa8c02be35c86a17d324c4>@@U__crt_win32_buffer_internal_dynamic_resizing@@@@YAHQEB_WAEAV?$__crt_win32_buffer@DU__crt_win32_buffer_internal_dynamic_resizing@@@@AEBV<lambda_d8593a27d1aa8c02be35c86a17d324c4>@@I@Z 000000018012e400 f i libucrt:argv_wildcards.obj
 0001:0012dca8       ??0_LocaleUpdate@@QEAA@QEAU__crt_locale_pointers@@@Z 000000018012eca8 f i libucrt:argv_wildcards.obj
 0001:0012dd44       __acrt_expand_narrow_argv_wildcards 000000018012ed44 f   libucrt:argv_wildcards.obj
 0001:0012dd4c       ??$__acrt_convert_wcs_mbs_cp@_WDV<lambda_f788ae46380686e8b737efdd8c720d07>@@U__crt_win32_buffer_no_resizing@@@@YAHQEB_WAEAV?$__crt_win32_buffer@DU__crt_win32_buffer_no_resizing@@@@AEBV<lambda_f788ae46380686e8b737efdd8c720d07>@@I@Z 000000018012ed4c f i libucrt:getmodulefilenamea.obj
 0001:0012de68       __acrt_GetModuleFileNameA  000000018012ee68 f   libucrt:getmodulefilenamea.obj
 0001:0012e784       __acrt_initialize_multibyte 000000018012f784 f   libucrt:mbctype.obj
 0001:0012e7e4       __acrt_update_thread_multibyte_data 000000018012f7e4 f   libucrt:mbctype.obj
 0001:0012e800       _setmbcp_nolock            000000018012f800 f   libucrt:mbctype.obj
 0001:0012eb34       _ismbblead                 000000018012fb34 f   libucrt:ismbbyte.obj
 0001:0012eb48       __acrt_initialize_command_line 000000018012fb48 f   libucrt:argv_data.obj
 0001:0012eb70       __acrt_MultiByteToWideChar 000000018012fb70 f   libucrt:multibytetowidechar.obj
 0001:0012ebcc       __acrt_WideCharToMultiByte 000000018012fbcc f   libucrt:widechartomultibyte.obj
 0001:0012ec7c       __dcrt_get_narrow_environment_from_os 000000018012fc7c f   libucrt:get_environment_from_os.obj
 0001:0012ed8c       _recalloc_base             000000018012fd8c f   libucrt:recalloc.obj
 0001:0012efe4       __acrt_AppPolicyGetProcessTerminationMethodInternal 000000018012ffe4 f   libucrt:winapi_thunks.obj
 0001:0012f03c       __acrt_AreFileApisANSI     000000018013003c f   libucrt:winapi_thunks.obj
 0001:0012f080       __acrt_FlsAlloc            0000000180130080 f   libucrt:winapi_thunks.obj
 0001:0012f088       __acrt_FlsFree             0000000180130088 f   libucrt:winapi_thunks.obj
 0001:0012f090       __acrt_FlsGetValue         0000000180130090 f   libucrt:winapi_thunks.obj
 0001:0012f098       __acrt_FlsSetValue         0000000180130098 f   libucrt:winapi_thunks.obj
 0001:0012f0a0       __acrt_InitializeCriticalSectionEx 00000001801300a0 f   libucrt:winapi_thunks.obj
 0001:0012f110       __acrt_LCMapStringEx       0000000180130110 f   libucrt:winapi_thunks.obj
 0001:0012f1fc       __acrt_LocaleNameToLCID    00000001801301fc f   libucrt:winapi_thunks.obj
 0001:0012f25c       __acrt_initialize_winapi_thunks 000000018013025c f   libucrt:winapi_thunks.obj
 0001:0012f280       __acrt_uninitialize_winapi_thunks 0000000180130280 f   libucrt:winapi_thunks.obj
 0001:0012f2c4       __acrt_initialize_heap     00000001801302c4 f   libucrt:heap_handle.obj
 0001:0012f2e0       __acrt_uninitialize_heap   00000001801302e0 f   libucrt:heap_handle.obj
 0001:0012f4e4       __acrt_initialize_lowio    00000001801304e4 f   libucrt:ioinit.obj
 0001:0012f520       __acrt_uninitialize_lowio  0000000180130520 f   libucrt:ioinit.obj
 0001:0012f560       __acrt_execute_initializers 0000000180130560 f   libucrt:shared_initialization.obj
 0001:0012f5f4       __acrt_execute_uninitializers 00000001801305f4 f   libucrt:shared_initialization.obj
 0001:0012f63c       __acrt_initialize_new_handler 000000018013063c f   libucrt:new_handler.obj
 0001:0012f644       _callnewh                  0000000180130644 f   libucrt:new_handler.obj
 0001:0012f680       _query_new_handler         0000000180130680 f   libucrt:new_handler.obj
 0001:0012f6fc       __acrt_get_sigabrt_handler 00000001801306fc f   libucrt:signal.obj
 0001:0012f72c       __acrt_initialize_signal_handlers 000000018013072c f   libucrt:signal.obj
 0001:0012f74c       raise                      000000018013074c f   libucrt:signal.obj
 0001:0012f9cc       __acrt_has_user_matherr    00000001801309cc f   libucrt:matherr.obj
 0001:0012f9ec       __acrt_initialize_user_matherr 00000001801309ec f   libucrt:matherr.obj
 0001:0012f9f4       __acrt_invoke_user_matherr 00000001801309f4 f   libucrt:matherr.obj
 0001:0012fc08       __acrt_stdio_flush_nolock  0000000180130c08 f   libucrt:fflush.obj
 0001:0012fc94       _fflush_nolock             0000000180130c94 f   libucrt:fflush.obj
 0001:0012fd68       _flushall                  0000000180130d68 f   libucrt:fflush.obj
 0001:0012fd70       __acrt_initialize_stdio    0000000180130d70 f   libucrt:_file.obj
 0001:0012fe90       __acrt_uninitialize_stdio  0000000180130e90 f   libucrt:_file.obj
 0001:0012feec       _lock_file                 0000000180130eec f   libucrt:_file.obj
 0001:0012fef8       _unlock_file               0000000180130ef8 f   libucrt:_file.obj
 0001:0012ff04       _malloc_base               0000000180130f04 f   libucrt:malloc_base.obj
 0001:0012ff64       strnlen                    0000000180130f64 f   libucrt:strnlen.obj
 0001:001300b4       wcsnlen                    00000001801310b4 f   libucrt:strnlen.obj
 0001:0013028c       __acrt_update_locale_info  000000018013128c f   libucrt:locale_update.obj
 0001:001302c0       __acrt_update_locale_info_explicit 00000001801312c0 f   libucrt:locale_update.obj
 0001:001302f8       __acrt_update_multibyte_info 00000001801312f8 f   libucrt:locale_update.obj
 0001:0013032c       __acrt_update_multibyte_info_explicit 000000018013132c f   libucrt:locale_update.obj
 0001:00130e94       __acrt_fp_format           0000000180131e94 f   libucrt:cvt.obj
 0001:0013117c       _wctomb_internal           000000018013217c f   libucrt:wctomb.obj
 0001:0013132c       _mbtowc_internal           000000018013232c f   libucrt:mbtowc.obj
 0001:001314a4       _fileno                    00000001801324a4 f   libucrt:fileno.obj
 0001:001314cc       _get_printf_count_output   00000001801324cc f   libucrt:printf_count_output.obj
 0001:00131554       __acrt_set_locale_changed  0000000180132554 f   libucrt:wsetlocale.obj
 0001:00131560       __acrt_uninitialize_locale 0000000180132560 f   libucrt:wsetlocale.obj
 0001:00131590       __pctype_func              0000000180132590 f   libucrt:ctype.obj
 0001:001315c0       _isctype_l                 00000001801325c0 f   libucrt:isctype.obj
 0001:001316e0       _get_fpsr                  00000001801326e0 f   libucrt:fpsr.obj
 0001:001316f0       _set_fpsr                  00000001801326f0 f   libucrt:fpsr.obj
 0001:001316fa       _fclrf                     00000001801326fa f   libucrt:fpsr.obj
 0001:0013170e       _frnd                      000000018013270e f   libucrt:fpsr.obj
 0001:00131730       _raise_exc                 0000000180132730 f   libucrt:fpexcept.obj
 0001:00131758       _raise_exc_ex              0000000180132758 f   libucrt:fpexcept.obj
 0001:00131a68       _raise_excf                0000000180132a68 f   libucrt:fpexcept.obj
 0001:00131a94       _set_errno_from_matherr    0000000180132a94 f   libucrt:fpexcept.obj
 0001:00131ac4       __acrt_add_locale_ref      0000000180132ac4 f   libucrt:locale_refcounting.obj
 0001:00131b50       __acrt_free_locale         0000000180132b50 f   libucrt:locale_refcounting.obj
 0001:00131cc8       __acrt_locale_add_lc_time_reference 0000000180132cc8 f   libucrt:locale_refcounting.obj
 0001:00131cf0       __acrt_locale_free_lc_time_if_unreferenced 0000000180132cf0 f   libucrt:locale_refcounting.obj
 0001:00131d28       __acrt_locale_release_lc_time_reference 0000000180132d28 f   libucrt:locale_refcounting.obj
 0001:00131d50       __acrt_release_locale_ref  0000000180132d50 f   libucrt:locale_refcounting.obj
 0001:00131df8       __acrt_update_thread_locale_data 0000000180132df8 f   libucrt:locale_refcounting.obj
 0001:00131e68       _updatetlocinfoEx_nolock   0000000180132e68 f   libucrt:locale_refcounting.obj
 0001:00131ed0       _query_new_mode            0000000180132ed0 f   libucrt:new_mode.obj
 0001:00131ee0       qsort                      0000000180132ee0 f   libucrt:qsort.obj
 0001:001322f0       strncpy_s                  00000001801332f0 f   libucrt:strncpy_s.obj
 0001:00132480       strpbrk                    0000000180133480 f   libucrt:strpbrk.obj
 0001:00132848       _mbsdec                    0000000180133848 f   libucrt:mbsdec.obj
 0001:00132850       _mbsdec_l                  0000000180133850 f   libucrt:mbsdec.obj
 0001:001328e4       __acrt_GetStringTypeA      00000001801338e4 f   libucrt:getstringtypea.obj
 0001:00132da0       __acrt_LCMapStringA        0000000180133da0 f   libucrt:lcmapstringa.obj
 0001:00132e50       _msize_base                0000000180133e50 f   libucrt:msize.obj
 0001:00132e8c       _realloc_base              0000000180133e8c f   libucrt:realloc_base.obj
 0001:00132f08       __acrt_DownlevelLocaleNameToLCID 0000000180133f08 f   libucrt:lcidtoname_downlevel.obj
 0001:00132fb0       __acrt_lowio_create_handle_array 0000000180133fb0 f   libucrt:osfinfo.obj
 0001:00133058       __acrt_lowio_destroy_handle_array 0000000180134058 f   libucrt:osfinfo.obj
 0001:001330a8       __acrt_lowio_ensure_fh_exists 00000001801340a8 f   libucrt:osfinfo.obj
 0001:00133150       __acrt_lowio_lock_fh       0000000180134150 f   libucrt:osfinfo.obj
 0001:00133178       __acrt_lowio_unlock_fh     0000000180134178 f   libucrt:osfinfo.obj
 0001:001331a0       _free_osfhnd               00000001801341a0 f   libucrt:osfinfo.obj
 0001:0013325c       _get_osfhandle             000000018013425c f   libucrt:osfinfo.obj
 0001:00133360       _commit                    0000000180134360 f   libucrt:commit.obj
 0001:00133c10       _write_internal            0000000180134c10 f   libucrt:write.obj
 0001:00133d38       _write_nolock              0000000180134d38 f   libucrt:write.obj
 0001:00134048       _fcloseall                 0000000180135048 f   libucrt:closeall.obj
 0001:001340fc       __acrt_stdio_free_buffer_nolock 00000001801350fc f   libucrt:_freebuf.obj
 0001:0013413c       _isatty                    000000018013513c f   libucrt:isatty.obj
 0001:0013419c       __acrt_fp_strflt_to_string 000000018013519c f   libucrt:_fptostr.obj
 0001:00134320       ?divide@__crt_strtox@@YA_KAEAUbig_integer@1@AEBU21@@Z 0000000180135320 f i libucrt:cfout.obj
 0001:001347ac       __acrt_fltout              00000001801357ac f   libucrt:cfout.obj
 0001:00135a74       fegetround                 0000000180136a74 f   libucrt:fegetround.obj
 0001:00135a88       ?__c32rtomb_utf8@__crt_mbstring@@YA_KPEAD_UPEAU_Mbstatet@@AEAV__crt_cached_ptd_host@@@Z 0000000180136a88 f   libucrt:c32rtomb.obj
 0001:00135b2c       ?__mbrtowc_utf8@__crt_mbstring@@YA_KPEA_WPEBD_KPEAU_Mbstatet@@AEAV__crt_cached_ptd_host@@@Z 0000000180136b2c f   libucrt:mbrtowc.obj
 0001:00135b70       ?__mbsrtowcs_utf8@__crt_mbstring@@YA_KPEA_WPEAPEBD_KPEAU_Mbstatet@@AEAV__crt_cached_ptd_host@@@Z 0000000180136b70 f   libucrt:mbrtowc.obj
 0001:00135d14       __acrt_locale_free_monetary 0000000180136d14 f   libucrt:initmon.obj
 0001:00135e20       __acrt_locale_free_numeric 0000000180136e20 f   libucrt:initnum.obj
 0001:00135ec0       __acrt_locale_free_time    0000000180136ec0 f   libucrt:inittime.obj
 0001:00135fc8       __strncnt                  0000000180136fc8 f   libucrt:strncnt.obj
 0001:00135fe0       __ascii_wcsnicmp           0000000180136fe0 f   libucrt:wcsnicmp.obj
 0001:0013602c       _query_app_type            000000018013702c f   libucrt:report_runtime_error.obj
 0001:001360e0       _lseeki64_nolock_internal  00000001801370e0 f   libucrt:lseek.obj
 0001:001360e8       _putwch_nolock             00000001801370e8 f   libucrt:putwch.obj
 0001:00136244       fclose                     0000000180137244 f   libucrt:fclose.obj
 0001:001362dc       _controlfp_s               00000001801372dc f   libucrt:contrlfp.obj
 0001:00136340       fegetenv                   0000000180137340 f   libucrt:fegetenv.obj
 0001:00136360       fesetenv                   0000000180137360 f   libucrt:fesetenv.obj
 0001:001363ac       feholdexcept               00000001801373ac f   libucrt:feholdexcept.obj
 0001:001363fc       ceil                       00000001801373fc f   libucrt:ceil.obj
 0001:001364c0       log10                      00000001801374c0 f   libucrt:log10.obj
 0001:00136a6c       __acrt_fenv_get_common_round_control 0000000180137a6c f   libucrt:_fenvutils.obj
 0001:00136a78       __acrt_fenv_get_control    0000000180137a78 f   libucrt:_fenvutils.obj
 0001:00136b5c       __acrt_fenv_get_status     0000000180137b5c f   libucrt:_fenvutils.obj
 0001:00136bb4       __acrt_fenv_set_control    0000000180137bb4 f   libucrt:_fenvutils.obj
 0001:00136cf0       __acrt_fenv_set_status     0000000180137cf0 f   libucrt:_fenvutils.obj
 0001:00136d64       ?reset_and_return@__crt_mbstring@@YA_K_KPEAU_Mbstatet@@@Z 0000000180137d64 f   libucrt:common_utf8.obj
 0001:00136d6c       ?return_illegal_sequence@__crt_mbstring@@YA_KPEAU_Mbstatet@@AEAV__crt_cached_ptd_host@@@Z 0000000180137d6c f   libucrt:common_utf8.obj
 0001:00136d80       ?__mbrtoc32_utf8@__crt_mbstring@@YA_KPEA_UPEBD_KPEAU_Mbstatet@@AEAV__crt_cached_ptd_host@@@Z 0000000180137d80 f   libucrt:mbrtoc32.obj
 0001:00136f5c       __dcrt_lowio_ensure_console_output_initialized 0000000180137f5c f   libucrt:initcon.obj
 0001:00136fb0       __dcrt_terminate_console_output 0000000180137fb0 f   libucrt:initcon.obj
 0001:00136fcc       __dcrt_write_console       0000000180137fcc f   libucrt:initcon.obj
 0001:00137104       _close_internal            0000000180138104 f   libucrt:close.obj
 0001:001371c8       _close_nolock_internal     00000001801381c8 f   libucrt:close.obj
 0001:00137298       ?__acrt_stdio_free_stream@@YAXV__crt_stdio_stream@@@Z 0000000180138298 f   libucrt:stream.obj
 0001:001372b4       _clearfp                   00000001801382b4 f   libucrt:ieee.obj
 0001:00137324       _control87                 0000000180138324 f   libucrt:ieee.obj
 0001:001375f0       _log10_special             00000001801385f0 f   libucrt:log_special.obj
 0001:001376b0       _FindPESection             00000001801386b0 f   LIBCMT:pesect.obj
 0001:00137700       _IsNonwritableInCurrentImage 0000000180138700 f   LIBCMT:pesect.obj
 0001:00137750       _ValidateImageBase         0000000180138750 f   LIBCMT:pesect.obj
 0001:00137780       __GSHandlerCheck           0000000180138780 f   LIBCMT:gshandler.obj
 0001:001377a0       __GSHandlerCheckCommon     00000001801387a0 f   LIBCMT:gshandler.obj
 0001:00137810       __security_check_cookie    0000000180138810 f   LIBCMT:amdsecgs.obj
 0001:00137830       __GSHandlerCheck_SEH       0000000180138830 f   LIBCMT:gshandlerseh.obj
 0001:001378b8       __raise_securityfailure    00000001801388b8 f   LIBCMT:gs_report.obj
 0001:001378ec       __report_gsfailure         00000001801388ec f   LIBCMT:gs_report.obj
 0001:001379c0       __report_rangecheckfailure 00000001801389c0 f   LIBCMT:gs_report.obj
 0001:001379d4       __report_securityfailure   00000001801389d4 f   LIBCMT:gs_report.obj
 0001:00137b54       __GSHandlerCheck_EH        0000000180138b54 f   LIBCMT:gshandlereh.obj
 0001:00137bd4       __C_specific_handler_noexcept 0000000180138bd4 f   libvcruntime:chandler_noexcept.obj
 0001:00137c20       strrchr                    0000000180138c20 f   libvcruntime:strrchr.obj
 0001:00137d60       memcmp                     0000000180138d60 f   libvcruntime:memcmp.obj
 0001:00137e40       _guard_dispatch_icall_nop  0000000180138e40 f   LIBCMT:guard_dispatch.obj
 0001:00137e60       _guard_xfg_dispatch_icall_nop 0000000180138e60 f   LIBCMT:guard_xfg_dispatch.obj
 0002:00000000       __imp_FreeLibrary          000000018013a000     kernel32:KERNEL32.dll
 0002:00000008       __imp_GetProcAddress       000000018013a008     kernel32:KERNEL32.dll
 0002:00000010       __imp_LoadLibraryA         000000018013a010     kernel32:KERNEL32.dll
 0002:00000018       __imp_WriteConsoleW        000000018013a018     kernel32:KERNEL32.dll
 0002:00000020       __imp_RaiseException       000000018013a020     kernel32:KERNEL32.dll
 0002:00000028       __imp_GetLastError         000000018013a028     kernel32:KERNEL32.dll
 0002:00000030       __imp_GetSystemInfo        000000018013a030     kernel32:KERNEL32.dll
 0002:00000038       __imp_VirtualProtect       000000018013a038     kernel32:KERNEL32.dll
 0002:00000040       __imp_VirtualQuery         000000018013a040     kernel32:KERNEL32.dll
 0002:00000048       __imp_GetModuleHandleW     000000018013a048     kernel32:KERNEL32.dll
 0002:00000050       __imp_LoadLibraryExA       000000018013a050     kernel32:KERNEL32.dll
 0002:00000058       __imp_InitializeSListHead  000000018013a058     kernel32:KERNEL32.dll
 0002:00000060       __imp_QueryPerformanceCounter 000000018013a060     kernel32:KERNEL32.dll
 0002:00000068       __imp_GetCurrentProcessId  000000018013a068     kernel32:KERNEL32.dll
 0002:00000070       __imp_GetCurrentThreadId   000000018013a070     kernel32:KERNEL32.dll
 0002:00000078       __imp_GetSystemTimeAsFileTime 000000018013a078     kernel32:KERNEL32.dll
 0002:00000080       __imp_RtlCaptureContext    000000018013a080     kernel32:KERNEL32.dll
 0002:00000088       __imp_RtlLookupFunctionEntry 000000018013a088     kernel32:KERNEL32.dll
 0002:00000090       __imp_RtlVirtualUnwind     000000018013a090     kernel32:KERNEL32.dll
 0002:00000098       __imp_IsDebuggerPresent    000000018013a098     kernel32:KERNEL32.dll
 0002:000000a0       __imp_UnhandledExceptionFilter 000000018013a0a0     kernel32:KERNEL32.dll
 0002:000000a8       __imp_SetUnhandledExceptionFilter 000000018013a0a8     kernel32:KERNEL32.dll
 0002:000000b0       __imp_GetStartupInfoW      000000018013a0b0     kernel32:KERNEL32.dll
 0002:000000b8       __imp_IsProcessorFeaturePresent 000000018013a0b8     kernel32:KERNEL32.dll
 0002:000000c0       __imp_InterlockedPushEntrySList 000000018013a0c0     kernel32:KERNEL32.dll
 0002:000000c8       __imp_InterlockedFlushSList 000000018013a0c8     kernel32:KERNEL32.dll
 0002:000000d0       __imp_RtlUnwindEx          000000018013a0d0     kernel32:KERNEL32.dll
 0002:000000d8       __imp_SetLastError         000000018013a0d8     kernel32:KERNEL32.dll
 0002:000000e0       __imp_EnterCriticalSection 000000018013a0e0     kernel32:KERNEL32.dll
 0002:000000e8       __imp_LeaveCriticalSection 000000018013a0e8     kernel32:KERNEL32.dll
 0002:000000f0       __imp_DeleteCriticalSection 000000018013a0f0     kernel32:KERNEL32.dll
 0002:000000f8       __imp_InitializeCriticalSectionAndSpinCount 000000018013a0f8     kernel32:KERNEL32.dll
 0002:00000100       __imp_TlsAlloc             000000018013a100     kernel32:KERNEL32.dll
 0002:00000108       __imp_TlsGetValue          000000018013a108     kernel32:KERNEL32.dll
 0002:00000110       __imp_TlsSetValue          000000018013a110     kernel32:KERNEL32.dll
 0002:00000118       __imp_TlsFree              000000018013a118     kernel32:KERNEL32.dll
 0002:00000120       __imp_LoadLibraryExW       000000018013a120     kernel32:KERNEL32.dll
 0002:00000128       __imp_EncodePointer        000000018013a128     kernel32:KERNEL32.dll
 0002:00000130       __imp_RtlPcToFileHeader    000000018013a130     kernel32:KERNEL32.dll
 0002:00000138       __imp_GetCurrentProcess    000000018013a138     kernel32:KERNEL32.dll
 0002:00000140       __imp_ExitProcess          000000018013a140     kernel32:KERNEL32.dll
 0002:00000148       __imp_TerminateProcess     000000018013a148     kernel32:KERNEL32.dll
 0002:00000150       __imp_GetModuleHandleExW   000000018013a150     kernel32:KERNEL32.dll
 0002:00000158       __imp_GetModuleFileNameW   000000018013a158     kernel32:KERNEL32.dll
 0002:00000160       __imp_HeapFree             000000018013a160     kernel32:KERNEL32.dll
 0002:00000168       __imp_HeapAlloc            000000018013a168     kernel32:KERNEL32.dll
 0002:00000170       __imp_FindClose            000000018013a170     kernel32:KERNEL32.dll
 0002:00000178       __imp_FindFirstFileExW     000000018013a178     kernel32:KERNEL32.dll
 0002:00000180       __imp_FindNextFileW        000000018013a180     kernel32:KERNEL32.dll
 0002:00000188       __imp_IsValidCodePage      000000018013a188     kernel32:KERNEL32.dll
 0002:00000190       __imp_GetACP               000000018013a190     kernel32:KERNEL32.dll
 0002:00000198       __imp_GetOEMCP             000000018013a198     kernel32:KERNEL32.dll
 0002:000001a0       __imp_GetCPInfo            000000018013a1a0     kernel32:KERNEL32.dll
 0002:000001a8       __imp_GetCommandLineA      000000018013a1a8     kernel32:KERNEL32.dll
 0002:000001b0       __imp_GetCommandLineW      000000018013a1b0     kernel32:KERNEL32.dll
 0002:000001b8       __imp_MultiByteToWideChar  000000018013a1b8     kernel32:KERNEL32.dll
 0002:000001c0       __imp_WideCharToMultiByte  000000018013a1c0     kernel32:KERNEL32.dll
 0002:000001c8       __imp_GetEnvironmentStringsW 000000018013a1c8     kernel32:KERNEL32.dll
 0002:000001d0       __imp_FreeEnvironmentStringsW 000000018013a1d0     kernel32:KERNEL32.dll
 0002:000001d8       __imp_FlsAlloc             000000018013a1d8     kernel32:KERNEL32.dll
 0002:000001e0       __imp_FlsGetValue          000000018013a1e0     kernel32:KERNEL32.dll
 0002:000001e8       __imp_FlsSetValue          000000018013a1e8     kernel32:KERNEL32.dll
 0002:000001f0       __imp_FlsFree              000000018013a1f0     kernel32:KERNEL32.dll
 0002:000001f8       __imp_LCMapStringW         000000018013a1f8     kernel32:KERNEL32.dll
 0002:00000200       __imp_GetProcessHeap       000000018013a200     kernel32:KERNEL32.dll
 0002:00000208       __imp_GetStdHandle         000000018013a208     kernel32:KERNEL32.dll
 0002:00000210       __imp_GetFileType          000000018013a210     kernel32:KERNEL32.dll
 0002:00000218       __imp_GetStringTypeW       000000018013a218     kernel32:KERNEL32.dll
 0002:00000220       __imp_HeapSize             000000018013a220     kernel32:KERNEL32.dll
 0002:00000228       __imp_HeapReAlloc          000000018013a228     kernel32:KERNEL32.dll
 0002:00000230       __imp_SetStdHandle         000000018013a230     kernel32:KERNEL32.dll
 0002:00000238       __imp_FlushFileBuffers     000000018013a238     kernel32:KERNEL32.dll
 0002:00000240       __imp_WriteFile            000000018013a240     kernel32:KERNEL32.dll
 0002:00000248       __imp_GetConsoleOutputCP   000000018013a248     kernel32:KERNEL32.dll
 0002:00000250       __imp_GetConsoleMode       000000018013a250     kernel32:KERNEL32.dll
 0002:00000258       __imp_SetFilePointerEx     000000018013a258     kernel32:KERNEL32.dll
 0002:00000260       __imp_CreateFileW          000000018013a260     kernel32:KERNEL32.dll
 0002:00000268       __imp_CloseHandle          000000018013a268     kernel32:KERNEL32.dll
 0002:00000270       \177KERNEL32_NULL_THUNK_DATA 000000018013a270     kernel32:KERNEL32.dll
 0002:00000278       __guard_check_icall_fptr   000000018013a278     LIBCMT:guard_support.obj
 0002:00000280       __guard_xfg_check_icall_fptr 000000018013a280     LIBCMT:guard_support.obj
 0002:00000288       __guard_dispatch_icall_fptr 000000018013a288     LIBCMT:guard_support.obj
 0002:00000290       __guard_xfg_dispatch_icall_fptr 000000018013a290     LIBCMT:guard_support.obj
 0002:00000298       __guard_xfg_table_dispatch_icall_fptr 000000018013a298     LIBCMT:guard_support.obj
 0002:000002a0       __xc_a                     000000018013a2a0     LIBCMT:initializers.obj
 0002:000016d0       __xc_z                     000000018013b6d0     LIBCMT:initializers.obj
 0002:000016d8       __xi_a                     000000018013b6d8     LIBCMT:initializers.obj
 0002:000016e0       __acrt_tran_fma3_initializer 000000018013b6e0     libucrt:fma3_initializer.obj
 0002:000016e8       __acrt_multibyte_initializer 000000018013b6e8     libucrt:multibyte_initializer.obj
 0002:000016f0       __acrt_stdio_initializer   000000018013b6f0     libucrt:stdio_initializer.obj
 0002:000016f8       __xi_z                     000000018013b6f8     LIBCMT:initializers.obj
 0002:00001700       __xp_a                     000000018013b700     LIBCMT:initializers.obj
 0002:00001708       __acrt_locale_terminator   000000018013b708     libucrt:locale_initializer.obj
 0002:00001710       __dcrt_console_output_terminator 000000018013b710     libucrt:console_output_initializer.obj
 0002:00001718       __acrt_stdio_terminator    000000018013b718     libucrt:stdio_initializer.obj
 0002:00001720       __xp_z                     000000018013b720     LIBCMT:initializers.obj
 0002:00001728       __xt_a                     000000018013b728     LIBCMT:initializers.obj
 0002:00001730       __xt_z                     000000018013b730     LIBCMT:initializers.obj
 0002:00001740       ??_7PxCollection@physx@@6B@ 000000018013b740     CmCollection.obj
 0002:000017c0       ??_C@_0BA@DLCJDKDM@NonTrackedAlloc@ 000000018013b7c0     CmCollection.obj
 0002:000017d0       ??_7Collection@Cm@physx@@6B@ 000000018013b7d0     CmCollection.obj
 0002:00001850       ??_C@_0GE@GBACBMOC@PxCollection?3?3add?5called?5for?5an@ 000000018013b850     CmCollection.obj
 0002:000018c0       ??_C@_0GN@EKLGPILH@C?3?2Users?2Melli?2Documents?2Uni?2Co@ 000000018013b8c0     CmCollection.obj
 0002:00001930       ??_C@_0EM@OMMGDOMK@PxCollection?3?3add?5called?5with?5a@ 000000018013b930     CmCollection.obj
 0002:00001980       ??_C@_0HG@JNFLGMJI@C?3?2Users?2Melli?2Documents?2Uni?2Co@ 000000018013b980     CmCollection.obj
 0002:000019f8       ??_C@_0BM@OIFKLHDN@?$DMallocation?5names?5disabled?$DO@ 000000018013b9f8     CmCollection.obj
 0002:00001a18       ??_C@_08MDGMHCHN@PtrTable@ 000000018013ba18     CmPtrTable.obj
 0002:00001a24       ??_C@_04GKJNKENE@void@     000000018013ba24     CmPtrTable.obj
 0002:00001a30       ??_C@_07DFEBJDHE@mSingle@  000000018013ba30     CmPtrTable.obj
 0002:00001a38       ??_C@_05NLHHBMOH@PxU16@    000000018013ba38     CmPtrTable.obj
 0002:00001a40       ??_C@_06EPKHJPIM@mCount@   000000018013ba40     CmPtrTable.obj
 0002:00001a48       ??_C@_04DDKJGDCM@bool@     000000018013ba48     CmPtrTable.obj
 0002:00001a50       ??_C@_0M@DAGELID@mOwnsMemory@ 000000018013ba50     CmPtrTable.obj
 0002:00001a60       ??_C@_0M@MMPOMMLP@mBufferUsed@ 000000018013ba60     CmPtrTable.obj
 0002:00001a70       ??_7RadixSort@Cm@physx@@6B@ 000000018013ba70     CmRadixSort.obj
 0002:00001a80       __xmm@00000001000000010000000100000001 000000018013ba80     CmRadixSort.obj
 0002:00001a90       __xmm@00000003000000020000000100000000 000000018013ba90     CmRadixSort.obj
 0002:00001aa0       ??_7RadixSortBuffered@Cm@physx@@6B@ 000000018013baa0     CmRadixSortBuffered.obj
 0002:00001ab0       ??_C@_0HE@DMJPDPL@C?3?2Users?2Melli?2Documents?2Uni?2Co@ 000000018013bab0     CmRadixSortBuffered.obj
 0002:00001b24       ?sBufferSize@DebugText@Cm@physx@@2HB 000000018013bb24     CmRenderOutput.obj
 0002:00001b30       ??_C@_0GO@CLJOKGAJ@C?3?2Users?2Melli?2Documents?2Uni?2Co@ 000000018013bb30     CmRenderOutput.obj
 0002:00001ba0       __real@3e19999a            000000018013bba0     CmRenderOutput.obj
 0002:00001ba4       __real@3e800000            000000018013bba4     CmRenderOutput.obj
 0002:00001ba8       __real@3f3504f3            000000018013bba8     CmRenderOutput.obj
 0002:00001bac       __real@3f800000            000000018013bbac     CmRenderOutput.obj
 0002:00001bb0       __real@3fddb3d7            000000018013bbb0     CmRenderOutput.obj
 0002:00001bb4       __real@40c90fdb            000000018013bbb4     CmRenderOutput.obj
 0002:00001bc0       __xmm@7fffffff7fffffff7fffffff7fffffff 000000018013bbc0     CmRenderOutput.obj
 0002:00001bd0       __xmm@80000000800000008000000080000000 000000018013bbd0     CmRenderOutput.obj
 0002:00001be0       __real@3d4ccccd            000000018013bbe0     CmVisualization.obj
 0002:00001be4       __real@3e490fdb            000000018013bbe4     CmVisualization.obj
 0002:00001be8       __real@3e99999a            000000018013bbe8     CmVisualization.obj
 0002:00001bec       __real@3f000000            000000018013bbec     CmVisualization.obj
 0002:00001bf0       __real@3fc00000            000000018013bbf0     CmVisualization.obj
 0002:00001bf4       __real@c0000000            000000018013bbf4     CmVisualization.obj
 0002:00001c00       __xmm@3f800000000000000000000000000000 000000018013bc00     CmVisualization.obj
 0002:00001c10       ??_C@_0BB@CPDDPFKD@GetUpdatedModule@ 000000018013bc10     CmWindowsModuleUpdateLoader.obj
 0002:00001c28       ??_C@_0BA@EGLNOO@PhysXFoundation@ 000000018013bc28     CmWindowsDelayLoadHook.obj
 0002:00001c38       ??_C@_0M@ILKNCJKN@PhysXCommon@ 000000018013bc38     CmWindowsDelayLoadHook.obj
 0002:00001c70       ??_C@_06EJKDJEDO@PxBase@   000000018013bc70     GuBounds.obj
 0002:00001c78       ??_C@_0N@CDGINLLF@PxConvexMesh@ 000000018013bc78     GuBounds.obj
 0002:00001c88       ??_C@_0O@PBAKPCEC@PxHeightField@ 000000018013bc88     GuBounds.obj
 0002:00001c98       ??_7PxBase@physx@@6B@      000000018013bc98     GuBounds.obj
 0002:00001cc0       ??_C@_0DG@DFOCGHP@Gu?3?3GeometryUnion?3?3computeBound@ 000000018013bcc0     GuBounds.obj
 0002:00001d00       ??_C@_0GM@BMAEPKDL@C?3?2Users?2Melli?2Documents?2Uni?2Co@ 000000018013bd00     GuBounds.obj
 0002:00001d6c       __real@358637bd            000000018013bd6c     GuBounds.obj
 0002:00001d70       __real@3f400000            000000018013bd70     GuBounds.obj
 0002:00001d74       __real@3f7fffef            000000018013bd74     GuBounds.obj
 0002:00001d78       __real@3f8147ae            000000018013bd78     GuBounds.obj
 0002:00001d7c       __real@7e7fffff            000000018013bd7c     GuBounds.obj
 0002:00001d80       __real@7f7fffff            000000018013bd80     GuBounds.obj
 0002:00001d84       __real@fe7fffff            000000018013bd84     GuBounds.obj
 0002:00001d90       __xmm@000000003a83126f3a83126f3a83126f 000000018013bd90     GuBounds.obj
 0002:00001da0       __xmm@00000000ba83126fba83126fba83126f 000000018013bda0     GuBounds.obj
 0002:00001db0       __xmm@3a83126f3a83126f3a83126f3a83126f 000000018013bdb0     GuBounds.obj
 0002:00001dc0       __xmm@3f0000003f0000003f0000003f000000 000000018013bdc0     GuBounds.obj
 0002:00001dd0       __xmm@3f8147ae3f8147ae3f8147ae3f8147ae 000000018013bdd0     GuBounds.obj
 0002:00001de0       __xmm@ba83126fba83126fba83126fba83126f 000000018013bde0     GuBounds.obj
 0002:00001e10       __real@3f7ff972            000000018013be10     GuBox.obj
 0002:00001e40       ??_7?$EntityReport@I@Gu@physx@@6B@ 000000018013be40     GuCCTSweepTests.obj
 0002:00001e60       __real@3b03126f            000000018013be60     GuCCTSweepTests.obj
 0002:00001e64       __real@40000000            000000018013be64     GuCCTSweepTests.obj
 0002:00001e90       __real@38d1b717            000000018013be90     GuGeometryQuery.obj
 0002:00001e94       __real@49742400            000000018013be94     GuGeometryQuery.obj
 0002:00001e98       __real@bf800000            000000018013be98     GuGeometryQuery.obj
 0002:00001ec0       ??_C@_0HB@BEPFGIPD@C?3?2Users?2Melli?2Documents?2Uni?2Co@ 000000018013bec0     GuGeometryUnion.obj
 0002:00001f80       ??_7GuMeshFactory@physx@@6B@ 000000018013bf80     GuMeshFactory.obj
 0002:00001f88       ??_7MeshDataBase@Gu@physx@@6B@ 000000018013bf88     GuMeshFactory.obj
 0002:00001f90       ??_C@_0HB@BCLACHFJ@C?3?2Users?2Melli?2Documents?2Uni?2Co@ 000000018013bf90     GuMeshFactory.obj
 0002:00002008       ??_7TriangleMeshData@Gu@physx@@6B@ 000000018013c008     GuMeshFactory.obj
 0002:00002010       ??_7RTreeTriangleData@Gu@physx@@6B@ 000000018013c010     GuMeshFactory.obj
 0002:00002018       ??_7BV4TriangleData@Gu@physx@@6B@ 000000018013c018     GuMeshFactory.obj
 0002:00002020       ??_C@_0HB@PMGGCJNO@C?3?2Users?2Melli?2Documents?2Uni?2Co@ 000000018013c020     GuMeshFactory.obj
 0002:000020a0       ??_C@_0GP@NHELMDAL@Loading?5triangle?5mesh?5failed?3?5D@ 000000018013c0a0     GuMeshFactory.obj
 0002:00002110       ??_C@_0BP@CDOKDACA@RTree?5binary?5image?5load?5error?4@ 000000018013c110     GuMeshFactory.obj
 0002:00002130       ??_C@_0BN@MJPNIELF@BV4?5binary?5image?5load?5error?4@ 000000018013c130     GuMeshFactory.obj
 0002:00002150       ??_C@_0BO@JDPABAOF@BV32?5binary?5image?5load?5error?4@ 000000018013c150     GuMeshFactory.obj
 0002:00002170       ??_C@_0GO@CCPDKPHA@C?3?2Users?2Melli?2Documents?2Uni?2Co@ 000000018013c170     GuMeshFactory.obj
 0002:00002200       ??_C@_0P@GGNFNHKF@PxTriangleMesh@ 000000018013c200     GuMetaData.obj
 0002:00002210       ??_C@_07GFCEJNGM@Valency@  000000018013c210     GuMetaData.obj
 0002:00002218       ??_C@_07NHGKEEIN@mOffset@  000000018013c218     GuMetaData.obj
 0002:00002220       ??_C@_0BB@BAGHBMNJ@BigConvexRawData@ 000000018013c220     GuMetaData.obj
 0002:00002238       ??_C@_07PBDEJAAC@mSubdiv@  000000018013c238     GuMetaData.obj
 0002:00002240       ??_C@_0L@HNPACPGH@mNbSamples@ 000000018013c240     GuMetaData.obj
 0002:0000224c       ??_C@_04NCKNBPPK@PxU8@     000000018013c24c     GuMetaData.obj
 0002:00002258       ??_C@_08DEPEKJNI@mSamples@ 000000018013c258     GuMetaData.obj
 0002:00002264       ??_C@_05LMJPANIN@PxU32@    000000018013c264     GuMetaData.obj
 0002:00002270       ??_C@_08IJDNJBMI@mNbVerts@ 000000018013c270     GuMetaData.obj
 0002:00002280       ??_C@_0M@MMKMIJAF@mNbAdjVerts@ 000000018013c280     GuMetaData.obj
 0002:00002290       ??_C@_0L@EOKMNILC@mValencies@ 000000018013c290     GuMetaData.obj
 0002:000022a0       ??_C@_0P@DLGEAMHJ@mAdjacentVerts@ 000000018013c2a0     GuMetaData.obj
 0002:000022b0       ??_C@_0O@PFOPBKAM@BigConvexData@ 000000018013c2b0     GuMetaData.obj
 0002:000022c0       ??_C@_05PLKALGFN@mData@    000000018013c2c0     GuMetaData.obj
 0002:000022c8       ??_C@_08PEMCLHEM@mVBuffer@ 000000018013c2c8     GuMetaData.obj
 0002:000022d8       ??_C@_09FBMAGD@Alignment@  000000018013c2d8     GuMetaData.obj
 0002:000022e8       ??_C@_0BE@KFHIBEEA@InternalObjectsData@ 000000018013c2e8     GuMetaData.obj
 0002:000022fc       ??_C@_06GIEBFILM@PxReal@   000000018013c2fc     GuMetaData.obj
 0002:00002308       ??_C@_07NKGFFIBH@mRadius@  000000018013c308     GuMetaData.obj
 0002:00002310       ??_C@_08EHFCACAE@mExtents@ 000000018013c310     GuMetaData.obj
 0002:00002320       ??_C@_0BA@LFMGGCBK@HullPolygonData@ 000000018013c320     GuMetaData.obj
 0002:00002330       ??_C@_06BOHHGLB@mPlane@    000000018013c330     GuMetaData.obj
 0002:00002338       ??_C@_06EHMLHGLN@mVRef8@   000000018013c338     GuMetaData.obj
 0002:00002340       ??_C@_09BAHHHINI@mMinIndex@ 000000018013c340     GuMetaData.obj
 0002:00002350       ??_C@_0P@GBLBPIPB@ConvexHullData@ 000000018013c350     GuMetaData.obj
 0002:00002360       ??_C@_09JDCJAPKD@PxBounds3@ 000000018013c360     GuMetaData.obj
 0002:0000236c       ??_C@_05NDNHIFA@mAABB@     000000018013c36c     GuMetaData.obj
 0002:00002374       ??_C@_06KDGGGLIJ@PxVec3@   000000018013c374     GuMetaData.obj
 0002:00002380       ??_C@_0O@LNOGEMJI@mCenterOfMass@ 000000018013c380     GuMetaData.obj
 0002:00002390       ??_C@_09CNMCBBKH@mPolygons@ 000000018013c390     GuMetaData.obj
 0002:000023a0       ??_C@_0BC@KKPDCFJC@mBigConvexRawData@ 000000018013c3a0     GuMetaData.obj
 0002:000023b8       ??_C@_08ELDMKGKH@mNbEdges@ 000000018013c3b8     GuMetaData.obj
 0002:000023c8       ??_C@_0BA@CGLOHBAC@mNbHullVertices@ 000000018013c3c8     GuMetaData.obj
 0002:000023d8       ??_C@_0M@HGFFLLDM@mNbPolygons@ 000000018013c3d8     GuMetaData.obj
 0002:000023e8       ??_C@_09BHJEMDGO@mInternal@ 000000018013c3e8     GuMetaData.obj
 0002:000023f8       ??_C@_0L@GMFHOMKA@ConvexMesh@ 000000018013c3f8     GuMetaData.obj
 0002:00002408       ??_C@_0N@KECKKFLK@RefCountable@ 000000018013c408     GuMetaData.obj
 0002:00002418       ??_C@_09ILEBDLJH@mHullData@ 000000018013c418     GuMetaData.obj
 0002:00002424       ??_C@_03DKDIKGNC@mNb@      000000018013c424     GuMetaData.obj
 0002:00002428       ??_C@_0P@ENLHFHMD@mBigConvexData@ 000000018013c428     GuMetaData.obj
 0002:00002438       ??_C@_05ILALLCHK@mMass@    000000018013c438     GuMetaData.obj
 0002:00002440       ??_C@_07DBPDADGB@PxMat33@  000000018013c440     GuMetaData.obj
 0002:00002448       ??_C@_08FNBHNDBI@mInertia@ 000000018013c448     GuMetaData.obj
 0002:00002458       ??_C@_0O@FCKNKLMJ@GuMeshFactory@ 000000018013c458     GuMetaData.obj
 0002:00002468       ??_C@_0N@EGBCLMAK@mMeshFactory@ 000000018013c468     GuMetaData.obj
 0002:00002478       ??_C@_0BE@CJJAMAMK@PxHeightFieldSample@ 000000018013c478     GuMetaData.obj
 0002:0000248c       ??_C@_05MBLIPEMA@PxI16@    000000018013c48c     GuMetaData.obj
 0002:00002494       ??_C@_06LNLHEAAG@height@   000000018013c494     GuMetaData.obj
 0002:000024a0       ??_C@_0N@HHDGHJN@PxBitAndByte@ 000000018013c4a0     GuMetaData.obj
 0002:000024b0       ??_C@_0P@MBBMLBO@materialIndex0@ 000000018013c4b0     GuMetaData.obj
 0002:000024c0       ??_C@_0P@BFAKPKFP@materialIndex1@ 000000018013c4c0     GuMetaData.obj
 0002:000024d0       ??_C@_0BD@EBLPJEOE@PxHeightFieldFlags@ 000000018013c4d0     GuMetaData.obj
 0002:000024e8       ??_C@_0BK@FNNCFFCN@PxHeightFieldFormat?3?3Enum@ 000000018013c4e8     GuMetaData.obj
 0002:00002508       ??_C@_0BA@CLNFMAAA@HeightFieldData@ 000000018013c508     GuMetaData.obj
 0002:00002518       ??_C@_04IMCGAIPI@rows@     000000018013c518     GuMetaData.obj
 0002:00002520       ??_C@_07HIFEPIJN@columns@  000000018013c520     GuMetaData.obj
 0002:00002528       ??_C@_08MOAGOABI@rowLimit@ 000000018013c528     GuMetaData.obj
 0002:00002538       ??_C@_08BAGEHOBO@colLimit@ 000000018013c538     GuMetaData.obj
 0002:00002548       ??_C@_09LKDBLADF@nbColumns@ 000000018013c548     GuMetaData.obj
 0002:00002558       ??_C@_07ODIFGGLK@samples@  000000018013c558     GuMetaData.obj
 0002:00002560       ??_C@_0BE@POHEGOJG@convexEdgeThreshold@ 000000018013c560     GuMetaData.obj
 0002:00002574       ??_C@_05GECEPKB@flags@     000000018013c574     GuMetaData.obj
 0002:0000257c       ??_C@_06DLEPGFEF@format@   000000018013c57c     GuMetaData.obj
 0002:00002588       ??_C@_0BF@MOGDNMPL@PxMaterialTableIndex@ 000000018013c588     GuMetaData.obj
 0002:000025a0       ??_C@_0M@JMJICJJO@HeightField@ 000000018013c5a0     GuMetaData.obj
 0002:000025b0       ??_C@_0O@ENGHMLJP@mSampleStride@ 000000018013c5b0     GuMetaData.obj
 0002:000025c0       ??_C@_0L@EBEEMFFB@mMinHeight@ 000000018013c5c0     GuMetaData.obj
 0002:000025d0       ??_C@_0L@EAEIFPOF@mMaxHeight@ 000000018013c5d0     GuMetaData.obj
 0002:000025e0       ??_C@_0N@FEFJOKKE@mModifyCount@ 000000018013c5e0     GuMetaData.obj
 0002:000025f0       ??_C@_09PHDKHCK@RTreePage@ 000000018013c5f0     GuMetaData.obj
 0002:000025fc       ??_C@_04LLPOBGED@minx@     000000018013c5fc     GuMetaData.obj
 0002:00002604       ??_C@_04KCOFCHAC@miny@     000000018013c604     GuMetaData.obj
 0002:0000260c       ??_C@_04IJMIHEMB@minz@     000000018013c60c     GuMetaData.obj
 0002:00002614       ??_C@_04GGOBOBGO@maxx@     000000018013c614     GuMetaData.obj
 0002:0000261c       ??_C@_04HPPKNACP@maxy@     000000018013c61c     GuMetaData.obj
 0002:00002624       ??_C@_04FENHIDOM@maxz@     000000018013c624     GuMetaData.obj
 0002:0000262c       ??_C@_04HHDFEJON@ptrs@     000000018013c62c     GuMetaData.obj
 0002:00002634       ??_C@_05FFEIGAJF@RTree@    000000018013c634     GuMetaData.obj
 0002:0000263c       ??_C@_06OMCHPNEO@PxVec4@   000000018013c63c     GuMetaData.obj
 0002:00002648       ??_C@_0L@NBIFEFLN@mBoundsMin@ 000000018013c648     GuMetaData.obj
 0002:00002658       ??_C@_0L@MDAOKBNC@mBoundsMax@ 000000018013c658     GuMetaData.obj
 0002:00002668       ??_C@_0N@NJEHLCOF@mInvDiagonal@ 000000018013c668     GuMetaData.obj
 0002:00002678       ??_C@_0BA@BEFIGPFG@mDiagonalScaler@ 000000018013c678     GuMetaData.obj
 0002:00002688       ??_C@_09DICGGKGO@mPageSize@ 000000018013c688     GuMetaData.obj
 0002:00002698       ??_C@_0O@BOFFCNOL@mNumRootPages@ 000000018013c698     GuMetaData.obj
 0002:000026a8       ??_C@_0L@JKLGBKAE@mNumLevels@ 000000018013c6a8     GuMetaData.obj
 0002:000026b8       ??_C@_0M@PHDOHJGK@mTotalNodes@ 000000018013c6b8     GuMetaData.obj
 0002:000026c8       ??_C@_0M@GDGHALAO@mTotalPages@ 000000018013c6c8     GuMetaData.obj
 0002:000026d4       ??_C@_06MHCBBJGP@mFlags@   000000018013c6d4     GuMetaData.obj
 0002:000026dc       ??_C@_06MMNBLHOK@mPages@   000000018013c6dc     GuMetaData.obj
 0002:000026e8       ??_C@_0L@LEOGNOEC@SourceMesh@ 000000018013c6e8     GuMetaData.obj
 0002:000026f4       ??_C@_06JFCLJMNN@mVerts@   000000018013c6f4     GuMetaData.obj
 0002:00002700       ??_C@_07MPIKOOAP@mNbTris@  000000018013c700     GuMetaData.obj
 0002:00002708       ??_C@_0N@FBMOMEHF@mTriangles32@ 000000018013c708     GuMetaData.obj
 0002:00002718       ??_C@_0N@DGCGNFBP@mTriangles16@ 000000018013c718     GuMetaData.obj
 0002:00002728       ??_C@_06DHAAKLFK@mRemap@   000000018013c728     GuMetaData.obj
 0002:00002730       ??_C@_0O@NLNHFNO@QuantizedAABB@ 000000018013c730     GuMetaData.obj
 0002:00002740       ??_C@_0BC@OOGBEMHH@mData?$FL0?$FN?4mExtents@ 000000018013c740     GuMetaData.obj
 0002:00002758       ??_C@_0BB@OCEDKIEF@mData?$FL0?$FN?4mCenter@ 000000018013c758     GuMetaData.obj
 0002:00002770       ??_C@_0BC@HFMEAABI@mData?$FL1?$FN?4mExtents@ 000000018013c770     GuMetaData.obj
 0002:00002788       ??_C@_0BB@CDMNHHIF@mData?$FL1?$FN?4mCenter@ 000000018013c788     GuMetaData.obj
 0002:000027a0       ??_C@_0BC@CFKNCOI@mData?$FL2?$FN?4mExtents@ 000000018013c7a0     GuMetaData.obj
 0002:000027b8       ??_C@_0BB@LKCPBBIE@mData?$FL2?$FN?4mCenter@ 000000018013c7b8     GuMetaData.obj
 0002:000027d0       ??_C@_0O@MJJKKPFN@BVDataPackedQ@ 000000018013c7d0     GuMetaData.obj
 0002:000027e0       ??_C@_0M@PNCEBOG@LocalBounds@ 000000018013c7e0     GuMetaData.obj
 0002:000027f0       ??_C@_07GNKDIIKJ@mCenter@  000000018013c7f0     GuMetaData.obj
 0002:000027f8       ??_C@_05KNFBNCOH@float@    000000018013c7f8     GuMetaData.obj
 0002:00002800       ??_C@_0BC@LADJKHPL@mExtentsMagnitude@ 000000018013c800     GuMetaData.obj
 0002:00002818       ??_C@_07HELIOLAF@BV4Tree@  000000018013c818     GuMetaData.obj
 0002:00002820       ??_C@_0P@EMMDNPMH@mMeshInterface@ 000000018013c820     GuMetaData.obj
 0002:00002830       ??_C@_0N@DCKMHLCL@mLocalBounds@ 000000018013c830     GuMetaData.obj
 0002:00002840       ??_C@_08EEJOMIJL@mNbNodes@ 000000018013c840     GuMetaData.obj
 0002:00002850       ??_C@_09FGKNPI@mInitData@  000000018013c850     GuMetaData.obj
 0002:00002860       ??_C@_0BC@CLDEHKCO@mCenterOrMinCoeff@ 000000018013c860     GuMetaData.obj
 0002:00002878       ??_C@_0BD@LAOLBNJ@mExtentsOrMaxCoeff@ 000000018013c878     GuMetaData.obj
 0002:00002890       ??_C@_0P@JEECKKBL@mUserAllocated@ 000000018013c890     GuMetaData.obj
 0002:000028a0       ??_C@_0L@GLIMNECG@mQuantized@ 000000018013c8a0     GuMetaData.obj
 0002:000028b0       ??_C@_08BNDBAGDH@mPadding@ 000000018013c8b0     GuMetaData.obj
 0002:000028c0       ??_C@_0N@OJNNNLIB@TriangleMesh@ 000000018013c8c0     GuMetaData.obj
 0002:000028d0       ??_C@_0M@OGEDMEAL@mNbVertices@ 000000018013c8d0     GuMetaData.obj
 0002:000028e0       ??_C@_0N@MGGDNHNI@mNbTriangles@ 000000018013c8e0     GuMetaData.obj
 0002:000028f0       ??_C@_09LNNEGOJA@mVertices@ 000000018013c8f0     GuMetaData.obj
 0002:00002900       ??_C@_0L@KBOFAKLO@mTriangles@ 000000018013c900     GuMetaData.obj
 0002:00002910       ??_C@_0P@MHDFIHLD@mExtraTrigData@ 000000018013c910     GuMetaData.obj
 0002:00002920       ??_C@_0N@MGIKKCI@mGeomEpsilon@ 000000018013c920     GuMetaData.obj
 0002:00002930       ??_C@_0BB@IFLOOCNA@mMaterialIndices@ 000000018013c930     GuMetaData.obj
 0002:00002948       ??_C@_0L@OPJMBFMI@mFaceRemap@ 000000018013c948     GuMetaData.obj
 0002:00002958       ??_C@_0N@BIOECAPM@mAdjacencies@ 000000018013c958     GuMetaData.obj
 0002:00002968       ??_C@_0BA@OCOIGPII@mGRB_triIndices@ 000000018013c968     GuMetaData.obj
 0002:00002978       ??_C@_0BE@JPINNDAH@mGRB_triAdjacencies@ 000000018013c978     GuMetaData.obj
 0002:00002990       ??_C@_0P@EDFJJHEF@mGRB_faceRemap@ 000000018013c990     GuMetaData.obj
 0002:000029a0       ??_C@_0O@CKMBAIFN@mGRB_BV32Tree@ 000000018013c9a0     GuMetaData.obj
 0002:000029b0       ??_C@_0BC@IFGECKF@RTreeTriangleMesh@ 000000018013c9b0     GuMetaData.obj
 0002:000029c4       ??_C@_06JDIHDDGN@mRTree@   000000018013c9c4     GuMetaData.obj
 0002:000029d0       ??_C@_0BA@LNNFPOKA@BV4TriangleMesh@ 000000018013c9d0     GuMetaData.obj
 0002:000029e0       ??_C@_08FKLPEGDB@mBV4Tree@ 000000018013c9e0     GuMetaData.obj
 0002:000029f0       ??_C@_0BG@EAPGHGEI@MaterialIndicesStruct@ 000000018013c9f0     GuMetaData.obj
 0002:00002a08       ??_C@_07OKCKIPNN@indices@  000000018013ca08     GuMetaData.obj
 0002:00002a10       ??_C@_0L@KCBHBGBP@numIndices@ 000000018013ca10     GuMetaData.obj
 0002:00002a1c       ??_C@_03PNAAIPML@pad@      000000018013ca1c     GuMetaData.obj
 0002:00002a20       ??_C@_05MOMFAHOB@pad64@    000000018013ca20     GuMetaData.obj
 0002:00002a28       ??_C@_0BK@GNJGHDGO@PxConvexMeshGeometryFlags@ 000000018013ca28     GuMetaData.obj
 0002:00002a48       ??_C@_0BJ@LIOOOKID@ShadowConvexMeshGeometry@ 000000018013ca48     GuMetaData.obj
 0002:00002a68       ??_C@_0BF@PJFPGDNP@PxGeometryType?3?3Enum@ 000000018013ca68     GuMetaData.obj
 0002:00002a80       ??_C@_05GNIIDDHH@mType@    000000018013ca80     GuMetaData.obj
 0002:00002a88       ??_C@_0M@JFNDEGCE@PxMeshScale@ 000000018013ca88     GuMetaData.obj
 0002:00002a94       ??_C@_05MHMEBBGO@scale@    000000018013ca94     GuMetaData.obj
 0002:00002aa0       ??_C@_0L@OKMLGDHH@convexMesh@ 000000018013caa0     GuMetaData.obj
 0002:00002ab0       ??_C@_09PLMNFMJI@meshFlags@ 000000018013cab0     GuMetaData.obj
 0002:00002ac0       ??_C@_0BB@EINMAHMD@paddingFromFlags@ 000000018013cac0     GuMetaData.obj
 0002:00002ad8       ??_C@_08CICKEKCM@hullData@ 000000018013cad8     GuMetaData.obj
 0002:00002ae8       ??_C@_0O@EOELHBFF@gpuCompatible@ 000000018013cae8     GuMetaData.obj
 0002:00002af8       ??_C@_0BE@FFPGAPHN@PxMeshGeometryFlags@ 000000018013caf8     GuMetaData.obj
 0002:00002b10       ??_C@_0BL@KABFLNEB@ShadowTriangleMeshGeometry@ 000000018013cb10     GuMetaData.obj
 0002:00002b30       ??_C@_0N@FKKDJAHE@triangleMesh@ 000000018013cb30     GuMetaData.obj
 0002:00002b40       ??_C@_08BEABJAHJ@meshData@ 000000018013cb40     GuMetaData.obj
 0002:00002b50       ??_C@_0BA@NGIONHFJ@materialIndices@ 000000018013cb50     GuMetaData.obj
 0002:00002b60       ??_C@_09JGGNEAGH@materials@ 000000018013cb60     GuMetaData.obj
 0002:00002b70       ??_C@_0BK@OIFEOHNJ@ShadowHeightFieldGeometry@ 000000018013cb70     GuMetaData.obj
 0002:00002b90       ??_C@_0M@IEKJPCGG@heightField@ 000000018013cb90     GuMetaData.obj
 0002:00002ba0       ??_C@_0M@LHLNPPJ@heightScale@ 000000018013cba0     GuMetaData.obj
 0002:00002bb0       ??_C@_08GJPCBGLE@rowScale@ 000000018013cbb0     GuMetaData.obj
 0002:00002bc0       ??_C@_0M@HHBHEPCE@columnScale@ 000000018013cbc0     GuMetaData.obj
 0002:00002bd0       ??_C@_0BB@PMIIHDKK@heightFieldFlags@ 000000018013cbd0     GuMetaData.obj
 0002:00002be8       ??_C@_0BA@DMOKLLHN@heightFieldData@ 000000018013cbe8     GuMetaData.obj
 0002:00002bf8       ??_C@_0BE@IKADPPC@ShadowPlaneGeometry@ 000000018013cbf8     GuMetaData.obj
 0002:00002c10       ??_C@_0BF@PIKLLBGN@ShadowSphereGeometry@ 000000018013cc10     GuMetaData.obj
 0002:00002c28       ??_C@_06KGHINEPG@radius@   000000018013cc28     GuMetaData.obj
 0002:00002c30       ??_C@_0BG@OBHJHKMO@ShadowCapsuleGeometry@ 000000018013cc30     GuMetaData.obj
 0002:00002c48       ??_C@_0L@PMAANELH@halfHeight@ 000000018013cc48     GuMetaData.obj
 0002:00002c58       ??_C@_0BC@DMJNHLLO@ShadowBoxGeometry@ 000000018013cc58     GuMetaData.obj
 0002:00002c70       ??_C@_0M@CMAEPJOI@halfExtents@ 000000018013cc70     GuMetaData.obj
 0002:00002c80       ??_C@_0BH@PKALDLFA@PxConvexMeshGeometryLL@ 000000018013cc80     GuMetaData.obj
 0002:00002c98       ??_C@_0BJ@GAFBNAAE@PxTriangleMeshGeometryLL@ 000000018013cc98     GuMetaData.obj
 0002:00002cb8       ??_C@_0BI@IIFLCNOC@PxHeightFieldGeometryLL@ 000000018013ccb8     GuMetaData.obj
 0002:00002cd0       ??_C@_0BA@NAHKMBFO@PxPlaneGeometry@ 000000018013ccd0     GuMetaData.obj
 0002:00002ce0       ??_C@_0BB@CHBDIEFA@PxSphereGeometry@ 000000018013cce0     GuMetaData.obj
 0002:00002cf8       ??_C@_0BC@LJMOIOOK@PxCapsuleGeometry@ 000000018013ccf8     GuMetaData.obj
 0002:00002d10       ??_C@_0O@OEDJDNFP@PxBoxGeometry@ 000000018013cd10     GuMetaData.obj
 0002:00002d20       ??_C@_0BC@ICOOCLFG@Gu?3?3GeometryUnion@ 000000018013cd20     GuMetaData.obj
 0002:00002d38       ??_7?$SupportLocalImpl@VConvexHullV@Gu@physx@@@Gu@physx@@6B@ 000000018013cd38     GuMTD.obj
 0002:00002d58       ??_7?$SupportLocalImpl@VConvexHullNoScaleV@Gu@physx@@@Gu@physx@@6B@ 000000018013cd58     GuMTD.obj
 0002:00002d78       ??_7?$SupportLocalImpl@VBoxV@Gu@physx@@@Gu@physx@@6B@ 000000018013cd78     GuMTD.obj
 0002:00002d98       ??_7SupportLocal@Gu@physx@@6B@ 000000018013cd98     GuMTD.obj
 0002:00002de0       ?absMask@?1??FAbs@aos@shdfnd@physx@@YA?AT__m128@@T5@@Z@4QBIB 000000018013cde0     GuMTD.obj
 0002:00002df0       ??_7GjkConvexBase@Gu@physx@@6B@ 000000018013cdf0     GuMTD.obj
 0002:00002e20       ??_7?$LocalConvex@VCapsuleV@Gu@physx@@@Gu@physx@@6B@ 000000018013ce20     GuMTD.obj
 0002:00002e50       ??_7?$LocalConvex@VConvexHullV@Gu@physx@@@Gu@physx@@6B@ 000000018013ce50     GuMTD.obj
 0002:00002e80       __real@2edbe6ff            000000018013ce80     GuMTD.obj
 0002:00002e84       __real@3ccccccd            000000018013ce84     GuMTD.obj
 0002:00002e88       __real@3dcccccd            000000018013ce88     GuMTD.obj
 0002:00002e8c       __real@ff7fffff            000000018013ce8c     GuMTD.obj
 0002:00002e90       __xmm@0000000000000000000000003f800000 000000018013ce90     GuMTD.obj
 0002:00002ea0       __xmm@00000000000000003f80000000000000 000000018013cea0     GuMTD.obj
 0002:00002eb0       __xmm@000000003f8000000000000000000000 000000018013ceb0     GuMTD.obj
 0002:00002ec0       __xmm@000000003f8000003f8000003f800000 000000018013cec0     GuMTD.obj
 0002:00002ed0       __xmm@00000000ffffffffffffffffffffffff 000000018013ced0     GuMTD.obj
 0002:00002ee0       __xmm@34000000340000003400000034000000 000000018013cee0     GuMTD.obj
 0002:00002ef0       __xmm@358637bd358637bd358637bd358637bd 000000018013cef0     GuMTD.obj
 0002:00002f00       __xmm@3dcccccd3dcccccd3dcccccd3dcccccd 000000018013cf00     GuMTD.obj
 0002:00002f10       __xmm@3e4ccccd3e4ccccd3e4ccccd3e4ccccd 000000018013cf10     GuMTD.obj
 0002:00002f20       __xmm@3f7ff1413f7ff1413f7ff1413f7ff141 000000018013cf20     GuMTD.obj
 0002:00002f30       __xmm@3f7ff2e53f7ff2e53f7ff2e53f7ff2e5 000000018013cf30     GuMTD.obj
 0002:00002f40       __xmm@3f8000003f8000003f8000003f800000 000000018013cf40     GuMTD.obj
 0002:00002f50       __xmm@7f7fffff7f7fffff7f7fffff7f7fffff 000000018013cf50     GuMTD.obj
 0002:00002f60       __xmm@bf000000bf000000bf000000bf000000 000000018013cf60     GuMTD.obj
 0002:00002f90       ??_7?$RelativeConvex@VBoxV@Gu@physx@@@Gu@physx@@6B@ 000000018013cf90     GuOverlapTests.obj
 0002:00002fc0       ??_7?$RelativeConvex@VConvexHullV@Gu@physx@@@Gu@physx@@6B@ 000000018013cfc0     GuOverlapTests.obj
 0002:00002ff0       ??_C@_0EC@MLIJOGHA@Height?5Field?5Overlap?5test?5calle@ 000000018013cff0     GuOverlapTests.obj
 0002:00003040       ??_C@_0HC@BMICEPEE@C?3?2Users?2Melli?2Documents?2Uni?2Co@ 000000018013d040     GuOverlapTests.obj
 0002:000030f0       ??_C@_0EC@GJLDADPE@Height?5Field?5Raycast?5test?5calle@ 000000018013d0f0     GuRaycastTests.obj
 0002:00003140       ??_C@_0HC@OPEPDIOO@C?3?2Users?2Melli?2Documents?2Uni?2Co@ 000000018013d140     GuRaycastTests.obj
 0002:000031b4       __real@1e3ce508            000000018013d1b4     GuRaycastTests.obj
 0002:000031b8       __real@28800000            000000018013d1b8     GuRaycastTests.obj
 0002:000031bc       __real@33d6bf95            000000018013d1bc     GuRaycastTests.obj
 0002:000031c0       __real@3727c5ac            000000018013d1c0     GuRaycastTests.obj
 0002:000031c4       __real@3f0147ae            000000018013d1c4     GuRaycastTests.obj
 0002:000031c8       __real@3f7ffffe            000000018013d1c8     GuRaycastTests.obj
 0002:000031cc       __real@3f800347            000000018013d1cc     GuRaycastTests.obj
 0002:000031d0       __real@41200000            000000018013d1d0     GuRaycastTests.obj
 0002:000031d4       __real@80000000            000000018013d1d4     GuRaycastTests.obj
 0002:000031d8       __real@b3d6bf95            000000018013d1d8     GuRaycastTests.obj
 0002:000031dc       __real@b8d1b717            000000018013d1dc     GuRaycastTests.obj
 0002:000031e0       __real@c1200000            000000018013d1e0     GuRaycastTests.obj
 0002:00003220       ??_7?$MeshHitCallback@UPxRaycastHit@physx@@@Gu@physx@@6B@ 000000018013d220     GuSweepMTD.obj
 0002:00003230       ??_7MeshMTDGenerationCallback@@6B@ 000000018013d230     GuSweepMTD.obj
 0002:00003240       ??_7MidPhaseQueryLocalReport@@6B@ 000000018013d240     GuSweepMTD.obj
 0002:00003250       __real@3f933333            000000018013d250     GuSweepMTD.obj
 0002:00003260       __xmm@00000000000000003f8000003f800000 000000018013d260     GuSweepMTD.obj
 0002:00003270       __xmm@3e19999a3e19999a3e19999a3e19999a 000000018013d270     GuSweepMTD.obj
 0002:00003280       __xmm@3e8000003e8000003e8000003e800000 000000018013d280     GuSweepMTD.obj
 0002:000032b0       __real@3c23d70a            000000018013d2b0     GuSweepSharedTests.obj
 0002:000032b4       __real@42c80000            000000018013d2b4     GuSweepSharedTests.obj
 0002:000032c0       __xmm@ffffffffffffffffffffffffffffffff 000000018013d2c0     GuSweepSharedTests.obj
 0002:000032f0       ??_C@_0EA@GNDJNJGB@Height?5Field?5Sweep?5test?5called?5@ 000000018013d2f0     GuSweepTests.obj
 0002:00003330       ??_C@_0HA@EPFGPJEG@C?3?2Users?2Melli?2Documents?2Uni?2Co@ 000000018013d330     GuSweepTests.obj
 0002:000033a0       ??_7?$LocalConvex@VBoxV@Gu@physx@@@Gu@physx@@6B@ 000000018013d3a0     GuSweepTests.obj
 0002:000033d0       ??_7?$LocalConvex@VTriangleV@Gu@physx@@@Gu@physx@@6B@ 000000018013d3d0     GuSweepTests.obj
 0002:00003400       __xmm@00000002000000020000000200000002 000000018013d400     GuSweepTests.obj
 0002:00003410       __xmm@3eaaaa9f3eaaaa9f3eaaaa9f3eaaaa9f 000000018013d410     GuSweepTests.obj
 0002:00003440       ??_C@_0HD@HABMODHH@C?3?2Users?2Melli?2Documents?2Uni?2Co@ 000000018013d440     GuAABBTreeBuild.obj
 0002:000034e0       ??_7PxBVHStructure@physx@@6B@ 000000018013d4e0     GuBVHStructure.obj
 0002:00003530       ??_C@_0P@CDPKBIIF@PxBVHStructure@ 000000018013d530     GuBVHStructure.obj
 0002:00003540       ??_7RefCountable@Cm@physx@@6B@ 000000018013d540     GuBVHStructure.obj
 0002:00003550       ??_7BVHStructure@Gu@physx@@6BPxBVHStructure@2@@ 000000018013d550     GuBVHStructure.obj
 0002:000035a0       ??_7BVHStructure@Gu@physx@@6BRefCountable@Cm@2@@ 000000018013d5a0     GuBVHStructure.obj
 0002:000035b0       ??_C@_0HC@JINCLGKG@C?3?2Users?2Melli?2Documents?2Uni?2Co@ 000000018013d5b0     GuBVHStructure.obj
 0002:00003628       ??_C@_0DF@GMOKOMPK@Gu?3?3BVHStructure?3?3release?3?5doub@ 000000018013d628     GuBVHStructure.obj
 0002:000036c0       __real@00000000            000000018013d6c0     GuCCDSweepConvexMesh.obj
 0002:000036c4       __real@3c343958            000000018013d6c4     GuCCDSweepConvexMesh.obj
 0002:000036c8       __real@3ca3d70a            000000018013d6c8     GuCCDSweepConvexMesh.obj
 0002:000036cc       __real@3f0ccccd            000000018013d6cc     GuCCDSweepConvexMesh.obj
 0002:000036d0       __real@3f8ccccd            000000018013d6d0     GuCCDSweepConvexMesh.obj
 0002:000036d4       __real@b58637bd            000000018013d6d4     GuCCDSweepConvexMesh.obj
 0002:000036e0       __xmm@000000000000000000000000fe7fffff 000000018013d6e0     GuCCDSweepConvexMesh.obj
 0002:000036f0       __xmm@fe7ffffffe7fffff7e7fffff7e7fffff 000000018013d6f0     GuCCDSweepConvexMesh.obj
 0002:00003720       ??_7?$RelativeConvex@VCapsuleV@Gu@physx@@@Gu@physx@@6B@ 000000018013d720     GuCCDSweepPrimitives.obj
 0002:00003750       ??_7?$RelativeConvex@VTriangleV@Gu@physx@@@Gu@physx@@6B@ 000000018013d750     GuCCDSweepPrimitives.obj
 0002:00003780       __real@3ba3d70a            000000018013d780     GuCCDSweepPrimitives.obj
 0002:00003784       __real@501502f9            000000018013d784     GuCCDSweepPrimitives.obj
 0002:00003890       __real@3f7fbe77            000000018013d890     GuContactBoxBox.obj
 0002:000038e0       __real@3a83126f            000000018013d8e0     GuContactCapsuleCapsule.obj
 0002:000038e4       __real@3f7ff2e5            000000018013d8e4     GuContactCapsuleCapsule.obj
 0002:000038e8       __real@40800000            000000018013d8e8     GuContactCapsuleCapsule.obj
 0002:00003970       __real@358637be            000000018013d970     GuContactCapsuleMesh.obj
 0002:00003974       __real@3eaaaaab            000000018013d974     GuContactCapsuleMesh.obj
 0002:00003978       __real@3f8020c5            000000018013d978     GuContactCapsuleMesh.obj
 0002:0000397c       __real@ba83126f            000000018013d97c     GuContactCapsuleMesh.obj
 0002:000039d0       ??_7ConvexMeshContactGenerationCallback@@6B@ 000000018013d9d0     GuContactConvexMesh.obj
 0002:00003a50       __real@3ec90fdb            000000018013da50     GuContactPolygonPolygon.obj
 0002:00003a54       __real@3f490fdb            000000018013da54     GuContactPolygonPolygon.obj
 0002:00003a58       __real@3f96cbe4            000000018013da58     GuContactPolygonPolygon.obj
 0002:00003a5c       __real@3fc90fdb            000000018013da5c     GuContactPolygonPolygon.obj
 0002:00003a60       __real@3ffb53d2            000000018013da60     GuContactPolygonPolygon.obj
 0002:00003a64       __real@4016cbe4            000000018013da64     GuContactPolygonPolygon.obj
 0002:00003a68       __real@402feddf            000000018013da68     GuContactPolygonPolygon.obj
 0002:00003a70       __xmm@ff7fffffff7fffffff7fffffff7fffff 000000018013da70     GuContactPolygonPolygon.obj
 0002:00003b20       ??_C@_0GN@IOILJJGJ@C?3?2Users?2Melli?2Documents?2Uni?2Co@ 000000018013db20     GuContactSphereMesh.obj
 0002:00003bd0       __real@bf000000            000000018013dbd0     GuContactSphereSphere.obj
 0002:00003be0       ??_C@_0HK@DBMGJIDD@C?3?2Users?2Melli?2Documents?2Uni?2Co@ 000000018013dbe0     GuBigConvexData.obj
 0002:00003c80       ??_7PxConvexMesh@physx@@6B@ 000000018013dc80     GuConvexMesh.obj
 0002:00003cf8       ??_7ConvexMesh@Gu@physx@@6BPxConvexMesh@2@@ 000000018013dcf8     GuConvexMesh.obj
 0002:00003d80       ??_7ConvexMesh@Gu@physx@@6BRefCountable@Cm@2@@ 000000018013dd80     GuConvexMesh.obj
 0002:00003d90       ??_C@_0HH@BEEAMAME@C?3?2Users?2Melli?2Documents?2Uni?2Co@ 000000018013dd90     GuConvexMesh.obj
 0002:00003e08       ??_C@_0DM@NEJKOFIP@Loading?5convex?5mesh?5failed?3?5Dep@ 000000018013de08     GuConvexMesh.obj
 0002:00003e48       ??_C@_0DD@GDAMDLJL@Gu?3?3ConvexMesh?3?3release?3?5double@ 000000018013de48     GuConvexMesh.obj
 0002:00003ea0       __xmm@000000000000000000000000ffffffff 000000018013dea0     GuConvexSupportTable.obj
 0002:00003eb0       __xmm@0000000000000000ffffffff00000000 000000018013deb0     GuConvexSupportTable.obj
 0002:00003ec0       __xmm@0000000000000000ffffffffffffffff 000000018013dec0     GuConvexSupportTable.obj
 0002:00003ed0       __xmm@00000000ffffffff0000000000000000 000000018013ded0     GuConvexSupportTable.obj
 0002:00003ee0       __xmm@00000000ffffffff00000000ffffffff 000000018013dee0     GuConvexSupportTable.obj
 0002:00003ef0       __xmm@00000000ffffffffffffffff00000000 000000018013def0     GuConvexSupportTable.obj
 0002:00003fa0       __real@2b8cbccc            000000018013dfa0     GuDistanceSegmentTriangle.obj
 0002:00003fb0       __xmm@3f8000013f8000013f8000013f800001 000000018013dfb0     GuDistanceSegmentTriangle.obj
 0002:00003fc0       __xmm@b4000000b4000000b4000000b4000000 000000018013dfc0     GuDistanceSegmentTriangle.obj
 0002:00004020       __xmm@38d1b71738d1b71738d1b71738d1b717 000000018013e020     GuGJKSimplex.obj
 0002:00004030       __xmm@b58637bdb58637bdb58637bdb58637bd 000000018013e030     GuGJKSimplex.obj
 0002:00004060       ??_7PxHeightField@physx@@6B@ 000000018013e060     GuHeightField.obj
 0002:00004100       ??_7HeightField@Gu@physx@@6BPxHeightField@2@@ 000000018013e100     GuHeightField.obj
 0002:000041b0       ??_7HeightField@Gu@physx@@6BRefCountable@Cm@2@@ 000000018013e1b0     GuHeightField.obj
 0002:000041c0       ??_C@_0DL@DNGFPCEG@Gu?3?3HeightField?3?3onRefCountZero@ 000000018013e1c0     GuHeightField.obj
 0002:00004200       ??_C@_0HE@DDMINOHF@C?3?2Users?2Melli?2Documents?2Uni?2Co@ 000000018013e200     GuHeightField.obj
 0002:00004278       ??_C@_0CI@DMKEKGNK@Gu?3?3HeightField?3?3load?3?5PX_ALLOC@ 000000018013e278     GuHeightField.obj
 0002:000042a0       ??_C@_0GH@IIGHPPLB@C?3?2Users?2Melli?2Documents?2Uni?2Co@ 000000018013e2a0     GuHeightField.obj
 0002:00004330       __real@3a03126f            000000018013e330     GuHeightFieldUtil.obj
 0002:00004334       __real@3f19999a            000000018013e334     GuHeightFieldUtil.obj
 0002:000043a0       ??_7HeightFieldTraceSegmentReport@@6B@ 000000018013e3a0     GuSweepsHF.obj
 0002:000043b0       ??_7CapsuleTraceSegmentReport@@6B@ 000000018013e3b0     GuSweepsHF.obj
 0002:000043c0       ??_7ConvexTraceSegmentReport@@6B@ 000000018013e3c0     GuSweepsHF.obj
 0002:000043d0       ??_7BoxTraceSegmentReport@@6B@ 000000018013e3d0     GuSweepsHF.obj
 0002:000043e0       __real@aedbe6ff            000000018013e3e0     GuSweepsHF.obj
 0002:00004410       __real@3089705f            000000018013e410     GuIntersectionRayBox.obj
 0002:00004414       __real@34000000            000000018013e414     GuIntersectionRayBox.obj
 0002:00004418       __real@b4000000            000000018013e418     GuIntersectionRayBox.obj
 0002:00004420       __xmm@000000003089705f3089705f3089705f 000000018013e420     GuIntersectionRayBox.obj
 0002:00004430       __xmm@00000000bf800000bf800000bf800000 000000018013e430     GuIntersectionRayBox.obj
 0002:00004480       ??_C@_0GO@IKNNOIBI@C?3?2Users?2Melli?2Documents?2Uni?2Co@ 000000018013e480     GuBV4.obj
 0002:00004510       ??_C@_0HD@GPCEPFOL@C?3?2Users?2Melli?2Documents?2Uni?2Co@ 000000018013e510     GuBV4Build.obj
 0002:00004584       __real@38000100            000000018013e584     GuBV4Build.obj
 0002:00004588       __real@3e93cd3a            000000018013e588     GuBV4Build.obj
 0002:0000458c       __real@46fffe00            000000018013e58c     GuBV4Build.obj
 0002:00004590       __real@be93cd3a            000000018013e590     GuBV4Build.obj
 0002:000045c0       __xmm@0000ffff0000ffff0000ffff0000ffff 000000018013e5c0     GuBV4_AABBSweep.obj
 0002:000045d0       __xmm@3089705f3089705f3089705f3089705f 000000018013e5d0     GuBV4_AABBSweep.obj
 0002:000045e0       __xmm@33d6bf9533d6bf9533d6bf9533d6bf95 000000018013e5e0     GuBV4_AABBSweep.obj
 0002:000045f0       __xmm@40000000400000004000000040000000 000000018013e5f0     GuBV4_AABBSweep.obj
 0002:00004700       __xmm@00000000000000007f7fffff00000000 000000018013e700     GuMidphaseBV4.obj
 0002:00004770       ??_C@_0FD@EHCCILIF@Adjacency?5information?5not?5creat@ 000000018013e770     GuMeshQuery.obj
 0002:000047d0       ??_C@_0HE@DACACGBO@C?3?2Users?2Melli?2Documents?2Uni?2Co@ 000000018013e7d0     GuMeshQuery.obj
 0002:00004844       __real@4cbebc20            000000018013e844     GuMeshQuery.obj
 0002:00004870       ??_7Callback@RTree@Gu@physx@@6B@ 000000018013e870     GuMidphaseRTree.obj
 0002:00004888       ??_7CallbackRaycast@RTree@Gu@physx@@6B@ 000000018013e888     GuMidphaseRTree.obj
 0002:00004888       ??_7CallbackRefit@RTree@Gu@physx@@6B@ 000000018013e888     GuTriangleMeshRTree.obj
 0002:00004898       ??_7?$RayRTreeCallback@$00$0A@@@6BCallbackRaycast@RTree@Gu@physx@@@ 000000018013e898     GuMidphaseRTree.obj
 0002:00004898       ??_7?$RayRTreeCallback@$0A@$0A@@@6BCallbackRaycast@RTree@Gu@physx@@@ 000000018013e898     GuMidphaseRTree.obj
 0002:000048a8       ??_7?$RayRTreeCallback@$00$0A@@@6BCallback@RTree@Gu@physx@@@ 000000018013e8a8     GuMidphaseRTree.obj
 0002:000048a8       ??_7?$RayRTreeCallback@$0A@$0A@@@6BCallback@RTree@Gu@physx@@@ 000000018013e8a8     GuMidphaseRTree.obj
 0002:000048c0       ??_7RayMeshColliderCallback@@6B@ 000000018013e8c0     GuMidphaseRTree.obj
 0002:000048d0       ??_7?$RayRTreeCallback@$0A@$00@@6BCallbackRaycast@RTree@Gu@physx@@@ 000000018013e8d0     GuMidphaseRTree.obj
 0002:000048e0       ??_7?$RayRTreeCallback@$0A@$00@@6BCallback@RTree@Gu@physx@@@ 000000018013e8e0     GuMidphaseRTree.obj
 0002:000048f8       ??_7?$RayRTreeCallback@$00$00@@6BCallbackRaycast@RTree@Gu@physx@@@ 000000018013e8f8     GuMidphaseRTree.obj
 0002:00004908       ??_7?$RayRTreeCallback@$00$00@@6BCallback@RTree@Gu@physx@@@ 000000018013e908     GuMidphaseRTree.obj
 0002:000049e0       ??_7ConvexVsMeshOverlapCallback@@6B@ 000000018013e9e0     GuOverlapTestsMesh.obj
 0002:000049f0       ?MN@RTreePage@Gu@physx@@2MB 000000018013e9f0     GuRTree.obj
 0002:000049f4       ?MX@RTreePage@Gu@physx@@2MB 000000018013e9f4     GuRTree.obj
 0002:00004a20       ??_C@_0HA@OEHEEACJ@C?3?2Users?2Melli?2Documents?2Uni?2Co@ 000000018013ea20     GuRTree.obj
 0002:00004b00       ??_7SweepShapeMeshHitCallback@Gu@physx@@6B@ 000000018013eb00     GuSweepsMesh.obj
 0002:00004b10       ??_7SweepCapsuleMeshHitCallback@Gu@physx@@6B@ 000000018013eb10     GuSweepsMesh.obj
 0002:00004b20       ??_7SweepBoxMeshHitCallback@Gu@physx@@6B@ 000000018013eb20     GuSweepsMesh.obj
 0002:00004b30       ??_7SweepConvexMeshHitCallback@Gu@physx@@6B@ 000000018013eb30     GuSweepsMesh.obj
 0002:00004b60       ??_7PxTriangleMesh@physx@@6B@ 000000018013eb60     GuTriangleMesh.obj
 0002:00004be8       ??_7TriangleMesh@Gu@physx@@6BPxTriangleMesh@2@@ 000000018013ebe8     GuTriangleMesh.obj
 0002:00004c88       ??_7TriangleMesh@Gu@physx@@6BRefCountable@Cm@2@@ 000000018013ec88     GuTriangleMesh.obj
 0002:00004c98       ??_C@_0DF@DNLKAHAL@Gu?3?3TriangleMesh?3?3release?3?5doub@ 000000018013ec98     GuTriangleMesh.obj
 0002:00004cd0       ??_C@_0HH@CKBAGPCF@C?3?2Users?2Melli?2Documents?2Uni?2Co@ 000000018013ecd0     GuTriangleMesh.obj
 0002:00004d50       ??_C@_0GH@IGKFPLIJ@PxTriangleMesh?3?3getVerticesForM@ 000000018013ed50     GuTriangleMesh.obj
 0002:00004dc0       ??_C@_0FF@LHAOBIMM@PxTriangleMesh?3?3refitBVH?$CI?$CJ?5is?5o@ 000000018013edc0     GuTriangleMesh.obj
 0002:00004e40       ??_C@_0BE@CNJKIINO@PxBVH34TriangleMesh@ 000000018013ee40     GuTriangleMeshBV4.obj
 0002:00004e58       ??_7BV4TriangleMesh@Gu@physx@@6BPxTriangleMesh@2@@ 000000018013ee58     GuTriangleMeshBV4.obj
 0002:00004ef8       ??_7BV4TriangleMesh@Gu@physx@@6BRefCountable@Cm@2@@ 000000018013eef8     GuTriangleMeshBV4.obj
 0002:00004f30       ??_C@_0BE@EIFHCCBO@PxBVH33TriangleMesh@ 000000018013ef30     GuTriangleMeshRTree.obj
 0002:00004f48       ??_7RTreeTriangleMesh@Gu@physx@@6BPxTriangleMesh@2@@ 000000018013ef48     GuTriangleMeshRTree.obj
 0002:00004fe8       ??_7RTreeTriangleMesh@Gu@physx@@6BRefCountable@Cm@2@@ 000000018013efe8     GuTriangleMeshRTree.obj
 0002:00004ff8       ??_7?$RefitCallback@G@physx@@6B@ 000000018013eff8     GuTriangleMeshRTree.obj
 0002:00005008       ??_7?$RefitCallback@I@physx@@6B@ 000000018013f008     GuTriangleMeshRTree.obj
 0002:00005020       __xmm@38383838383838383838383838383838 000000018013f020     GuTriangleMeshRTree.obj
 0002:00005030       ??_C@_0GP@GPKFKEKP@C?3?2Users?2Melli?2Documents?2Uni?2Co@ 000000018013f030     GuBV32.obj
 0002:000050c0       ??_C@_0HE@GFOKPICL@C?3?2Users?2Melli?2Documents?2Uni?2Co@ 000000018013f0c0     GuBV32Build.obj
 0002:00005160       __xmm@00000000358637bd358637bd358637bd 000000018013f160     GuPCMContactBoxBox.obj
 0002:00005170       __xmm@3d4ccccd3d4ccccd3d4ccccd3d4ccccd 000000018013f170     GuPCMContactBoxBox.obj
 0002:00005180       __xmm@3f4ccccd3f4ccccd3f4ccccd3f4ccccd 000000018013f180     GuPCMContactBoxBox.obj
 0002:00005190       __xmm@ffffffff00000000ffffffffffffffff 000000018013f190     GuPCMContactBoxBox.obj
 0002:000051c0       ??_7?$LocalConvex@VConvexHullNoScaleV@Gu@physx@@@Gu@physx@@6B@ 000000018013f1c0     GuPCMContactBoxConvex.obj
 0002:000051f0       __xmm@3f3504f33f3504f33f3504f33f3504f3 000000018013f1f0     GuPCMContactBoxConvex.obj
 0002:00005240       __xmm@ffffffffffffffffffffffff00000000 000000018013f240     GuPCMContactCapsuleCapsule.obj
 0002:00005270       __xmm@3fa000003fa000003fa000003fa00000 000000018013f270     GuPCMContactCapsuleConvex.obj
 0002:000052a0       ??_7PCMCapsuleVsHeightfieldContactGenerationCallback@physx@@6B@ 000000018013f2a0     GuPCMContactCapsuleHeightField.obj
 0002:000052b0       __real@3f7f3b64            000000018013f2b0     GuPCMContactCapsuleHeightField.obj
 0002:000052c0       __xmm@3f7ef9db3f7ef9db3f7ef9db3f7ef9db 000000018013f2c0     GuPCMContactCapsuleHeightField.obj
 0002:00005300       ??_7PCMCapsuleVsMeshContactGenerationCallback@physx@@6B@ 000000018013f300     GuPCMContactCapsuleMesh.obj
 0002:00005330       ??_7?$SupportLocalImpl@VTriangleV@Gu@physx@@@Gu@physx@@6B@ 000000018013f330     GuPCMContactConvexCommon.obj
 0002:00005350       ??_C@_0HG@HPGGJPJJ@C?3?2Users?2Melli?2Documents?2Uni?2Co@ 000000018013f350     GuPCMContactConvexCommon.obj
 0002:000053d0       __xmm@3cf5c2803cf5c2803cf5c2803cf5c280 000000018013f3d0     GuPCMContactConvexCommon.obj
 0002:000053e0       __xmm@3f7851ec3f7851ec3f7851ec3f7851ec 000000018013f3e0     GuPCMContactConvexCommon.obj
 0002:000053f0       __xmm@3f7ff9723f7ff9723f7ff9723f7ff972 000000018013f3f0     GuPCMContactConvexCommon.obj
 0002:00005400       __xmm@3f7fffef3f7fffef3f7fffef3f7fffef 000000018013f400     GuPCMContactConvexCommon.obj
 0002:00005430       ??_7?$RelativeConvex@VConvexHullNoScaleV@Gu@physx@@@Gu@physx@@6B@ 000000018013f430     GuPCMContactConvexConvex.obj
 0002:00005480       ??_7PCMConvexVsHeightfieldContactGenerationCallback@physx@@6B@ 000000018013f480     GuPCMContactConvexHeightField.obj
 0002:00005490       __xmm@3f19999a3f19999a3f19999a3f19999a 000000018013f490     GuPCMContactConvexHeightField.obj
 0002:000054d0       ??_7PCMConvexVsMeshContactGenerationCallback@physx@@6B@ 000000018013f4d0     GuPCMContactConvexMesh.obj
 0002:00005500       __xmm@3f34fdf43f34fdf43f34fdf43f34fdf4 000000018013f500     GuPCMContactGenBoxConvex.obj
 0002:00005530       __xmm@3f80a3d73f80a3d73f80a3d73f80a3d7 000000018013f530     GuPCMContactGenSphereCapsule.obj
 0002:00005540       __xmm@bba3d70abba3d70abba3d70abba3d70a 000000018013f540     GuPCMContactGenSphereCapsule.obj
 0002:00005590       __real@3b23d70b            000000018013f590     GuPCMContactPlaneCapsule.obj
 0002:000055a0       __xmm@3ca3d70a3ca3d70a3ca3d70a3ca3d70a 000000018013f5a0     GuPCMContactPlaneCapsule.obj
 0002:00005650       ??_7PCMSphereVsHeightfieldContactGenerationCallback@physx@@6B@ 000000018013f650     GuPCMContactSphereHeightField.obj
 0002:00005690       ??_7PCMSphereVsMeshContactGenerationCallback@physx@@6B@ 000000018013f690     GuPCMContactSphereMesh.obj
 0002:000056e0       __xmm@3727c5ac3727c5ac3727c5ac3727c5ac 000000018013f6e0     GuPCMContactSphereSphere.obj
 0002:00005710       ?gPCMBoxPolygonData@Gu@physx@@3QBEB 000000018013f710     GuPCMShapeConvex.obj
 0002:00005750       ?invalidateThresholds@Gu@physx@@3QBMB 000000018013f750     GuPersistentContactManifold.obj
 0002:00005768       ?invalidateQuatThresholds@Gu@physx@@3QBMB 000000018013f768     GuPersistentContactManifold.obj
 0002:00005780       ?invalidateThresholds2@Gu@physx@@3QBMB 000000018013f780     GuPersistentContactManifold.obj
 0002:00005790       ?invalidateQuatThresholds2@Gu@physx@@3QBMB 000000018013f790     GuPersistentContactManifold.obj
 0002:000057c0       __xmm@000000003f8000003f80000000000000 000000018013f7c0     GuPersistentContactManifold.obj
 0002:000057d0       __xmm@00000000bf8000003f80000000000000 000000018013f7d0     GuPersistentContactManifold.obj
 0002:000057e0       __xmm@ffffffffffffffff00000000ffffffff 000000018013f7e0     GuPersistentContactManifold.obj
 0002:00005830       __real@b727c5ac            000000018013f830     GuSweepBoxSphere.obj
 0002:000058a0       ??_C@_0HL@OFLDKNAI@C?3?2Users?2Melli?2Documents?2Uni?2Co@ 000000018013f8a0     GuSweepCapsuleBox.obj
 0002:00005940       __real@3f7fff58            000000018013f940     GuSweepCapsuleTriangle.obj
 0002:00005990       __sz_PhysXFoundation_64_dll 000000018013f990     PhysXFoundation_64:PhysXFoundation_64.dll
 0002:000059a8       ??_C@_1BK@DBDEIDLH@?$AAK?$AAE?$AAR?$AAN?$AAE?$AAL?$AA3?$AA2?$AA?4?$AAD?$AAL?$AAL@ 000000018013f9a8     Delayimp:delayhlp.obj
 0002:000059c8       ??_C@_0BI@OMNLIJDB@AcquireSRWLockExclusive@ 000000018013f9c8     Delayimp:delayhlp.obj
 0002:000059e0       ??_C@_0BI@HMIEPCNJ@ReleaseSRWLockExclusive@ 000000018013f9e0     Delayimp:delayhlp.obj
 0002:000059f8       __pfnDliFailureHook2       000000018013f9f8     Delayimp:delayhk1.obj
 0002:00005a08       ??_7type_info@@6B@         000000018013fa08     LIBCMT:std_type_info_static.obj
 0002:00005a70       _pDefaultRawDllMain        000000018013fa70     LIBCMT:dll_dllmain.obj
 0002:00005a70       _pRawDllMain               000000018013fa70     LIBCMT:dll_dllmain.obj
 0002:00005a80       _load_config_used          000000018013fa80     LIBCMT:loadcfg.obj
 0002:00005bb8       _pDestructExceptionObject  000000018013fbb8     libvcruntime:ehhelpers.obj
 0002:000062c0       ??_C@_08EHJDFFNH@__based?$CI@ 00000001801402c0     libvcruntime:undname.obj
 0002:000062d0       ??_C@_07KOLFKCDI@__cdecl@  00000001801402d0     libvcruntime:undname.obj
 0002:000062d8       ??_C@_08GHMPAG@__pascal@   00000001801402d8     libvcruntime:undname.obj
 0002:000062e8       ??_C@_09IFJBGAPI@__stdcall@ 00000001801402e8     libvcruntime:undname.obj
 0002:000062f8       ??_C@_0L@NPHFGOKO@__thiscall@ 00000001801402f8     libvcruntime:undname.obj
 0002:00006308       ??_C@_0L@JMKHOMEK@__fastcall@ 0000000180140308     libvcruntime:undname.obj
 0002:00006318       ??_C@_0N@BCKKPABJ@__vectorcall@ 0000000180140318     libvcruntime:undname.obj
 0002:00006328       ??_C@_09HIJEGCPM@__clrcall@ 0000000180140328     libvcruntime:undname.obj
 0002:00006334       ??_C@_06GHPCKEAG@__eabi@   0000000180140334     libvcruntime:undname.obj
 0002:00006340       ??_C@_09IOPIDJLG@__swift_1@ 0000000180140340     libvcruntime:undname.obj
 0002:00006350       ??_C@_09KFNFGKHF@__swift_2@ 0000000180140350     libvcruntime:undname.obj
 0002:00006360       ??_C@_07JOMMBBKO@__ptr64@  0000000180140360     libvcruntime:undname.obj
 0002:00006368       ??_C@_0L@PILCLIHE@__restrict@ 0000000180140368     libvcruntime:undname.obj
 0002:00006378       ??_C@_0M@GFIIJFMG@__unaligned@ 0000000180140378     libvcruntime:undname.obj
 0002:00006388       ??_C@_09DHDLOLLB@restrict?$CI@ 0000000180140388     libvcruntime:undname.obj
 0002:00006392       ??_C@_00CNPNBAHC@@         0000000180140392     libvcruntime:undname.obj
 0002:00006394       ??_C@_04NIHEBCM@?5new@     0000000180140394     libvcruntime:undname.obj
 0002:000063a0       ??_C@_07FPCDHGMM@?5delete@ 00000001801403a0     libvcruntime:undname.obj
 0002:000063a8       ??_C@_01NEMOKFLO@?$DN@     00000001801403a8     libvcruntime:undname.obj
 0002:000063ac       ??_C@_02GPIOPFAK@?$DO?$DO@ 00000001801403ac     libvcruntime:undname.obj
 0002:000063b0       ??_C@_02FODMEDOG@?$DM?$DM@ 00000001801403b0     libvcruntime:undname.obj
 0002:000063b4       ??_C@_01DCLJPIOD@?$CB@     00000001801403b4     libvcruntime:undname.obj
 0002:000063b8       ??_C@_02EGOFBIJA@?$DN?$DN@ 00000001801403b8     libvcruntime:undname.obj
 0002:000063bc       ??_C@_02FDNJECIE@?$CB?$DN@ 00000001801403bc     libvcruntime:undname.obj
 0002:000063c0       ??_C@_02GPECMEKF@?$FL?$FN@ 00000001801403c0     libvcruntime:undname.obj
 0002:000063c8       ??_C@_08LHJFAFGD@operator@ 00000001801403c8     libvcruntime:undname.obj
 0002:000063d4       ??_C@_02HBOOOICD@?9?$DO@   00000001801403d4     libvcruntime:undname.obj
 0002:000063d8       ??_C@_01NBENCBCI@?$CK@     00000001801403d8     libvcruntime:undname.obj
 0002:000063dc       ??_C@_02ECNGHCIF@?$CL?$CL@ 00000001801403dc     libvcruntime:undname.obj
 0002:000063e0       ??_C@_02BAABKJLB@?9?9@     00000001801403e0     libvcruntime:undname.obj
 0002:000063e4       ??_C@_01JOAMLHOP@?9@       00000001801403e4     libvcruntime:undname.obj
 0002:000063e8       ??_C@_01MIFGBAGJ@?$CL@     00000001801403e8     libvcruntime:undname.obj
 0002:000063ec       ??_C@_01HNPIGOCE@?$CG@     00000001801403ec     libvcruntime:undname.obj
 0002:000063f0       ??_C@_03MNHNFDLC@?9?$DO?$CK@ 00000001801403f0     libvcruntime:undname.obj
 0002:000063f4       ??_C@_01KMDKNFGN@?1@       00000001801403f4     libvcruntime:undname.obj
 0002:000063f8       ??_C@_01FGNFDNOH@?$CF@     00000001801403f8     libvcruntime:undname.obj
 0002:000063fc       ??_C@_01MNNFJEPP@?$DM@     00000001801403fc     libvcruntime:undname.obj
 0002:00006400       ??_C@_02EHCHHCKH@?$DM?$DN@ 0000000180140400     libvcruntime:undname.obj
 0002:00006404       ??_C@_01PPODPGHN@?$DO@     0000000180140404     libvcruntime:undname.obj
 0002:00006408       ??_C@_02EEKDKGMJ@?$DO?$DN@ 0000000180140408     libvcruntime:undname.obj
 0002:0000640c       ??_C@_01IHBHIGKO@?0@       000000018014040c     libvcruntime:undname.obj
 0002:00006410       ??_C@_02HCKGKOFO@?$CI?$CJ@ 0000000180140410     libvcruntime:undname.obj
 0002:00006414       ??_C@_01PJKLJHI@?$HO@      0000000180140414     libvcruntime:undname.obj
 0002:00006418       ??_C@_01JKBOJNNK@?$FO@     0000000180140418     libvcruntime:undname.obj
 0002:0000641c       ??_C@_01DNKMNLPK@?$HM@     000000018014041c     libvcruntime:undname.obj
 0002:00006420       ??_C@_02PPKAJPJL@?$CG?$CG@ 0000000180140420     libvcruntime:undname.obj
 0002:00006424       ??_C@_02NONPIBCD@?$HM?$HM@ 0000000180140424     libvcruntime:undname.obj
 0002:00006428       ??_C@_02FPIMKNGF@?$CK?$DN@ 0000000180140428     libvcruntime:undname.obj
 0002:0000642c       ??_C@_02FOEOMHFC@?$CL?$DN@ 000000018014042c     libvcruntime:undname.obj
 0002:00006430       ??_C@_02FKMDLLOA@?9?$DN@   0000000180140430     libvcruntime:undname.obj
 0002:00006434       ??_C@_02FJEHGPIO@?1?$DN@   0000000180140434     libvcruntime:undname.obj
 0002:00006438       ??_C@_02FENAOKFI@?$CF?$DN@ 0000000180140438     libvcruntime:undname.obj
 0002:0000643c       ??_C@_03IKFCCPFF@?$DO?$DO?$DN@ 000000018014043c     libvcruntime:undname.obj
 0002:00006440       ??_C@_03CDNPDDLA@?$DM?$DM?$DN@ 0000000180140440     libvcruntime:undname.obj
 0002:00006444       ??_C@_02FGJGFEAB@?$CG?$DN@ 0000000180140444     libvcruntime:undname.obj
 0002:00006448       ??_C@_02DHLNPPGH@?$HM?$DN@ 0000000180140448     libvcruntime:undname.obj
 0002:0000644c       ??_C@_02MHEGNOJ@?$FO?$DN@  000000018014044c     libvcruntime:undname.obj
 0002:00006450       ??_C@_09IFPLHPGF@?$GAvftable?8@ 0000000180140450     libvcruntime:undname.obj
 0002:00006460       ??_C@_09BLBHBJP@?$GAvbtable?8@ 0000000180140460     libvcruntime:undname.obj
 0002:00006470       ??_C@_07FEEIOKP@?$GAvcall?8@ 0000000180140470     libvcruntime:undname.obj
 0002:00006478       ??_C@_08LLFFHHDJ@?$GAtypeof?8@ 0000000180140478     libvcruntime:undname.obj
 0002:00006488       ??_C@_0BF@KDPPACIK@?$GAlocal?5static?5guard?8@ 0000000180140488     libvcruntime:undname.obj
 0002:000064a0       ??_C@_08OBABFOLI@?$GAstring?8@ 00000001801404a0     libvcruntime:undname.obj
 0002:000064b0       ??_C@_0BD@JDLKDPAB@?$GAvbase?5destructor?8@ 00000001801404b0     libvcruntime:undname.obj
 0002:000064c8       ??_C@_0BN@DEGPLNFK@?$GAvector?5deleting?5destructor?8@ 00000001801404c8     libvcruntime:undname.obj
 0002:000064e8       ??_C@_0BO@OBMKPJIG@?$GAdefault?5constructor?5closure?8@ 00000001801404e8     libvcruntime:undname.obj
 0002:00006508       ??_C@_0BN@IMDCHIKM@?$GAscalar?5deleting?5destructor?8@ 0000000180140508     libvcruntime:undname.obj
 0002:00006528       ??_C@_0BO@PFGOCPJJ@?$GAvector?5constructor?5iterator?8@ 0000000180140528     libvcruntime:undname.obj
 0002:00006548       ??_C@_0BN@LFPFMEDL@?$GAvector?5destructor?5iterator?8@ 0000000180140548     libvcruntime:undname.obj
 0002:00006568       ??_C@_0CE@IKBNEHA@?$GAvector?5vbase?5constructor?5itera@ 0000000180140568     libvcruntime:undname.obj
 0002:00006590       ??_C@_0BL@NILFHHPC@?$GAvirtual?5displacement?5map?8@ 0000000180140590     libvcruntime:undname.obj
 0002:000065b0       ??_C@_0CB@JONCMFFK@?$GAeh?5vector?5constructor?5iterator@ 00000001801405b0     libvcruntime:undname.obj
 0002:000065d8       ??_C@_0CA@GCEOPDGL@?$GAeh?5vector?5destructor?5iterator?8@ 00000001801405d8     libvcruntime:undname.obj
 0002:000065f8       ??_C@_0CH@OOJPLCPH@?$GAeh?5vector?5vbase?5constructor?5it@ 00000001801405f8     libvcruntime:undname.obj
 0002:00006620       ??_C@_0BL@LLKPOHJI@?$GAcopy?5constructor?5closure?8@ 0000000180140620     libvcruntime:undname.obj
 0002:00006640       ??_C@_0BA@KBCDOMBN@?$GAudt?5returning?8@ 0000000180140640     libvcruntime:undname.obj
 0002:00006650       ??_C@_03KLGMFNMG@?$GAEH@   0000000180140650     libvcruntime:undname.obj
 0002:00006654       ??_C@_05KHLCHHI@?$GARTTI@  0000000180140654     libvcruntime:undname.obj
 0002:00006660       ??_C@_0BA@KKLDJDLB@?$GAlocal?5vftable?8@ 0000000180140660     libvcruntime:undname.obj
 0002:00006670       ??_C@_0CE@IIHCMGGL@?$GAlocal?5vftable?5constructor?5clos@ 0000000180140670     libvcruntime:undname.obj
 0002:00006694       ??_C@_06FHBGPFGH@?5new?$FL?$FN@ 0000000180140694     libvcruntime:undname.obj
 0002:000066a0       ??_C@_09LBNFPBCA@?5delete?$FL?$FN@ 00000001801406a0     libvcruntime:undname.obj
 0002:000066b0       ??_C@_0P@HJKNJFNN@?$GAomni?5callsig?8@ 00000001801406b0     libvcruntime:undname.obj
 0002:000066c0       ??_C@_0BL@CNOONJFP@?$GAplacement?5delete?5closure?8@ 00000001801406c0     libvcruntime:undname.obj
 0002:000066e0       ??_C@_0BN@CKNJLHMB@?$GAplacement?5delete?$FL?$FN?5closure?8@ 00000001801406e0     libvcruntime:undname.obj
 0002:00006700       ??_C@_0CG@CFDHKGGD@?$GAmanaged?5vector?5constructor?5ite@ 0000000180140700     libvcruntime:undname.obj
 0002:00006728       ??_C@_0CF@IMGKMJNO@?$GAmanaged?5vector?5destructor?5iter@ 0000000180140728     libvcruntime:undname.obj
 0002:00006750       ??_C@_0CG@HLDDJMAG@?$GAeh?5vector?5copy?5constructor?5ite@ 0000000180140750     libvcruntime:undname.obj
 0002:00006778       ??_C@_0CM@FCBBDIGB@?$GAeh?5vector?5vbase?5copy?5construct@ 0000000180140778     libvcruntime:undname.obj
 0002:000067a8       ??_C@_0BL@CLIPGLGB@?$GAdynamic?5initializer?5for?5?8@ 00000001801407a8     libvcruntime:undname.obj
 0002:000067c8       ??_C@_0CB@PDBIFEP@?$GAdynamic?5atexit?5destructor?5for?5@ 00000001801407c8     libvcruntime:undname.obj
 0002:000067f0       ??_C@_0CD@CGAJBKEJ@?$GAvector?5copy?5constructor?5iterat@ 00000001801407f0     libvcruntime:undname.obj
 0002:00006818       ??_C@_0CJ@GJELGAMM@?$GAvector?5vbase?5copy?5constructor?5@ 0000000180140818     libvcruntime:undname.obj
 0002:00006848       ??_C@_0CL@FGIJHLCE@?$GAmanaged?5vector?5copy?5constructo@ 0000000180140848     libvcruntime:undname.obj
 0002:00006878       ??_C@_0BM@PMGGMLDN@?$GAlocal?5static?5thread?5guard?8@ 0000000180140878     libvcruntime:undname.obj
 0002:00006898       ??_C@_0N@BDNMDMOL@operator?5?$CC?$CC?5@ 0000000180140898     libvcruntime:undname.obj
 0002:000068a8       ??_C@_0BC@GGEBGALA@operator?5co_await@ 00000001801408a8     libvcruntime:undname.obj
 0002:000068c0       ??_C@_0M@GAAIMMOH@operator?$DM?$DN?$DO@ 00000001801408c0     libvcruntime:undname.obj
 0002:000068d0       ??_C@_0BC@DAFEJGAK@?5Type?5Descriptor?8@ 00000001801408d0     libvcruntime:undname.obj
 0002:000068e8       ??_C@_0BM@LDKODKLH@?5Base?5Class?5Descriptor?5at?5?$CI@ 00000001801408e8     libvcruntime:undname.obj
 0002:00006908       ??_C@_0BD@LGICGFMM@?5Base?5Class?5Array?8@ 0000000180140908     libvcruntime:undname.obj
 0002:00006920       ??_C@_0BN@MECKDCOJ@?5Class?5Hierarchy?5Descriptor?8@ 0000000180140920     libvcruntime:undname.obj
 0002:00006940       ??_C@_0BK@CFCOFLF@?5Complete?5Object?5Locator?8@ 0000000180140940     libvcruntime:undname.obj
 0002:00006960       ??_C@_0BG@JNJLAMPM@?$GAanonymous?5namespace?8@ 0000000180140960     libvcruntime:undname.obj
 0002:00006978       ??_C@_04HEJADOOB@CV?3?5@   0000000180140978     libvcruntime:undname.obj
 0002:00006980       ??_C@_02MOLJINC@?3?3@      0000000180140980     libvcruntime:undname.obj
 0002:00006988       ??_C@_0BE@JAEOCHPE@template?9parameter?9@ 0000000180140988     libvcruntime:undname.obj
 0002:000069a0       ??_C@_0BF@LNLGBBNL@?$GAtemplate?9parameter?9@ 00000001801409a0     libvcruntime:undname.obj
 0002:000069b8       ??_C@_0O@KHGCOMHP@generic?9type?9@ 00000001801409b8     libvcruntime:undname.obj
 0002:000069c8       ??_C@_0P@ODDENDLM@?$GAgeneric?9type?9@ 00000001801409c8     libvcruntime:undname.obj
 0002:000069d8       ??_C@_02OHHJMEON@?8?8@     00000001801409d8     libvcruntime:undname.obj
 0002:000069e0       ??_C@_0BN@IBLMMFAP@?$GAnon?9type?9template?9parameter@ 00000001801409e0     libvcruntime:undname.obj
 0002:00006a00       ??_C@_03DLDNIBIK@?$CFlf@   0000000180140a00     libvcruntime:undname.obj
 0002:00006a04       ??_C@_04OFALKAJ@?$DP?$DP_C@ 0000000180140a04     libvcruntime:undname.obj
 0002:00006a0c       ??_C@_03KHICJKCI@?4?4?4@   0000000180140a0c     libvcruntime:undname.obj
 0002:00006a10       ??_C@_04HIBGFPH@NULL@      0000000180140a10     libvcruntime:undname.obj
 0002:00006a18       ??_C@_02DPKJAMEF@?$CFd@    0000000180140a18     libvcruntime:undname.obj
 0002:00006a20       ??_C@_0BK@IHCCFNEL@?$GAtemplate?9type?9parameter?9@ 0000000180140a20     libvcruntime:undname.obj
 0002:00006a40       ??_C@_0BK@OFCNNNKO@?$GAgeneric?9class?9parameter?9@ 0000000180140a40     libvcruntime:undname.obj
 0002:00006a60       ??_C@_0BL@NGJBLFIL@?$GAgeneric?9method?9parameter?9@ 0000000180140a60     libvcruntime:undname.obj
 0002:00006a80       ??_C@_07OHNGEDJK@nullptr@  0000000180140a80     libvcruntime:undname.obj
 0002:00006a88       ??_C@_0BE@EODMJLIF@?$GAtemplate?9parameter@ 0000000180140a88     libvcruntime:undname.obj
 0002:00006a9c       ??_C@_03OPGICMGF@?$HN?8?5@ 0000000180140a9c     libvcruntime:undname.obj
 0002:00006aa0       ??_C@_02IGFCGPIL@?$HN?8@   0000000180140aa0     libvcruntime:undname.obj
 0002:00006aa8       ??_C@_0N@CBHHHENL@?$GAvtordispex?$HL@ 0000000180140aa8     libvcruntime:undname.obj
 0002:00006ab8       ??_C@_0L@GHPFDFH@?$GAvtordisp?$HL@ 0000000180140ab8     libvcruntime:undname.obj
 0002:00006ac8       ??_C@_0L@HNGCOGAE@?$GAadjustor?$HL@ 0000000180140ac8     libvcruntime:undname.obj
 0002:00006ad8       ??_C@_0CB@KJDOOODE@?$GAlocal?5static?5destructor?5helper@ 0000000180140ad8     libvcruntime:undname.obj
 0002:00006b00       ??_C@_0DB@ILEFOCIJ@?$GAtemplate?5static?5data?5member?5co@ 0000000180140b00     libvcruntime:undname.obj
 0002:00006b38       ??_C@_0DA@HGFJFBBE@?$GAtemplate?5static?5data?5member?5de@ 0000000180140b38     libvcruntime:undname.obj
 0002:00006b68       ??_C@_07PGOEDBHP@static?5@ 0000000180140b68     libvcruntime:undname.obj
 0002:00006b70       ??_C@_08NIEOINHE@virtual?5@ 0000000180140b70     libvcruntime:undname.obj
 0002:00006b80       ??_C@_09LAPHOOG@private?3?5@ 0000000180140b80     libvcruntime:undname.obj
 0002:00006b90       ??_C@_0M@GAIFPFIP@protected?3?5@ 0000000180140b90     libvcruntime:undname.obj
 0002:00006ba0       ??_C@_08GPDDCMKI@public?3?5@ 0000000180140ba0     libvcruntime:undname.obj
 0002:00006bb0       ??_C@_08KJLFOPNE@?$FLthunk?$FN?3@ 0000000180140bb0     libvcruntime:undname.obj
 0002:00006bc0       ??_C@_0M@DHNBOJMP@extern?5?$CCC?$CC?5@ 0000000180140bc0     libvcruntime:undname.obj
 0002:00006bcc       ??_C@_02KCKGHPCA@?$CJ?5@   0000000180140bcc     libvcruntime:undname.obj
 0002:00006bd0       ??_C@_05CIHEBHNO@char?5@   0000000180140bd0     libvcruntime:undname.obj
 0002:00006bd8       ??_C@_06EHJMALKF@short?5@  0000000180140bd8     libvcruntime:undname.obj
 0002:00006be0       ??_C@_04LAHKHJMA@int?5@    0000000180140be0     libvcruntime:undname.obj
 0002:00006be8       ??_C@_05CJIMAING@long?5@   0000000180140be8     libvcruntime:undname.obj
 0002:00006bf0       ??_C@_09EBBEKKIH@unsigned?5@ 0000000180140bf0     libvcruntime:undname.obj
 0002:00006bfc       ??_C@_05BEFAKPML@void?5@   0000000180140bfc     libvcruntime:undname.obj
 0002:00006c08       ??_C@_09GAIEOBLP@volatile?5@ 0000000180140c08     libvcruntime:undname.obj
 0002:00006c18       ??_C@_08PABEKFH@volatile@  0000000180140c18     libvcruntime:undname.obj
 0002:00006c28       ??_C@_0BA@LKIJLKPP@std?3?3nullptr_t?5@ 0000000180140c28     libvcruntime:undname.obj
 0002:00006c38       ??_C@_0P@GCOCNKDM@std?3?3nullptr_t@ 0000000180140c38     libvcruntime:undname.obj
 0002:00006c48       ??_C@_0L@EGPHHEKN@?$DMellipsis?$DO@ 0000000180140c48     libvcruntime:undname.obj
 0002:00006c54       ??_C@_04EENFHACM@?0?4?4?4@ 0000000180140c54     libvcruntime:undname.obj
 0002:00006c60       ??_C@_0M@ELJOJFFH@?0?$DMellipsis?$DO@ 0000000180140c60     libvcruntime:undname.obj
 0002:00006c70       ??_C@_09DNHFEOJI@?5noexcept@ 0000000180140c70     libvcruntime:undname.obj
 0002:00006c7c       ??_C@_03PBJBJNON@cpu@      0000000180140c7c     libvcruntime:undname.obj
 0002:00006c80       ??_C@_03DCBBJBAA@amp@      0000000180140c80     libvcruntime:undname.obj
 0002:00006c84       ??_C@_02KEGNLNML@?0?5@     0000000180140c84     libvcruntime:undname.obj
 0002:00006c88       ??_C@_04ENMBGAPA@char@     0000000180140c88     libvcruntime:undname.obj
 0002:00006c90       ??_C@_05BFKKPKCG@short@    0000000180140c90     libvcruntime:undname.obj
 0002:00006c98       ??_C@_03JBIPMCLC@int@      0000000180140c98     libvcruntime:undname.obj
 0002:00006c9c       ??_C@_04GOKPGOLB@long@     0000000180140c9c     libvcruntime:undname.obj
 0002:00006ca4       ??_C@_06BNJCAIGJ@double@   0000000180140ca4     libvcruntime:undname.obj
 0002:00006cac       ??_C@_06EBGKOKIG@__int8@   0000000180140cac     libvcruntime:undname.obj
 0002:00006cb8       ??_C@_07ICFHOGAF@__int16@  0000000180140cb8     libvcruntime:undname.obj
 0002:00006cc0       ??_C@_07OFLPPHGP@__int32@  0000000180140cc0     libvcruntime:undname.obj
 0002:00006cc8       ??_C@_07LFCOJCAC@__int64@  0000000180140cc8     libvcruntime:undname.obj
 0002:00006cd0       ??_C@_08GAHOLHEO@__int128@ 0000000180140cd0     libvcruntime:undname.obj
 0002:00006ce0       ??_C@_09EEKGDCPH@?$DMunknown?$DO@ 0000000180140ce0     libvcruntime:undname.obj
 0002:00006cf0       ??_C@_07CFHGOPCN@char8_t@  0000000180140cf0     libvcruntime:undname.obj
 0002:00006cf8       ??_C@_08HBIPOFJB@char16_t@ 0000000180140cf8     libvcruntime:undname.obj
 0002:00006d08       ??_C@_08IECNCBKG@char32_t@ 0000000180140d08     libvcruntime:undname.obj
 0002:00006d18       ??_C@_07CLGGIAMF@wchar_t@  0000000180140d18     libvcruntime:undname.obj
 0002:00006d20       ??_C@_04HAPDLBFF@auto@     0000000180140d20     libvcruntime:undname.obj
 0002:00006d28       ??_C@_0P@LHCGKIGK@decltype?$CIauto?$CJ@ 0000000180140d28     libvcruntime:undname.obj
 0002:00006d38       ??_C@_06GCICPBLB@__w64?5@  0000000180140d38     libvcruntime:undname.obj
 0002:00006d40       ??_C@_07NFANNNEC@UNKNOWN@  0000000180140d40     libvcruntime:undname.obj
 0002:00006d48       ??_C@_07EDHNAJHC@signed?5@ 0000000180140d48     libvcruntime:undname.obj
 0002:00006d50       ??_C@_05BNCCCJPP@const@    0000000180140d50     libvcruntime:undname.obj
 0002:00006d58       ??_C@_09EFNPDFFP@?5volatile@ 0000000180140d58     libvcruntime:undname.obj
 0002:00006d68       ??_C@_0P@GCIFDJCJ@?$GAunknown?5ecsu?8@ 0000000180140d68     libvcruntime:undname.obj
 0002:00006d78       ??_C@_06MOJHIBMG@union?5@  0000000180140d78     libvcruntime:undname.obj
 0002:00006d80       ??_C@_07DIBCDNGL@struct?5@ 0000000180140d80     libvcruntime:undname.obj
 0002:00006d88       ??_C@_06LJBABKPM@class?5@  0000000180140d88     libvcruntime:undname.obj
 0002:00006d90       ??_C@_08KOFANOFK@coclass?5@ 0000000180140d90     libvcruntime:undname.obj
 0002:00006da0       ??_C@_0N@DLIEFKNA@cointerface?5@ 0000000180140da0     libvcruntime:undname.obj
 0002:00006db0       ??_C@_05LJGMCFOG@enum?5@   0000000180140db0     libvcruntime:undname.obj
 0002:00006db8       ??_C@_06LIJLOJAG@const?5@  0000000180140db8     libvcruntime:undname.obj
 0002:00006dc0       ??_C@_02KJPKDIBN@?$CG?5@   0000000180140dc0     libvcruntime:undname.obj
 0002:00006dc4       ??_C@_03PCKGMOPB@?$CG?$CG?5@ 0000000180140dc4     libvcruntime:undname.obj
 0002:00006dc8       ??_C@_0M@EALIELKG@cli?3?3array?$DM@ 0000000180140dc8     libvcruntime:undname.obj
 0002:00006dd8       ??_C@_0O@GKABPPIF@cli?3?3pin_ptr?$DM@ 0000000180140dd8     libvcruntime:undname.obj
 0002:00006de8       ??_C@_02GOGNNPBN@?$CJ?$FL@ 0000000180140de8     libvcruntime:undname.obj
 0002:00006dec       ??_C@_06EEGAIFAK@?$HLflat?$HN@ 0000000180140dec     libvcruntime:undname.obj
 0002:00006df4       ??_C@_05JIBOFOHK@?$HLfor?5@ 0000000180140df4     libvcruntime:undname.obj
 0002:00006dfc       ??_C@_02MDINNEEG@s?5@      0000000180140dfc     libvcruntime:undname.obj
 0002:00006e08       ??_7charNode@@6B@          0000000180140e08     libvcruntime:undname.obj
 0002:00006e30       ??_7pcharNode@@6B@         0000000180140e30     libvcruntime:undname.obj
 0002:00006e58       ??_7pDNameNode@@6B@        0000000180140e58     libvcruntime:undname.obj
 0002:00006e80       ??_7DNameStatusNode@@6B@   0000000180140e80     libvcruntime:undname.obj
 0002:00006ea8       ??_7pairNode@@6B@          0000000180140ea8     libvcruntime:undname.obj
 0002:00006fd0       ??_C@_04OKOHEJBO@?5?$DP?$DP?5@ 0000000180140fd0     libvcruntime:undname.obj
 0002:00006fe0       ?nodes@?1??make@DNameStatusNode@@SAPEBV2@W4DNameStatus@@@Z@4QBV2@B 0000000180140fe0     libvcruntime:undname.obj
 0002:00007020       ?s_negLengthTab@FH4@@3QBCB 0000000180141020     libvcruntime:risctrnsctrl.obj
 0002:00007030       ?s_shiftTab@FH4@@3QBEB     0000000180141030     libvcruntime:risctrnsctrl.obj
 0002:00007190       ??_C@_1DM@KHCHBNEB@?$AAa?$AAp?$AAi?$AA?9?$AAm?$AAs?$AA?9?$AAw?$AAi?$AAn?$AA?9?$AAc?$AAo?$AAr?$AAe@ 0000000180141190     libvcruntime:winapi_downlevel.obj
 0002:000071d0       ??_C@_1DK@LPPGFMPP@?$AAa?$AAp?$AAi?$AA?9?$AAm?$AAs?$AA?9?$AAw?$AAi?$AAn?$AA?9?$AAc?$AAo?$AAr?$AAe@ 00000001801411d0     libvcruntime:winapi_downlevel.obj
 0002:00007210       ??_C@_1BC@GDMECMAK@?$AAk?$AAe?$AAr?$AAn?$AAe?$AAl?$AA3?$AA2@ 0000000180141210     libvcruntime:winapi_downlevel.obj
 0002:00007228       ??_C@_1BA@PFFKHIOG@?$AAa?$AAp?$AAi?$AA?9?$AAm?$AAs?$AA?9@ 0000000180141228     libvcruntime:winapi_downlevel.obj
 0002:00007240       ??_C@_08KNHFBNJ@FlsAlloc@  0000000180141240     libvcruntime:winapi_downlevel.obj
 0002:00007258       ??_C@_07PEJMOBNF@FlsFree@  0000000180141258     libvcruntime:winapi_downlevel.obj
 0002:00007268       ??_C@_0M@GDNOONDI@FlsGetValue@ 0000000180141268     libvcruntime:winapi_downlevel.obj
 0002:00007280       ??_C@_0M@JCPCPOEF@FlsSetValue@ 0000000180141280     libvcruntime:winapi_downlevel.obj
 0002:00007298       ??_C@_0BM@HCFOFFN@InitializeCriticalSectionEx@ 0000000180141298     libvcruntime:winapi_downlevel.obj
 0002:000072c0       ??_7exception@std@@6B@     00000001801412c0     libvcruntime:frame.obj
 0002:000072d0       ??_C@_0BC@EOODALEL@Unknown?5exception@ 00000001801412d0     libvcruntime:frame.obj
 0002:000072f0       ??_7bad_exception@std@@6B@ 00000001801412f0     libvcruntime:frame.obj
 0002:00007300       ??_C@_0O@DPKOEFFH@bad?5exception@ 0000000180141300     libvcruntime:frame.obj
 0002:00007650       ??_C@_05FFFCHCED@acosf@    0000000180141650     libucrt:acosf.obj
 0002:00007658       __real@3b81ce6b            0000000180141658     libucrt:acosf.obj
 0002:00007660       __real@3c91a62633145c07    0000000180141660     libucrt:acosf.obj
 0002:00007668       __real@3d678bdd            0000000180141668     libucrt:acosf.obj
 0002:0000766c       __real@3e3c94dc            000000018014166c     libucrt:acosf.obj
 0002:00007670       __real@3f561f0d            0000000180141670     libucrt:acosf.obj
 0002:00007674       __real@3f8d6fa5            0000000180141674     libucrt:acosf.obj
 0002:00007678       __real@3ff921fb54442d18    0000000180141678     libucrt:acosf.obj
 0002:00007680       __real@400921fb54442d18    0000000180141680     libucrt:acosf.obj
 0002:00007688       __real@40490fdb            0000000180141688     libucrt:acosf.obj
 0002:0000768c       __real@bc5b3fe1            000000018014168c     libucrt:acosf.obj
 0002:00007690       __acrt_exception_action_table 0000000180141690     libucrt:exception_filter.obj
 0002:00007750       __acrt_signal_action_table_count 0000000180141750     libucrt:exception_filter.obj
 0002:00007758       __acrt_signal_action_first_fpe_index 0000000180141758     libucrt:exception_filter.obj
 0002:00007760       __acrt_signal_action_fpe_count 0000000180141760     libucrt:exception_filter.obj
 0002:000077b8       ??_C@_1BI@BGOHAHKC@?$AAm?$AAs?$AAc?$AAo?$AAr?$AAe?$AAe?$AA?4?$AAd?$AAl?$AAl@ 00000001801417b8     libucrt:exit.obj
 0002:000077d0       ??_C@_0P@MIGLKIOC@CorExitProcess@ 00000001801417d0     libucrt:exit.obj
 0002:00007930       ?format_validation_lookup_table_spectre@__crt_stdio_output@@3V?$spectre_mitigated_lookup_table@Ustate_transition_pair@__crt_stdio_output@@$0IA@@1@B 0000000180141930     libucrt:output.obj
 0002:00007a30       ??_C@_1O@CEDCILHN@?$AA?$CI?$AAn?$AAu?$AAl?$AAl?$AA?$CJ@ 0000000180141a30     libucrt:output.obj
 0002:00007a40       ??_C@_06OJHGLDPL@?$CInull?$CJ@ 0000000180141a40     libucrt:output.obj
 0002:00007bc0       ??_C@_04LAGPAAHP@sinf@     0000000180141bc0     libucrt:sincos_special.obj
 0002:00007bc8       ??_C@_04OBBKPIAC@cosf@     0000000180141bc8     libucrt:sincos_special.obj
 0002:00007bd0       ??_C@_04MHPLPEIA@tanf@     0000000180141bd0     libucrt:sincos_special.obj
 0002:00007be0       __Lcosfarray               0000000180141be0     libucrt:lsincosf_array.obj
 0002:00007c10       __Lsinfarray               0000000180141c10     libucrt:lsincosf_array.obj
 0002:00007c30       __L_2_by_pi_bits           0000000180141c30     libucrt:l2_by_pi_bits.obj
 0002:00007f08       ??_C@_1M@HPNHIDJI@?$AAj?$AAa?$AA?9?$AAJ?$AAP@ 0000000180141f08     libucrt:mbctype.obj
 0002:00007f18       ??_C@_1M@BIBDDEMK@?$AAz?$AAh?$AA?9?$AAC?$AAN@ 0000000180141f18     libucrt:mbctype.obj
 0002:00007f28       ??_C@_1M@JLOOOEGK@?$AAk?$AAo?$AA?9?$AAK?$AAR@ 0000000180141f28     libucrt:mbctype.obj
 0002:00007f38       ??_C@_1M@CLNBBOPM@?$AAz?$AAh?$AA?9?$AAT?$AAW@ 0000000180141f38     libucrt:mbctype.obj
 0002:00007ff0       ??_C@_1EA@JGEFHKEI@?$AAa?$AAp?$AAi?$AA?9?$AAm?$AAs?$AA?9?$AAw?$AAi?$AAn?$AA?9?$AAc?$AAo?$AAr?$AAe@ 0000000180141ff0     libucrt:winapi_thunks.obj
 0002:00008030       ??_C@_1DI@IJCEHOCB@?$AAa?$AAp?$AAi?$AA?9?$AAm?$AAs?$AA?9?$AAw?$AAi?$AAn?$AA?9?$AAc?$AAo?$AAr?$AAe@ 0000000180142030     libucrt:winapi_thunks.obj
 0002:00008070       ??_C@_1EI@MPIAOHOC@?$AAa?$AAp?$AAi?$AA?9?$AAm?$AAs?$AA?9?$AAw?$AAi?$AAn?$AA?9?$AAc?$AAo?$AAr?$AAe@ 0000000180142070     libucrt:winapi_thunks.obj
 0002:000080c0       ??_C@_1FK@FPHCKFIE@?$AAa?$AAp?$AAi?$AA?9?$AAm?$AAs?$AA?9?$AAw?$AAi?$AAn?$AA?9?$AAc?$AAo?$AAr?$AAe@ 00000001801420c0     libucrt:winapi_thunks.obj
 0002:00008120       ??_C@_1EM@DILCGIIO@?$AAa?$AAp?$AAi?$AA?9?$AAm?$AAs?$AA?9?$AAw?$AAi?$AAn?$AA?9?$AAc?$AAo?$AAr?$AAe@ 0000000180142120     libucrt:winapi_thunks.obj
 0002:00008170       ??_C@_1DM@LNCGDDPN@?$AAa?$AAp?$AAi?$AA?9?$AAm?$AAs?$AA?9?$AAw?$AAi?$AAn?$AA?9?$AAc?$AAo?$AAr?$AAe@ 0000000180142170     libucrt:winapi_thunks.obj
 0002:000081b0       ??_C@_1DO@FPAPJEMD@?$AAa?$AAp?$AAi?$AA?9?$AAm?$AAs?$AA?9?$AAw?$AAi?$AAn?$AA?9?$AAc?$AAo?$AAr?$AAe@ 00000001801421b0     libucrt:winapi_thunks.obj
 0002:000081f0       ??_C@_1DK@NDHNAHIO@?$AAa?$AAp?$AAi?$AA?9?$AAm?$AAs?$AA?9?$AAw?$AAi?$AAn?$AA?9?$AAc?$AAo?$AAr?$AAe@ 00000001801421f0     libucrt:winapi_thunks.obj
 0002:00008230       ??_C@_1DM@KGHDGBCM@?$AAa?$AAp?$AAi?$AA?9?$AAm?$AAs?$AA?9?$AAw?$AAi?$AAn?$AA?9?$AAc?$AAo?$AAr?$AAe@ 0000000180142230     libucrt:winapi_thunks.obj
 0002:00008270       ??_C@_1EO@IJIOEFOH@?$AAa?$AAp?$AAi?$AA?9?$AAm?$AAs?$AA?9?$AAw?$AAi?$AAn?$AA?9?$AAr?$AAt?$AAc?$AAo@ 0000000180142270     libucrt:winapi_thunks.obj
 0002:000082c0       ??_C@_1FG@HHGEKANL@?$AAa?$AAp?$AAi?$AA?9?$AAm?$AAs?$AA?9?$AAw?$AAi?$AAn?$AA?9?$AAs?$AAe?$AAc?$AAu@ 00000001801422c0     libucrt:winapi_thunks.obj
 0002:00008320       ??_C@_1EG@DBIOJECG@?$AAe?$AAx?$AAt?$AA?9?$AAm?$AAs?$AA?9?$AAw?$AAi?$AAn?$AA?9?$AAn?$AAt?$AAu?$AAs@ 0000000180142320     libucrt:winapi_thunks.obj
 0002:00008370       ??_C@_1EO@FIHMJCLF@?$AAe?$AAx?$AAt?$AA?9?$AAm?$AAs?$AA?9?$AAw?$AAi?$AAn?$AA?9?$AAn?$AAt?$AAu?$AAs@ 0000000180142370     libucrt:winapi_thunks.obj
 0002:000083c0       ??_C@_1BC@DNHGCMLG@?$AAa?$AAd?$AAv?$AAa?$AAp?$AAi?$AA3?$AA2@ 00000001801423c0     libucrt:winapi_thunks.obj
 0002:000083d8       ??_C@_1M@OAIMIKLP@?$AAn?$AAt?$AAd?$AAl?$AAl@ 00000001801423d8     libucrt:winapi_thunks.obj
 0002:000083f0       ??_C@_1EG@DPGNFKGC@?$AAa?$AAp?$AAi?$AA?9?$AAm?$AAs?$AA?9?$AAw?$AAi?$AAn?$AA?9?$AAa?$AAp?$AAp?$AAm@ 00000001801423f0     libucrt:winapi_thunks.obj
 0002:00008438       ??_C@_1O@BCCLBEOE@?$AAu?$AAs?$AAe?$AAr?$AA3?$AA2@ 0000000180142438     libucrt:winapi_thunks.obj
 0002:00008448       ??_C@_1BA@IAIFMGEF@?$AAe?$AAx?$AAt?$AA?9?$AAm?$AAs?$AA?9@ 0000000180142448     libucrt:winapi_thunks.obj
 0002:00008460       ??_C@_0BA@FHFNEAED@AreFileApisANSI@ 0000000180142460     libucrt:winapi_thunks.obj
 0002:00008480       ??_C@_0O@KKBNKAPF@LCMapStringEx@ 0000000180142480     libucrt:winapi_thunks.obj
 0002:00008498       ??_C@_0BB@HBDEELFH@LocaleNameToLCID@ 0000000180142498     libucrt:winapi_thunks.obj
 0002:000084b0       ??_C@_0CF@OJOFEIGO@AppPolicyGetProcessTerminationM@ 00000001801424b0     libucrt:winapi_thunks.obj
 0002:000084e0       __lc_time_c                00000001801424e0     libucrt:nlsdata.obj
 0002:000087a0       ??_C@_03KOEHGMDN@Sun@      00000001801427a0     libucrt:nlsdata.obj
 0002:000087a4       ??_C@_03PDAGKDH@Mon@       00000001801427a4     libucrt:nlsdata.obj
 0002:000087a8       ??_C@_03NAGEINEP@Tue@      00000001801427a8     libucrt:nlsdata.obj
 0002:000087ac       ??_C@_03MHOMLAJA@Wed@      00000001801427ac     libucrt:nlsdata.obj
 0002:000087b0       ??_C@_03IOFIKPDN@Thu@      00000001801427b0     libucrt:nlsdata.obj
 0002:000087b4       ??_C@_03IDIOELNC@Fri@      00000001801427b4     libucrt:nlsdata.obj
 0002:000087b8       ??_C@_03FEFJNEK@Sat@       00000001801427b8     libucrt:nlsdata.obj
 0002:000087bc       ??_C@_06OOPIFAJ@Sunday@    00000001801427bc     libucrt:nlsdata.obj
 0002:000087c4       ??_C@_06JLEDEDGH@Monday@   00000001801427c4     libucrt:nlsdata.obj
 0002:000087d0       ??_C@_07BAAGCFCM@Tuesday@  00000001801427d0     libucrt:nlsdata.obj
 0002:000087d8       ??_C@_09DLIGFAKA@Wednesday@ 00000001801427d8     libucrt:nlsdata.obj
 0002:000087e8       ??_C@_08HACCIKIA@Thursday@ 00000001801427e8     libucrt:nlsdata.obj
 0002:000087f4       ??_C@_06JECMNKMI@Friday@   00000001801427f4     libucrt:nlsdata.obj
 0002:00008800       ??_C@_08INBOOONO@Saturday@ 0000000180142800     libucrt:nlsdata.obj
 0002:0000880c       ??_C@_03JIHJHPIE@Jan@      000000018014280c     libucrt:nlsdata.obj
 0002:00008810       ??_C@_03HJBDCHOM@Feb@      0000000180142810     libucrt:nlsdata.obj
 0002:00008814       ??_C@_03ODNJBKGA@Mar@      0000000180142814     libucrt:nlsdata.obj
 0002:00008818       ??_C@_03LEOLGMJP@Apr@      0000000180142818     libucrt:nlsdata.obj
 0002:0000881c       ??_C@_03CNMDKL@May@        000000018014281c     libucrt:nlsdata.obj
 0002:00008820       ??_C@_03IDFGHECI@Jun@      0000000180142820     libucrt:nlsdata.obj
 0002:00008824       ??_C@_03LBGABGKK@Jul@      0000000180142824     libucrt:nlsdata.obj
 0002:00008828       ??_C@_03IFJFEIGA@Aug@      0000000180142828     libucrt:nlsdata.obj
 0002:0000882c       ??_C@_03GGCAPAJC@Sep@      000000018014282c     libucrt:nlsdata.obj
 0002:00008830       ??_C@_03BMAOKBAD@Oct@      0000000180142830     libucrt:nlsdata.obj
 0002:00008834       ??_C@_03JPJOFNIA@Nov@      0000000180142834     libucrt:nlsdata.obj
 0002:00008838       ??_C@_03MKABNOCG@Dec@      0000000180142838     libucrt:nlsdata.obj
 0002:00008840       ??_C@_07CGJPFGJA@January@  0000000180142840     libucrt:nlsdata.obj
 0002:00008848       ??_C@_08GNJGEPFN@February@ 0000000180142848     libucrt:nlsdata.obj
 0002:00008854       ??_C@_05HPCKOFNC@March@    0000000180142854     libucrt:nlsdata.obj
 0002:0000885c       ??_C@_05DMJDNLEJ@April@    000000018014285c     libucrt:nlsdata.obj
 0002:00008864       ??_C@_04CNLMGBGM@June@     0000000180142864     libucrt:nlsdata.obj
 0002:0000886c       ??_C@_04MIEPOIFP@July@     000000018014286c     libucrt:nlsdata.obj
 0002:00008874       ??_C@_06LBBHFDDG@August@   0000000180142874     libucrt:nlsdata.obj
 0002:00008880       ??_C@_09BHHEALKD@September@ 0000000180142880     libucrt:nlsdata.obj
 0002:00008890       ??_C@_07JJNFCEND@October@  0000000180142890     libucrt:nlsdata.obj
 0002:00008898       ??_C@_08HCHEGEOA@November@ 0000000180142898     libucrt:nlsdata.obj
 0002:000088a8       ??_C@_08EDHMEBNP@December@ 00000001801428a8     libucrt:nlsdata.obj
 0002:000088b4       ??_C@_02DEDBPAFC@AM@       00000001801428b4     libucrt:nlsdata.obj
 0002:000088b8       ??_C@_02CJNFDJBF@PM@       00000001801428b8     libucrt:nlsdata.obj
 0002:000088c0       ??_C@_08BPBNCDIB@MM?1dd?1yy@ 00000001801428c0     libucrt:nlsdata.obj
 0002:000088d0       ??_C@_0BE@CKGJFCPC@dddd?0?5MMMM?5dd?0?5yyyy@ 00000001801428d0     libucrt:nlsdata.obj
 0002:000088e8       ??_C@_08JCCMCCIL@HH?3mm?3ss@ 00000001801428e8     libucrt:nlsdata.obj
 0002:000088f8       ??_C@_17MBGCMIPB@?$AAS?$AAu?$AAn@ 00000001801428f8     libucrt:nlsdata.obj
 0002:00008900       ??_C@_17KBOMKBF@?$AAM?$AAo?$AAn@ 0000000180142900     libucrt:nlsdata.obj
 0002:00008908       ??_C@_17BMKGEGOJ@?$AAT?$AAu?$AAe@ 0000000180142908     libucrt:nlsdata.obj
 0002:00008910       ??_C@_17CJEDCEPE@?$AAW?$AAe?$AAd@ 0000000180142910     libucrt:nlsdata.obj
 0002:00008918       ??_C@_17PDPHAADD@?$AAT?$AAh?$AAu@ 0000000180142918     libucrt:nlsdata.obj
 0002:00008920       ??_C@_17HFOLPPLP@?$AAF?$AAr?$AAi@ 0000000180142920     libucrt:nlsdata.obj
 0002:00008928       ??_C@_17GGIBDPIH@?$AAS?$AAa?$AAt@ 0000000180142928     libucrt:nlsdata.obj
 0002:00008930       ??_C@_1O@IHNHDHPB@?$AAS?$AAu?$AAn?$AAd?$AAa?$AAy@ 0000000180142930     libucrt:nlsdata.obj
 0002:00008940       ??_C@_1O@MMNBFLIA@?$AAM?$AAo?$AAn?$AAd?$AAa?$AAy@ 0000000180142940     libucrt:nlsdata.obj
 0002:00008950       ??_C@_1BA@ENFBFFEK@?$AAT?$AAu?$AAe?$AAs?$AAd?$AAa?$AAy@ 0000000180142950     libucrt:nlsdata.obj
 0002:00008960       ??_C@_1BE@EBOGMDOH@?$AAW?$AAe?$AAd?$AAn?$AAe?$AAs?$AAd?$AAa?$AAy@ 0000000180142960     libucrt:nlsdata.obj
 0002:00008978       ??_C@_1BC@HHMNLIHE@?$AAT?$AAh?$AAu?$AAr?$AAs?$AAd?$AAa?$AAy@ 0000000180142978     libucrt:nlsdata.obj
 0002:00008990       ??_C@_1O@PDICJHAG@?$AAF?$AAr?$AAi?$AAd?$AAa?$AAy@ 0000000180142990     libucrt:nlsdata.obj
 0002:000089a0       ??_C@_1BC@ENMNNPAJ@?$AAS?$AAa?$AAt?$AAu?$AAr?$AAd?$AAa?$AAy@ 00000001801429a0     libucrt:nlsdata.obj
 0002:000089b8       ??_C@_17DKNBKCHM@?$AAJ?$AAa?$AAn@ 00000001801429b8     libucrt:nlsdata.obj
 0002:000089c0       ??_C@_17LMDJEKJN@?$AAF?$AAe?$AAb@ 00000001801429c0     libucrt:nlsdata.obj
 0002:000089c8       ??_C@_17CKNLEDEC@?$AAM?$AAa?$AAr@ 00000001801429c8     libucrt:nlsdata.obj
 0002:000089d0       ??_C@_17LFPOIHDD@?$AAA?$AAp?$AAr@ 00000001801429d0     libucrt:nlsdata.obj
 0002:000089d8       ??_C@_17PNNKMEED@?$AAM?$AAa?$AAy@ 00000001801429d8     libucrt:nlsdata.obj
 0002:000089e0       ??_C@_17KCJGOCPB@?$AAJ?$AAu?$AAn@ 00000001801429e0     libucrt:nlsdata.obj
 0002:000089e8       ??_C@_17IJPCKHK@?$AAJ?$AAu?$AAl@ 00000001801429e8     libucrt:nlsdata.obj
 0002:000089f0       ??_C@_17ICPELBCN@?$AAA?$AAu?$AAg@ 00000001801429f0     libucrt:nlsdata.obj
 0002:000089f8       ??_C@_17HCHCOKMG@?$AAS?$AAe?$AAp@ 00000001801429f8     libucrt:nlsdata.obj
 0002:00008a00       ??_C@_17FNLKOI@?$AAO?$AAc?$AAt@ 0000000180142a00     libucrt:nlsdata.obj
 0002:00008a08       ??_C@_17BBDMLCIG@?$AAN?$AAo?$AAv@ 0000000180142a08     libucrt:nlsdata.obj
 0002:00008a10       ??_C@_17EGKACKIF@?$AAD?$AAe?$AAc@ 0000000180142a10     libucrt:nlsdata.obj
 0002:00008a18       ??_C@_1BA@EFMEIEBA@?$AAJ?$AAa?$AAn?$AAu?$AAa?$AAr?$AAy@ 0000000180142a18     libucrt:nlsdata.obj
 0002:00008a28       ??_C@_1BC@JGDDFFAM@?$AAF?$AAe?$AAb?$AAr?$AAu?$AAa?$AAr?$AAy@ 0000000180142a28     libucrt:nlsdata.obj
 0002:00008a40       ??_C@_1M@IKEENEDF@?$AAM?$AAa?$AAr?$AAc?$AAh@ 0000000180142a40     libucrt:nlsdata.obj
 0002:00008a50       ??_C@_1M@GJNLMHFD@?$AAA?$AAp?$AAr?$AAi?$AAl@ 0000000180142a50     libucrt:nlsdata.obj
 0002:00008a60       ??_C@_19EPFLPGAP@?$AAJ?$AAu?$AAn?$AAe@ 0000000180142a60     libucrt:nlsdata.obj
 0002:00008a70       ??_C@_19BIFMLPCD@?$AAJ?$AAu?$AAl?$AAy@ 0000000180142a70     libucrt:nlsdata.obj
 0002:00008a80       ??_C@_1O@PAHLKOAC@?$AAA?$AAu?$AAg?$AAu?$AAs?$AAt@ 0000000180142a80     libucrt:nlsdata.obj
 0002:00008a90       ??_C@_1BE@DKAAMBJL@?$AAS?$AAe?$AAp?$AAt?$AAe?$AAm?$AAb?$AAe?$AAr@ 0000000180142a90     libucrt:nlsdata.obj
 0002:00008aa8       ??_C@_1BA@EPANDLNG@?$AAO?$AAc?$AAt?$AAo?$AAb?$AAe?$AAr@ 0000000180142aa8     libucrt:nlsdata.obj
 0002:00008ab8       ??_C@_1BC@BGLIFPF@?$AAN?$AAo?$AAv?$AAe?$AAm?$AAb?$AAe?$AAr@ 0000000180142ab8     libucrt:nlsdata.obj
 0002:00008ad0       ??_C@_1BC@FEMKIFH@?$AAD?$AAe?$AAc?$AAe?$AAm?$AAb?$AAe?$AAr@ 0000000180142ad0     libucrt:nlsdata.obj
 0002:00008ae4       ??_C@_15ODEHAHHF@?$AAA?$AAM@ 0000000180142ae4     libucrt:nlsdata.obj
 0002:00008aec       ??_C@_15CLMNNGEL@?$AAP?$AAM@ 0000000180142aec     libucrt:nlsdata.obj
 0002:00008af8       ??_C@_1BC@IEBCMHCM@?$AAM?$AAM?$AA?1?$AAd?$AAd?$AA?1?$AAy?$AAy@ 0000000180142af8     libucrt:nlsdata.obj
 0002:00008b10       ??_C@_1CI@KNAKOEBC@?$AAd?$AAd?$AAd?$AAd?$AA?0?$AA?5?$AAM?$AAM?$AAM?$AAM?$AA?5?$AAd?$AAd?$AA?0?$AA?5@ 0000000180142b10     libucrt:nlsdata.obj
 0002:00008b38       ??_C@_1BC@GDGBMEMK@?$AAH?$AAH?$AA?3?$AAm?$AAm?$AA?3?$AAs?$AAs@ 0000000180142b38     libucrt:nlsdata.obj
 0002:00008b50       ??_C@_1M@BMHNFIME@?$AAe?$AAn?$AA?9?$AAU?$AAS@ 0000000180142b50     libucrt:nlsdata.obj
 0002:00008be0       ??_C@_03OEIAHPBN@INF@      0000000180142be0     libucrt:cvt.obj
 0002:00008be4       ??_C@_03OJHLLCGB@inf@      0000000180142be4     libucrt:cvt.obj
 0002:00008be8       ??_C@_03LKNCIKJB@NAN@      0000000180142be8     libucrt:cvt.obj
 0002:00008bec       ??_C@_03LHCJEHON@nan@      0000000180142bec     libucrt:cvt.obj
 0002:00008bf0       ??_C@_09OFJJIMPC@NAN?$CISNAN?$CJ@ 0000000180142bf0     libucrt:cvt.obj
 0002:00008c00       ??_C@_09IPFBKMDL@nan?$CIsnan?$CJ@ 0000000180142c00     libucrt:cvt.obj
 0002:00008c10       ??_C@_08IKHNHAJ@NAN?$CIIND?$CJ@ 0000000180142c10     libucrt:cvt.obj
 0002:00008c20       ??_C@_08OFCDMILK@nan?$CIind?$CJ@ 0000000180142c20     libucrt:cvt.obj
 0002:00008c2c       ??_C@_05KLBDPFGC@e?$CL000@ 0000000180142c2c     libucrt:cvt.obj
 0002:00008c40       __newctype                 0000000180142c40     libucrt:ctype.obj
 0002:00008f40       __newclmap                 0000000180142f40     libucrt:ctype.obj
 0002:000090c0       __newcumap                 00000001801430c0     libucrt:ctype.obj
 0002:00009250       ??_C@_05HGHHAHAP@log10@    0000000180143250     libucrt:fpexcept.obj
 0002:0000a0a0       ??_C@_15EMKDOKLE@?$AAa?$AAr@ 00000001801440a0     libucrt:lcidtoname_downlevel.obj
 0002:0000a0a8       ??_C@_15KNPADPLH@?$AAb?$AAg@ 00000001801440a8     libucrt:lcidtoname_downlevel.obj
 0002:0000a0b0       ??_C@_15EDMHLDMO@?$AAc?$AAa@ 00000001801440b0     libucrt:lcidtoname_downlevel.obj
 0002:0000a0b8       ??_C@_1O@BPEAJADD@?$AAz?$AAh?$AA?9?$AAC?$AAH?$AAS@ 00000001801440b8     libucrt:lcidtoname_downlevel.obj
 0002:0000a0c8       ??_C@_15LJNHCMNK@?$AAc?$AAs@ 00000001801440c8     libucrt:lcidtoname_downlevel.obj
 0002:0000a0d0       ??_C@_15FOMCIDHG@?$AAd?$AAa@ 00000001801440d0     libucrt:lcidtoname_downlevel.obj
 0002:0000a0d8       ??_C@_15NBKABECB@?$AAd?$AAe@ 00000001801440d8     libucrt:lcidtoname_downlevel.obj
 0002:0000a0e0       ??_C@_15GHPEIIAO@?$AAe?$AAl@ 00000001801440e0     libucrt:lcidtoname_downlevel.obj
 0002:0000a0e8       ??_C@_15MNPNEAIF@?$AAe?$AAn@ 00000001801440e8     libucrt:lcidtoname_downlevel.obj
 0002:0000a0f0       ??_C@_15GPIOMPMH@?$AAe?$AAs@ 00000001801440f0     libucrt:lcidtoname_downlevel.obj
 0002:0000a0f8       ??_C@_15NGLOAKJC@?$AAf?$AAi@ 00000001801440f8     libucrt:lcidtoname_downlevel.obj
 0002:0000a100       ??_C@_15FBKGNKAM@?$AAf?$AAr@ 0000000180144100     libucrt:lcidtoname_downlevel.obj
 0002:0000a108       ??_C@_15KGGCNEFK@?$AAh?$AAe@ 0000000180144108     libucrt:lcidtoname_downlevel.obj
 0002:0000a110       ??_C@_15PGHLIDMF@?$AAh?$AAu@ 0000000180144110     libucrt:lcidtoname_downlevel.obj
 0002:0000a118       ??_C@_15BIEMAPLM@?$AAi?$AAs@ 0000000180144118     libucrt:lcidtoname_downlevel.obj
 0002:0000a120       ??_C@_15IFJLDHAF@?$AAi?$AAt@ 0000000180144120     libucrt:lcidtoname_downlevel.obj
 0002:0000a128       ??_C@_15GEMIOCAG@?$AAj?$AAa@ 0000000180144128     libucrt:lcidtoname_downlevel.obj
 0002:0000a130       ??_C@_15EPELEGJA@?$AAk?$AAo@ 0000000180144130     libucrt:lcidtoname_downlevel.obj
 0002:0000a138       ??_C@_15NDDHIMN@?$AAn?$AAl@ 0000000180144138     libucrt:lcidtoname_downlevel.obj
 0002:0000a140       ??_C@_15BPIGNHCD@?$AAn?$AAo@ 0000000180144140     libucrt:lcidtoname_downlevel.obj
 0002:0000a148       ??_C@_15DEOPBLCG@?$AAp?$AAl@ 0000000180144148     libucrt:lcidtoname_downlevel.obj
 0002:0000a150       ??_C@_15KBECGEFG@?$AAp?$AAt@ 0000000180144150     libucrt:lcidtoname_downlevel.obj
 0002:0000a158       ??_C@_15GLJCBFMD@?$AAr?$AAo@ 0000000180144158     libucrt:lcidtoname_downlevel.obj
 0002:0000a160       ??_C@_15FEDGKCDI@?$AAr?$AAu@ 0000000180144160     libucrt:lcidtoname_downlevel.obj
 0002:0000a168       ??_C@_15GLKMLLHM@?$AAh?$AAr@ 0000000180144168     libucrt:lcidtoname_downlevel.obj
 0002:0000a170       ??_C@_15CPKMFBDB@?$AAs?$AAk@ 0000000180144170     libucrt:lcidtoname_downlevel.obj
 0002:0000a178       ??_C@_15BAAIOGMK@?$AAs?$AAq@ 0000000180144178     libucrt:lcidtoname_downlevel.obj
 0002:0000a180       ??_C@_15INNPNOHD@?$AAs?$AAv@ 0000000180144180     libucrt:lcidtoname_downlevel.obj
 0002:0000a188       ??_C@_15CABMMOGH@?$AAt?$AAh@ 0000000180144188     libucrt:lcidtoname_downlevel.obj
 0002:0000a190       ??_C@_15BPLIHJJM@?$AAt?$AAr@ 0000000180144190     libucrt:lcidtoname_downlevel.obj
 0002:0000a198       ??_C@_15NEOEKKDJ@?$AAu?$AAr@ 0000000180144198     libucrt:lcidtoname_downlevel.obj
 0002:0000a1a0       ??_C@_15NFICGAJK@?$AAi?$AAd@ 00000001801441a0     libucrt:lcidtoname_downlevel.obj
 0002:0000a1a8       ??_C@_15PJPFLCCM@?$AAu?$AAk@ 00000001801441a8     libucrt:lcidtoname_downlevel.obj
 0002:0000a1b0       ??_C@_15HPJPHDM@?$AAb?$AAe@ 00000001801441b0     libucrt:lcidtoname_downlevel.obj
 0002:0000a1b8       ??_C@_15LCHLGJII@?$AAs?$AAl@ 00000001801441b8     libucrt:lcidtoname_downlevel.obj
 0002:0000a1c0       ??_C@_15PCFJPHHO@?$AAe?$AAt@ 00000001801441c0     libucrt:lcidtoname_downlevel.obj
 0002:0000a1c8       ??_C@_15HPFPGODN@?$AAl?$AAv@ 00000001801441c8     libucrt:lcidtoname_downlevel.obj
 0002:0000a1d0       ??_C@_15NFFGKGLG@?$AAl?$AAt@ 00000001801441d0     libucrt:lcidtoname_downlevel.obj
 0002:0000a1d8       ??_C@_15BDAKCCHN@?$AAf?$AAa@ 00000001801441d8     libucrt:lcidtoname_downlevel.obj
 0002:0000a1e0       ??_C@_15NFGIAIAJ@?$AAv?$AAi@ 00000001801441e0     libucrt:lcidtoname_downlevel.obj
 0002:0000a1e8       ??_C@_15LMKNDMHN@?$AAh?$AAy@ 00000001801441e8     libucrt:lcidtoname_downlevel.obj
 0002:0000a1f0       ??_C@_15IJBHMCFL@?$AAa?$AAz@ 00000001801441f0     libucrt:lcidtoname_downlevel.obj
 0002:0000a1f8       ??_C@_15EKOFJABL@?$AAe?$AAu@ 00000001801441f8     libucrt:lcidtoname_downlevel.obj
 0002:0000a200       ??_C@_15BGHADCNK@?$AAm?$AAk@ 0000000180144200     libucrt:lcidtoname_downlevel.obj
 0002:0000a208       ??_C@_15JDNICKHM@?$AAa?$AAf@ 0000000180144208     libucrt:lcidtoname_downlevel.obj
 0002:0000a210       ??_C@_15KPJEDBKD@?$AAk?$AAa@ 0000000180144210     libucrt:lcidtoname_downlevel.obj
 0002:0000a218       ??_C@_15PDNFFFEO@?$AAf?$AAo@ 0000000180144218     libucrt:lcidtoname_downlevel.obj
 0002:0000a220       ??_C@_15OMLEGLOC@?$AAh?$AAi@ 0000000180144220     libucrt:lcidtoname_downlevel.obj
 0002:0000a228       ??_C@_15IDNNENKK@?$AAm?$AAs@ 0000000180144228     libucrt:lcidtoname_downlevel.obj
 0002:0000a230       ??_C@_15MACJNBMH@?$AAk?$AAk@ 0000000180144230     libucrt:lcidtoname_downlevel.obj
 0002:0000a238       ??_C@_15DKDJEOND@?$AAk?$AAy@ 0000000180144238     libucrt:lcidtoname_downlevel.obj
 0002:0000a240       ??_C@_15DFGDLJBG@?$AAs?$AAw@ 0000000180144240     libucrt:lcidtoname_downlevel.obj
 0002:0000a248       ??_C@_15BBFAICNG@?$AAu?$AAz@ 0000000180144248     libucrt:lcidtoname_downlevel.obj
 0002:0000a250       ??_C@_15DKNDCGEA@?$AAt?$AAt@ 0000000180144250     libucrt:lcidtoname_downlevel.obj
 0002:0000a258       ??_C@_15MGIFMDPL@?$AAp?$AAa@ 0000000180144258     libucrt:lcidtoname_downlevel.obj
 0002:0000a260       ??_C@_15HCNDBBA@?$AAg?$AAu@ 0000000180144260     libucrt:lcidtoname_downlevel.obj
 0002:0000a268       ??_C@_15FNBEIBON@?$AAt?$AAa@ 0000000180144268     libucrt:lcidtoname_downlevel.obj
 0002:0000a270       ??_C@_15NCHGBGLK@?$AAt?$AAe@ 0000000180144270     libucrt:lcidtoname_downlevel.obj
 0002:0000a278       ??_C@_15PHPHCBPF@?$AAk?$AAn@ 0000000180144278     libucrt:lcidtoname_downlevel.obj
 0002:0000a280       ??_C@_15DLGBCKMP@?$AAm?$AAr@ 0000000180144280     libucrt:lcidtoname_downlevel.obj
 0002:0000a288       ??_C@_15EABBLBFF@?$AAs?$AAa@ 0000000180144288     libucrt:lcidtoname_downlevel.obj
 0002:0000a290       ??_C@_15CBKOMCOI@?$AAm?$AAn@ 0000000180144290     libucrt:lcidtoname_downlevel.obj
 0002:0000a298       ??_C@_15CKDMCJAF@?$AAg?$AAl@ 0000000180144298     libucrt:lcidtoname_downlevel.obj
 0002:0000a2a0       ??_C@_17CNJFBPG@?$AAk?$AAo?$AAk@ 00000001801442a0     libucrt:lcidtoname_downlevel.obj
 0002:0000a2a8       ??_C@_17FFBJICPL@?$AAs?$AAy?$AAr@ 00000001801442a8     libucrt:lcidtoname_downlevel.obj
 0002:0000a2b0       ??_C@_17KPNDCPAF@?$AAd?$AAi?$AAv@ 00000001801442b0     libucrt:lcidtoname_downlevel.obj
 0002:0000a2b8       ??_C@_11LOCGONAA@@         00000001801442b8     libucrt:lcidtoname_downlevel.obj
 0002:0000a2c0       ??_C@_1M@OKAHONE@?$AAa?$AAr?$AA?9?$AAS?$AAA@ 00000001801442c0     libucrt:lcidtoname_downlevel.obj
 0002:0000a2d0       ??_C@_1M@FFFIGIGK@?$AAb?$AAg?$AA?9?$AAB?$AAG@ 00000001801442d0     libucrt:lcidtoname_downlevel.obj
 0002:0000a2e0       ??_C@_1M@BJNKEDC@?$AAc?$AAa?$AA?9?$AAE?$AAS@ 00000001801442e0     libucrt:lcidtoname_downlevel.obj
 0002:0000a2f0       ??_C@_1M@IJJHFJHA@?$AAc?$AAs?$AA?9?$AAC?$AAZ@ 00000001801442f0     libucrt:lcidtoname_downlevel.obj
 0002:0000a300       ??_C@_1M@CLPEOBGI@?$AAd?$AAa?$AA?9?$AAD?$AAK@ 0000000180144300     libucrt:lcidtoname_downlevel.obj
 0002:0000a310       ??_C@_1M@MCMADGCB@?$AAd?$AAe?$AA?9?$AAD?$AAE@ 0000000180144310     libucrt:lcidtoname_downlevel.obj
 0002:0000a320       ??_C@_1M@OOCKEMAM@?$AAe?$AAl?$AA?9?$AAG?$AAR@ 0000000180144320     libucrt:lcidtoname_downlevel.obj
 0002:0000a330       ??_C@_1M@DDNJFGID@?$AAf?$AAi?$AA?9?$AAF?$AAI@ 0000000180144330     libucrt:lcidtoname_downlevel.obj
 0002:0000a340       ??_C@_1M@GLIPPMAC@?$AAf?$AAr?$AA?9?$AAF?$AAR@ 0000000180144340     libucrt:lcidtoname_downlevel.obj
 0002:0000a350       ??_C@_1M@GFMCHPE@?$AAh?$AAe?$AA?9?$AAI?$AAL@ 0000000180144350     libucrt:lcidtoname_downlevel.obj
 0002:0000a360       ??_C@_1M@MHLPGNKM@?$AAh?$AAu?$AA?9?$AAH?$AAU@ 0000000180144360     libucrt:lcidtoname_downlevel.obj
 0002:0000a370       ??_C@_1M@LPDDNNPN@?$AAi?$AAs?$AA?9?$AAI?$AAS@ 0000000180144370     libucrt:lcidtoname_downlevel.obj
 0002:0000a380       ??_C@_1M@MADIPODN@?$AAi?$AAt?$AA?9?$AAI?$AAT@ 0000000180144380     libucrt:lcidtoname_downlevel.obj
 0002:0000a390       ??_C@_1M@IHBJJGG@?$AAn?$AAl?$AA?9?$AAN?$AAL@ 0000000180144390     libucrt:lcidtoname_downlevel.obj
 0002:0000a3a0       ??_C@_1M@EANAGDL@?$AAn?$AAb?$AA?9?$AAN?$AAO@ 00000001801443a0     libucrt:lcidtoname_downlevel.obj
 0002:0000a3b0       ??_C@_1M@NEIEMEGP@?$AAp?$AAl?$AA?9?$AAP?$AAL@ 00000001801443b0     libucrt:lcidtoname_downlevel.obj
 0002:0000a3c0       ??_C@_1M@BOCFIGEP@?$AAp?$AAt?$AA?9?$AAB?$AAR@ 00000001801443c0     libucrt:lcidtoname_downlevel.obj
 0002:0000a3d0       ??_C@_1M@IMPFOPBG@?$AAr?$AAo?$AA?9?$AAR?$AAO@ 00000001801443d0     libucrt:lcidtoname_downlevel.obj
 0002:0000a3e0       ??_C@_1M@IDNNEJMM@?$AAr?$AAu?$AA?9?$AAR?$AAU@ 00000001801443e0     libucrt:lcidtoname_downlevel.obj
 0002:0000a3f0       ??_C@_1M@LILEEOGM@?$AAh?$AAr?$AA?9?$AAH?$AAR@ 00000001801443f0     libucrt:lcidtoname_downlevel.obj
 0002:0000a400       ??_C@_1M@FKIFEHPB@?$AAs?$AAk?$AA?9?$AAS?$AAK@ 0000000180144400     libucrt:lcidtoname_downlevel.obj
 0002:0000a410       ??_C@_1M@LJMAMNPJ@?$AAs?$AAq?$AA?9?$AAA?$AAL@ 0000000180144410     libucrt:lcidtoname_downlevel.obj
 0002:0000a420       ??_C@_1M@GIAKDKJK@?$AAs?$AAv?$AA?9?$AAS?$AAE@ 0000000180144420     libucrt:lcidtoname_downlevel.obj
 0002:0000a430       ??_C@_1M@MKJKIKCL@?$AAt?$AAh?$AA?9?$AAT?$AAH@ 0000000180144430     libucrt:lcidtoname_downlevel.obj
 0002:0000a440       ??_C@_1M@MFLCCMPB@?$AAt?$AAr?$AA?9?$AAT?$AAR@ 0000000180144440     libucrt:lcidtoname_downlevel.obj
 0002:0000a450       ??_C@_1M@OIJHDKJN@?$AAu?$AAr?$AA?9?$AAP?$AAK@ 0000000180144450     libucrt:lcidtoname_downlevel.obj
 0002:0000a460       ??_C@_1M@LHIPCIEK@?$AAi?$AAd?$AA?9?$AAI?$AAD@ 0000000180144460     libucrt:lcidtoname_downlevel.obj
 0002:0000a470       ??_C@_1M@MFMOBGI@?$AAu?$AAk?$AA?9?$AAU?$AAA@ 0000000180144470     libucrt:lcidtoname_downlevel.obj
 0002:0000a480       ??_C@_1M@OBGLJIPL@?$AAb?$AAe?$AA?9?$AAB?$AAY@ 0000000180144480     libucrt:lcidtoname_downlevel.obj
 0002:0000a490       ??_C@_1M@BCFAJEAD@?$AAs?$AAl?$AA?9?$AAS?$AAI@ 0000000180144490     libucrt:lcidtoname_downlevel.obj
 0002:0000a4a0       ??_C@_1M@FKFFEDDN@?$AAe?$AAt?$AA?9?$AAE?$AAE@ 00000001801444a0     libucrt:lcidtoname_downlevel.obj
 0002:0000a4b0       ??_C@_1M@KGKKAACI@?$AAl?$AAv?$AA?9?$AAL?$AAV@ 00000001801444b0     libucrt:lcidtoname_downlevel.obj
 0002:0000a4c0       ??_C@_1M@IFGBIJO@?$AAl?$AAt?$AA?9?$AAL?$AAT@ 00000001801444c0     libucrt:lcidtoname_downlevel.obj
 0002:0000a4d0       ??_C@_1M@FGEAHEDM@?$AAf?$AAa?$AA?9?$AAI?$AAR@ 00000001801444d0     libucrt:lcidtoname_downlevel.obj
 0002:0000a4e0       ??_C@_1M@KBMAIBFN@?$AAv?$AAi?$AA?9?$AAV?$AAN@ 00000001801444e0     libucrt:lcidtoname_downlevel.obj
 0002:0000a4f0       ??_C@_1M@GPCBKDJK@?$AAh?$AAy?$AA?9?$AAA?$AAM@ 00000001801444f0     libucrt:lcidtoname_downlevel.obj
 0002:0000a500       ??_C@_1BG@BECMDDJB@?$AAa?$AAz?$AA?9?$AAA?$AAZ?$AA?9?$AAL?$AAa?$AAt?$AAn@ 0000000180144500     libucrt:lcidtoname_downlevel.obj
 0002:0000a518       ??_C@_1M@MAOFCAEA@?$AAe?$AAu?$AA?9?$AAE?$AAS@ 0000000180144518     libucrt:lcidtoname_downlevel.obj
 0002:0000a528       ??_C@_1M@IGHABKPI@?$AAm?$AAk?$AA?9?$AAM?$AAK@ 0000000180144528     libucrt:lcidtoname_downlevel.obj
 0002:0000a538       ??_C@_1M@IAIGNEJG@?$AAt?$AAn?$AA?9?$AAZ?$AAA@ 0000000180144538     libucrt:lcidtoname_downlevel.obj
 0002:0000a548       ??_C@_1M@IIJCOJFA@?$AAx?$AAh?$AA?9?$AAZ?$AAA@ 0000000180144548     libucrt:lcidtoname_downlevel.obj
 0002:0000a558       ??_C@_1M@LGPJHNJH@?$AAz?$AAu?$AA?9?$AAZ?$AAA@ 0000000180144558     libucrt:lcidtoname_downlevel.obj
 0002:0000a568       ??_C@_1M@HOKAOIO@?$AAa?$AAf?$AA?9?$AAZ?$AAA@ 0000000180144568     libucrt:lcidtoname_downlevel.obj
 0002:0000a578       ??_C@_1M@DPCLHLIE@?$AAk?$AAa?$AA?9?$AAG?$AAE@ 0000000180144578     libucrt:lcidtoname_downlevel.obj
 0002:0000a588       ??_C@_1M@BLKMHJBI@?$AAf?$AAo?$AA?9?$AAF?$AAO@ 0000000180144588     libucrt:lcidtoname_downlevel.obj
 0002:0000a598       ??_C@_1M@LGGJAPPB@?$AAh?$AAi?$AA?9?$AAI?$AAN@ 0000000180144598     libucrt:lcidtoname_downlevel.obj
 0002:0000a5a8       ??_C@_1M@FIKPIHFE@?$AAm?$AAt?$AA?9?$AAM?$AAT@ 00000001801445a8     libucrt:lcidtoname_downlevel.obj
 0002:0000a5b8       ??_C@_1M@HEGGPBFA@?$AAs?$AAe?$AA?9?$AAN?$AAO@ 00000001801445b8     libucrt:lcidtoname_downlevel.obj
 0002:0000a5c8       ??_C@_1M@EIBJEEPA@?$AAm?$AAs?$AA?9?$AAM?$AAY@ 00000001801445c8     libucrt:lcidtoname_downlevel.obj
 0002:0000a5d8       ??_C@_1M@FHLBGMPP@?$AAk?$AAk?$AA?9?$AAK?$AAZ@ 00000001801445d8     libucrt:lcidtoname_downlevel.obj
 0002:0000a5e8       ??_C@_1M@NGJJLCGI@?$AAk?$AAy?$AA?9?$AAK?$AAG@ 00000001801445e8     libucrt:lcidtoname_downlevel.obj
 0002:0000a5f8       ??_C@_1M@GIENNBFC@?$AAs?$AAw?$AA?9?$AAK?$AAE@ 00000001801445f8     libucrt:lcidtoname_downlevel.obj
 0002:0000a608       ??_C@_1BG@NDGMJIMJ@?$AAu?$AAz?$AA?9?$AAU?$AAZ?$AA?9?$AAL?$AAa?$AAt?$AAn@ 0000000180144608     libucrt:lcidtoname_downlevel.obj
 0002:0000a620       ??_C@_1M@IDCCIHBC@?$AAt?$AAt?$AA?9?$AAR?$AAU@ 0000000180144620     libucrt:lcidtoname_downlevel.obj
 0002:0000a630       ??_C@_1M@LOICPMOJ@?$AAb?$AAn?$AA?9?$AAI?$AAN@ 0000000180144630     libucrt:lcidtoname_downlevel.obj
 0002:0000a640       ??_C@_1M@KPKKNEAH@?$AAp?$AAa?$AA?9?$AAI?$AAN@ 0000000180144640     libucrt:lcidtoname_downlevel.obj
 0002:0000a650       ??_C@_1M@PJGPPBOG@?$AAg?$AAu?$AA?9?$AAI?$AAN@ 0000000180144650     libucrt:lcidtoname_downlevel.obj
 0002:0000a660       ??_C@_1M@KMKMOPHI@?$AAt?$AAa?$AA?9?$AAI?$AAN@ 0000000180144660     libucrt:lcidtoname_downlevel.obj
 0002:0000a670       ??_C@_1M@KFEHEPAC@?$AAt?$AAe?$AA?9?$AAI?$AAN@ 0000000180144670     libucrt:lcidtoname_downlevel.obj
 0002:0000a680       ??_C@_1M@CDCLMGHI@?$AAk?$AAn?$AA?9?$AAI?$AAN@ 0000000180144680     libucrt:lcidtoname_downlevel.obj
 0002:0000a690       ??_C@_1M@MIODLDKF@?$AAm?$AAl?$AA?9?$AAI?$AAN@ 0000000180144690     libucrt:lcidtoname_downlevel.obj
 0002:0000a6a0       ??_C@_1M@PBIEACPO@?$AAm?$AAr?$AA?9?$AAI?$AAN@ 00000001801446a0     libucrt:lcidtoname_downlevel.obj
 0002:0000a6b0       ??_C@_1M@NIDEAGPH@?$AAs?$AAa?$AA?9?$AAI?$AAN@ 00000001801446b0     libucrt:lcidtoname_downlevel.obj
 0002:0000a6c0       ??_C@_1M@FHIHCBIO@?$AAm?$AAn?$AA?9?$AAM?$AAN@ 00000001801446c0     libucrt:lcidtoname_downlevel.obj
 0002:0000a6d0       ??_C@_1M@JAIJPENP@?$AAc?$AAy?$AA?9?$AAG?$AAB@ 00000001801446d0     libucrt:lcidtoname_downlevel.obj
 0002:0000a6e0       ??_C@_1M@PHGFBEPN@?$AAg?$AAl?$AA?9?$AAE?$AAS@ 00000001801446e0     libucrt:lcidtoname_downlevel.obj
 0002:0000a6f0       ??_C@_1O@KPIPDNCP@?$AAk?$AAo?$AAk?$AA?9?$AAI?$AAN@ 00000001801446f0     libucrt:lcidtoname_downlevel.obj
 0002:0000a700       ??_C@_1O@KNHJLDJA@?$AAs?$AAy?$AAr?$AA?9?$AAS?$AAY@ 0000000180144700     libucrt:lcidtoname_downlevel.obj
 0002:0000a710       ??_C@_1O@MKEKBLAH@?$AAd?$AAi?$AAv?$AA?9?$AAM?$AAV@ 0000000180144710     libucrt:lcidtoname_downlevel.obj
 0002:0000a720       ??_C@_1O@OHDCKDDF@?$AAq?$AAu?$AAz?$AA?9?$AAB?$AAO@ 0000000180144720     libucrt:lcidtoname_downlevel.obj
 0002:0000a730       ??_C@_1M@LEPJNLFD@?$AAn?$AAs?$AA?9?$AAZ?$AAA@ 0000000180144730     libucrt:lcidtoname_downlevel.obj
 0002:0000a740       ??_C@_1M@OMLEIIJB@?$AAm?$AAi?$AA?9?$AAN?$AAZ@ 0000000180144740     libucrt:lcidtoname_downlevel.obj
 0002:0000a750       ??_C@_1M@PMPEAILG@?$AAa?$AAr?$AA?9?$AAI?$AAQ@ 0000000180144750     libucrt:lcidtoname_downlevel.obj
 0002:0000a760       ??_C@_1M@CNKPNOEE@?$AAd?$AAe?$AA?9?$AAC?$AAH@ 0000000180144760     libucrt:lcidtoname_downlevel.obj
 0002:0000a770       ??_C@_1M@LKMGMLKO@?$AAe?$AAn?$AA?9?$AAG?$AAB@ 0000000180144770     libucrt:lcidtoname_downlevel.obj
 0002:0000a780       ??_C@_1M@PGKJFFGL@?$AAe?$AAs?$AA?9?$AAM?$AAX@ 0000000180144780     libucrt:lcidtoname_downlevel.obj
 0002:0000a790       ??_C@_1M@DNNANBDC@?$AAf?$AAr?$AA?9?$AAB?$AAE@ 0000000180144790     libucrt:lcidtoname_downlevel.obj
 0002:0000a7a0       ??_C@_1M@HLGMDFHM@?$AAi?$AAt?$AA?9?$AAC?$AAH@ 00000001801447a0     libucrt:lcidtoname_downlevel.obj
 0002:0000a7b0       ??_C@_1M@CLLBGJH@?$AAn?$AAl?$AA?9?$AAB?$AAE@ 00000001801447b0     libucrt:lcidtoname_downlevel.obj
 0002:0000a7c0       ??_C@_1M@BODBOGLF@?$AAn?$AAn?$AA?9?$AAN?$AAO@ 00000001801447c0     libucrt:lcidtoname_downlevel.obj
 0002:0000a7d0       ??_C@_1M@HFFAHKAD@?$AAp?$AAt?$AA?9?$AAP?$AAT@ 00000001801447d0     libucrt:lcidtoname_downlevel.obj
 0002:0000a7e0       ??_C@_1BG@LNOAKHIE@?$AAs?$AAr?$AA?9?$AAS?$AAP?$AA?9?$AAL?$AAa?$AAt?$AAn@ 00000001801447e0     libucrt:lcidtoname_downlevel.obj
 0002:0000a7f8       ??_C@_1M@HBMHBGAK@?$AAs?$AAv?$AA?9?$AAF?$AAI@ 00000001801447f8     libucrt:lcidtoname_downlevel.obj
 0002:0000a808       ??_C@_1BG@DGCJGJBE@?$AAa?$AAz?$AA?9?$AAA?$AAZ?$AA?9?$AAC?$AAy?$AAr?$AAl@ 0000000180144808     libucrt:lcidtoname_downlevel.obj
 0002:0000a820       ??_C@_1M@KEJDAAHB@?$AAs?$AAe?$AA?9?$AAS?$AAE@ 0000000180144820     libucrt:lcidtoname_downlevel.obj
 0002:0000a830       ??_C@_1M@HEIBJJAD@?$AAm?$AAs?$AA?9?$AAB?$AAN@ 0000000180144830     libucrt:lcidtoname_downlevel.obj
 0002:0000a840       ??_C@_1BG@PBGJMCEM@?$AAu?$AAz?$AA?9?$AAU?$AAZ?$AA?9?$AAC?$AAy?$AAr?$AAl@ 0000000180144840     libucrt:lcidtoname_downlevel.obj
 0002:0000a858       ??_C@_1O@LAOBCMDF@?$AAq?$AAu?$AAz?$AA?9?$AAE?$AAC@ 0000000180144858     libucrt:lcidtoname_downlevel.obj
 0002:0000a868       ??_C@_1M@POEEMAIO@?$AAa?$AAr?$AA?9?$AAE?$AAG@ 0000000180144868     libucrt:lcidtoname_downlevel.obj
 0002:0000a878       ??_C@_1M@EFAKDEDL@?$AAz?$AAh?$AA?9?$AAH?$AAK@ 0000000180144878     libucrt:lcidtoname_downlevel.obj
 0002:0000a888       ??_C@_1M@HKKIJHGI@?$AAd?$AAe?$AA?9?$AAA?$AAT@ 0000000180144888     libucrt:lcidtoname_downlevel.obj
 0002:0000a898       ??_C@_1M@KBFBEHJF@?$AAe?$AAn?$AA?9?$AAA?$AAU@ 0000000180144898     libucrt:lcidtoname_downlevel.obj
 0002:0000a8a8       ??_C@_1M@MNPLFAAH@?$AAe?$AAs?$AA?9?$AAE?$AAS@ 00000001801448a8     libucrt:lcidtoname_downlevel.obj
 0002:0000a8b8       ??_C@_1M@HJOOJFMA@?$AAf?$AAr?$AA?9?$AAC?$AAA@ 00000001801448b8     libucrt:lcidtoname_downlevel.obj
 0002:0000a8c8       ??_C@_1BG@JPOFPNAB@?$AAs?$AAr?$AA?9?$AAS?$AAP?$AA?9?$AAC?$AAy?$AAr?$AAl@ 00000001801448c8     libucrt:lcidtoname_downlevel.obj
 0002:0000a8e0       ??_C@_1M@LNFOCMOB@?$AAs?$AAe?$AA?9?$AAF?$AAI@ 00000001801448e0     libucrt:lcidtoname_downlevel.obj
 0002:0000a8f0       ??_C@_1O@MGJBOAMB@?$AAq?$AAu?$AAz?$AA?9?$AAP?$AAE@ 00000001801448f0     libucrt:lcidtoname_downlevel.obj
 0002:0000a900       ??_C@_1M@GJINLBOK@?$AAa?$AAr?$AA?9?$AAL?$AAY@ 0000000180144900     libucrt:lcidtoname_downlevel.obj
 0002:0000a910       ??_C@_1M@GGMNHJNL@?$AAz?$AAh?$AA?9?$AAS?$AAG@ 0000000180144910     libucrt:lcidtoname_downlevel.obj
 0002:0000a920       ??_C@_1M@HOIKODND@?$AAd?$AAe?$AA?9?$AAL?$AAU@ 0000000180144920     libucrt:lcidtoname_downlevel.obj
 0002:0000a930       ??_C@_1M@DDOCCGFG@?$AAe?$AAn?$AA?9?$AAC?$AAA@ 0000000180144930     libucrt:lcidtoname_downlevel.obj
 0002:0000a940       ??_C@_1M@BNOEMJLF@?$AAe?$AAs?$AA?9?$AAG?$AAT@ 0000000180144940     libucrt:lcidtoname_downlevel.obj
 0002:0000a950       ??_C@_1M@EOGNKEK@?$AAf?$AAr?$AA?9?$AAC?$AAH@ 0000000180144950     libucrt:lcidtoname_downlevel.obj
 0002:0000a960       ??_C@_1M@FLIDJFHL@?$AAh?$AAr?$AA?9?$AAB?$AAA@ 0000000180144960     libucrt:lcidtoname_downlevel.obj
 0002:0000a970       ??_C@_1O@FMCELNAJ@?$AAs?$AAm?$AAj?$AA?9?$AAN?$AAO@ 0000000180144970     libucrt:lcidtoname_downlevel.obj
 0002:0000a980       ??_C@_1M@JHGLJMGJ@?$AAa?$AAr?$AA?9?$AAD?$AAZ@ 0000000180144980     libucrt:lcidtoname_downlevel.obj
 0002:0000a990       ??_C@_1M@JKKFDCNP@?$AAz?$AAh?$AA?9?$AAM?$AAO@ 0000000180144990     libucrt:lcidtoname_downlevel.obj
 0002:0000a9a0       ??_C@_1M@GEEFALPE@?$AAd?$AAe?$AA?9?$AAL?$AAI@ 00000001801449a0     libucrt:lcidtoname_downlevel.obj
 0002:0000a9b0       ??_C@_1M@IGEOFBG@?$AAe?$AAn?$AA?9?$AAN?$AAZ@ 00000001801449b0     libucrt:lcidtoname_downlevel.obj
 0002:0000a9c0       ??_C@_1M@KDBONEHP@?$AAe?$AAs?$AA?9?$AAC?$AAR@ 00000001801449c0     libucrt:lcidtoname_downlevel.obj
 0002:0000a9d0       ??_C@_1M@FHMDOHNN@?$AAf?$AAr?$AA?9?$AAL?$AAU@ 00000001801449d0     libucrt:lcidtoname_downlevel.obj
 0002:0000a9e0       ??_C@_1BG@NFKKMAFG@?$AAb?$AAs?$AA?9?$AAB?$AAA?$AA?9?$AAL?$AAa?$AAt?$AAn@ 00000001801449e0     libucrt:lcidtoname_downlevel.obj
 0002:0000a9f8       ??_C@_1O@IMNBEMCI@?$AAs?$AAm?$AAj?$AA?9?$AAS?$AAE@ 00000001801449f8     libucrt:lcidtoname_downlevel.obj
 0002:0000aa08       ??_C@_1M@DHHMBNDP@?$AAa?$AAr?$AA?9?$AAM?$AAA@ 0000000180144a08     libucrt:lcidtoname_downlevel.obj
 0002:0000aa18       ??_C@_1M@BNBLJCGH@?$AAe?$AAn?$AA?9?$AAI?$AAE@ 0000000180144a18     libucrt:lcidtoname_downlevel.obj
 0002:0000aa28       ??_C@_1M@GEPAFMDL@?$AAe?$AAs?$AA?9?$AAP?$AAA@ 0000000180144a28     libucrt:lcidtoname_downlevel.obj
 0002:0000aa38       ??_C@_1M@OJONDMDL@?$AAf?$AAr?$AA?9?$AAM?$AAC@ 0000000180144a38     libucrt:lcidtoname_downlevel.obj
 0002:0000aa48       ??_C@_1BG@OBCNFJB@?$AAs?$AAr?$AA?9?$AAB?$AAA?$AA?9?$AAL?$AAa?$AAt?$AAn@ 0000000180144a48     libucrt:lcidtoname_downlevel.obj
 0002:0000aa60       ??_C@_1O@KEMEEGPO@?$AAs?$AAm?$AAa?$AA?9?$AAN?$AAO@ 0000000180144a60     libucrt:lcidtoname_downlevel.obj
 0002:0000aa70       ??_C@_1M@ELMGFODK@?$AAa?$AAr?$AA?9?$AAT?$AAN@ 0000000180144a70     libucrt:lcidtoname_downlevel.obj
 0002:0000aa80       ??_C@_1M@BHDLHFAF@?$AAe?$AAn?$AA?9?$AAZ?$AAA@ 0000000180144a80     libucrt:lcidtoname_downlevel.obj
 0002:0000aa90       ??_C@_1M@BMGIGLIF@?$AAe?$AAs?$AA?9?$AAD?$AAO@ 0000000180144a90     libucrt:lcidtoname_downlevel.obj
 0002:0000aaa0       ??_C@_1BG@CMBHIPBE@?$AAs?$AAr?$AA?9?$AAB?$AAA?$AA?9?$AAC?$AAy?$AAr?$AAl@ 0000000180144aa0     libucrt:lcidtoname_downlevel.obj
 0002:0000aab8       ??_C@_1O@HEDBLHNP@?$AAs?$AAm?$AAa?$AA?9?$AAS?$AAE@ 0000000180144ab8     libucrt:lcidtoname_downlevel.obj
 0002:0000aac8       ??_C@_1M@DAGCADIM@?$AAa?$AAr?$AA?9?$AAO?$AAM@ 0000000180144ac8     libucrt:lcidtoname_downlevel.obj
 0002:0000aad8       ??_C@_1M@FODLMICG@?$AAe?$AAn?$AA?9?$AAJ?$AAM@ 0000000180144ad8     libucrt:lcidtoname_downlevel.obj
 0002:0000aae8       ??_C@_1M@DNMLCIHB@?$AAe?$AAs?$AA?9?$AAV?$AAE@ 0000000180144ae8     libucrt:lcidtoname_downlevel.obj
 0002:0000aaf8       ??_C@_1O@EOKHMKJK@?$AAs?$AAm?$AAs?$AA?9?$AAF?$AAI@ 0000000180144af8     libucrt:lcidtoname_downlevel.obj
 0002:0000ab08       ??_C@_1M@CAFJMKOF@?$AAa?$AAr?$AA?9?$AAY?$AAE@ 0000000180144b08     libucrt:lcidtoname_downlevel.obj
 0002:0000ab18       ??_C@_1M@CBFHIJLI@?$AAe?$AAn?$AA?9?$AAC?$AAB@ 0000000180144b18     libucrt:lcidtoname_downlevel.obj
 0002:0000ab28       ??_C@_1M@BGNFLDN@?$AAe?$AAs?$AA?9?$AAC?$AAO@ 0000000180144b28     libucrt:lcidtoname_downlevel.obj
 0002:0000ab38       ??_C@_1O@JMPHMAMC@?$AAs?$AAm?$AAn?$AA?9?$AAF?$AAI@ 0000000180144b38     libucrt:lcidtoname_downlevel.obj
 0002:0000ab48       ??_C@_1M@JLANABKE@?$AAa?$AAr?$AA?9?$AAS?$AAY@ 0000000180144b48     libucrt:lcidtoname_downlevel.obj
 0002:0000ab58       ??_C@_1M@HPKGCFGN@?$AAe?$AAn?$AA?9?$AAB?$AAZ@ 0000000180144b58     libucrt:lcidtoname_downlevel.obj
 0002:0000ab68       ??_C@_1M@OLJCMLGM@?$AAe?$AAs?$AA?9?$AAP?$AAE@ 0000000180144b68     libucrt:lcidtoname_downlevel.obj
 0002:0000ab78       ??_C@_1M@MKKGFKLE@?$AAa?$AAr?$AA?9?$AAJ?$AAO@ 0000000180144b78     libucrt:lcidtoname_downlevel.obj
 0002:0000ab88       ??_C@_1M@EKPGLDNI@?$AAe?$AAn?$AA?9?$AAT?$AAT@ 0000000180144b88     libucrt:lcidtoname_downlevel.obj
 0002:0000ab98       ??_C@_1M@OONGHFHE@?$AAe?$AAs?$AA?9?$AAA?$AAR@ 0000000180144b98     libucrt:lcidtoname_downlevel.obj
 0002:0000aba8       ??_C@_1M@OOJFGBHE@?$AAa?$AAr?$AA?9?$AAL?$AAB@ 0000000180144ba8     libucrt:lcidtoname_downlevel.obj
 0002:0000abb8       ??_C@_1M@GCEJHNEG@?$AAe?$AAn?$AA?9?$AAZ?$AAW@ 0000000180144bb8     libucrt:lcidtoname_downlevel.obj
 0002:0000abc8       ??_C@_1M@JNOCAHJI@?$AAe?$AAs?$AA?9?$AAE?$AAC@ 0000000180144bc8     libucrt:lcidtoname_downlevel.obj
 0002:0000abd8       ??_C@_1M@JEFHPGGB@?$AAa?$AAr?$AA?9?$AAK?$AAW@ 0000000180144bd8     libucrt:lcidtoname_downlevel.obj
 0002:0000abe8       ??_C@_1M@MLKIBJOJ@?$AAe?$AAn?$AA?9?$AAP?$AAH@ 0000000180144be8     libucrt:lcidtoname_downlevel.obj
 0002:0000abf8       ??_C@_1M@BDNIPEND@?$AAe?$AAs?$AA?9?$AAC?$AAL@ 0000000180144bf8     libucrt:lcidtoname_downlevel.obj
 0002:0000ac08       ??_C@_1M@MPNMEKBD@?$AAa?$AAr?$AA?9?$AAA?$AAE@ 0000000180144c08     libucrt:lcidtoname_downlevel.obj
 0002:0000ac18       ??_C@_1M@KBJALCPI@?$AAe?$AAs?$AA?9?$AAU?$AAY@ 0000000180144c18     libucrt:lcidtoname_downlevel.obj
 0002:0000ac28       ??_C@_1M@LLCCOAGA@?$AAa?$AAr?$AA?9?$AAB?$AAH@ 0000000180144c28     libucrt:lcidtoname_downlevel.obj
 0002:0000ac38       ??_C@_1M@PBFNCDEL@?$AAe?$AAs?$AA?9?$AAP?$AAY@ 0000000180144c38     libucrt:lcidtoname_downlevel.obj
 0002:0000ac48       ??_C@_1M@EDGINPNP@?$AAa?$AAr?$AA?9?$AAQ?$AAA@ 0000000180144c48     libucrt:lcidtoname_downlevel.obj
 0002:0000ac58       ??_C@_1M@MKDBIIJI@?$AAe?$AAs?$AA?9?$AAB?$AAO@ 0000000180144c58     libucrt:lcidtoname_downlevel.obj
 0002:0000ac68       ??_C@_1M@CPKKEBLD@?$AAe?$AAs?$AA?9?$AAS?$AAV@ 0000000180144c68     libucrt:lcidtoname_downlevel.obj
 0002:0000ac78       ??_C@_1M@NDBGMMJL@?$AAe?$AAs?$AA?9?$AAH?$AAN@ 0000000180144c78     libucrt:lcidtoname_downlevel.obj
 0002:0000ac88       ??_C@_1M@JIJIBHDP@?$AAe?$AAs?$AA?9?$AAN?$AAI@ 0000000180144c88     libucrt:lcidtoname_downlevel.obj
 0002:0000ac98       ??_C@_1M@CGFMKEEK@?$AAe?$AAs?$AA?9?$AAP?$AAR@ 0000000180144c98     libucrt:lcidtoname_downlevel.obj
 0002:0000aca8       ??_C@_1O@ICJHKIIK@?$AAz?$AAh?$AA?9?$AAC?$AAH?$AAT@ 0000000180144ca8     libucrt:lcidtoname_downlevel.obj
 0002:0000acb8       ??_C@_15CLNEJCE@?$AAs?$AAr@ 0000000180144cb8     libucrt:lcidtoname_downlevel.obj
 0002:0000bb00       ??_C@_1M@KAHEKEIG@?$AAa?$AAf?$AA?9?$AAz?$AAa@ 0000000180145b00     libucrt:lcidtoname_downlevel.obj
 0002:0000bb10       ??_C@_1M@GIECOABL@?$AAa?$AAr?$AA?9?$AAa?$AAe@ 0000000180145b10     libucrt:lcidtoname_downlevel.obj
 0002:0000bb20       ??_C@_1M@BMLMEKGI@?$AAa?$AAr?$AA?9?$AAb?$AAh@ 0000000180145b20     libucrt:lcidtoname_downlevel.obj
 0002:0000bb30       ??_C@_1M@DAPFDGGB@?$AAa?$AAr?$AA?9?$AAd?$AAz@ 0000000180145b30     libucrt:lcidtoname_downlevel.obj
 0002:0000bb40       ??_C@_1M@FJNKGKIG@?$AAa?$AAr?$AA?9?$AAe?$AAg@ 0000000180145b40     libucrt:lcidtoname_downlevel.obj
 0002:0000bb50       ??_C@_1M@FLGKKCLO@?$AAa?$AAr?$AA?9?$AAi?$AAq@ 0000000180145b50     libucrt:lcidtoname_downlevel.obj
 0002:0000bb60       ??_C@_1M@GNDIPALM@?$AAa?$AAr?$AA?9?$AAj?$AAo@ 0000000180145b60     libucrt:lcidtoname_downlevel.obj
 0002:0000bb70       ??_C@_1M@DDMJFMGJ@?$AAa?$AAr?$AA?9?$AAk?$AAw@ 0000000180145b70     libucrt:lcidtoname_downlevel.obj
 0002:0000bb80       ??_C@_1M@EJALMLHM@?$AAa?$AAr?$AA?9?$AAl?$AAb@ 0000000180145b80     libucrt:lcidtoname_downlevel.obj
 0002:0000bb90       ??_C@_1M@MOBDBLOC@?$AAa?$AAr?$AA?9?$AAl?$AAy@ 0000000180145b90     libucrt:lcidtoname_downlevel.obj
 0002:0000bba0       ??_C@_1M@JAOCLHDH@?$AAa?$AAr?$AA?9?$AAm?$AAa@ 0000000180145ba0     libucrt:lcidtoname_downlevel.obj
 0002:0000bbb0       ??_C@_1M@JHPMKJIE@?$AAa?$AAr?$AA?9?$AAo?$AAm@ 0000000180145bb0     libucrt:lcidtoname_downlevel.obj
 0002:0000bbc0       ??_C@_1M@OEPGHFNH@?$AAa?$AAr?$AA?9?$AAq?$AAa@ 0000000180145bc0     libucrt:lcidtoname_downlevel.obj
 0002:0000bbd0       ??_C@_1M@KJDONENM@?$AAa?$AAr?$AA?9?$AAs?$AAa@ 0000000180145bd0     libucrt:lcidtoname_downlevel.obj
 0002:0000bbe0       ??_C@_1M@DMJDKLKM@?$AAa?$AAr?$AA?9?$AAs?$AAy@ 0000000180145be0     libucrt:lcidtoname_downlevel.obj
 0002:0000bbf0       ??_C@_1M@OMFIPEDC@?$AAa?$AAr?$AA?9?$AAt?$AAn@ 0000000180145bf0     libucrt:lcidtoname_downlevel.obj
 0002:0000bc00       ??_C@_1M@IHMHGAON@?$AAa?$AAr?$AA?9?$AAy?$AAe@ 0000000180145c00     libucrt:lcidtoname_downlevel.obj
 0002:0000bc10       ??_C@_1BG@KDCPGJGB@?$AAa?$AAz?$AA?9?$AAa?$AAz?$AA?9?$AAc?$AAy?$AAr?$AAl@ 0000000180145c10     libucrt:lcidtoname_downlevel.obj
 0002:0000bc28       ??_C@_1BG@IBCKDDOE@?$AAa?$AAz?$AA?9?$AAa?$AAz?$AA?9?$AAl?$AAa?$AAt?$AAn@ 0000000180145c28     libucrt:lcidtoname_downlevel.obj
 0002:0000bc40       ??_C@_1M@EGPFDCPD@?$AAb?$AAe?$AA?9?$AAb?$AAy@ 0000000180145c40     libucrt:lcidtoname_downlevel.obj
 0002:0000bc50       ??_C@_1M@PCMGMCGC@?$AAb?$AAg?$AA?9?$AAb?$AAg@ 0000000180145c50     libucrt:lcidtoname_downlevel.obj
 0002:0000bc60       ??_C@_1M@BJBMFGOB@?$AAb?$AAn?$AA?9?$AAi?$AAn@ 0000000180145c60     libucrt:lcidtoname_downlevel.obj
 0002:0000bc70       ??_C@_1BG@EAKMMACD@?$AAb?$AAs?$AA?9?$AAb?$AAa?$AA?9?$AAl?$AAa?$AAt?$AAn@ 0000000180145c70     libucrt:lcidtoname_downlevel.obj
 0002:0000bc88       ??_C@_1M@KGADAODK@?$AAc?$AAa?$AA?9?$AAe?$AAs@ 0000000180145c88     libucrt:lcidtoname_downlevel.obj
 0002:0000bc98       ??_C@_1M@COAJPDHI@?$AAc?$AAs?$AA?9?$AAc?$AAz@ 0000000180145c98     libucrt:lcidtoname_downlevel.obj
 0002:0000bca8       ??_C@_1M@DHBHFONH@?$AAc?$AAy?$AA?9?$AAg?$AAb@ 0000000180145ca8     libucrt:lcidtoname_downlevel.obj
 0002:0000bcb8       ??_C@_1M@IMGKELGA@?$AAd?$AAa?$AA?9?$AAd?$AAk@ 0000000180145cb8     libucrt:lcidtoname_downlevel.obj
 0002:0000bcc8       ??_C@_1M@NNDGDNGA@?$AAd?$AAe?$AA?9?$AAa?$AAt@ 0000000180145cc8     libucrt:lcidtoname_downlevel.obj
 0002:0000bcd8       ??_C@_1M@IKDBHEEM@?$AAd?$AAe?$AA?9?$AAc?$AAh@ 0000000180145cd8     libucrt:lcidtoname_downlevel.obj
 0002:0000bce8       ??_C@_1M@GFFOJMCJ@?$AAd?$AAe?$AA?9?$AAd?$AAe@ 0000000180145ce8     libucrt:lcidtoname_downlevel.obj
 0002:0000bcf8       ??_C@_1M@MDNLKBPM@?$AAd?$AAe?$AA?9?$AAl?$AAi@ 0000000180145cf8     libucrt:lcidtoname_downlevel.obj
 0002:0000bd08       ??_C@_1M@NJBEEJNL@?$AAd?$AAe?$AA?9?$AAl?$AAu@ 0000000180145d08     libucrt:lcidtoname_downlevel.obj
 0002:0000bd18       ??_C@_1O@GNNELBAP@?$AAd?$AAi?$AAv?$AA?9?$AAm?$AAv@ 0000000180145d18     libucrt:lcidtoname_downlevel.obj
 0002:0000bd28       ??_C@_1M@EJLEOGAE@?$AAe?$AAl?$AA?9?$AAg?$AAr@ 0000000180145d28     libucrt:lcidtoname_downlevel.obj
 0002:0000bd38       ??_C@_1M@GMPONJN@?$AAe?$AAn?$AA?9?$AAa?$AAu@ 0000000180145d38     libucrt:lcidtoname_downlevel.obj
 0002:0000bd48       ??_C@_1M@NIDIIPGF@?$AAe?$AAn?$AA?9?$AAb?$AAz@ 0000000180145d48     libucrt:lcidtoname_downlevel.obj
 0002:0000bd58       ??_C@_1M@JEHMIMFO@?$AAe?$AAn?$AA?9?$AAc?$AAa@ 0000000180145d58     libucrt:lcidtoname_downlevel.obj
 0002:0000bd68       ??_C@_1M@IGMJCDLA@?$AAe?$AAn?$AA?9?$AAc?$AAb@ 0000000180145d68     libucrt:lcidtoname_downlevel.obj
 0002:0000bd78       ??_C@_1M@BNFIGBKG@?$AAe?$AAn?$AA?9?$AAg?$AAb@ 0000000180145d78     libucrt:lcidtoname_downlevel.obj
 0002:0000bd88       ??_C@_1M@LKIFDIGP@?$AAe?$AAn?$AA?9?$AAi?$AAe@ 0000000180145d88     libucrt:lcidtoname_downlevel.obj
 0002:0000bd98       ??_C@_1M@PJKFGCCO@?$AAe?$AAn?$AA?9?$AAj?$AAm@ 0000000180145d98     libucrt:lcidtoname_downlevel.obj
 0002:0000bda8       ??_C@_1M@KPPKEPBO@?$AAe?$AAn?$AA?9?$AAn?$AAz@ 0000000180145da8     libucrt:lcidtoname_downlevel.obj
 0002:0000bdb8       ??_C@_1M@GMDGLDOB@?$AAe?$AAn?$AA?9?$AAp?$AAh@ 0000000180145db8     libucrt:lcidtoname_downlevel.obj
 0002:0000bdc8       ??_C@_1M@ONGIBJNA@?$AAe?$AAn?$AA?9?$AAt?$AAt@ 0000000180145dc8     libucrt:lcidtoname_downlevel.obj
 0002:0000bdd8       ??_C@_1M@LLODPCMM@?$AAe?$AAn?$AA?9?$AAu?$AAs@ 0000000180145dd8     libucrt:lcidtoname_downlevel.obj
 0002:0000bde8       ??_C@_1M@LAKFNPAN@?$AAe?$AAn?$AA?9?$AAz?$AAa@ 0000000180145de8     libucrt:lcidtoname_downlevel.obj
 0002:0000bdf8       ??_C@_1M@MFNHNHEO@?$AAe?$AAn?$AA?9?$AAz?$AAw@ 0000000180145df8     libucrt:lcidtoname_downlevel.obj
 0002:0000be08       ??_C@_1M@EJEINPHM@?$AAe?$AAs?$AA?9?$AAa?$AAr@ 0000000180145e08     libucrt:lcidtoname_downlevel.obj
 0002:0000be18       ??_C@_1M@GNKPCCJA@?$AAe?$AAs?$AA?9?$AAb?$AAo@ 0000000180145e18     libucrt:lcidtoname_downlevel.obj
 0002:0000be28       ??_C@_1M@LEEGFONL@?$AAe?$AAs?$AA?9?$AAc?$AAl@ 0000000180145e28     libucrt:lcidtoname_downlevel.obj
 0002:0000be38       ??_C@_1M@KGPDPBDF@?$AAe?$AAs?$AA?9?$AAc?$AAo@ 0000000180145e38     libucrt:lcidtoname_downlevel.obj
 0002:0000be48       ??_C@_1M@EIAHOHH@?$AAe?$AAs?$AA?9?$AAc?$AAr@ 0000000180145e48     libucrt:lcidtoname_downlevel.obj
 0002:0000be58       ??_C@_1M@LLPGMBIN@?$AAe?$AAs?$AA?9?$AAd?$AAo@ 0000000180145e58     libucrt:lcidtoname_downlevel.obj
 0002:0000be68       ??_C@_1M@DKHMKNJA@?$AAe?$AAs?$AA?9?$AAe?$AAc@ 0000000180145e68     libucrt:lcidtoname_downlevel.obj
 0002:0000be78       ??_C@_1M@GKGFPKAP@?$AAe?$AAs?$AA?9?$AAe?$AAs@ 0000000180145e78     libucrt:lcidtoname_downlevel.obj
 0002:0000be88       ??_C@_1M@LKHKGDLN@?$AAe?$AAs?$AA?9?$AAg?$AAt@ 0000000180145e88     libucrt:lcidtoname_downlevel.obj
 0002:0000be98       ??_C@_1M@HEIIGGJD@?$AAe?$AAs?$AA?9?$AAh?$AAn@ 0000000180145e98     libucrt:lcidtoname_downlevel.obj
 0002:0000bea8       ??_C@_1M@FBDHPPGD@?$AAe?$AAs?$AA?9?$AAm?$AAx@ 0000000180145ea8     libucrt:lcidtoname_downlevel.obj
 0002:0000beb8       ??_C@_1M@DPAGLNDH@?$AAe?$AAs?$AA?9?$AAn?$AAi@ 0000000180145eb8     libucrt:lcidtoname_downlevel.obj
 0002:0000bec8       ??_C@_1M@MDGOPGDD@?$AAe?$AAs?$AA?9?$AAp?$AAa@ 0000000180145ec8     libucrt:lcidtoname_downlevel.obj
 0002:0000bed8       ??_C@_1M@EMAMGBGE@?$AAe?$AAs?$AA?9?$AAp?$AAe@ 0000000180145ed8     libucrt:lcidtoname_downlevel.obj
 0002:0000bee8       ??_C@_1M@IBMCAOEC@?$AAe?$AAs?$AA?9?$AAp?$AAr@ 0000000180145ee8     libucrt:lcidtoname_downlevel.obj
 0002:0000bef8       ??_C@_1M@FGMDIJED@?$AAe?$AAs?$AA?9?$AAp?$AAy@ 0000000180145ef8     libucrt:lcidtoname_downlevel.obj
 0002:0000bf08       ??_C@_1M@IIDEOLLL@?$AAe?$AAs?$AA?9?$AAs?$AAv@ 0000000180145f08     libucrt:lcidtoname_downlevel.obj
 0002:0000bf18       ??_C@_1M@GAOBIPA@?$AAe?$AAs?$AA?9?$AAu?$AAy@ 0000000180145f18     libucrt:lcidtoname_downlevel.obj
 0002:0000bf28       ??_C@_1M@JKFFICHJ@?$AAe?$AAs?$AA?9?$AAv?$AAe@ 0000000180145f28     libucrt:lcidtoname_downlevel.obj
 0002:0000bf38       ??_C@_1M@PNMLOJDF@?$AAe?$AAt?$AA?9?$AAe?$AAe@ 0000000180145f38     libucrt:lcidtoname_downlevel.obj
 0002:0000bf48       ??_C@_1M@GHHLIKEI@?$AAe?$AAu?$AA?9?$AAe?$AAs@ 0000000180145f48     libucrt:lcidtoname_downlevel.obj
 0002:0000bf58       ??_C@_1M@PBNONODE@?$AAf?$AAa?$AA?9?$AAi?$AAr@ 0000000180145f58     libucrt:lcidtoname_downlevel.obj
 0002:0000bf68       ??_C@_1M@JEEHPMIL@?$AAf?$AAi?$AA?9?$AAf?$AAi@ 0000000180145f68     libucrt:lcidtoname_downlevel.obj
 0002:0000bf78       ??_C@_1M@LMDCNDBA@?$AAf?$AAo?$AA?9?$AAf?$AAo@ 0000000180145f78     libucrt:lcidtoname_downlevel.obj
 0002:0000bf88       ??_C@_1M@JKEOHLDK@?$AAf?$AAr?$AA?9?$AAb?$AAe@ 0000000180145f88     libucrt:lcidtoname_downlevel.obj
 0002:0000bf98       ??_C@_1M@NOHADPMI@?$AAf?$AAr?$AA?9?$AAc?$AAa@ 0000000180145f98     libucrt:lcidtoname_downlevel.obj
 0002:0000bfa8       ??_C@_1M@KDHIHAEC@?$AAf?$AAr?$AA?9?$AAc?$AAh@ 0000000180145fa8     libucrt:lcidtoname_downlevel.obj
 0002:0000bfb8       ??_C@_1M@MMBBFGAK@?$AAf?$AAr?$AA?9?$AAf?$AAr@ 0000000180145fb8     libucrt:lcidtoname_downlevel.obj
 0002:0000bfc8       ??_C@_1M@PAFNENNF@?$AAf?$AAr?$AA?9?$AAl?$AAu@ 0000000180145fc8     libucrt:lcidtoname_downlevel.obj
 0002:0000bfd8       ??_C@_1M@EOHDJGDD@?$AAf?$AAr?$AA?9?$AAm?$AAc@ 0000000180145fd8     libucrt:lcidtoname_downlevel.obj
 0002:0000bfe8       ??_C@_1M@FAPLLOPF@?$AAg?$AAl?$AA?9?$AAe?$AAs@ 0000000180145fe8     libucrt:lcidtoname_downlevel.obj
 0002:0000bff8       ??_C@_1M@FOPBFLOO@?$AAg?$AAu?$AA?9?$AAi?$AAn@ 0000000180145ff8     libucrt:lcidtoname_downlevel.obj
 0002:0000c008       ??_C@_1M@KBMCINPM@?$AAh?$AAe?$AA?9?$AAi?$AAl@ 0000000180146008     libucrt:lcidtoname_downlevel.obj
 0002:0000c018       ??_C@_1M@BBPHKFPJ@?$AAh?$AAi?$AA?9?$AAi?$AAn@ 0000000180146018     libucrt:lcidtoname_downlevel.obj
 0002:0000c028       ??_C@_1M@PMBNDPHD@?$AAh?$AAr?$AA?9?$AAb?$AAa@ 0000000180146028     libucrt:lcidtoname_downlevel.obj
 0002:0000c038       ??_C@_1M@BPCKOEGE@?$AAh?$AAr?$AA?9?$AAh?$AAr@ 0000000180146038     libucrt:lcidtoname_downlevel.obj
 0002:0000c048       ??_C@_1M@GACBMHKE@?$AAh?$AAu?$AA?9?$AAh?$AAu@ 0000000180146048     libucrt:lcidtoname_downlevel.obj
 0002:0000c058       ??_C@_1M@MILPAJJC@?$AAh?$AAy?$AA?9?$AAa?$AAm@ 0000000180146058     libucrt:lcidtoname_downlevel.obj
 0002:0000c068       ??_C@_1M@BABBICEC@?$AAi?$AAd?$AA?9?$AAi?$AAd@ 0000000180146068     libucrt:lcidtoname_downlevel.obj
 0002:0000c078       ??_C@_1M@BIKNHHPF@?$AAi?$AAs?$AA?9?$AAi?$AAs@ 0000000180146078     libucrt:lcidtoname_downlevel.obj
 0002:0000c088       ??_C@_1M@NMPCJPHE@?$AAi?$AAt?$AA?9?$AAc?$AAh@ 0000000180146088     libucrt:lcidtoname_downlevel.obj
 0002:0000c098       ??_C@_1M@GHKGFEDF@?$AAi?$AAt?$AA?9?$AAi?$AAt@ 0000000180146098     libucrt:lcidtoname_downlevel.obj
 0002:0000c0a8       ??_C@_1M@NIEJCJJA@?$AAj?$AAa?$AA?9?$AAj?$AAp@ 00000001801460a8     libucrt:lcidtoname_downlevel.obj
 0002:0000c0b8       ??_C@_1M@JILFNBIM@?$AAk?$AAa?$AA?9?$AAg?$AAe@ 00000001801460b8     libucrt:lcidtoname_downlevel.obj
 0002:0000c0c8       ??_C@_1M@PACPMGPH@?$AAk?$AAk?$AA?9?$AAk?$AAz@ 00000001801460c8     libucrt:lcidtoname_downlevel.obj
 0002:0000c0d8       ??_C@_1M@IELFGMHA@?$AAk?$AAn?$AA?9?$AAi?$AAn@ 00000001801460d8     libucrt:lcidtoname_downlevel.obj
 0002:0000c0e8       ??_C@_1O@IBBJHCH@?$AAk?$AAo?$AAk?$AA?9?$AAi?$AAn@ 00000001801460e8     libucrt:lcidtoname_downlevel.obj
 0002:0000c0f8       ??_C@_1M@DMHAEOGC@?$AAk?$AAo?$AA?9?$AAk?$AAr@ 00000001801460f8     libucrt:lcidtoname_downlevel.obj
 0002:0000c108       ??_C@_1M@HBAHBIGA@?$AAk?$AAy?$AA?9?$AAk?$AAg@ 0000000180146108     libucrt:lcidtoname_downlevel.obj
 0002:0000c118       ??_C@_1M@KPMILCJG@?$AAl?$AAt?$AA?9?$AAl?$AAt@ 0000000180146118     libucrt:lcidtoname_downlevel.obj
 0002:0000c128       ??_C@_1M@BDEKKCA@?$AAl?$AAv?$AA?9?$AAl?$AAv@ 0000000180146128     libucrt:lcidtoname_downlevel.obj
 0002:0000c138       ??_C@_1M@ELCKCCJJ@?$AAm?$AAi?$AA?9?$AAn?$AAz@ 0000000180146138     libucrt:lcidtoname_downlevel.obj
 0002:0000c148       ??_C@_1M@CBOOLAPA@?$AAm?$AAk?$AA?9?$AAm?$AAk@ 0000000180146148     libucrt:lcidtoname_downlevel.obj
 0002:0000c158       ??_C@_1M@GPHNBJKN@?$AAm?$AAl?$AA?9?$AAi?$AAn@ 0000000180146158     libucrt:lcidtoname_downlevel.obj
 0002:0000c168       ??_C@_1M@PABJILIG@?$AAm?$AAn?$AA?9?$AAm?$AAn@ 0000000180146168     libucrt:lcidtoname_downlevel.obj
 0002:0000c178       ??_C@_1M@FGBKKIPG@?$AAm?$AAr?$AA?9?$AAi?$AAn@ 0000000180146178     libucrt:lcidtoname_downlevel.obj
 0002:0000c188       ??_C@_1M@NDBPDDAL@?$AAm?$AAs?$AA?9?$AAb?$AAn@ 0000000180146188     libucrt:lcidtoname_downlevel.obj
 0002:0000c198       ??_C@_1M@OPIHOOPI@?$AAm?$AAs?$AA?9?$AAm?$AAy@ 0000000180146198     libucrt:lcidtoname_downlevel.obj
 0002:0000c1a8       ??_C@_1M@PPDBCNFM@?$AAm?$AAt?$AA?9?$AAm?$AAt@ 00000001801461a8     libucrt:lcidtoname_downlevel.obj
 0002:0000c1b8       ??_C@_1M@KDJDKMDD@?$AAn?$AAb?$AA?9?$AAn?$AAo@ 00000001801461b8     libucrt:lcidtoname_downlevel.obj
 0002:0000c1c8       ??_C@_1M@KFCFLMJP@?$AAn?$AAl?$AA?9?$AAb?$AAe@ 00000001801461c8     libucrt:lcidtoname_downlevel.obj
 0002:0000c1d8       ??_C@_1M@KPOPDDGO@?$AAn?$AAl?$AA?9?$AAn?$AAl@ 00000001801461d8     libucrt:lcidtoname_downlevel.obj
 0002:0000c1e8       ??_C@_1M@LJKPEMLN@?$AAn?$AAn?$AA?9?$AAn?$AAo@ 00000001801461e8     libucrt:lcidtoname_downlevel.obj
 0002:0000c1f8       ??_C@_1M@BDGHHBFL@?$AAn?$AAs?$AA?9?$AAz?$AAa@ 00000001801461f8     libucrt:lcidtoname_downlevel.obj
 0002:0000c208       ??_C@_1M@IDEHOAP@?$AAp?$AAa?$AA?9?$AAi?$AAn@ 0000000180146208     libucrt:lcidtoname_downlevel.obj
 0002:0000c218       ??_C@_1M@HDBKGOGH@?$AAp?$AAl?$AA?9?$AAp?$AAl@ 0000000180146218     libucrt:lcidtoname_downlevel.obj
 0002:0000c228       ??_C@_1M@LJLLCMEH@?$AAp?$AAt?$AA?9?$AAb?$AAr@ 0000000180146228     libucrt:lcidtoname_downlevel.obj
 0002:0000c238       ??_C@_1M@NCMONAAL@?$AAp?$AAt?$AA?9?$AAp?$AAt@ 0000000180146238     libucrt:lcidtoname_downlevel.obj
 0002:0000c248       ??_C@_1O@EAKMAJDN@?$AAq?$AAu?$AAz?$AA?9?$AAb?$AAo@ 0000000180146248     libucrt:lcidtoname_downlevel.obj
 0002:0000c258       ??_C@_1O@BHHPIGDN@?$AAq?$AAu?$AAz?$AA?9?$AAe?$AAc@ 0000000180146258     libucrt:lcidtoname_downlevel.obj
 0002:0000c268       ??_C@_1O@GBAPEKMJ@?$AAq?$AAu?$AAz?$AA?9?$AAp?$AAe@ 0000000180146268     libucrt:lcidtoname_downlevel.obj
 0002:0000c278       ??_C@_1M@CLGLEFBO@?$AAr?$AAo?$AA?9?$AAr?$AAo@ 0000000180146278     libucrt:lcidtoname_downlevel.obj
 0002:0000c288       ??_C@_1M@CEEDODME@?$AAr?$AAu?$AA?9?$AAr?$AAu@ 0000000180146288     libucrt:lcidtoname_downlevel.obj
 0002:0000c298       ??_C@_1M@HPKKKMPP@?$AAs?$AAa?$AA?9?$AAi?$AAn@ 0000000180146298     libucrt:lcidtoname_downlevel.obj
 0002:0000c2a8       ??_C@_1M@BKMAIGOJ@?$AAs?$AAe?$AA?9?$AAf?$AAi@ 00000001801462a8     libucrt:lcidtoname_downlevel.obj
 0002:0000c2b8       ??_C@_1M@NDPIFLFI@?$AAs?$AAe?$AA?9?$AAn?$AAo@ 00000001801462b8     libucrt:lcidtoname_downlevel.obj
 0002:0000c2c8       ??_C@_1M@DANKKHJ@?$AAs?$AAe?$AA?9?$AAs?$AAe@ 00000001801462c8     libucrt:lcidtoname_downlevel.obj
 0002:0000c2d8       ??_C@_1M@PNBLONPJ@?$AAs?$AAk?$AA?9?$AAs?$AAk@ 00000001801462d8     libucrt:lcidtoname_downlevel.obj
 0002:0000c2e8       ??_C@_1M@LFMODOAL@?$AAs?$AAl?$AA?9?$AAs?$AAi@ 00000001801462e8     libucrt:lcidtoname_downlevel.obj
 0002:0000c2f8       ??_C@_1O@DFKOMPG@?$AAs?$AAm?$AAa?$AA?9?$AAn?$AAo@ 00000001801462f8     libucrt:lcidtoname_downlevel.obj
 0002:0000c308       ??_C@_1O@NDKPBNNH@?$AAs?$AAm?$AAa?$AA?9?$AAs?$AAe@ 0000000180146308     libucrt:lcidtoname_downlevel.obj
 0002:0000c318       ??_C@_1O@PLLKBHAB@?$AAs?$AAm?$AAj?$AA?9?$AAn?$AAo@ 0000000180146318     libucrt:lcidtoname_downlevel.obj
 0002:0000c328       ??_C@_1O@CLEPOGCA@?$AAs?$AAm?$AAj?$AA?9?$AAs?$AAe@ 0000000180146328     libucrt:lcidtoname_downlevel.obj
 0002:0000c338       ??_C@_1O@DLGJGKMK@?$AAs?$AAm?$AAn?$AA?9?$AAf?$AAi@ 0000000180146338     libucrt:lcidtoname_downlevel.obj
 0002:0000c348       ??_C@_1O@OJDJGAJC@?$AAs?$AAm?$AAs?$AA?9?$AAf?$AAi@ 0000000180146348     libucrt:lcidtoname_downlevel.obj
 0002:0000c358       ??_C@_1M@BOFOGHPB@?$AAs?$AAq?$AA?9?$AAa?$AAl@ 0000000180146358     libucrt:lcidtoname_downlevel.obj
 0002:0000c368       ??_C@_1BG@LJBBIPGB@?$AAs?$AAr?$AA?9?$AAb?$AAa?$AA?9?$AAc?$AAy?$AAr?$AAl@ 0000000180146368     libucrt:lcidtoname_downlevel.obj
 0002:0000c380       ??_C@_1BG@JLBENFOE@?$AAs?$AAr?$AA?9?$AAb?$AAa?$AA?9?$AAl?$AAa?$AAt?$AAn@ 0000000180146380     libucrt:lcidtoname_downlevel.obj
 0002:0000c398       ??_C@_1BG@KODPNHE@?$AAs?$AAr?$AA?9?$AAs?$AAp?$AA?9?$AAc?$AAy?$AAr?$AAl@ 0000000180146398     libucrt:lcidtoname_downlevel.obj
 0002:0000c3b0       ??_C@_1BG@CIOGKHPB@?$AAs?$AAr?$AA?9?$AAs?$AAp?$AA?9?$AAl?$AAa?$AAt?$AAn@ 00000001801463b0     libucrt:lcidtoname_downlevel.obj
 0002:0000c3c8       ??_C@_1M@NGFJLMAC@?$AAs?$AAv?$AA?9?$AAf?$AAi@ 00000001801463c8     libucrt:lcidtoname_downlevel.obj
 0002:0000c3d8       ??_C@_1M@MPJEJAJC@?$AAs?$AAv?$AA?9?$AAs?$AAe@ 00000001801463d8     libucrt:lcidtoname_downlevel.obj
 0002:0000c3e8       ??_C@_1M@MPNDHLFK@?$AAs?$AAw?$AA?9?$AAk?$AAe@ 00000001801463e8     libucrt:lcidtoname_downlevel.obj
 0002:0000c3f8       ??_C@_1O@KOHBJJI@?$AAs?$AAy?$AAr?$AA?9?$AAs?$AAy@ 00000001801463f8     libucrt:lcidtoname_downlevel.obj
 0002:0000c408       ??_C@_1M@LDCEFHA@?$AAt?$AAa?$AA?9?$AAi?$AAn@ 0000000180146408     libucrt:lcidtoname_downlevel.obj
 0002:0000c418       ??_C@_1M@CNJOFAK@?$AAt?$AAe?$AA?9?$AAi?$AAn@ 0000000180146418     libucrt:lcidtoname_downlevel.obj
 0002:0000c428       ??_C@_1M@GNAECACD@?$AAt?$AAh?$AA?9?$AAt?$AAh@ 0000000180146428     libucrt:lcidtoname_downlevel.obj
 0002:0000c438       ??_C@_1M@CHBIHOJO@?$AAt?$AAn?$AA?9?$AAz?$AAa@ 0000000180146438     libucrt:lcidtoname_downlevel.obj
 0002:0000c448       ??_C@_1M@GCCMIGPJ@?$AAt?$AAr?$AA?9?$AAt?$AAr@ 0000000180146448     libucrt:lcidtoname_downlevel.obj
 0002:0000c458       ??_C@_1M@CELMCNBK@?$AAt?$AAt?$AA?9?$AAr?$AAu@ 0000000180146458     libucrt:lcidtoname_downlevel.obj
 0002:0000c468       ??_C@_1M@KLMCELGA@?$AAu?$AAk?$AA?9?$AAu?$AAa@ 0000000180146468     libucrt:lcidtoname_downlevel.obj
 0002:0000c478       ??_C@_1M@EPAJJAJF@?$AAu?$AAr?$AA?9?$AAp?$AAk@ 0000000180146478     libucrt:lcidtoname_downlevel.obj
 0002:0000c488       ??_C@_1BG@GEGPMCDJ@?$AAu?$AAz?$AA?9?$AAu?$AAz?$AA?9?$AAc?$AAy?$AAr?$AAl@ 0000000180146488     libucrt:lcidtoname_downlevel.obj
 0002:0000c4a0       ??_C@_1BG@EGGKJILM@?$AAu?$AAz?$AA?9?$AAu?$AAz?$AA?9?$AAl?$AAa?$AAt?$AAn@ 00000001801464a0     libucrt:lcidtoname_downlevel.obj
 0002:0000c4b8       ??_C@_1M@GFOCLFF@?$AAv?$AAi?$AA?9?$AAv?$AAn@ 00000001801464b8     libucrt:lcidtoname_downlevel.obj
 0002:0000c4c8       ??_C@_1M@CPAMEDFI@?$AAx?$AAh?$AA?9?$AAz?$AAa@ 00000001801464c8     libucrt:lcidtoname_downlevel.obj
 0002:0000c4d8       ??_C@_1O@EBKIFIGN@?$AAz?$AAh?$AA?9?$AAc?$AAh?$AAs@ 00000001801464d8     libucrt:lcidtoname_downlevel.obj
 0002:0000c4e8       ??_C@_1O@NMHPGANE@?$AAz?$AAh?$AA?9?$AAc?$AAh?$AAt@ 00000001801464e8     libucrt:lcidtoname_downlevel.obj
 0002:0000c4f8       ??_C@_1M@LPINJOMC@?$AAz?$AAh?$AA?9?$AAc?$AAn@ 00000001801464f8     libucrt:lcidtoname_downlevel.obj
 0002:0000c508       ??_C@_1M@OCJEJODD@?$AAz?$AAh?$AA?9?$AAh?$AAk@ 0000000180146508     libucrt:lcidtoname_downlevel.obj
 0002:0000c518       ??_C@_1M@DNDLJINH@?$AAz?$AAh?$AA?9?$AAm?$AAo@ 0000000180146518     libucrt:lcidtoname_downlevel.obj
 0002:0000c528       ??_C@_1M@MBFDNDND@?$AAz?$AAh?$AA?9?$AAs?$AAg@ 0000000180146528     libucrt:lcidtoname_downlevel.obj
 0002:0000c538       ??_C@_1M@IMEPLEPE@?$AAz?$AAh?$AA?9?$AAt?$AAw@ 0000000180146538     libucrt:lcidtoname_downlevel.obj
 0002:0000c548       ??_C@_1M@BBGHNHJP@?$AAz?$AAu?$AA?9?$AAz?$AAa@ 0000000180146548     libucrt:lcidtoname_downlevel.obj
 0002:0000c580       ?large_power_data@?1??multiply_by_power_of_ten@__crt_strtox@@YA_NAEAUbig_integer@2@I@Z@4QBIB 0000000180146580     libucrt:cfout.obj
 0002:0000ce90       ?large_power_indices@?1??multiply_by_power_of_ten@__crt_strtox@@YA_NAEAUbig_integer@2@I@Z@4QBUunpack_index@?1??12@YA_N0I@Z@B 0000000180146e90     libucrt:cfout.obj
 0002:0000cf28       ?small_powers_of_ten@?1??multiply_by_power_of_ten@__crt_strtox@@YA_NAEAUbig_integer@2@I@Z@4QBIB 0000000180146f28     libucrt:cfout.obj
 0002:0000cf4c       ??_C@_01GBGANLPD@0@        0000000180146f4c     libucrt:cfout.obj
 0002:0000cf50       ??_C@_05DNEBIAHO@1?$CDINF@ 0000000180146f50     libucrt:cfout.obj
 0002:0000cf58       ??_C@_06IMKFLFPG@1?$CDQNAN@ 0000000180146f58     libucrt:cfout.obj
 0002:0000cf60       ??_C@_06PGGFOGJG@1?$CDSNAN@ 0000000180146f60     libucrt:cfout.obj
 0002:0000cf68       ??_C@_05PHHOCPM@1?$CDIND@  0000000180146f68     libucrt:cfout.obj
 0002:0000cf70       __real@3ff0000000000000    0000000180146f70     libucrt:ceil.obj
 0002:0000d1d0       ??_C@_1BA@BALFACEM@?$AAC?$AAO?$AAN?$AAO?$AAU?$AAT?$AA$@ 00000001801471d0     libucrt:initcon.obj
 0002:0000d1e0       __log10_256_lead           00000001801471e0     libucrt:log10_256_lead_tail_table.obj
 0002:0000d9f0       __log10_256_tail           00000001801479f0     libucrt:log10_256_lead_tail_table.obj
 0002:0000e200       __log_F_inv_qword          0000000180148200     libucrt:log_f_inv_qword_table.obj
 0002:0000ea80       ??_R4type_info@@6B@        0000000180148a80     LIBCMT:std_type_info_static.obj
 0002:0000eaa8       ??_R3type_info@@8          0000000180148aa8     LIBCMT:std_type_info_static.obj
 0002:0000eac0       ??_R2type_info@@8          0000000180148ac0     LIBCMT:std_type_info_static.obj
 0002:0000ead0       ??_R1A@?0A@EA@type_info@@8 0000000180148ad0     LIBCMT:std_type_info_static.obj
 0002:0000eaf8       ??_R3DNameNode@@8          0000000180148af8     libvcruntime:undname.obj
 0002:0000eb10       ??_R2DNameNode@@8          0000000180148b10     libvcruntime:undname.obj
 0002:0000eb20       ??_R1A@?0A@EA@DNameNode@@8 0000000180148b20     libvcruntime:undname.obj
 0002:0000eb48       ??_R4charNode@@6B@         0000000180148b48     libvcruntime:undname.obj
 0002:0000eb70       ??_R3charNode@@8           0000000180148b70     libvcruntime:undname.obj
 0002:0000eb88       ??_R2charNode@@8           0000000180148b88     libvcruntime:undname.obj
 0002:0000eba0       ??_R1A@?0A@EA@charNode@@8  0000000180148ba0     libvcruntime:undname.obj
 0002:0000ebc8       ??_R4pcharNode@@6B@        0000000180148bc8     libvcruntime:undname.obj
 0002:0000ebf0       ??_R3pcharNode@@8          0000000180148bf0     libvcruntime:undname.obj
 0002:0000ec08       ??_R2pcharNode@@8          0000000180148c08     libvcruntime:undname.obj
 0002:0000ec20       ??_R1A@?0A@EA@pcharNode@@8 0000000180148c20     libvcruntime:undname.obj
 0002:0000ec48       ??_R4pDNameNode@@6B@       0000000180148c48     libvcruntime:undname.obj
 0002:0000ec70       ??_R3pDNameNode@@8         0000000180148c70     libvcruntime:undname.obj
 0002:0000ec88       ??_R2pDNameNode@@8         0000000180148c88     libvcruntime:undname.obj
 0002:0000eca0       ??_R1A@?0A@EA@pDNameNode@@8 0000000180148ca0     libvcruntime:undname.obj
 0002:0000ecc8       ??_R4DNameStatusNode@@6B@  0000000180148cc8     libvcruntime:undname.obj
 0002:0000ecf0       ??_R3DNameStatusNode@@8    0000000180148cf0     libvcruntime:undname.obj
 0002:0000ed08       ??_R2DNameStatusNode@@8    0000000180148d08     libvcruntime:undname.obj
 0002:0000ed20       ??_R1A@?0A@EA@DNameStatusNode@@8 0000000180148d20     libvcruntime:undname.obj
 0002:0000ed48       ??_R4pairNode@@6B@         0000000180148d48     libvcruntime:undname.obj
 0002:0000ed70       ??_R3pairNode@@8           0000000180148d70     libvcruntime:undname.obj
 0002:0000ed88       ??_R2pairNode@@8           0000000180148d88     libvcruntime:undname.obj
 0002:0000eda0       ??_R1A@?0A@EA@pairNode@@8  0000000180148da0     libvcruntime:undname.obj
 0002:0000edc8       ??_R4exception@std@@6B@    0000000180148dc8     libvcruntime:frame.obj
 0002:0000edf0       ??_R3exception@std@@8      0000000180148df0     libvcruntime:frame.obj
 0002:0000ee08       ??_R2exception@std@@8      0000000180148e08     libvcruntime:frame.obj
 0002:0000ee18       ??_R1A@?0A@EA@exception@std@@8 0000000180148e18     libvcruntime:frame.obj
 0002:0000ee40       ??_R4bad_exception@std@@6B@ 0000000180148e40     libvcruntime:frame.obj
 0002:0000ee68       ??_R3bad_exception@std@@8  0000000180148e68     libvcruntime:frame.obj
 0002:0000ee80       ??_R2bad_exception@std@@8  0000000180148e80     libvcruntime:frame.obj
 0002:0000ee98       ??_R1A@?0A@EA@bad_exception@std@@8 0000000180148e98     libvcruntime:frame.obj
 0002:0000eebc       __volatile_metadata        0000000180148ebc     <linker-defined>
 0002:0000f390       __rtc_iaa                  0000000180149390     LIBCMT:initsect.obj
 0002:0000f398       __rtc_izz                  0000000180149398     LIBCMT:initsect.obj
 0002:0000f3a0       __rtc_taa                  00000001801493a0     LIBCMT:initsect.obj
 0002:0000f3a8       __rtc_tzz                  00000001801493a8     LIBCMT:initsect.obj
 0002:0001bc88       _TI2?AVbad_exception@std@@ 0000000180155c88     libvcruntime:frame.obj
 0002:0001bca8       _CTA2?AVbad_exception@std@@ 0000000180155ca8     libvcruntime:frame.obj
 0002:0001bcc0       _CT??_R0?AVbad_exception@std@@@8??0bad_exception@std@@QEAA@AEBV01@@Z24 0000000180155cc0     libvcruntime:frame.obj
 0002:0001bce8       _CT??_R0?AVexception@std@@@8??0exception@std@@QEAA@AEBV01@@Z24 0000000180155ce8     libvcruntime:frame.obj
 0002:0001bd0c       __DELAY_IMPORT_DESCRIPTOR_physxfoundation_64_dll 0000000180155d0c     PhysXFoundation_64:PhysXFoundation_64.dll
 0002:0001bd2c       __NULL_DELAY_IMPORT_DESCRIPTOR 0000000180155d2c     PhysXFoundation_64:PhysXFoundation_64.dll
 0002:0001bdd0       \177PhysXFoundation_64_NULL_THUNK_DATA_DLN 0000000180155dd0     PhysXFoundation_64:PhysXFoundation_64.dll
 0002:0001c0f8       \177PhysXFoundation_64_NULL_THUNK_DATA_DLB 00000001801560f8     PhysXFoundation_64:PhysXFoundation_64.dll
 0002:0002625c       __IMPORT_DESCRIPTOR_KERNEL32 000000018016025c     kernel32:KERNEL32.dll
 0002:00026270       __NULL_IMPORT_DESCRIPTOR   0000000180160270     kernel32:KERNEL32.dll
 0003:00000000       __pfnDliNotifyHook2        0000000180161000     CmWindowsDelayLoadHook.obj
 0003:00000020       ?gGeomMTDMethodTable@@3PAY06P6A_NAEAVPxVec3@physx@@AEAMAEBVPxGeometry@2@AEBVPxTransform@2@23@ZA 0000000180161020     GuMTD.obj
 0003:000001b0       ?gGeomOverlapMethodTable@@3PAY06P6A_NAEBVPxGeometry@physx@@AEBVPxTransform@2@01PEAUTriggerCache@Gu@2@@ZA 00000001801611b0     GuOverlapTests.obj
 0003:00000338       ?gRaycastMap@@3PAP6AIAEBVPxGeometry@physx@@AEBVPxTransform@2@AEBVPxVec3@2@2MV?$PxFlags@W4Enum@PxHitFlag@physx@@G@2@IPEIAUPxRaycastHit@2@@ZA 0000000180161338     GuRaycastTests.obj
 0003:00000370       ?gGeomSweepFuncs@@3UGeomSweepFuncs@Gu@physx@@A 0000000180161370     GuSweepTests.obj
 0003:00000490       ?g_SweepMethodTable@Gu@physx@@3PAY06P6AMAEBUCCDShape@12@0AEBVPxTransform@2@111MAEAVPxVec3@2@2MAEAIM@ZA 0000000180161490     GuCCDSweepPrimitives.obj
 0003:00000618       ?g_TriangleSweepMethodTable@Gu@physx@@3PAP6AMAEBVGeometryUnion@12@0AEBVPxTransform@2@111MAEAVPxVec3@2@2AEBVFastVertex2ShapeScaling@Cm@2@AEAVTriangleV@12@M@ZA 0000000180161618     GuCCDSweepPrimitives.obj
 0003:00000a14       _fltused                   0000000180161a14     LIBCMT:fltused.obj
 0003:00000a20       __isa_available            0000000180161a20     LIBCMT:cpu_disp.obj
 0003:00000a24       __isa_enabled              0000000180161a24     LIBCMT:cpu_disp.obj
 0003:00000a28       __memcpy_nt_iters          0000000180161a28     LIBCMT:cpu_disp.obj
 0003:00000a30       __memset_nt_iters          0000000180161a30     LIBCMT:cpu_disp.obj
 0003:00000a40       __scrt_native_dllmain_reason 0000000180161a40     LIBCMT:utility.obj
 0003:00000a48       __security_cookie_complement 0000000180161a48     LIBCMT:gs_cookie.obj
 0003:00000a50       __security_cookie          0000000180161a50     LIBCMT:gs_cookie.obj
 0003:00000a80       __abort_behavior           0000000180161a80     libucrt:abort.obj
 0003:00000ab0       __acrt_initial_multibyte_data 0000000180161ab0     libucrt:mbctype.obj
 0003:00000ff0       __acrt_initial_locale_data 0000000180161ff0     libucrt:nlsdata.obj
 0003:00001148       __acrt_initial_locale_pointers 0000000180162148     libucrt:nlsdata.obj
 0003:00001158       __acrt_wide_c_locale_string 0000000180162158     libucrt:nlsdata.obj
 0003:00001160       _iob                       0000000180162160     libucrt:_file.obj
 0003:00001270       __globallocalestatus       0000000180162270     libucrt:glstatus.obj
 0003:00001280       __acrt_lconv_c             0000000180162280     libucrt:localeconv.obj
 0003:00001318       __acrt_lconv_static_decimal 0000000180162318     libucrt:localeconv.obj
 0003:0000131c       __acrt_lconv_static_W_decimal 000000018016231c     libucrt:localeconv.obj
 0003:00001320       _lookuptrailbytes          0000000180162320     libucrt:read.obj
 0003:00001430       ??_R0?AVCollection@Cm@physx@@@8 0000000180162430     CmCollection.obj
 0003:00001460       ??_R0D@8                   0000000180162460     CmRenderOutput.obj
 0003:00001478       ??_R0?AUPxDebugText@physx@@@8 0000000180162478     CmRenderOutput.obj
 0003:000014a0       ??_R0?AUPxDebugTriangle@physx@@@8 00000001801624a0     CmRenderOutput.obj
 0003:000014d0       ??_R0?AUPxDebugLine@physx@@@8 00000001801624d0     CmRenderOutput.obj
 0003:000014f8       ??_R0?AUPxDebugPoint@physx@@@8 00000001801624f8     CmRenderOutput.obj
 0003:00001528       ??_R0?AVMutexImpl@shdfnd@physx@@@8 0000000180162528     GuMeshFactory.obj
 0003:00001558       ??_R0?AVBVHStructure@Gu@physx@@@8 0000000180162558     GuMeshFactory.obj
 0003:00001588       ??_R0?AVHeightField@Gu@physx@@@8 0000000180162588     GuMeshFactory.obj
 0003:000015b8       ??_R0?AVConvexMesh@Gu@physx@@@8 00000001801625b8     GuMeshFactory.obj
 0003:000015e8       ??_R0?AVBV32Tree@Gu@physx@@@8 00000001801625e8     GuMeshFactory.obj
 0003:00001610       ??_R0?AVBV4TriangleData@Gu@physx@@@8 0000000180162610     GuMeshFactory.obj
 0003:00001640       ??_R0?AVRTreeTriangleData@Gu@physx@@@8 0000000180162640     GuMeshFactory.obj
 0003:00001678       ??_R0?AVBV4TriangleMesh@Gu@physx@@@8 0000000180162678     GuMeshFactory.obj
 0003:000016a8       ??_R0?AVRTreeTriangleMesh@Gu@physx@@@8 00000001801626a8     GuMeshFactory.obj
 0003:000016e0       ??_R0E@8                   00000001801626e0     GuMeshFactory.obj
 0003:000016f8       ??_R0G@8                   00000001801626f8     GuMeshFactory.obj
 0003:00001710       ??_R0I@8                   0000000180162710     GuMeshFactory.obj
 0003:00001728       ??_R0PEAVGuMeshFactoryListener@physx@@@8 0000000180162728     GuMeshFactory.obj
 0003:00001760       ??_R0?AVAABBTreeBuildNode@Gu@physx@@@8 0000000180162760     GuAABBTreeBuild.obj
 0003:00001798       ??_R0?AUSlab@NodeAllocator@Gu@physx@@@8 0000000180162798     GuAABBTreeBuild.obj
 0003:000017d0       ??_R0PEBUBVHNode@Gu@physx@@@8 00000001801627d0     GuBVHStructure.obj
 0003:000017f8       ??_R0?AVBigConvexData@physx@@@8 00000001801627f8     GuConvexMesh.obj
 0003:00001828       ??_R0?AVIndTri16@Gu@physx@@@8 0000000180162828     GuBV4.obj
 0003:00001850       ??_R0?AVIndTri32@Gu@physx@@@8 0000000180162850     GuBV4.obj
 0003:00001880       ??_R0?AU?$BVDataPackedT@VQuantizedAABB@Gu@physx@@@Gu@physx@@@8 0000000180162880     GuBV4Build.obj
 0003:000018d0       ??_R0?AUSlab@BV4BuildParams@@@8 00000001801628d0     GuBV4Build.obj
 0003:00001900       ??_R0?AVAABBTreeNode@Gu@physx@@@8 0000000180162900     GuBV4Build.obj
 0003:00001930       ??_R0?AUBV32Data@Gu@physx@@@8 0000000180162930     GuBV32Build.obj
 0003:00001958       ??_R0?AUBV32Node@@@8       0000000180162958     GuBV32Build.obj
 0003:00001978       ??_R0?AUSortedTriangle@Gu@physx@@@8 0000000180162978     GuPCMContactConvexCommon.obj
 0003:000019a8       ??_R0?AVbad_exception@std@@@8 00000001801629a8     libvcruntime:frame.obj
 0003:000019d0       ??_R0?AVexception@std@@@8  00000001801629d0     libvcruntime:frame.obj
 0003:000019f8       ??_R0?AVtype_info@@@8      00000001801629f8     LIBCMT:std_type_info_static.obj
 0003:00001a18       ??_R0?AVDNameNode@@@8      0000000180162a18     libvcruntime:undname.obj
 0003:00001a38       ??_R0?AVcharNode@@@8       0000000180162a38     libvcruntime:undname.obj
 0003:00001a58       ??_R0?AVpcharNode@@@8      0000000180162a58     libvcruntime:undname.obj
 0003:00001a78       ??_R0?AVpDNameNode@@@8     0000000180162a78     libvcruntime:undname.obj
 0003:00001aa0       ??_R0?AVDNameStatusNode@@@8 0000000180162aa0     libvcruntime:undname.obj
 0003:00001ac8       ??_R0?AVpairNode@@@8       0000000180162ac8     libvcruntime:undname.obj
 0003:00001ae8       __imp_PxGetFoundation      0000000180162ae8     PhysXFoundation_64:PhysXFoundation_64.dll
 0003:00001af0       __imp_?deallocate@TempAllocator@shdfnd@physx@@QEAAXPEAX@Z 0000000180162af0     PhysXFoundation_64:PhysXFoundation_64.dll
 0003:00001af8       __imp_?getAllocator@shdfnd@physx@@YAAEAVPxAllocatorCallback@2@XZ 0000000180162af8     PhysXFoundation_64:PhysXFoundation_64.dll
 0003:00001b00       __imp_?getInstance@Foundation@shdfnd@physx@@SAAEAV123@XZ 0000000180162b00     PhysXFoundation_64:PhysXFoundation_64.dll
 0003:00001b08       __imp_?error@Foundation@shdfnd@physx@@QEAAXW4Enum@PxErrorCode@3@PEBDH1ZZ 0000000180162b08     PhysXFoundation_64:PhysXFoundation_64.dll
 0003:00001b10       __imp_?vsnprintf@shdfnd@physx@@YAHPEAD_KPEBD0@Z 0000000180162b10     PhysXFoundation_64:PhysXFoundation_64.dll
 0003:00001b18       __imp_??0MutexImpl@shdfnd@physx@@QEAA@XZ 0000000180162b18     PhysXFoundation_64:PhysXFoundation_64.dll
 0003:00001b20       __imp_??1MutexImpl@shdfnd@physx@@QEAA@XZ 0000000180162b20     PhysXFoundation_64:PhysXFoundation_64.dll
 0003:00001b28       __imp_?lock@MutexImpl@shdfnd@physx@@QEAAXXZ 0000000180162b28     PhysXFoundation_64:PhysXFoundation_64.dll
 0003:00001b30       __imp_?unlock@MutexImpl@shdfnd@physx@@QEAAXXZ 0000000180162b30     PhysXFoundation_64:PhysXFoundation_64.dll
 0003:00001b38       __imp_?getSize@MutexImpl@shdfnd@physx@@SAIXZ 0000000180162b38     PhysXFoundation_64:PhysXFoundation_64.dll
 0003:00001b40       __imp_?atomicDecrement@shdfnd@physx@@YAHPECH@Z 0000000180162b40     PhysXFoundation_64:PhysXFoundation_64.dll
 0003:00001b48       __imp_?PxTransformFromSegment@physx@@YA?AVPxTransform@1@AEBVPxVec3@1@0PEAM@Z 0000000180162b48     PhysXFoundation_64:PhysXFoundation_64.dll
 0003:00001b50       __imp_?optimizeBoundingBox@shdfnd@physx@@YA?AVPxVec3@2@AEAVPxMat33@2@@Z 0000000180162b50     PhysXFoundation_64:PhysXFoundation_64.dll
 0003:00001b58       __imp_?allocate@TempAllocator@shdfnd@physx@@QEAAPEAX_KPEBDH@Z 0000000180162b58     PhysXFoundation_64:PhysXFoundation_64.dll
 0003:00001b60       __imp_?atomicIncrement@shdfnd@physx@@YAHPECH@Z 0000000180162b60     PhysXFoundation_64:PhysXFoundation_64.dll
 0003:00001b68       \177PhysXFoundation_64_NULL_THUNK_DATA_DLA 0000000180162b68     PhysXFoundation_64:PhysXFoundation_64.dll
 0003:00002900       ?boxVertexTable@physx@@3QBT__m128@@B 0000000180163900     GuConvexSupportTable.obj
 0003:00004450       __hmod__PhysXFoundation_64_dll 0000000180165450     PhysXFoundation_64:PhysXFoundation_64.dll
 0003:00004458       ?DloadKernel32@@3PEAUHINSTANCE__@@EA 0000000180165458     Delayimp:delayhlp.obj
 0003:00004460       ?DloadAcquireSRWLockExclusive@@3P6AXPEA_K@ZEA 0000000180165460     Delayimp:delayhlp.obj
 0003:00004468       ?DloadReleaseSRWLockExclusive@@3P6AXPEA_K@ZEA 0000000180165468     Delayimp:delayhlp.obj
 0003:00004470       ?DloadSrwLock@@3_KA        0000000180165470     Delayimp:delayhlp.obj
 0003:00004478       ?DloadSectionLockCount@@3KA 0000000180165478     Delayimp:delayhlp.obj
 0003:0000447c       ?DloadSectionOldProtection@@3KA 000000018016547c     Delayimp:delayhlp.obj
 0003:00004480       ?DloadSectionCommitPermanent@@3KA 0000000180165480     Delayimp:delayhlp.obj
 0003:00004490       ?__type_info_root_node@@3U__type_info_node@@A 0000000180165490     LIBCMT:tncleanup.obj
 0003:000044a8       __castguard_check_failure_os_handled_fptr 00000001801654a8     LIBCMT:guard_support.obj
 0003:000044b0       __favor                    00000001801654b0     LIBCMT:cpu_disp.obj
 0003:000044b8       ?_OptionsStorage@?1??__local_stdio_printf_options@@9@4_KA 00000001801654b8     LIBCMT:default_local_stdio_options.obj
 0003:000044c0       ?_OptionsStorage@?1??__local_stdio_scanf_options@@9@4_KA 00000001801654c0     LIBCMT:default_local_stdio_options.obj
 0003:000044c8       __scrt_current_native_startup_state 00000001801654c8     LIBCMT:utility.obj
 0003:000044d0       __scrt_native_startup_lock 00000001801654d0     LIBCMT:utility.obj
 0003:00004510       __scrt_debugger_hook_flag  0000000180165510     LIBCMT:utility_desktop.obj
 0003:00004518       ?__WinRTOutOfMemoryExceptionCallback@@3P6APEAXXZEA 0000000180165518     libvcruntime:ehhelpers.obj
 0003:00004520       __pPurecall                0000000180165520     libvcruntime:purevirt_data.obj
 0003:00004528       ?pArgList@UnDecorator@@0PEAVReplicator@@EA 0000000180165528     libvcruntime:undname.obj
 0003:00004530       ?pZNameList@UnDecorator@@0PEAVReplicator@@EA 0000000180165530     libvcruntime:undname.obj
 0003:00004538       ?pTemplateArgList@UnDecorator@@0PEAVReplicator@@EA 0000000180165538     libvcruntime:undname.obj
 0003:00004540       ?gName@UnDecorator@@0PEBDEB 0000000180165540     libvcruntime:undname.obj
 0003:00004548       ?name@UnDecorator@@0PEBDEB 0000000180165548     libvcruntime:undname.obj
 0003:00004550       ?disableFlags@UnDecorator@@0KA 0000000180165550     libvcruntime:undname.obj
 0003:00004554       ?fExplicitTemplateParams@UnDecorator@@0_NA 0000000180165554     libvcruntime:undname.obj
 0003:00004555       ?fGetTemplateArgumentList@UnDecorator@@0_NA 0000000180165555     libvcruntime:undname.obj
 0003:00004558       ?m_pGetParameter@UnDecorator@@0P6APEADJ@ZEA 0000000180165558     libvcruntime:undname.obj
 0003:00004560       ?m_CHPENameOffset@UnDecorator@@0KA 0000000180165560     libvcruntime:undname.obj
 0003:00004564       ?m_recursionLevel@UnDecorator@@0KA 0000000180165564     libvcruntime:undname.obj
 0003:00004690       ?c_exit_complete@?1???R<lambda_6e4b09c48022b2350581041d5f6b0c4c>@@QEBA@XZ@4_NA 0000000180165690     libucrt:exit.obj
 0003:000047a8       _environ_table             00000001801657a8     libucrt:environment_initialization.obj
 0003:000047b0       _wenviron_table            00000001801657b0     libucrt:environment_initialization.obj
 0003:000047b8       __dcrt_initial_wide_environment 00000001801657b8     libucrt:environment_initialization.obj
 0003:000047c0       __dcrt_initial_narrow_environment 00000001801657c0     libucrt:environment_initialization.obj
 0003:000047c8       __acrt_atexit_table        00000001801657c8     libucrt:onexit.obj
 0003:000047e0       __acrt_at_quick_exit_table 00000001801657e0     libucrt:onexit.obj
 0003:000047f8       __fma3_is_available        00000001801657f8     libucrt:fma3_available.obj
 0003:000047fc       __use_fma3_lib             00000001801657fc     libucrt:fma3_available.obj
 0003:00004a40       _mbctype                   0000000180165a40     libucrt:mbctype.obj
 0003:00004a48       _mbcasemap                 0000000180165a48     libucrt:mbctype.obj
 0003:00004a50       __acrt_current_multibyte_data 0000000180165a50     libucrt:mbctype.obj
 0003:00004a60       _pgmptr                    0000000180165a60     libucrt:argv_data.obj
 0003:00004a68       __argc                     0000000180165a68     libucrt:argv_data.obj
 0003:00004a70       __argv                     0000000180165a70     libucrt:argv_data.obj
 0003:00004a78       __wargv                    0000000180165a78     libucrt:argv_data.obj
 0003:00004a80       _acmdln                    0000000180165a80     libucrt:argv_data.obj
 0003:00004a88       _wcmdln                    0000000180165a88     libucrt:argv_data.obj
 0003:00004c20       __acrt_heap                0000000180165c20     libucrt:heap_handle.obj
 0003:00004c30       __pioinfo                  0000000180165c30     libucrt:ioinit.obj
 0003:00005030       _nhandle                   0000000180166030     libucrt:ioinit.obj
 0003:00005068       __acrt_current_locale_data 0000000180166068     libucrt:nlsdata.obj
 0003:00005070       _nstream                   0000000180166070     libucrt:_file.obj
 0003:00005078       __piob                     0000000180166078     libucrt:_file.obj
 0003:00005080       __acrt_stdout_buffer       0000000180166080     libucrt:_sftbuf.obj
 0003:00005088       __acrt_stderr_buffer       0000000180166088     libucrt:_sftbuf.obj
 0003:000050a0       __acrt_locale_changed_data 00000001801660a0     libucrt:wsetlocale.obj
 0003:000050a8       __acrt_lconv_static_null   00000001801660a8     libucrt:localeconv.obj
 0003:000050ac       __acrt_lconv_static_W_null 00000001801660ac     libucrt:localeconv.obj
 0003:00005630       __scrt_ucrt_dll_is_in_use  0000000180166630     <common>
 0003:00005638       __dyn_tls_init_callback    0000000180166638     <common>
 0005:00000100       __common_ssin_reduction_data 000000018016f100     LIBCMT:svml_s_sin_data.obj
 0005:00000d00       __common_ssin_data         000000018016fd00     LIBCMT:svml_s_sin_data.obj

 entry point at        0001:001184e8

 Static symbols

 0000:ffe8b000       .debug$S                   0000000180000000     PhysXCommon_64.exp
 0000:ffe8b000       .debug$S                   0000000180000000     kernel32:KERNEL32.dll
 0000:ffe8b000       .debug$S                   0000000180000000     kernel32:KERNEL32.dll
 0000:ffe8b000       .debug$S                   0000000180000000     kernel32:KERNEL32.dll
 0000:ffe8b000       .debug$S                   0000000180000000     kernel32:KERNEL32.dll
 0000:ffe8b000       .debug$S                   0000000180000000     kernel32:KERNEL32.dll
 0000:ffe8b000       .debug$S                   0000000180000000     kernel32:KERNEL32.dll
 0000:ffe8b000       .debug$S                   0000000180000000     kernel32:KERNEL32.dll
 0000:ffe8b000       .debug$S                   0000000180000000     kernel32:KERNEL32.dll
 0000:ffe8b000       .debug$S                   0000000180000000     kernel32:KERNEL32.dll
 0000:ffe8b000       .debug$S                   0000000180000000     kernel32:KERNEL32.dll
 0000:ffe8b000       .debug$S                   0000000180000000     kernel32:KERNEL32.dll
 0000:ffe8b000       .debug$S                   0000000180000000     kernel32:KERNEL32.dll
 0000:ffe8b000       .debug$S                   0000000180000000     kernel32:KERNEL32.dll
 0000:ffe8b000       .debug$S                   0000000180000000     kernel32:KERNEL32.dll
 0000:ffe8b000       .debug$S                   0000000180000000     kernel32:KERNEL32.dll
 0000:ffe8b000       .debug$S                   0000000180000000     kernel32:KERNEL32.dll
 0000:ffe8b000       .debug$S                   0000000180000000     kernel32:KERNEL32.dll
 0000:ffe8b000       .debug$S                   0000000180000000     kernel32:KERNEL32.dll
 0000:ffe8b000       .debug$S                   0000000180000000     kernel32:KERNEL32.dll
 0000:ffe8b000       .debug$S                   0000000180000000     kernel32:KERNEL32.dll
 0000:ffe8b000       .debug$S                   0000000180000000     kernel32:KERNEL32.dll
 0000:ffe8b000       .debug$S                   0000000180000000     kernel32:KERNEL32.dll
 0000:ffe8b000       .debug$S                   0000000180000000     kernel32:KERNEL32.dll
 0000:ffe8b000       .debug$S                   0000000180000000     kernel32:KERNEL32.dll
 0000:ffe8b000       .debug$S                   0000000180000000     kernel32:KERNEL32.dll
 0000:ffe8b000       .debug$S                   0000000180000000     kernel32:KERNEL32.dll
 0000:ffe8b000       .debug$S                   0000000180000000     kernel32:KERNEL32.dll
 0000:ffe8b000       .debug$S                   0000000180000000     kernel32:KERNEL32.dll
 0000:ffe8b000       .debug$S                   0000000180000000     kernel32:KERNEL32.dll
 0000:ffe8b000       .debug$S                   0000000180000000     kernel32:KERNEL32.dll
 0000:ffe8b000       .debug$S                   0000000180000000     kernel32:KERNEL32.dll
 0000:ffe8b000       .debug$S                   0000000180000000     kernel32:KERNEL32.dll
 0000:ffe8b000       .debug$S                   0000000180000000     kernel32:KERNEL32.dll
 0000:ffe8b000       .debug$S                   0000000180000000     kernel32:KERNEL32.dll
 0000:ffe8b000       .debug$S                   0000000180000000     kernel32:KERNEL32.dll
 0000:ffe8b000       .debug$S                   0000000180000000     kernel32:KERNEL32.dll
 0000:ffe8b000       .debug$S                   0000000180000000     kernel32:KERNEL32.dll
 0000:ffe8b000       .debug$S                   0000000180000000     kernel32:KERNEL32.dll
 0000:ffe8b000       .debug$S                   0000000180000000     kernel32:KERNEL32.dll
 0000:ffe8b000       .debug$S                   0000000180000000     kernel32:KERNEL32.dll
 0000:ffe8b000       .debug$S                   0000000180000000     kernel32:KERNEL32.dll
 0000:ffe8b000       .debug$S                   0000000180000000     kernel32:KERNEL32.dll
 0000:ffe8b000       .debug$S                   0000000180000000     kernel32:KERNEL32.dll
 0000:ffe8b000       .debug$S                   0000000180000000     kernel32:KERNEL32.dll
 0000:ffe8b000       .debug$S                   0000000180000000     kernel32:KERNEL32.dll
 0000:ffe8b000       .debug$S                   0000000180000000     kernel32:KERNEL32.dll
 0000:ffe8b000       .debug$S                   0000000180000000     kernel32:KERNEL32.dll
 0000:ffe8b000       .debug$S                   0000000180000000     kernel32:KERNEL32.dll
 0000:ffe8b000       .debug$S                   0000000180000000     kernel32:KERNEL32.dll
 0000:ffe8b000       .debug$S                   0000000180000000     kernel32:KERNEL32.dll
 0000:ffe8b000       .debug$S                   0000000180000000     kernel32:KERNEL32.dll
 0000:ffe8b000       .debug$S                   0000000180000000     kernel32:KERNEL32.dll
 0000:ffe8b000       .debug$S                   0000000180000000     kernel32:KERNEL32.dll
 0000:ffe8b000       .debug$S                   0000000180000000     kernel32:KERNEL32.dll
 0000:ffe8b000       .debug$S                   0000000180000000     kernel32:KERNEL32.dll
 0000:ffe8b000       .debug$S                   0000000180000000     kernel32:KERNEL32.dll
 0000:ffe8b000       .debug$S                   0000000180000000     kernel32:KERNEL32.dll
 0000:ffe8b000       .debug$S                   0000000180000000     kernel32:KERNEL32.dll
 0000:ffe8b000       .debug$S                   0000000180000000     kernel32:KERNEL32.dll
 0000:ffe8b000       .debug$S                   0000000180000000     kernel32:KERNEL32.dll
 0000:ffe8b000       .debug$S                   0000000180000000     kernel32:KERNEL32.dll
 0000:ffe8b000       .debug$S                   0000000180000000     kernel32:KERNEL32.dll
 0000:ffe8b000       .debug$S                   0000000180000000     kernel32:KERNEL32.dll
 0000:ffe8b000       .debug$S                   0000000180000000     kernel32:KERNEL32.dll
 0000:ffe8b000       .debug$S                   0000000180000000     kernel32:KERNEL32.dll
 0000:ffe8b000       .debug$S                   0000000180000000     kernel32:KERNEL32.dll
 0000:ffe8b000       .debug$S                   0000000180000000     kernel32:KERNEL32.dll
 0000:ffe8b000       .debug$S                   0000000180000000     kernel32:KERNEL32.dll
 0000:ffe8b000       .debug$S                   0000000180000000     kernel32:KERNEL32.dll
 0000:ffe8b000       .debug$S                   0000000180000000     kernel32:KERNEL32.dll
 0000:ffe8b000       .debug$S                   0000000180000000     kernel32:KERNEL32.dll
 0000:ffe8b000       .debug$S                   0000000180000000     kernel32:KERNEL32.dll
 0000:ffe8b000       .debug$S                   0000000180000000     kernel32:KERNEL32.dll
 0000:ffe8b000       .debug$S                   0000000180000000     kernel32:KERNEL32.dll
 0000:ffe8b000       .debug$S                   0000000180000000     kernel32:KERNEL32.dll
 0000:ffe8b000       .debug$S                   0000000180000000     kernel32:KERNEL32.dll
 0000:ffe8b000       .debug$S                   0000000180000000     kernel32:KERNEL32.dll
 0000:ffe8b000       .debug$S                   0000000180000000     kernel32:KERNEL32.dll
 0000:ffe8b000       .debug$S                   0000000180000000     kernel32:KERNEL32.dll
 0000:ffe8b000       .debug$S                   0000000180000000     kernel32:KERNEL32.dll
 0000:ffe8b000       .debug$S                   0000000180000000     kernel32:KERNEL32.dll
 0000:ffe8b000       .debug$S                   0000000180000000     kernel32:KERNEL32.dll
 0000:ffe8b000       .debug$S                   0000000180000000     kernel32:KERNEL32.dll
 0000:ffe8b000       .debug$S                   0000000180000000     kernel32:KERNEL32.dll
 0000:ffe8b000       .debug$S                   0000000180000000     kernel32:KERNEL32.dll
 0000:ffe8b000       .debug$S                   0000000180000000     kernel32:KERNEL32.dll
 0000:ffe8b000       .debug$S                   0000000180000000     kernel32:KERNEL32.dll
 0000:ffe8b000       .debug$S                   0000000180000000     kernel32:KERNEL32.dll
 0000:ffe8b000       .debug$S                   0000000180000000     kernel32:KERNEL32.dll
 0000:ffe8b000       .debug$S                   0000000180000000     kernel32:KERNEL32.dll
 0000:ffe8b000       .debug$S                   0000000180000000     kernel32:KERNEL32.dll
 0000:ffe8b000       .debug$S                   0000000180000000     kernel32:KERNEL32.dll
 0000:ffe8b000       .debug$S                   0000000180000000     kernel32:KERNEL32.dll
 0000:ffe8b000       .debug$S                   0000000180000000     PhysXFoundation_64:PhysXFoundation_64.dll
 0000:ffe8b000       .debug$S                   0000000180000000     PhysXFoundation_64:PhysXFoundation_64.dll
 0000:ffe8b000       .debug$S                   0000000180000000     PhysXFoundation_64:PhysXFoundation_64.dll
 0000:ffe8b000       .debug$S                   0000000180000000     PhysXFoundation_64:PhysXFoundation_64.dll
 0000:ffe8b000       .debug$S                   0000000180000000     PhysXFoundation_64:PhysXFoundation_64.dll
 0000:ffe8b000       .debug$S                   0000000180000000     PhysXFoundation_64:PhysXFoundation_64.dll
 0000:ffe8b000       .debug$S                   0000000180000000     PhysXFoundation_64:PhysXFoundation_64.dll
 0000:ffe8b000       .debug$S                   0000000180000000     PhysXFoundation_64:PhysXFoundation_64.dll
 0000:ffe8b000       .debug$S                   0000000180000000     PhysXFoundation_64:PhysXFoundation_64.dll
 0000:ffe8b000       .debug$S                   0000000180000000     PhysXFoundation_64:PhysXFoundation_64.dll
 0000:ffe8b000       .debug$S                   0000000180000000     PhysXFoundation_64:PhysXFoundation_64.dll
 0000:ffe8b000       .debug$S                   0000000180000000     PhysXFoundation_64:PhysXFoundation_64.dll
 0000:ffe8b000       .debug$S                   0000000180000000     PhysXFoundation_64:PhysXFoundation_64.dll
 0000:ffe8b000       .debug$S                   0000000180000000     PhysXFoundation_64:PhysXFoundation_64.dll
 0000:ffe8b000       .debug$S                   0000000180000000     PhysXFoundation_64:PhysXFoundation_64.dll
 0000:ffe8b000       .debug$S                   0000000180000000     PhysXFoundation_64:PhysXFoundation_64.dll
 0001:00000000       ??__EmaxFError@_VecMathTests@aos@shdfnd@physx@@YAXXZ 0000000180001000 f   GuBounds.obj
 0001:00000010       ??__EmaxV3Error@_VecMathTests@aos@shdfnd@physx@@YAXXZ 0000000180001010 f   GuBounds.obj
 0001:00000020       ??__EmaxV4Error@_VecMathTests@aos@shdfnd@physx@@YAXXZ 0000000180001020 f   GuBounds.obj
 0001:00000030       ??__EminFError@_VecMathTests@aos@shdfnd@physx@@YAXXZ 0000000180001030 f   GuBounds.obj
 0001:00000040       ??__EminV3Error@_VecMathTests@aos@shdfnd@physx@@YAXXZ 0000000180001040 f   GuBounds.obj
 0001:00000050       ??__EminV4Error@_VecMathTests@aos@shdfnd@physx@@YAXXZ 0000000180001050 f   GuBounds.obj
 0001:00000060       ??__EmaxFError@_VecMathTests@aos@shdfnd@physx@@YAXXZ 0000000180001060 f   GuBox.obj
 0001:00000070       ??__EmaxV3Error@_VecMathTests@aos@shdfnd@physx@@YAXXZ 0000000180001070 f   GuBox.obj
 0001:00000080       ??__EmaxV4Error@_VecMathTests@aos@shdfnd@physx@@YAXXZ 0000000180001080 f   GuBox.obj
 0001:00000090       ??__EminFError@_VecMathTests@aos@shdfnd@physx@@YAXXZ 0000000180001090 f   GuBox.obj
 0001:000000a0       ??__EminV3Error@_VecMathTests@aos@shdfnd@physx@@YAXXZ 00000001800010a0 f   GuBox.obj
 0001:000000b0       ??__EminV4Error@_VecMathTests@aos@shdfnd@physx@@YAXXZ 00000001800010b0 f   GuBox.obj
 0001:000000c0       ??__EmaxFError@_VecMathTests@aos@shdfnd@physx@@YAXXZ 00000001800010c0 f   GuCCTSweepTests.obj
 0001:000000d0       ??__EmaxV3Error@_VecMathTests@aos@shdfnd@physx@@YAXXZ 00000001800010d0 f   GuCCTSweepTests.obj
 0001:000000e0       ??__EmaxV4Error@_VecMathTests@aos@shdfnd@physx@@YAXXZ 00000001800010e0 f   GuCCTSweepTests.obj
 0001:000000f0       ??__EminFError@_VecMathTests@aos@shdfnd@physx@@YAXXZ 00000001800010f0 f   GuCCTSweepTests.obj
 0001:00000100       ??__EminV3Error@_VecMathTests@aos@shdfnd@physx@@YAXXZ 0000000180001100 f   GuCCTSweepTests.obj
 0001:00000110       ??__EminV4Error@_VecMathTests@aos@shdfnd@physx@@YAXXZ 0000000180001110 f   GuCCTSweepTests.obj
 0001:00000120       ??__EmaxFError@_VecMathTests@aos@shdfnd@physx@@YAXXZ 0000000180001120 f   GuGeometryQuery.obj
 0001:00000130       ??__EmaxV3Error@_VecMathTests@aos@shdfnd@physx@@YAXXZ 0000000180001130 f   GuGeometryQuery.obj
 0001:00000140       ??__EmaxV4Error@_VecMathTests@aos@shdfnd@physx@@YAXXZ 0000000180001140 f   GuGeometryQuery.obj
 0001:00000150       ??__EminFError@_VecMathTests@aos@shdfnd@physx@@YAXXZ 0000000180001150 f   GuGeometryQuery.obj
 0001:00000160       ??__EminV3Error@_VecMathTests@aos@shdfnd@physx@@YAXXZ 0000000180001160 f   GuGeometryQuery.obj
 0001:00000170       ??__EminV4Error@_VecMathTests@aos@shdfnd@physx@@YAXXZ 0000000180001170 f   GuGeometryQuery.obj
 0001:00000180       ??__EmaxFError@_VecMathTests@aos@shdfnd@physx@@YAXXZ 0000000180001180 f   GuGeometryUnion.obj
 0001:00000190       ??__EmaxV3Error@_VecMathTests@aos@shdfnd@physx@@YAXXZ 0000000180001190 f   GuGeometryUnion.obj
 0001:000001a0       ??__EmaxV4Error@_VecMathTests@aos@shdfnd@physx@@YAXXZ 00000001800011a0 f   GuGeometryUnion.obj
 0001:000001b0       ??__EminFError@_VecMathTests@aos@shdfnd@physx@@YAXXZ 00000001800011b0 f   GuGeometryUnion.obj
 0001:000001c0       ??__EminV3Error@_VecMathTests@aos@shdfnd@physx@@YAXXZ 00000001800011c0 f   GuGeometryUnion.obj
 0001:000001d0       ??__EminV4Error@_VecMathTests@aos@shdfnd@physx@@YAXXZ 00000001800011d0 f   GuGeometryUnion.obj
 0001:000001e0       ??__EmaxFError@_VecMathTests@aos@shdfnd@physx@@YAXXZ 00000001800011e0 f   GuInternal.obj
 0001:000001f0       ??__EmaxV3Error@_VecMathTests@aos@shdfnd@physx@@YAXXZ 00000001800011f0 f   GuInternal.obj
 0001:00000200       ??__EmaxV4Error@_VecMathTests@aos@shdfnd@physx@@YAXXZ 0000000180001200 f   GuInternal.obj
 0001:00000210       ??__EminFError@_VecMathTests@aos@shdfnd@physx@@YAXXZ 0000000180001210 f   GuInternal.obj
 0001:00000220       ??__EminV3Error@_VecMathTests@aos@shdfnd@physx@@YAXXZ 0000000180001220 f   GuInternal.obj
 0001:00000230       ??__EminV4Error@_VecMathTests@aos@shdfnd@physx@@YAXXZ 0000000180001230 f   GuInternal.obj
 0001:00000240       ??__EmaxFError@_VecMathTests@aos@shdfnd@physx@@YAXXZ 0000000180001240 f   GuMeshFactory.obj
 0001:00000250       ??__EmaxV3Error@_VecMathTests@aos@shdfnd@physx@@YAXXZ 0000000180001250 f   GuMeshFactory.obj
 0001:00000260       ??__EmaxV4Error@_VecMathTests@aos@shdfnd@physx@@YAXXZ 0000000180001260 f   GuMeshFactory.obj
 0001:00000270       ??__EminFError@_VecMathTests@aos@shdfnd@physx@@YAXXZ 0000000180001270 f   GuMeshFactory.obj
 0001:00000280       ??__EminV3Error@_VecMathTests@aos@shdfnd@physx@@YAXXZ 0000000180001280 f   GuMeshFactory.obj
 0001:00000290       ??__EminV4Error@_VecMathTests@aos@shdfnd@physx@@YAXXZ 0000000180001290 f   GuMeshFactory.obj
 0001:000002a0       ??__EmaxFError@_VecMathTests@aos@shdfnd@physx@@YAXXZ 00000001800012a0 f   GuMetaData.obj
 0001:000002b0       ??__EmaxV3Error@_VecMathTests@aos@shdfnd@physx@@YAXXZ 00000001800012b0 f   GuMetaData.obj
 0001:000002c0       ??__EmaxV4Error@_VecMathTests@aos@shdfnd@physx@@YAXXZ 00000001800012c0 f   GuMetaData.obj
 0001:000002d0       ??__EminFError@_VecMathTests@aos@shdfnd@physx@@YAXXZ 00000001800012d0 f   GuMetaData.obj
 0001:000002e0       ??__EminV3Error@_VecMathTests@aos@shdfnd@physx@@YAXXZ 00000001800012e0 f   GuMetaData.obj
 0001:000002f0       ??__EminV4Error@_VecMathTests@aos@shdfnd@physx@@YAXXZ 00000001800012f0 f   GuMetaData.obj
 0001:00000300       ??__EmaxFError@_VecMathTests@aos@shdfnd@physx@@YAXXZ 0000000180001300 f   GuMTD.obj
 0001:00000310       ??__EmaxV3Error@_VecMathTests@aos@shdfnd@physx@@YAXXZ 0000000180001310 f   GuMTD.obj
 0001:00000320       ??__EmaxV4Error@_VecMathTests@aos@shdfnd@physx@@YAXXZ 0000000180001320 f   GuMTD.obj
 0001:00000330       ??__EminFError@_VecMathTests@aos@shdfnd@physx@@YAXXZ 0000000180001330 f   GuMTD.obj
 0001:00000340       ??__EminV3Error@_VecMathTests@aos@shdfnd@physx@@YAXXZ 0000000180001340 f   GuMTD.obj
 0001:00000350       ??__EminV4Error@_VecMathTests@aos@shdfnd@physx@@YAXXZ 0000000180001350 f   GuMTD.obj
 0001:00000360       ??__EmaxFError@_VecMathTests@aos@shdfnd@physx@@YAXXZ 0000000180001360 f   GuOverlapTests.obj
 0001:00000370       ??__EmaxV3Error@_VecMathTests@aos@shdfnd@physx@@YAXXZ 0000000180001370 f   GuOverlapTests.obj
 0001:00000380       ??__EmaxV4Error@_VecMathTests@aos@shdfnd@physx@@YAXXZ 0000000180001380 f   GuOverlapTests.obj
 0001:00000390       ??__EminFError@_VecMathTests@aos@shdfnd@physx@@YAXXZ 0000000180001390 f   GuOverlapTests.obj
 0001:000003a0       ??__EminV3Error@_VecMathTests@aos@shdfnd@physx@@YAXXZ 00000001800013a0 f   GuOverlapTests.obj
 0001:000003b0       ??__EminV4Error@_VecMathTests@aos@shdfnd@physx@@YAXXZ 00000001800013b0 f   GuOverlapTests.obj
 0001:000003c0       ??__EmaxFError@_VecMathTests@aos@shdfnd@physx@@YAXXZ 00000001800013c0 f   GuRaycastTests.obj
 0001:000003d0       ??__EmaxV3Error@_VecMathTests@aos@shdfnd@physx@@YAXXZ 00000001800013d0 f   GuRaycastTests.obj
 0001:000003e0       ??__EmaxV4Error@_VecMathTests@aos@shdfnd@physx@@YAXXZ 00000001800013e0 f   GuRaycastTests.obj
 0001:000003f0       ??__EminFError@_VecMathTests@aos@shdfnd@physx@@YAXXZ 00000001800013f0 f   GuRaycastTests.obj
 0001:00000400       ??__EminV3Error@_VecMathTests@aos@shdfnd@physx@@YAXXZ 0000000180001400 f   GuRaycastTests.obj
 0001:00000410       ??__EminV4Error@_VecMathTests@aos@shdfnd@physx@@YAXXZ 0000000180001410 f   GuRaycastTests.obj
 0001:00000420       ??__EmaxFError@_VecMathTests@aos@shdfnd@physx@@YAXXZ 0000000180001420 f   GuSweepMTD.obj
 0001:00000430       ??__EmaxV3Error@_VecMathTests@aos@shdfnd@physx@@YAXXZ 0000000180001430 f   GuSweepMTD.obj
 0001:00000440       ??__EmaxV4Error@_VecMathTests@aos@shdfnd@physx@@YAXXZ 0000000180001440 f   GuSweepMTD.obj
 0001:00000450       ??__EminFError@_VecMathTests@aos@shdfnd@physx@@YAXXZ 0000000180001450 f   GuSweepMTD.obj
 0001:00000460       ??__EminV3Error@_VecMathTests@aos@shdfnd@physx@@YAXXZ 0000000180001460 f   GuSweepMTD.obj
 0001:00000470       ??__EminV4Error@_VecMathTests@aos@shdfnd@physx@@YAXXZ 0000000180001470 f   GuSweepMTD.obj
 0001:00000480       ??__EmaxFError@_VecMathTests@aos@shdfnd@physx@@YAXXZ 0000000180001480 f   GuSweepSharedTests.obj
 0001:00000490       ??__EmaxV3Error@_VecMathTests@aos@shdfnd@physx@@YAXXZ 0000000180001490 f   GuSweepSharedTests.obj
 0001:000004a0       ??__EmaxV4Error@_VecMathTests@aos@shdfnd@physx@@YAXXZ 00000001800014a0 f   GuSweepSharedTests.obj
 0001:000004b0       ??__EminFError@_VecMathTests@aos@shdfnd@physx@@YAXXZ 00000001800014b0 f   GuSweepSharedTests.obj
 0001:000004c0       ??__EminV3Error@_VecMathTests@aos@shdfnd@physx@@YAXXZ 00000001800014c0 f   GuSweepSharedTests.obj
 0001:000004d0       ??__EminV4Error@_VecMathTests@aos@shdfnd@physx@@YAXXZ 00000001800014d0 f   GuSweepSharedTests.obj
 0001:000004e0       ??__EmaxFError@_VecMathTests@aos@shdfnd@physx@@YAXXZ 00000001800014e0 f   GuSweepTests.obj
 0001:000004f0       ??__EmaxV3Error@_VecMathTests@aos@shdfnd@physx@@YAXXZ 00000001800014f0 f   GuSweepTests.obj
 0001:00000500       ??__EmaxV4Error@_VecMathTests@aos@shdfnd@physx@@YAXXZ 0000000180001500 f   GuSweepTests.obj
 0001:00000510       ??__EminFError@_VecMathTests@aos@shdfnd@physx@@YAXXZ 0000000180001510 f   GuSweepTests.obj
 0001:00000520       ??__EminV3Error@_VecMathTests@aos@shdfnd@physx@@YAXXZ 0000000180001520 f   GuSweepTests.obj
 0001:00000530       ??__EminV4Error@_VecMathTests@aos@shdfnd@physx@@YAXXZ 0000000180001530 f   GuSweepTests.obj
 0001:00000540       ??__EmaxFError@_VecMathTests@aos@shdfnd@physx@@YAXXZ 0000000180001540 f   GuAABBTreeBuild.obj
 0001:00000550       ??__EmaxV3Error@_VecMathTests@aos@shdfnd@physx@@YAXXZ 0000000180001550 f   GuAABBTreeBuild.obj
 0001:00000560       ??__EmaxV4Error@_VecMathTests@aos@shdfnd@physx@@YAXXZ 0000000180001560 f   GuAABBTreeBuild.obj
 0001:00000570       ??__EminFError@_VecMathTests@aos@shdfnd@physx@@YAXXZ 0000000180001570 f   GuAABBTreeBuild.obj
 0001:00000580       ??__EminV3Error@_VecMathTests@aos@shdfnd@physx@@YAXXZ 0000000180001580 f   GuAABBTreeBuild.obj
 0001:00000590       ??__EminV4Error@_VecMathTests@aos@shdfnd@physx@@YAXXZ 0000000180001590 f   GuAABBTreeBuild.obj
 0001:000005a0       ??__EmaxFError@_VecMathTests@aos@shdfnd@physx@@YAXXZ 00000001800015a0 f   GuBVHStructure.obj
 0001:000005b0       ??__EmaxV3Error@_VecMathTests@aos@shdfnd@physx@@YAXXZ 00000001800015b0 f   GuBVHStructure.obj
 0001:000005c0       ??__EmaxV4Error@_VecMathTests@aos@shdfnd@physx@@YAXXZ 00000001800015c0 f   GuBVHStructure.obj
 0001:000005d0       ??__EminFError@_VecMathTests@aos@shdfnd@physx@@YAXXZ 00000001800015d0 f   GuBVHStructure.obj
 0001:000005e0       ??__EminV3Error@_VecMathTests@aos@shdfnd@physx@@YAXXZ 00000001800015e0 f   GuBVHStructure.obj
 0001:000005f0       ??__EminV4Error@_VecMathTests@aos@shdfnd@physx@@YAXXZ 00000001800015f0 f   GuBVHStructure.obj
 0001:00000600       ??__EmaxFError@_VecMathTests@aos@shdfnd@physx@@YAXXZ 0000000180001600 f   GuCCDSweepConvexMesh.obj
 0001:00000610       ??__EmaxV3Error@_VecMathTests@aos@shdfnd@physx@@YAXXZ 0000000180001610 f   GuCCDSweepConvexMesh.obj
 0001:00000620       ??__EmaxV4Error@_VecMathTests@aos@shdfnd@physx@@YAXXZ 0000000180001620 f   GuCCDSweepConvexMesh.obj
 0001:00000630       ??__EminFError@_VecMathTests@aos@shdfnd@physx@@YAXXZ 0000000180001630 f   GuCCDSweepConvexMesh.obj
 0001:00000640       ??__EminV3Error@_VecMathTests@aos@shdfnd@physx@@YAXXZ 0000000180001640 f   GuCCDSweepConvexMesh.obj
 0001:00000650       ??__EminV4Error@_VecMathTests@aos@shdfnd@physx@@YAXXZ 0000000180001650 f   GuCCDSweepConvexMesh.obj
 0001:00000660       ??__EmaxFError@_VecMathTests@aos@shdfnd@physx@@YAXXZ 0000000180001660 f   GuCCDSweepPrimitives.obj
 0001:00000670       ??__EmaxV3Error@_VecMathTests@aos@shdfnd@physx@@YAXXZ 0000000180001670 f   GuCCDSweepPrimitives.obj
 0001:00000680       ??__EmaxV4Error@_VecMathTests@aos@shdfnd@physx@@YAXXZ 0000000180001680 f   GuCCDSweepPrimitives.obj
 0001:00000690       ??__EminFError@_VecMathTests@aos@shdfnd@physx@@YAXXZ 0000000180001690 f   GuCCDSweepPrimitives.obj
 0001:000006a0       ??__EminV3Error@_VecMathTests@aos@shdfnd@physx@@YAXXZ 00000001800016a0 f   GuCCDSweepPrimitives.obj
 0001:000006b0       ??__EminV4Error@_VecMathTests@aos@shdfnd@physx@@YAXXZ 00000001800016b0 f   GuCCDSweepPrimitives.obj
 0001:000006c0       ??__EmaxFError@_VecMathTests@aos@shdfnd@physx@@YAXXZ 00000001800016c0 f   GuBarycentricCoordinates.obj
 0001:000006d0       ??__EmaxV3Error@_VecMathTests@aos@shdfnd@physx@@YAXXZ 00000001800016d0 f   GuBarycentricCoordinates.obj
 0001:000006e0       ??__EmaxV4Error@_VecMathTests@aos@shdfnd@physx@@YAXXZ 00000001800016e0 f   GuBarycentricCoordinates.obj
 0001:000006f0       ??__EminFError@_VecMathTests@aos@shdfnd@physx@@YAXXZ 00000001800016f0 f   GuBarycentricCoordinates.obj
 0001:00000700       ??__EminV3Error@_VecMathTests@aos@shdfnd@physx@@YAXXZ 0000000180001700 f   GuBarycentricCoordinates.obj
 0001:00000710       ??__EminV4Error@_VecMathTests@aos@shdfnd@physx@@YAXXZ 0000000180001710 f   GuBarycentricCoordinates.obj
 0001:00000720       ??__EmaxFError@_VecMathTests@aos@shdfnd@physx@@YAXXZ 0000000180001720 f   GuContactBoxBox.obj
 0001:00000730       ??__EmaxV3Error@_VecMathTests@aos@shdfnd@physx@@YAXXZ 0000000180001730 f   GuContactBoxBox.obj
 0001:00000740       ??__EmaxV4Error@_VecMathTests@aos@shdfnd@physx@@YAXXZ 0000000180001740 f   GuContactBoxBox.obj
 0001:00000750       ??__EminFError@_VecMathTests@aos@shdfnd@physx@@YAXXZ 0000000180001750 f   GuContactBoxBox.obj
 0001:00000760       ??__EminV3Error@_VecMathTests@aos@shdfnd@physx@@YAXXZ 0000000180001760 f   GuContactBoxBox.obj
 0001:00000770       ??__EminV4Error@_VecMathTests@aos@shdfnd@physx@@YAXXZ 0000000180001770 f   GuContactBoxBox.obj
 0001:00000780       ??__EmaxFError@_VecMathTests@aos@shdfnd@physx@@YAXXZ 0000000180001780 f   GuContactCapsuleBox.obj
 0001:00000790       ??__EmaxV3Error@_VecMathTests@aos@shdfnd@physx@@YAXXZ 0000000180001790 f   GuContactCapsuleBox.obj
 0001:000007a0       ??__EmaxV4Error@_VecMathTests@aos@shdfnd@physx@@YAXXZ 00000001800017a0 f   GuContactCapsuleBox.obj
 0001:000007b0       ??__EminFError@_VecMathTests@aos@shdfnd@physx@@YAXXZ 00000001800017b0 f   GuContactCapsuleBox.obj
 0001:000007c0       ??__EminV3Error@_VecMathTests@aos@shdfnd@physx@@YAXXZ 00000001800017c0 f   GuContactCapsuleBox.obj
 0001:000007d0       ??__EminV4Error@_VecMathTests@aos@shdfnd@physx@@YAXXZ 00000001800017d0 f   GuContactCapsuleBox.obj
 0001:000007e0       ??__EmaxFError@_VecMathTests@aos@shdfnd@physx@@YAXXZ 00000001800017e0 f   GuContactCapsuleCapsule.obj
 0001:000007f0       ??__EmaxV3Error@_VecMathTests@aos@shdfnd@physx@@YAXXZ 00000001800017f0 f   GuContactCapsuleCapsule.obj
 0001:00000800       ??__EmaxV4Error@_VecMathTests@aos@shdfnd@physx@@YAXXZ 0000000180001800 f   GuContactCapsuleCapsule.obj
 0001:00000810       ??__EminFError@_VecMathTests@aos@shdfnd@physx@@YAXXZ 0000000180001810 f   GuContactCapsuleCapsule.obj
 0001:00000820       ??__EminV3Error@_VecMathTests@aos@shdfnd@physx@@YAXXZ 0000000180001820 f   GuContactCapsuleCapsule.obj
 0001:00000830       ??__EminV4Error@_VecMathTests@aos@shdfnd@physx@@YAXXZ 0000000180001830 f   GuContactCapsuleCapsule.obj
 0001:00000840       ??__EmaxFError@_VecMathTests@aos@shdfnd@physx@@YAXXZ 0000000180001840 f   GuContactCapsuleConvex.obj
 0001:00000850       ??__EmaxV3Error@_VecMathTests@aos@shdfnd@physx@@YAXXZ 0000000180001850 f   GuContactCapsuleConvex.obj
 0001:00000860       ??__EmaxV4Error@_VecMathTests@aos@shdfnd@physx@@YAXXZ 0000000180001860 f   GuContactCapsuleConvex.obj
 0001:00000870       ??__EminFError@_VecMathTests@aos@shdfnd@physx@@YAXXZ 0000000180001870 f   GuContactCapsuleConvex.obj
 0001:00000880       ??__EminV3Error@_VecMathTests@aos@shdfnd@physx@@YAXXZ 0000000180001880 f   GuContactCapsuleConvex.obj
 0001:00000890       ??__EminV4Error@_VecMathTests@aos@shdfnd@physx@@YAXXZ 0000000180001890 f   GuContactCapsuleConvex.obj
 0001:000008a0       ??__EmaxFError@_VecMathTests@aos@shdfnd@physx@@YAXXZ 00000001800018a0 f   GuContactCapsuleMesh.obj
 0001:000008b0       ??__EmaxV3Error@_VecMathTests@aos@shdfnd@physx@@YAXXZ 00000001800018b0 f   GuContactCapsuleMesh.obj
 0001:000008c0       ??__EmaxV4Error@_VecMathTests@aos@shdfnd@physx@@YAXXZ 00000001800018c0 f   GuContactCapsuleMesh.obj
 0001:000008d0       ??__EminFError@_VecMathTests@aos@shdfnd@physx@@YAXXZ 00000001800018d0 f   GuContactCapsuleMesh.obj
 0001:000008e0       ??__EminV3Error@_VecMathTests@aos@shdfnd@physx@@YAXXZ 00000001800018e0 f   GuContactCapsuleMesh.obj
 0001:000008f0       ??__EminV4Error@_VecMathTests@aos@shdfnd@physx@@YAXXZ 00000001800018f0 f   GuContactCapsuleMesh.obj
 0001:00000900       ??__EmaxFError@_VecMathTests@aos@shdfnd@physx@@YAXXZ 0000000180001900 f   GuContactConvexConvex.obj
 0001:00000910       ??__EmaxV3Error@_VecMathTests@aos@shdfnd@physx@@YAXXZ 0000000180001910 f   GuContactConvexConvex.obj
 0001:00000920       ??__EmaxV4Error@_VecMathTests@aos@shdfnd@physx@@YAXXZ 0000000180001920 f   GuContactConvexConvex.obj
 0001:00000930       ??__EminFError@_VecMathTests@aos@shdfnd@physx@@YAXXZ 0000000180001930 f   GuContactConvexConvex.obj
 0001:00000940       ??__EminV3Error@_VecMathTests@aos@shdfnd@physx@@YAXXZ 0000000180001940 f   GuContactConvexConvex.obj
 0001:00000950       ??__EminV4Error@_VecMathTests@aos@shdfnd@physx@@YAXXZ 0000000180001950 f   GuContactConvexConvex.obj
 0001:00000960       ??__EmaxFError@_VecMathTests@aos@shdfnd@physx@@YAXXZ 0000000180001960 f   GuContactConvexMesh.obj
 0001:00000970       ??__EmaxV3Error@_VecMathTests@aos@shdfnd@physx@@YAXXZ 0000000180001970 f   GuContactConvexMesh.obj
 0001:00000980       ??__EmaxV4Error@_VecMathTests@aos@shdfnd@physx@@YAXXZ 0000000180001980 f   GuContactConvexMesh.obj
 0001:00000990       ??__EminFError@_VecMathTests@aos@shdfnd@physx@@YAXXZ 0000000180001990 f   GuContactConvexMesh.obj
 0001:000009a0       ??__EminV3Error@_VecMathTests@aos@shdfnd@physx@@YAXXZ 00000001800019a0 f   GuContactConvexMesh.obj
 0001:000009b0       ??__EminV4Error@_VecMathTests@aos@shdfnd@physx@@YAXXZ 00000001800019b0 f   GuContactConvexMesh.obj
 0001:000009c0       ??__EmaxFError@_VecMathTests@aos@shdfnd@physx@@YAXXZ 00000001800019c0 f   GuContactPlaneBox.obj
 0001:000009d0       ??__EmaxV3Error@_VecMathTests@aos@shdfnd@physx@@YAXXZ 00000001800019d0 f   GuContactPlaneBox.obj
 0001:000009e0       ??__EmaxV4Error@_VecMathTests@aos@shdfnd@physx@@YAXXZ 00000001800019e0 f   GuContactPlaneBox.obj
 0001:000009f0       ??__EminFError@_VecMathTests@aos@shdfnd@physx@@YAXXZ 00000001800019f0 f   GuContactPlaneBox.obj
 0001:00000a00       ??__EminV3Error@_VecMathTests@aos@shdfnd@physx@@YAXXZ 0000000180001a00 f   GuContactPlaneBox.obj
 0001:00000a10       ??__EminV4Error@_VecMathTests@aos@shdfnd@physx@@YAXXZ 0000000180001a10 f   GuContactPlaneBox.obj
 0001:00000a20       ??__EmaxFError@_VecMathTests@aos@shdfnd@physx@@YAXXZ 0000000180001a20 f   GuContactPlaneCapsule.obj
 0001:00000a30       ??__EmaxV3Error@_VecMathTests@aos@shdfnd@physx@@YAXXZ 0000000180001a30 f   GuContactPlaneCapsule.obj
 0001:00000a40       ??__EmaxV4Error@_VecMathTests@aos@shdfnd@physx@@YAXXZ 0000000180001a40 f   GuContactPlaneCapsule.obj
 0001:00000a50       ??__EminFError@_VecMathTests@aos@shdfnd@physx@@YAXXZ 0000000180001a50 f   GuContactPlaneCapsule.obj
 0001:00000a60       ??__EminV3Error@_VecMathTests@aos@shdfnd@physx@@YAXXZ 0000000180001a60 f   GuContactPlaneCapsule.obj
 0001:00000a70       ??__EminV4Error@_VecMathTests@aos@shdfnd@physx@@YAXXZ 0000000180001a70 f   GuContactPlaneCapsule.obj
 0001:00000a80       ??__EmaxFError@_VecMathTests@aos@shdfnd@physx@@YAXXZ 0000000180001a80 f   GuContactPlaneConvex.obj
 0001:00000a90       ??__EmaxV3Error@_VecMathTests@aos@shdfnd@physx@@YAXXZ 0000000180001a90 f   GuContactPlaneConvex.obj
 0001:00000aa0       ??__EmaxV4Error@_VecMathTests@aos@shdfnd@physx@@YAXXZ 0000000180001aa0 f   GuContactPlaneConvex.obj
 0001:00000ab0       ??__EminFError@_VecMathTests@aos@shdfnd@physx@@YAXXZ 0000000180001ab0 f   GuContactPlaneConvex.obj
 0001:00000ac0       ??__EminV3Error@_VecMathTests@aos@shdfnd@physx@@YAXXZ 0000000180001ac0 f   GuContactPlaneConvex.obj
 0001:00000ad0       ??__EminV4Error@_VecMathTests@aos@shdfnd@physx@@YAXXZ 0000000180001ad0 f   GuContactPlaneConvex.obj
 0001:00000ae0       ??__EmaxFError@_VecMathTests@aos@shdfnd@physx@@YAXXZ 0000000180001ae0 f   GuContactSphereBox.obj
 0001:00000af0       ??__EmaxV3Error@_VecMathTests@aos@shdfnd@physx@@YAXXZ 0000000180001af0 f   GuContactSphereBox.obj
 0001:00000b00       ??__EmaxV4Error@_VecMathTests@aos@shdfnd@physx@@YAXXZ 0000000180001b00 f   GuContactSphereBox.obj
 0001:00000b10       ??__EminFError@_VecMathTests@aos@shdfnd@physx@@YAXXZ 0000000180001b10 f   GuContactSphereBox.obj
 0001:00000b20       ??__EminV3Error@_VecMathTests@aos@shdfnd@physx@@YAXXZ 0000000180001b20 f   GuContactSphereBox.obj
 0001:00000b30       ??__EminV4Error@_VecMathTests@aos@shdfnd@physx@@YAXXZ 0000000180001b30 f   GuContactSphereBox.obj
 0001:00000b40       ??__EmaxFError@_VecMathTests@aos@shdfnd@physx@@YAXXZ 0000000180001b40 f   GuContactSphereCapsule.obj
 0001:00000b50       ??__EmaxV3Error@_VecMathTests@aos@shdfnd@physx@@YAXXZ 0000000180001b50 f   GuContactSphereCapsule.obj
 0001:00000b60       ??__EmaxV4Error@_VecMathTests@aos@shdfnd@physx@@YAXXZ 0000000180001b60 f   GuContactSphereCapsule.obj
 0001:00000b70       ??__EminFError@_VecMathTests@aos@shdfnd@physx@@YAXXZ 0000000180001b70 f   GuContactSphereCapsule.obj
 0001:00000b80       ??__EminV3Error@_VecMathTests@aos@shdfnd@physx@@YAXXZ 0000000180001b80 f   GuContactSphereCapsule.obj
 0001:00000b90       ??__EminV4Error@_VecMathTests@aos@shdfnd@physx@@YAXXZ 0000000180001b90 f   GuContactSphereCapsule.obj
 0001:00000ba0       ??__EmaxFError@_VecMathTests@aos@shdfnd@physx@@YAXXZ 0000000180001ba0 f   GuContactSphereMesh.obj
 0001:00000bb0       ??__EmaxV3Error@_VecMathTests@aos@shdfnd@physx@@YAXXZ 0000000180001bb0 f   GuContactSphereMesh.obj
 0001:00000bc0       ??__EmaxV4Error@_VecMathTests@aos@shdfnd@physx@@YAXXZ 0000000180001bc0 f   GuContactSphereMesh.obj
 0001:00000bd0       ??__EminFError@_VecMathTests@aos@shdfnd@physx@@YAXXZ 0000000180001bd0 f   GuContactSphereMesh.obj
 0001:00000be0       ??__EminV3Error@_VecMathTests@aos@shdfnd@physx@@YAXXZ 0000000180001be0 f   GuContactSphereMesh.obj
 0001:00000bf0       ??__EminV4Error@_VecMathTests@aos@shdfnd@physx@@YAXXZ 0000000180001bf0 f   GuContactSphereMesh.obj
 0001:00000c00       ??__EmaxFError@_VecMathTests@aos@shdfnd@physx@@YAXXZ 0000000180001c00 f   GuContactSpherePlane.obj
 0001:00000c10       ??__EmaxV3Error@_VecMathTests@aos@shdfnd@physx@@YAXXZ 0000000180001c10 f   GuContactSpherePlane.obj
 0001:00000c20       ??__EmaxV4Error@_VecMathTests@aos@shdfnd@physx@@YAXXZ 0000000180001c20 f   GuContactSpherePlane.obj
 0001:00000c30       ??__EminFError@_VecMathTests@aos@shdfnd@physx@@YAXXZ 0000000180001c30 f   GuContactSpherePlane.obj
 0001:00000c40       ??__EminV3Error@_VecMathTests@aos@shdfnd@physx@@YAXXZ 0000000180001c40 f   GuContactSpherePlane.obj
 0001:00000c50       ??__EminV4Error@_VecMathTests@aos@shdfnd@physx@@YAXXZ 0000000180001c50 f   GuContactSpherePlane.obj
 0001:00000c60       ??__EmaxFError@_VecMathTests@aos@shdfnd@physx@@YAXXZ 0000000180001c60 f   GuContactSphereSphere.obj
 0001:00000c70       ??__EmaxV3Error@_VecMathTests@aos@shdfnd@physx@@YAXXZ 0000000180001c70 f   GuContactSphereSphere.obj
 0001:00000c80       ??__EmaxV4Error@_VecMathTests@aos@shdfnd@physx@@YAXXZ 0000000180001c80 f   GuContactSphereSphere.obj
 0001:00000c90       ??__EminFError@_VecMathTests@aos@shdfnd@physx@@YAXXZ 0000000180001c90 f   GuContactSphereSphere.obj
 0001:00000ca0       ??__EminV3Error@_VecMathTests@aos@shdfnd@physx@@YAXXZ 0000000180001ca0 f   GuContactSphereSphere.obj
 0001:00000cb0       ??__EminV4Error@_VecMathTests@aos@shdfnd@physx@@YAXXZ 0000000180001cb0 f   GuContactSphereSphere.obj
 0001:00000cc0       ??__EmaxFError@_VecMathTests@aos@shdfnd@physx@@YAXXZ 0000000180001cc0 f   GuConvexHelper.obj
 0001:00000cd0       ??__EmaxV3Error@_VecMathTests@aos@shdfnd@physx@@YAXXZ 0000000180001cd0 f   GuConvexHelper.obj
 0001:00000ce0       ??__EmaxV4Error@_VecMathTests@aos@shdfnd@physx@@YAXXZ 0000000180001ce0 f   GuConvexHelper.obj
 0001:00000cf0       ??__EminFError@_VecMathTests@aos@shdfnd@physx@@YAXXZ 0000000180001cf0 f   GuConvexHelper.obj
 0001:00000d00       ??__EminV3Error@_VecMathTests@aos@shdfnd@physx@@YAXXZ 0000000180001d00 f   GuConvexHelper.obj
 0001:00000d10       ??__EminV4Error@_VecMathTests@aos@shdfnd@physx@@YAXXZ 0000000180001d10 f   GuConvexHelper.obj
 0001:00000d20       ??__EboxVertexTable@physx@@YAXXZ 0000000180001d20 f   GuConvexSupportTable.obj
 0001:00000da0       ??__EmaxFError@_VecMathTests@aos@shdfnd@physx@@YAXXZ 0000000180001da0 f   GuConvexSupportTable.obj
 0001:00000db0       ??__EmaxV3Error@_VecMathTests@aos@shdfnd@physx@@YAXXZ 0000000180001db0 f   GuConvexSupportTable.obj
 0001:00000dc0       ??__EmaxV4Error@_VecMathTests@aos@shdfnd@physx@@YAXXZ 0000000180001dc0 f   GuConvexSupportTable.obj
 0001:00000dd0       ??__EminFError@_VecMathTests@aos@shdfnd@physx@@YAXXZ 0000000180001dd0 f   GuConvexSupportTable.obj
 0001:00000de0       ??__EminV3Error@_VecMathTests@aos@shdfnd@physx@@YAXXZ 0000000180001de0 f   GuConvexSupportTable.obj
 0001:00000df0       ??__EminV4Error@_VecMathTests@aos@shdfnd@physx@@YAXXZ 0000000180001df0 f   GuConvexSupportTable.obj
 0001:00000e00       ??__EmaxFError@_VecMathTests@aos@shdfnd@physx@@YAXXZ 0000000180001e00 f   GuConvexUtilsInternal.obj
 0001:00000e10       ??__EmaxV3Error@_VecMathTests@aos@shdfnd@physx@@YAXXZ 0000000180001e10 f   GuConvexUtilsInternal.obj
 0001:00000e20       ??__EmaxV4Error@_VecMathTests@aos@shdfnd@physx@@YAXXZ 0000000180001e20 f   GuConvexUtilsInternal.obj
 0001:00000e30       ??__EminFError@_VecMathTests@aos@shdfnd@physx@@YAXXZ 0000000180001e30 f   GuConvexUtilsInternal.obj
 0001:00000e40       ??__EminV3Error@_VecMathTests@aos@shdfnd@physx@@YAXXZ 0000000180001e40 f   GuConvexUtilsInternal.obj
 0001:00000e50       ??__EminV4Error@_VecMathTests@aos@shdfnd@physx@@YAXXZ 0000000180001e50 f   GuConvexUtilsInternal.obj
 0001:00000e60       ??__EmaxFError@_VecMathTests@aos@shdfnd@physx@@YAXXZ 0000000180001e60 f   GuDistancePointTriangle.obj
 0001:00000e70       ??__EmaxV3Error@_VecMathTests@aos@shdfnd@physx@@YAXXZ 0000000180001e70 f   GuDistancePointTriangle.obj
 0001:00000e80       ??__EmaxV4Error@_VecMathTests@aos@shdfnd@physx@@YAXXZ 0000000180001e80 f   GuDistancePointTriangle.obj
 0001:00000e90       ??__EminFError@_VecMathTests@aos@shdfnd@physx@@YAXXZ 0000000180001e90 f   GuDistancePointTriangle.obj
 0001:00000ea0       ??__EminV3Error@_VecMathTests@aos@shdfnd@physx@@YAXXZ 0000000180001ea0 f   GuDistancePointTriangle.obj
 0001:00000eb0       ??__EminV4Error@_VecMathTests@aos@shdfnd@physx@@YAXXZ 0000000180001eb0 f   GuDistancePointTriangle.obj
 0001:00000ec0       ??__EmaxFError@_VecMathTests@aos@shdfnd@physx@@YAXXZ 0000000180001ec0 f   GuDistanceSegmentSegment.obj
 0001:00000ed0       ??__EmaxV3Error@_VecMathTests@aos@shdfnd@physx@@YAXXZ 0000000180001ed0 f   GuDistanceSegmentSegment.obj
 0001:00000ee0       ??__EmaxV4Error@_VecMathTests@aos@shdfnd@physx@@YAXXZ 0000000180001ee0 f   GuDistanceSegmentSegment.obj
 0001:00000ef0       ??__EminFError@_VecMathTests@aos@shdfnd@physx@@YAXXZ 0000000180001ef0 f   GuDistanceSegmentSegment.obj
 0001:00000f00       ??__EminV3Error@_VecMathTests@aos@shdfnd@physx@@YAXXZ 0000000180001f00 f   GuDistanceSegmentSegment.obj
 0001:00000f10       ??__EminV4Error@_VecMathTests@aos@shdfnd@physx@@YAXXZ 0000000180001f10 f   GuDistanceSegmentSegment.obj
 0001:00000f20       ??__EmaxFError@_VecMathTests@aos@shdfnd@physx@@YAXXZ 0000000180001f20 f   GuDistanceSegmentTriangle.obj
 0001:00000f30       ??__EmaxV3Error@_VecMathTests@aos@shdfnd@physx@@YAXXZ 0000000180001f30 f   GuDistanceSegmentTriangle.obj
 0001:00000f40       ??__EmaxV4Error@_VecMathTests@aos@shdfnd@physx@@YAXXZ 0000000180001f40 f   GuDistanceSegmentTriangle.obj
 0001:00000f50       ??__EminFError@_VecMathTests@aos@shdfnd@physx@@YAXXZ 0000000180001f50 f   GuDistanceSegmentTriangle.obj
 0001:00000f60       ??__EminV3Error@_VecMathTests@aos@shdfnd@physx@@YAXXZ 0000000180001f60 f   GuDistanceSegmentTriangle.obj
 0001:00000f70       ??__EminV4Error@_VecMathTests@aos@shdfnd@physx@@YAXXZ 0000000180001f70 f   GuDistanceSegmentTriangle.obj
 0001:00000f80       ??__EmaxFError@_VecMathTests@aos@shdfnd@physx@@YAXXZ 0000000180001f80 f   GuEPA.obj
 0001:00000f90       ??__EmaxV3Error@_VecMathTests@aos@shdfnd@physx@@YAXXZ 0000000180001f90 f   GuEPA.obj
 0001:00000fa0       ??__EmaxV4Error@_VecMathTests@aos@shdfnd@physx@@YAXXZ 0000000180001fa0 f   GuEPA.obj
 0001:00000fb0       ??__EminFError@_VecMathTests@aos@shdfnd@physx@@YAXXZ 0000000180001fb0 f   GuEPA.obj
 0001:00000fc0       ??__EminV3Error@_VecMathTests@aos@shdfnd@physx@@YAXXZ 0000000180001fc0 f   GuEPA.obj
 0001:00000fd0       ??__EminV4Error@_VecMathTests@aos@shdfnd@physx@@YAXXZ 0000000180001fd0 f   GuEPA.obj
 0001:00000fe0       ??__EmaxFError@_VecMathTests@aos@shdfnd@physx@@YAXXZ 0000000180001fe0 f   GuGJKSimplex.obj
 0001:00000ff0       ??__EmaxV3Error@_VecMathTests@aos@shdfnd@physx@@YAXXZ 0000000180001ff0 f   GuGJKSimplex.obj
 0001:00001000       ??__EmaxV4Error@_VecMathTests@aos@shdfnd@physx@@YAXXZ 0000000180002000 f   GuGJKSimplex.obj
 0001:00001010       ??__EminFError@_VecMathTests@aos@shdfnd@physx@@YAXXZ 0000000180002010 f   GuGJKSimplex.obj
 0001:00001020       ??__EminV3Error@_VecMathTests@aos@shdfnd@physx@@YAXXZ 0000000180002020 f   GuGJKSimplex.obj
 0001:00001030       ??__EminV4Error@_VecMathTests@aos@shdfnd@physx@@YAXXZ 0000000180002030 f   GuGJKSimplex.obj
 0001:00001040       ??__EmaxFError@_VecMathTests@aos@shdfnd@physx@@YAXXZ 0000000180002040 f   GuGJKTest.obj
 0001:00001050       ??__EmaxV3Error@_VecMathTests@aos@shdfnd@physx@@YAXXZ 0000000180002050 f   GuGJKTest.obj
 0001:00001060       ??__EmaxV4Error@_VecMathTests@aos@shdfnd@physx@@YAXXZ 0000000180002060 f   GuGJKTest.obj
 0001:00001070       ??__EminFError@_VecMathTests@aos@shdfnd@physx@@YAXXZ 0000000180002070 f   GuGJKTest.obj
 0001:00001080       ??__EminV3Error@_VecMathTests@aos@shdfnd@physx@@YAXXZ 0000000180002080 f   GuGJKTest.obj
 0001:00001090       ??__EminV4Error@_VecMathTests@aos@shdfnd@physx@@YAXXZ 0000000180002090 f   GuGJKTest.obj
 0001:000010a0       ??__EmaxFError@_VecMathTests@aos@shdfnd@physx@@YAXXZ 00000001800020a0 f   GuHeightFieldUtil.obj
 0001:000010b0       ??__EmaxV3Error@_VecMathTests@aos@shdfnd@physx@@YAXXZ 00000001800020b0 f   GuHeightFieldUtil.obj
 0001:000010c0       ??__EmaxV4Error@_VecMathTests@aos@shdfnd@physx@@YAXXZ 00000001800020c0 f   GuHeightFieldUtil.obj
 0001:000010d0       ??__EminFError@_VecMathTests@aos@shdfnd@physx@@YAXXZ 00000001800020d0 f   GuHeightFieldUtil.obj
 0001:000010e0       ??__EminV3Error@_VecMathTests@aos@shdfnd@physx@@YAXXZ 00000001800020e0 f   GuHeightFieldUtil.obj
 0001:000010f0       ??__EminV4Error@_VecMathTests@aos@shdfnd@physx@@YAXXZ 00000001800020f0 f   GuHeightFieldUtil.obj
 0001:00001100       ??__EmaxFError@_VecMathTests@aos@shdfnd@physx@@YAXXZ 0000000180002100 f   GuOverlapTestsHF.obj
 0001:00001110       ??__EmaxV3Error@_VecMathTests@aos@shdfnd@physx@@YAXXZ 0000000180002110 f   GuOverlapTestsHF.obj
 0001:00001120       ??__EmaxV4Error@_VecMathTests@aos@shdfnd@physx@@YAXXZ 0000000180002120 f   GuOverlapTestsHF.obj
 0001:00001130       ??__EminFError@_VecMathTests@aos@shdfnd@physx@@YAXXZ 0000000180002130 f   GuOverlapTestsHF.obj
 0001:00001140       ??__EminV3Error@_VecMathTests@aos@shdfnd@physx@@YAXXZ 0000000180002140 f   GuOverlapTestsHF.obj
 0001:00001150       ??__EminV4Error@_VecMathTests@aos@shdfnd@physx@@YAXXZ 0000000180002150 f   GuOverlapTestsHF.obj
 0001:00001160       ??__EmaxFError@_VecMathTests@aos@shdfnd@physx@@YAXXZ 0000000180002160 f   GuSweepsHF.obj
 0001:00001170       ??__EmaxV3Error@_VecMathTests@aos@shdfnd@physx@@YAXXZ 0000000180002170 f   GuSweepsHF.obj
 0001:00001180       ??__EmaxV4Error@_VecMathTests@aos@shdfnd@physx@@YAXXZ 0000000180002180 f   GuSweepsHF.obj
 0001:00001190       ??__EminFError@_VecMathTests@aos@shdfnd@physx@@YAXXZ 0000000180002190 f   GuSweepsHF.obj
 0001:000011a0       ??__EminV3Error@_VecMathTests@aos@shdfnd@physx@@YAXXZ 00000001800021a0 f   GuSweepsHF.obj
 0001:000011b0       ??__EminV4Error@_VecMathTests@aos@shdfnd@physx@@YAXXZ 00000001800021b0 f   GuSweepsHF.obj
 0001:000011c0       ??__EmaxFError@_VecMathTests@aos@shdfnd@physx@@YAXXZ 00000001800021c0 f   GuIntersectionRayBox.obj
 0001:000011d0       ??__EmaxV3Error@_VecMathTests@aos@shdfnd@physx@@YAXXZ 00000001800021d0 f   GuIntersectionRayBox.obj
 0001:000011e0       ??__EmaxV4Error@_VecMathTests@aos@shdfnd@physx@@YAXXZ 00000001800021e0 f   GuIntersectionRayBox.obj
 0001:000011f0       ??__EminFError@_VecMathTests@aos@shdfnd@physx@@YAXXZ 00000001800021f0 f   GuIntersectionRayBox.obj
 0001:00001200       ??__EminV3Error@_VecMathTests@aos@shdfnd@physx@@YAXXZ 0000000180002200 f   GuIntersectionRayBox.obj
 0001:00001210       ??__EminV4Error@_VecMathTests@aos@shdfnd@physx@@YAXXZ 0000000180002210 f   GuIntersectionRayBox.obj
 0001:00001220       ??__EmaxFError@_VecMathTests@aos@shdfnd@physx@@YAXXZ 0000000180002220 f   GuIntersectionTriangleBox.obj
 0001:00001230       ??__EmaxV3Error@_VecMathTests@aos@shdfnd@physx@@YAXXZ 0000000180002230 f   GuIntersectionTriangleBox.obj
 0001:00001240       ??__EmaxV4Error@_VecMathTests@aos@shdfnd@physx@@YAXXZ 0000000180002240 f   GuIntersectionTriangleBox.obj
 0001:00001250       ??__EminFError@_VecMathTests@aos@shdfnd@physx@@YAXXZ 0000000180002250 f   GuIntersectionTriangleBox.obj
 0001:00001260       ??__EminV3Error@_VecMathTests@aos@shdfnd@physx@@YAXXZ 0000000180002260 f   GuIntersectionTriangleBox.obj
 0001:00001270       ??__EminV4Error@_VecMathTests@aos@shdfnd@physx@@YAXXZ 0000000180002270 f   GuIntersectionTriangleBox.obj
 0001:00001280       ??__EsignV@@YAXXZ          0000000180002280 f   GuIntersectionTriangleBox.obj
 0001:00001290       ??__EmaxFError@_VecMathTests@aos@shdfnd@physx@@YAXXZ 0000000180002290 f   GuBV4.obj
 0001:000012a0       ??__EmaxV3Error@_VecMathTests@aos@shdfnd@physx@@YAXXZ 00000001800022a0 f   GuBV4.obj
 0001:000012b0       ??__EmaxV4Error@_VecMathTests@aos@shdfnd@physx@@YAXXZ 00000001800022b0 f   GuBV4.obj
 0001:000012c0       ??__EminFError@_VecMathTests@aos@shdfnd@physx@@YAXXZ 00000001800022c0 f   GuBV4.obj
 0001:000012d0       ??__EminV3Error@_VecMathTests@aos@shdfnd@physx@@YAXXZ 00000001800022d0 f   GuBV4.obj
 0001:000012e0       ??__EminV4Error@_VecMathTests@aos@shdfnd@physx@@YAXXZ 00000001800022e0 f   GuBV4.obj
 0001:000012f0       ??__EmaxFError@_VecMathTests@aos@shdfnd@physx@@YAXXZ 00000001800022f0 f   GuBV4Build.obj
 0001:00001300       ??__EmaxV3Error@_VecMathTests@aos@shdfnd@physx@@YAXXZ 0000000180002300 f   GuBV4Build.obj
 0001:00001310       ??__EmaxV4Error@_VecMathTests@aos@shdfnd@physx@@YAXXZ 0000000180002310 f   GuBV4Build.obj
 0001:00001320       ??__EminFError@_VecMathTests@aos@shdfnd@physx@@YAXXZ 0000000180002320 f   GuBV4Build.obj
 0001:00001330       ??__EminV3Error@_VecMathTests@aos@shdfnd@physx@@YAXXZ 0000000180002330 f   GuBV4Build.obj
 0001:00001340       ??__EminV4Error@_VecMathTests@aos@shdfnd@physx@@YAXXZ 0000000180002340 f   GuBV4Build.obj
 0001:00001350       ??__EepsFloat4@?A0x97e03e5d@@YAXXZ 0000000180002350 f   GuBV4_AABBSweep.obj
 0001:00001360       ??__EepsInflateFloat4@?A0x97e03e5d@@YAXXZ 0000000180002360 f   GuBV4_AABBSweep.obj
 0001:00001370       ??__EmaxFError@_VecMathTests@aos@shdfnd@physx@@YAXXZ 0000000180002370 f   GuBV4_AABBSweep.obj
 0001:00001380       ??__EmaxV3Error@_VecMathTests@aos@shdfnd@physx@@YAXXZ 0000000180002380 f   GuBV4_AABBSweep.obj
 0001:00001390       ??__EmaxV4Error@_VecMathTests@aos@shdfnd@physx@@YAXXZ 0000000180002390 f   GuBV4_AABBSweep.obj
 0001:000013a0       ??__EminFError@_VecMathTests@aos@shdfnd@physx@@YAXXZ 00000001800023a0 f   GuBV4_AABBSweep.obj
 0001:000013b0       ??__EminV3Error@_VecMathTests@aos@shdfnd@physx@@YAXXZ 00000001800023b0 f   GuBV4_AABBSweep.obj
 0001:000013c0       ??__EminV4Error@_VecMathTests@aos@shdfnd@physx@@YAXXZ 00000001800023c0 f   GuBV4_AABBSweep.obj
 0001:000013d0       ??__EsignMask@?A0x97e03e5d@@YAXXZ 00000001800023d0 f   GuBV4_AABBSweep.obj
 0001:000013e0       ??__Etwos@?A0x97e03e5d@@YAXXZ 00000001800023e0 f   GuBV4_AABBSweep.obj
 0001:000013f0       ??__Ezeroes@?A0x97e03e5d@@YAXXZ 00000001800023f0 f   GuBV4_AABBSweep.obj
 0001:00001400       ??__EmaxFError@_VecMathTests@aos@shdfnd@physx@@YAXXZ 0000000180002400 f   GuBV4_BoxOverlap.obj
 0001:00001410       ??__EmaxV3Error@_VecMathTests@aos@shdfnd@physx@@YAXXZ 0000000180002410 f   GuBV4_BoxOverlap.obj
 0001:00001420       ??__EmaxV4Error@_VecMathTests@aos@shdfnd@physx@@YAXXZ 0000000180002420 f   GuBV4_BoxOverlap.obj
 0001:00001430       ??__EminFError@_VecMathTests@aos@shdfnd@physx@@YAXXZ 0000000180002430 f   GuBV4_BoxOverlap.obj
 0001:00001440       ??__EminV3Error@_VecMathTests@aos@shdfnd@physx@@YAXXZ 0000000180002440 f   GuBV4_BoxOverlap.obj
 0001:00001450       ??__EminV4Error@_VecMathTests@aos@shdfnd@physx@@YAXXZ 0000000180002450 f   GuBV4_BoxOverlap.obj
 0001:00001460       ??__EmaxFError@_VecMathTests@aos@shdfnd@physx@@YAXXZ 0000000180002460 f   GuBV4_CapsuleSweep.obj
 0001:00001470       ??__EmaxV3Error@_VecMathTests@aos@shdfnd@physx@@YAXXZ 0000000180002470 f   GuBV4_CapsuleSweep.obj
 0001:00001480       ??__EmaxV4Error@_VecMathTests@aos@shdfnd@physx@@YAXXZ 0000000180002480 f   GuBV4_CapsuleSweep.obj
 0001:00001490       ??__EminFError@_VecMathTests@aos@shdfnd@physx@@YAXXZ 0000000180002490 f   GuBV4_CapsuleSweep.obj
 0001:000014a0       ??__EminV3Error@_VecMathTests@aos@shdfnd@physx@@YAXXZ 00000001800024a0 f   GuBV4_CapsuleSweep.obj
 0001:000014b0       ??__EminV4Error@_VecMathTests@aos@shdfnd@physx@@YAXXZ 00000001800024b0 f   GuBV4_CapsuleSweep.obj
 0001:000014c0       ??__EepsFloat4@?A0x4280704b@@YAXXZ 00000001800024c0 f   GuBV4_CapsuleSweepAA.obj
 0001:000014d0       ??__EepsInflateFloat4@?A0x4280704b@@YAXXZ 00000001800024d0 f   GuBV4_CapsuleSweepAA.obj
 0001:000014e0       ??__EmaxFError@_VecMathTests@aos@shdfnd@physx@@YAXXZ 00000001800024e0 f   GuBV4_CapsuleSweepAA.obj
 0001:000014f0       ??__EmaxV3Error@_VecMathTests@aos@shdfnd@physx@@YAXXZ 00000001800024f0 f   GuBV4_CapsuleSweepAA.obj
 0001:00001500       ??__EmaxV4Error@_VecMathTests@aos@shdfnd@physx@@YAXXZ 0000000180002500 f   GuBV4_CapsuleSweepAA.obj
 0001:00001510       ??__EminFError@_VecMathTests@aos@shdfnd@physx@@YAXXZ 0000000180002510 f   GuBV4_CapsuleSweepAA.obj
 0001:00001520       ??__EminV3Error@_VecMathTests@aos@shdfnd@physx@@YAXXZ 0000000180002520 f   GuBV4_CapsuleSweepAA.obj
 0001:00001530       ??__EminV4Error@_VecMathTests@aos@shdfnd@physx@@YAXXZ 0000000180002530 f   GuBV4_CapsuleSweepAA.obj
 0001:00001540       ??__EsignMask@?A0x4280704b@@YAXXZ 0000000180002540 f   GuBV4_CapsuleSweepAA.obj
 0001:00001550       ??__Etwos@?A0x4280704b@@YAXXZ 0000000180002550 f   GuBV4_CapsuleSweepAA.obj
 0001:00001560       ??__Ezeroes@?A0x4280704b@@YAXXZ 0000000180002560 f   GuBV4_CapsuleSweepAA.obj
 0001:00001570       ??__EmaxFError@_VecMathTests@aos@shdfnd@physx@@YAXXZ 0000000180002570 f   GuBV4_OBBSweep.obj
 0001:00001580       ??__EmaxV3Error@_VecMathTests@aos@shdfnd@physx@@YAXXZ 0000000180002580 f   GuBV4_OBBSweep.obj
 0001:00001590       ??__EmaxV4Error@_VecMathTests@aos@shdfnd@physx@@YAXXZ 0000000180002590 f   GuBV4_OBBSweep.obj
 0001:000015a0       ??__EminFError@_VecMathTests@aos@shdfnd@physx@@YAXXZ 00000001800025a0 f   GuBV4_OBBSweep.obj
 0001:000015b0       ??__EminV3Error@_VecMathTests@aos@shdfnd@physx@@YAXXZ 00000001800025b0 f   GuBV4_OBBSweep.obj
 0001:000015c0       ??__EminV4Error@_VecMathTests@aos@shdfnd@physx@@YAXXZ 00000001800025c0 f   GuBV4_OBBSweep.obj
 0001:000015d0       ??__EepsFloat4@?A0xb416d84a@@YAXXZ 00000001800025d0 f   GuBV4_Raycast.obj
 0001:000015e0       ??__EepsInflateFloat4@?A0xb416d84a@@YAXXZ 00000001800025e0 f   GuBV4_Raycast.obj
 0001:000015f0       ??__EmaxFError@_VecMathTests@aos@shdfnd@physx@@YAXXZ 00000001800025f0 f   GuBV4_Raycast.obj
 0001:00001600       ??__EmaxV3Error@_VecMathTests@aos@shdfnd@physx@@YAXXZ 0000000180002600 f   GuBV4_Raycast.obj
 0001:00001610       ??__EmaxV4Error@_VecMathTests@aos@shdfnd@physx@@YAXXZ 0000000180002610 f   GuBV4_Raycast.obj
 0001:00001620       ??__EminFError@_VecMathTests@aos@shdfnd@physx@@YAXXZ 0000000180002620 f   GuBV4_Raycast.obj
 0001:00001630       ??__EminV3Error@_VecMathTests@aos@shdfnd@physx@@YAXXZ 0000000180002630 f   GuBV4_Raycast.obj
 0001:00001640       ??__EminV4Error@_VecMathTests@aos@shdfnd@physx@@YAXXZ 0000000180002640 f   GuBV4_Raycast.obj
 0001:00001650       ??__EsignMask@?A0xb416d84a@@YAXXZ 0000000180002650 f   GuBV4_Raycast.obj
 0001:00001660       ??__Etwos@?A0xb416d84a@@YAXXZ 0000000180002660 f   GuBV4_Raycast.obj
 0001:00001670       ??__Ezeroes@?A0xb416d84a@@YAXXZ 0000000180002670 f   GuBV4_Raycast.obj
 0001:00001680       ??__EmaxFError@_VecMathTests@aos@shdfnd@physx@@YAXXZ 0000000180002680 f   GuBV4_SphereOverlap.obj
 0001:00001690       ??__EmaxV3Error@_VecMathTests@aos@shdfnd@physx@@YAXXZ 0000000180002690 f   GuBV4_SphereOverlap.obj
 0001:000016a0       ??__EmaxV4Error@_VecMathTests@aos@shdfnd@physx@@YAXXZ 00000001800026a0 f   GuBV4_SphereOverlap.obj
 0001:000016b0       ??__EminFError@_VecMathTests@aos@shdfnd@physx@@YAXXZ 00000001800026b0 f   GuBV4_SphereOverlap.obj
 0001:000016c0       ??__EminV3Error@_VecMathTests@aos@shdfnd@physx@@YAXXZ 00000001800026c0 f   GuBV4_SphereOverlap.obj
 0001:000016d0       ??__EminV4Error@_VecMathTests@aos@shdfnd@physx@@YAXXZ 00000001800026d0 f   GuBV4_SphereOverlap.obj
 0001:000016e0       ??__EepsFloat4@?A0x71c37672@@YAXXZ 00000001800026e0 f   GuBV4_SphereSweep.obj
 0001:000016f0       ??__EepsInflateFloat4@?A0x71c37672@@YAXXZ 00000001800026f0 f   GuBV4_SphereSweep.obj
 0001:00001700       ??__EmaxFError@_VecMathTests@aos@shdfnd@physx@@YAXXZ 0000000180002700 f   GuBV4_SphereSweep.obj
 0001:00001710       ??__EmaxV3Error@_VecMathTests@aos@shdfnd@physx@@YAXXZ 0000000180002710 f   GuBV4_SphereSweep.obj
 0001:00001720       ??__EmaxV4Error@_VecMathTests@aos@shdfnd@physx@@YAXXZ 0000000180002720 f   GuBV4_SphereSweep.obj
 0001:00001730       ??__EminFError@_VecMathTests@aos@shdfnd@physx@@YAXXZ 0000000180002730 f   GuBV4_SphereSweep.obj
 0001:00001740       ??__EminV3Error@_VecMathTests@aos@shdfnd@physx@@YAXXZ 0000000180002740 f   GuBV4_SphereSweep.obj
 0001:00001750       ??__EminV4Error@_VecMathTests@aos@shdfnd@physx@@YAXXZ 0000000180002750 f   GuBV4_SphereSweep.obj
 0001:00001760       ??__EsignMask@?A0x71c37672@@YAXXZ 0000000180002760 f   GuBV4_SphereSweep.obj
 0001:00001770       ??__Etwos@?A0x71c37672@@YAXXZ 0000000180002770 f   GuBV4_SphereSweep.obj
 0001:00001780       ??__Ezeroes@?A0x71c37672@@YAXXZ 0000000180002780 f   GuBV4_SphereSweep.obj
 0001:00001790       ??__EmaxFError@_VecMathTests@aos@shdfnd@physx@@YAXXZ 0000000180002790 f   GuMidphaseBV4.obj
 0001:000017a0       ??__EmaxV3Error@_VecMathTests@aos@shdfnd@physx@@YAXXZ 00000001800027a0 f   GuMidphaseBV4.obj
 0001:000017b0       ??__EmaxV4Error@_VecMathTests@aos@shdfnd@physx@@YAXXZ 00000001800027b0 f   GuMidphaseBV4.obj
 0001:000017c0       ??__EminFError@_VecMathTests@aos@shdfnd@physx@@YAXXZ 00000001800027c0 f   GuMidphaseBV4.obj
 0001:000017d0       ??__EminV3Error@_VecMathTests@aos@shdfnd@physx@@YAXXZ 00000001800027d0 f   GuMidphaseBV4.obj
 0001:000017e0       ??__EminV4Error@_VecMathTests@aos@shdfnd@physx@@YAXXZ 00000001800027e0 f   GuMidphaseBV4.obj
 0001:000017f0       ??__EmaxFError@_VecMathTests@aos@shdfnd@physx@@YAXXZ 00000001800027f0 f   GuMeshQuery.obj
 0001:00001800       ??__EmaxV3Error@_VecMathTests@aos@shdfnd@physx@@YAXXZ 0000000180002800 f   GuMeshQuery.obj
 0001:00001810       ??__EmaxV4Error@_VecMathTests@aos@shdfnd@physx@@YAXXZ 0000000180002810 f   GuMeshQuery.obj
 0001:00001820       ??__EminFError@_VecMathTests@aos@shdfnd@physx@@YAXXZ 0000000180002820 f   GuMeshQuery.obj
 0001:00001830       ??__EminV3Error@_VecMathTests@aos@shdfnd@physx@@YAXXZ 0000000180002830 f   GuMeshQuery.obj
 0001:00001840       ??__EminV4Error@_VecMathTests@aos@shdfnd@physx@@YAXXZ 0000000180002840 f   GuMeshQuery.obj
 0001:00001850       ??__EmaxFError@_VecMathTests@aos@shdfnd@physx@@YAXXZ 0000000180002850 f   GuMidphaseRTree.obj
 0001:00001860       ??__EmaxV3Error@_VecMathTests@aos@shdfnd@physx@@YAXXZ 0000000180002860 f   GuMidphaseRTree.obj
 0001:00001870       ??__EmaxV4Error@_VecMathTests@aos@shdfnd@physx@@YAXXZ 0000000180002870 f   GuMidphaseRTree.obj
 0001:00001880       ??__EminFError@_VecMathTests@aos@shdfnd@physx@@YAXXZ 0000000180002880 f   GuMidphaseRTree.obj
 0001:00001890       ??__EminV3Error@_VecMathTests@aos@shdfnd@physx@@YAXXZ 0000000180002890 f   GuMidphaseRTree.obj
 0001:000018a0       ??__EminV4Error@_VecMathTests@aos@shdfnd@physx@@YAXXZ 00000001800028a0 f   GuMidphaseRTree.obj
 0001:000018b0       ??__EmaxFError@_VecMathTests@aos@shdfnd@physx@@YAXXZ 00000001800028b0 f   GuOverlapTestsMesh.obj
 0001:000018c0       ??__EmaxV3Error@_VecMathTests@aos@shdfnd@physx@@YAXXZ 00000001800028c0 f   GuOverlapTestsMesh.obj
 0001:000018d0       ??__EmaxV4Error@_VecMathTests@aos@shdfnd@physx@@YAXXZ 00000001800028d0 f   GuOverlapTestsMesh.obj
 0001:000018e0       ??__EminFError@_VecMathTests@aos@shdfnd@physx@@YAXXZ 00000001800028e0 f   GuOverlapTestsMesh.obj
 0001:000018f0       ??__EminV3Error@_VecMathTests@aos@shdfnd@physx@@YAXXZ 00000001800028f0 f   GuOverlapTestsMesh.obj
 0001:00001900       ??__EminV4Error@_VecMathTests@aos@shdfnd@physx@@YAXXZ 0000000180002900 f   GuOverlapTestsMesh.obj
 0001:00001910       ??__EmaxFError@_VecMathTests@aos@shdfnd@physx@@YAXXZ 0000000180002910 f   GuRTree.obj
 0001:00001920       ??__EmaxV3Error@_VecMathTests@aos@shdfnd@physx@@YAXXZ 0000000180002920 f   GuRTree.obj
 0001:00001930       ??__EmaxV4Error@_VecMathTests@aos@shdfnd@physx@@YAXXZ 0000000180002930 f   GuRTree.obj
 0001:00001940       ??__EminFError@_VecMathTests@aos@shdfnd@physx@@YAXXZ 0000000180002940 f   GuRTree.obj
 0001:00001950       ??__EminV3Error@_VecMathTests@aos@shdfnd@physx@@YAXXZ 0000000180002950 f   GuRTree.obj
 0001:00001960       ??__EminV4Error@_VecMathTests@aos@shdfnd@physx@@YAXXZ 0000000180002960 f   GuRTree.obj
 0001:00001970       ??__EepsFloat4@?A0x91bb5e6d@@YAXXZ 0000000180002970 f   GuRTreeQueries.obj
 0001:00001980       ??__EepsInflateFloat4@?A0x91bb5e6d@@YAXXZ 0000000180002980 f   GuRTreeQueries.obj
 0001:00001990       ??__EmaxFError@_VecMathTests@aos@shdfnd@physx@@YAXXZ 0000000180002990 f   GuRTreeQueries.obj
 0001:000019a0       ??__EmaxV3Error@_VecMathTests@aos@shdfnd@physx@@YAXXZ 00000001800029a0 f   GuRTreeQueries.obj
 0001:000019b0       ??__EmaxV4Error@_VecMathTests@aos@shdfnd@physx@@YAXXZ 00000001800029b0 f   GuRTreeQueries.obj
 0001:000019c0       ??__EminFError@_VecMathTests@aos@shdfnd@physx@@YAXXZ 00000001800029c0 f   GuRTreeQueries.obj
 0001:000019d0       ??__EminV3Error@_VecMathTests@aos@shdfnd@physx@@YAXXZ 00000001800029d0 f   GuRTreeQueries.obj
 0001:000019e0       ??__EminV4Error@_VecMathTests@aos@shdfnd@physx@@YAXXZ 00000001800029e0 f   GuRTreeQueries.obj
 0001:000019f0       ??__EsignMask@?A0x91bb5e6d@@YAXXZ 00000001800029f0 f   GuRTreeQueries.obj
 0001:00001a00       ??__Etwos@?A0x91bb5e6d@@YAXXZ 0000000180002a00 f   GuRTreeQueries.obj
 0001:00001a10       ??__Ezeroes@?A0x91bb5e6d@@YAXXZ 0000000180002a10 f   GuRTreeQueries.obj
 0001:00001a20       ??__EmaxFError@_VecMathTests@aos@shdfnd@physx@@YAXXZ 0000000180002a20 f   GuSweepsMesh.obj
 0001:00001a30       ??__EmaxV3Error@_VecMathTests@aos@shdfnd@physx@@YAXXZ 0000000180002a30 f   GuSweepsMesh.obj
 0001:00001a40       ??__EmaxV4Error@_VecMathTests@aos@shdfnd@physx@@YAXXZ 0000000180002a40 f   GuSweepsMesh.obj
 0001:00001a50       ??__EminFError@_VecMathTests@aos@shdfnd@physx@@YAXXZ 0000000180002a50 f   GuSweepsMesh.obj
 0001:00001a60       ??__EminV3Error@_VecMathTests@aos@shdfnd@physx@@YAXXZ 0000000180002a60 f   GuSweepsMesh.obj
 0001:00001a70       ??__EminV4Error@_VecMathTests@aos@shdfnd@physx@@YAXXZ 0000000180002a70 f   GuSweepsMesh.obj
 0001:00001a80       ??__EmaxFError@_VecMathTests@aos@shdfnd@physx@@YAXXZ 0000000180002a80 f   GuTriangleMesh.obj
 0001:00001a90       ??__EmaxV3Error@_VecMathTests@aos@shdfnd@physx@@YAXXZ 0000000180002a90 f   GuTriangleMesh.obj
 0001:00001aa0       ??__EmaxV4Error@_VecMathTests@aos@shdfnd@physx@@YAXXZ 0000000180002aa0 f   GuTriangleMesh.obj
 0001:00001ab0       ??__EminFError@_VecMathTests@aos@shdfnd@physx@@YAXXZ 0000000180002ab0 f   GuTriangleMesh.obj
 0001:00001ac0       ??__EminV3Error@_VecMathTests@aos@shdfnd@physx@@YAXXZ 0000000180002ac0 f   GuTriangleMesh.obj
 0001:00001ad0       ??__EminV4Error@_VecMathTests@aos@shdfnd@physx@@YAXXZ 0000000180002ad0 f   GuTriangleMesh.obj
 0001:00001ae0       ??__EmaxFError@_VecMathTests@aos@shdfnd@physx@@YAXXZ 0000000180002ae0 f   GuTriangleMeshBV4.obj
 0001:00001af0       ??__EmaxV3Error@_VecMathTests@aos@shdfnd@physx@@YAXXZ 0000000180002af0 f   GuTriangleMeshBV4.obj
 0001:00001b00       ??__EmaxV4Error@_VecMathTests@aos@shdfnd@physx@@YAXXZ 0000000180002b00 f   GuTriangleMeshBV4.obj
 0001:00001b10       ??__EminFError@_VecMathTests@aos@shdfnd@physx@@YAXXZ 0000000180002b10 f   GuTriangleMeshBV4.obj
 0001:00001b20       ??__EminV3Error@_VecMathTests@aos@shdfnd@physx@@YAXXZ 0000000180002b20 f   GuTriangleMeshBV4.obj
 0001:00001b30       ??__EminV4Error@_VecMathTests@aos@shdfnd@physx@@YAXXZ 0000000180002b30 f   GuTriangleMeshBV4.obj
 0001:00001b40       ??__EmaxFError@_VecMathTests@aos@shdfnd@physx@@YAXXZ 0000000180002b40 f   GuTriangleMeshRTree.obj
 0001:00001b50       ??__EmaxV3Error@_VecMathTests@aos@shdfnd@physx@@YAXXZ 0000000180002b50 f   GuTriangleMeshRTree.obj
 0001:00001b60       ??__EmaxV4Error@_VecMathTests@aos@shdfnd@physx@@YAXXZ 0000000180002b60 f   GuTriangleMeshRTree.obj
 0001:00001b70       ??__EminFError@_VecMathTests@aos@shdfnd@physx@@YAXXZ 0000000180002b70 f   GuTriangleMeshRTree.obj
 0001:00001b80       ??__EminV3Error@_VecMathTests@aos@shdfnd@physx@@YAXXZ 0000000180002b80 f   GuTriangleMeshRTree.obj
 0001:00001b90       ??__EminV4Error@_VecMathTests@aos@shdfnd@physx@@YAXXZ 0000000180002b90 f   GuTriangleMeshRTree.obj
 0001:00001ba0       ??__EmaxFError@_VecMathTests@aos@shdfnd@physx@@YAXXZ 0000000180002ba0 f   GuBV32Build.obj
 0001:00001bb0       ??__EmaxV3Error@_VecMathTests@aos@shdfnd@physx@@YAXXZ 0000000180002bb0 f   GuBV32Build.obj
 0001:00001bc0       ??__EmaxV4Error@_VecMathTests@aos@shdfnd@physx@@YAXXZ 0000000180002bc0 f   GuBV32Build.obj
 0001:00001bd0       ??__EminFError@_VecMathTests@aos@shdfnd@physx@@YAXXZ 0000000180002bd0 f   GuBV32Build.obj
 0001:00001be0       ??__EminV3Error@_VecMathTests@aos@shdfnd@physx@@YAXXZ 0000000180002be0 f   GuBV32Build.obj
 0001:00001bf0       ??__EminV4Error@_VecMathTests@aos@shdfnd@physx@@YAXXZ 0000000180002bf0 f   GuBV32Build.obj
 0001:00001c00       ??__EmaxFError@_VecMathTests@aos@shdfnd@physx@@YAXXZ 0000000180002c00 f   GuPCMContactBoxBox.obj
 0001:00001c10       ??__EmaxV3Error@_VecMathTests@aos@shdfnd@physx@@YAXXZ 0000000180002c10 f   GuPCMContactBoxBox.obj
 0001:00001c20       ??__EmaxV4Error@_VecMathTests@aos@shdfnd@physx@@YAXXZ 0000000180002c20 f   GuPCMContactBoxBox.obj
 0001:00001c30       ??__EminFError@_VecMathTests@aos@shdfnd@physx@@YAXXZ 0000000180002c30 f   GuPCMContactBoxBox.obj
 0001:00001c40       ??__EminV3Error@_VecMathTests@aos@shdfnd@physx@@YAXXZ 0000000180002c40 f   GuPCMContactBoxBox.obj
 0001:00001c50       ??__EminV4Error@_VecMathTests@aos@shdfnd@physx@@YAXXZ 0000000180002c50 f   GuPCMContactBoxBox.obj
 0001:00001c60       ??__EmaxFError@_VecMathTests@aos@shdfnd@physx@@YAXXZ 0000000180002c60 f   GuPCMContactBoxConvex.obj
 0001:00001c70       ??__EmaxV3Error@_VecMathTests@aos@shdfnd@physx@@YAXXZ 0000000180002c70 f   GuPCMContactBoxConvex.obj
 0001:00001c80       ??__EmaxV4Error@_VecMathTests@aos@shdfnd@physx@@YAXXZ 0000000180002c80 f   GuPCMContactBoxConvex.obj
 0001:00001c90       ??__EminFError@_VecMathTests@aos@shdfnd@physx@@YAXXZ 0000000180002c90 f   GuPCMContactBoxConvex.obj
 0001:00001ca0       ??__EminV3Error@_VecMathTests@aos@shdfnd@physx@@YAXXZ 0000000180002ca0 f   GuPCMContactBoxConvex.obj
 0001:00001cb0       ??__EminV4Error@_VecMathTests@aos@shdfnd@physx@@YAXXZ 0000000180002cb0 f   GuPCMContactBoxConvex.obj
 0001:00001cc0       ??__EmaxFError@_VecMathTests@aos@shdfnd@physx@@YAXXZ 0000000180002cc0 f   GuPCMContactCapsuleBox.obj
 0001:00001cd0       ??__EmaxV3Error@_VecMathTests@aos@shdfnd@physx@@YAXXZ 0000000180002cd0 f   GuPCMContactCapsuleBox.obj
 0001:00001ce0       ??__EmaxV4Error@_VecMathTests@aos@shdfnd@physx@@YAXXZ 0000000180002ce0 f   GuPCMContactCapsuleBox.obj
 0001:00001cf0       ??__EminFError@_VecMathTests@aos@shdfnd@physx@@YAXXZ 0000000180002cf0 f   GuPCMContactCapsuleBox.obj
 0001:00001d00       ??__EminV3Error@_VecMathTests@aos@shdfnd@physx@@YAXXZ 0000000180002d00 f   GuPCMContactCapsuleBox.obj
 0001:00001d10       ??__EminV4Error@_VecMathTests@aos@shdfnd@physx@@YAXXZ 0000000180002d10 f   GuPCMContactCapsuleBox.obj
 0001:00001d20       ??__EmaxFError@_VecMathTests@aos@shdfnd@physx@@YAXXZ 0000000180002d20 f   GuPCMContactCapsuleCapsule.obj
 0001:00001d30       ??__EmaxV3Error@_VecMathTests@aos@shdfnd@physx@@YAXXZ 0000000180002d30 f   GuPCMContactCapsuleCapsule.obj
 0001:00001d40       ??__EmaxV4Error@_VecMathTests@aos@shdfnd@physx@@YAXXZ 0000000180002d40 f   GuPCMContactCapsuleCapsule.obj
 0001:00001d50       ??__EminFError@_VecMathTests@aos@shdfnd@physx@@YAXXZ 0000000180002d50 f   GuPCMContactCapsuleCapsule.obj
 0001:00001d60       ??__EminV3Error@_VecMathTests@aos@shdfnd@physx@@YAXXZ 0000000180002d60 f   GuPCMContactCapsuleCapsule.obj
 0001:00001d70       ??__EminV4Error@_VecMathTests@aos@shdfnd@physx@@YAXXZ 0000000180002d70 f   GuPCMContactCapsuleCapsule.obj
 0001:00001d80       ??__EmaxFError@_VecMathTests@aos@shdfnd@physx@@YAXXZ 0000000180002d80 f   GuPCMContactCapsuleConvex.obj
 0001:00001d90       ??__EmaxV3Error@_VecMathTests@aos@shdfnd@physx@@YAXXZ 0000000180002d90 f   GuPCMContactCapsuleConvex.obj
 0001:00001da0       ??__EmaxV4Error@_VecMathTests@aos@shdfnd@physx@@YAXXZ 0000000180002da0 f   GuPCMContactCapsuleConvex.obj
 0001:00001db0       ??__EminFError@_VecMathTests@aos@shdfnd@physx@@YAXXZ 0000000180002db0 f   GuPCMContactCapsuleConvex.obj
 0001:00001dc0       ??__EminV3Error@_VecMathTests@aos@shdfnd@physx@@YAXXZ 0000000180002dc0 f   GuPCMContactCapsuleConvex.obj
 0001:00001dd0       ??__EminV4Error@_VecMathTests@aos@shdfnd@physx@@YAXXZ 0000000180002dd0 f   GuPCMContactCapsuleConvex.obj
 0001:00001de0       ??__EmaxFError@_VecMathTests@aos@shdfnd@physx@@YAXXZ 0000000180002de0 f   GuPCMContactCapsuleHeightField.obj
 0001:00001df0       ??__EmaxV3Error@_VecMathTests@aos@shdfnd@physx@@YAXXZ 0000000180002df0 f   GuPCMContactCapsuleHeightField.obj
 0001:00001e00       ??__EmaxV4Error@_VecMathTests@aos@shdfnd@physx@@YAXXZ 0000000180002e00 f   GuPCMContactCapsuleHeightField.obj
 0001:00001e10       ??__EminFError@_VecMathTests@aos@shdfnd@physx@@YAXXZ 0000000180002e10 f   GuPCMContactCapsuleHeightField.obj
 0001:00001e20       ??__EminV3Error@_VecMathTests@aos@shdfnd@physx@@YAXXZ 0000000180002e20 f   GuPCMContactCapsuleHeightField.obj
 0001:00001e30       ??__EminV4Error@_VecMathTests@aos@shdfnd@physx@@YAXXZ 0000000180002e30 f   GuPCMContactCapsuleHeightField.obj
 0001:00001e40       ??__EmaxFError@_VecMathTests@aos@shdfnd@physx@@YAXXZ 0000000180002e40 f   GuPCMContactCapsuleMesh.obj
 0001:00001e50       ??__EmaxV3Error@_VecMathTests@aos@shdfnd@physx@@YAXXZ 0000000180002e50 f   GuPCMContactCapsuleMesh.obj
 0001:00001e60       ??__EmaxV4Error@_VecMathTests@aos@shdfnd@physx@@YAXXZ 0000000180002e60 f   GuPCMContactCapsuleMesh.obj
 0001:00001e70       ??__EminFError@_VecMathTests@aos@shdfnd@physx@@YAXXZ 0000000180002e70 f   GuPCMContactCapsuleMesh.obj
 0001:00001e80       ??__EminV3Error@_VecMathTests@aos@shdfnd@physx@@YAXXZ 0000000180002e80 f   GuPCMContactCapsuleMesh.obj
 0001:00001e90       ??__EminV4Error@_VecMathTests@aos@shdfnd@physx@@YAXXZ 0000000180002e90 f   GuPCMContactCapsuleMesh.obj
 0001:00001ea0       ??__EmaxFError@_VecMathTests@aos@shdfnd@physx@@YAXXZ 0000000180002ea0 f   GuPCMContactConvexCommon.obj
 0001:00001eb0       ??__EmaxV3Error@_VecMathTests@aos@shdfnd@physx@@YAXXZ 0000000180002eb0 f   GuPCMContactConvexCommon.obj
 0001:00001ec0       ??__EmaxV4Error@_VecMathTests@aos@shdfnd@physx@@YAXXZ 0000000180002ec0 f   GuPCMContactConvexCommon.obj
 0001:00001ed0       ??__EminFError@_VecMathTests@aos@shdfnd@physx@@YAXXZ 0000000180002ed0 f   GuPCMContactConvexCommon.obj
 0001:00001ee0       ??__EminV3Error@_VecMathTests@aos@shdfnd@physx@@YAXXZ 0000000180002ee0 f   GuPCMContactConvexCommon.obj
 0001:00001ef0       ??__EminV4Error@_VecMathTests@aos@shdfnd@physx@@YAXXZ 0000000180002ef0 f   GuPCMContactConvexCommon.obj
 0001:00001f00       ??__EmaxFError@_VecMathTests@aos@shdfnd@physx@@YAXXZ 0000000180002f00 f   GuPCMContactConvexConvex.obj
 0001:00001f10       ??__EmaxV3Error@_VecMathTests@aos@shdfnd@physx@@YAXXZ 0000000180002f10 f   GuPCMContactConvexConvex.obj
 0001:00001f20       ??__EmaxV4Error@_VecMathTests@aos@shdfnd@physx@@YAXXZ 0000000180002f20 f   GuPCMContactConvexConvex.obj
 0001:00001f30       ??__EminFError@_VecMathTests@aos@shdfnd@physx@@YAXXZ 0000000180002f30 f   GuPCMContactConvexConvex.obj
 0001:00001f40       ??__EminV3Error@_VecMathTests@aos@shdfnd@physx@@YAXXZ 0000000180002f40 f   GuPCMContactConvexConvex.obj
 0001:00001f50       ??__EminV4Error@_VecMathTests@aos@shdfnd@physx@@YAXXZ 0000000180002f50 f   GuPCMContactConvexConvex.obj
 0001:00001f60       ??__EmaxFError@_VecMathTests@aos@shdfnd@physx@@YAXXZ 0000000180002f60 f   GuPCMContactConvexHeightField.obj
 0001:00001f70       ??__EmaxV3Error@_VecMathTests@aos@shdfnd@physx@@YAXXZ 0000000180002f70 f   GuPCMContactConvexHeightField.obj
 0001:00001f80       ??__EmaxV4Error@_VecMathTests@aos@shdfnd@physx@@YAXXZ 0000000180002f80 f   GuPCMContactConvexHeightField.obj
 0001:00001f90       ??__EminFError@_VecMathTests@aos@shdfnd@physx@@YAXXZ 0000000180002f90 f   GuPCMContactConvexHeightField.obj
 0001:00001fa0       ??__EminV3Error@_VecMathTests@aos@shdfnd@physx@@YAXXZ 0000000180002fa0 f   GuPCMContactConvexHeightField.obj
 0001:00001fb0       ??__EminV4Error@_VecMathTests@aos@shdfnd@physx@@YAXXZ 0000000180002fb0 f   GuPCMContactConvexHeightField.obj
 0001:00001fc0       ??__EmaxFError@_VecMathTests@aos@shdfnd@physx@@YAXXZ 0000000180002fc0 f   GuPCMContactConvexMesh.obj
 0001:00001fd0       ??__EmaxV3Error@_VecMathTests@aos@shdfnd@physx@@YAXXZ 0000000180002fd0 f   GuPCMContactConvexMesh.obj
 0001:00001fe0       ??__EmaxV4Error@_VecMathTests@aos@shdfnd@physx@@YAXXZ 0000000180002fe0 f   GuPCMContactConvexMesh.obj
 0001:00001ff0       ??__EminFError@_VecMathTests@aos@shdfnd@physx@@YAXXZ 0000000180002ff0 f   GuPCMContactConvexMesh.obj
 0001:00002000       ??__EminV3Error@_VecMathTests@aos@shdfnd@physx@@YAXXZ 0000000180003000 f   GuPCMContactConvexMesh.obj
 0001:00002010       ??__EminV4Error@_VecMathTests@aos@shdfnd@physx@@YAXXZ 0000000180003010 f   GuPCMContactConvexMesh.obj
 0001:00002020       ??__EmaxFError@_VecMathTests@aos@shdfnd@physx@@YAXXZ 0000000180003020 f   GuPCMContactGenBoxConvex.obj
 0001:00002030       ??__EmaxV3Error@_VecMathTests@aos@shdfnd@physx@@YAXXZ 0000000180003030 f   GuPCMContactGenBoxConvex.obj
 0001:00002040       ??__EmaxV4Error@_VecMathTests@aos@shdfnd@physx@@YAXXZ 0000000180003040 f   GuPCMContactGenBoxConvex.obj
 0001:00002050       ??__EminFError@_VecMathTests@aos@shdfnd@physx@@YAXXZ 0000000180003050 f   GuPCMContactGenBoxConvex.obj
 0001:00002060       ??__EminV3Error@_VecMathTests@aos@shdfnd@physx@@YAXXZ 0000000180003060 f   GuPCMContactGenBoxConvex.obj
 0001:00002070       ??__EminV4Error@_VecMathTests@aos@shdfnd@physx@@YAXXZ 0000000180003070 f   GuPCMContactGenBoxConvex.obj
 0001:00002080       ??__EmaxFError@_VecMathTests@aos@shdfnd@physx@@YAXXZ 0000000180003080 f   GuPCMContactGenSphereCapsule.obj
 0001:00002090       ??__EmaxV3Error@_VecMathTests@aos@shdfnd@physx@@YAXXZ 0000000180003090 f   GuPCMContactGenSphereCapsule.obj
 0001:000020a0       ??__EmaxV4Error@_VecMathTests@aos@shdfnd@physx@@YAXXZ 00000001800030a0 f   GuPCMContactGenSphereCapsule.obj
 0001:000020b0       ??__EminFError@_VecMathTests@aos@shdfnd@physx@@YAXXZ 00000001800030b0 f   GuPCMContactGenSphereCapsule.obj
 0001:000020c0       ??__EminV3Error@_VecMathTests@aos@shdfnd@physx@@YAXXZ 00000001800030c0 f   GuPCMContactGenSphereCapsule.obj
 0001:000020d0       ??__EminV4Error@_VecMathTests@aos@shdfnd@physx@@YAXXZ 00000001800030d0 f   GuPCMContactGenSphereCapsule.obj
 0001:000020e0       ??__EmaxFError@_VecMathTests@aos@shdfnd@physx@@YAXXZ 00000001800030e0 f   GuPCMContactPlaneBox.obj
 0001:000020f0       ??__EmaxV3Error@_VecMathTests@aos@shdfnd@physx@@YAXXZ 00000001800030f0 f   GuPCMContactPlaneBox.obj
 0001:00002100       ??__EmaxV4Error@_VecMathTests@aos@shdfnd@physx@@YAXXZ 0000000180003100 f   GuPCMContactPlaneBox.obj
 0001:00002110       ??__EminFError@_VecMathTests@aos@shdfnd@physx@@YAXXZ 0000000180003110 f   GuPCMContactPlaneBox.obj
 0001:00002120       ??__EminV3Error@_VecMathTests@aos@shdfnd@physx@@YAXXZ 0000000180003120 f   GuPCMContactPlaneBox.obj
 0001:00002130       ??__EminV4Error@_VecMathTests@aos@shdfnd@physx@@YAXXZ 0000000180003130 f   GuPCMContactPlaneBox.obj
 0001:00002140       ??__EmaxFError@_VecMathTests@aos@shdfnd@physx@@YAXXZ 0000000180003140 f   GuPCMContactPlaneCapsule.obj
 0001:00002150       ??__EmaxV3Error@_VecMathTests@aos@shdfnd@physx@@YAXXZ 0000000180003150 f   GuPCMContactPlaneCapsule.obj
 0001:00002160       ??__EmaxV4Error@_VecMathTests@aos@shdfnd@physx@@YAXXZ 0000000180003160 f   GuPCMContactPlaneCapsule.obj
 0001:00002170       ??__EminFError@_VecMathTests@aos@shdfnd@physx@@YAXXZ 0000000180003170 f   GuPCMContactPlaneCapsule.obj
 0001:00002180       ??__EminV3Error@_VecMathTests@aos@shdfnd@physx@@YAXXZ 0000000180003180 f   GuPCMContactPlaneCapsule.obj
 0001:00002190       ??__EminV4Error@_VecMathTests@aos@shdfnd@physx@@YAXXZ 0000000180003190 f   GuPCMContactPlaneCapsule.obj
 0001:000021a0       ??__EmaxFError@_VecMathTests@aos@shdfnd@physx@@YAXXZ 00000001800031a0 f   GuPCMContactPlaneConvex.obj
 0001:000021b0       ??__EmaxV3Error@_VecMathTests@aos@shdfnd@physx@@YAXXZ 00000001800031b0 f   GuPCMContactPlaneConvex.obj
 0001:000021c0       ??__EmaxV4Error@_VecMathTests@aos@shdfnd@physx@@YAXXZ 00000001800031c0 f   GuPCMContactPlaneConvex.obj
 0001:000021d0       ??__EminFError@_VecMathTests@aos@shdfnd@physx@@YAXXZ 00000001800031d0 f   GuPCMContactPlaneConvex.obj
 0001:000021e0       ??__EminV3Error@_VecMathTests@aos@shdfnd@physx@@YAXXZ 00000001800031e0 f   GuPCMContactPlaneConvex.obj
 0001:000021f0       ??__EminV4Error@_VecMathTests@aos@shdfnd@physx@@YAXXZ 00000001800031f0 f   GuPCMContactPlaneConvex.obj
 0001:00002200       ??__EmaxFError@_VecMathTests@aos@shdfnd@physx@@YAXXZ 0000000180003200 f   GuPCMContactSphereBox.obj
 0001:00002210       ??__EmaxV3Error@_VecMathTests@aos@shdfnd@physx@@YAXXZ 0000000180003210 f   GuPCMContactSphereBox.obj
 0001:00002220       ??__EmaxV4Error@_VecMathTests@aos@shdfnd@physx@@YAXXZ 0000000180003220 f   GuPCMContactSphereBox.obj
 0001:00002230       ??__EminFError@_VecMathTests@aos@shdfnd@physx@@YAXXZ 0000000180003230 f   GuPCMContactSphereBox.obj
 0001:00002240       ??__EminV3Error@_VecMathTests@aos@shdfnd@physx@@YAXXZ 0000000180003240 f   GuPCMContactSphereBox.obj
 0001:00002250       ??__EminV4Error@_VecMathTests@aos@shdfnd@physx@@YAXXZ 0000000180003250 f   GuPCMContactSphereBox.obj
 0001:00002260       ??__EmaxFError@_VecMathTests@aos@shdfnd@physx@@YAXXZ 0000000180003260 f   GuPCMContactSphereCapsule.obj
 0001:00002270       ??__EmaxV3Error@_VecMathTests@aos@shdfnd@physx@@YAXXZ 0000000180003270 f   GuPCMContactSphereCapsule.obj
 0001:00002280       ??__EmaxV4Error@_VecMathTests@aos@shdfnd@physx@@YAXXZ 0000000180003280 f   GuPCMContactSphereCapsule.obj
 0001:00002290       ??__EminFError@_VecMathTests@aos@shdfnd@physx@@YAXXZ 0000000180003290 f   GuPCMContactSphereCapsule.obj
 0001:000022a0       ??__EminV3Error@_VecMathTests@aos@shdfnd@physx@@YAXXZ 00000001800032a0 f   GuPCMContactSphereCapsule.obj
 0001:000022b0       ??__EminV4Error@_VecMathTests@aos@shdfnd@physx@@YAXXZ 00000001800032b0 f   GuPCMContactSphereCapsule.obj
 0001:000022c0       ??__EmaxFError@_VecMathTests@aos@shdfnd@physx@@YAXXZ 00000001800032c0 f   GuPCMContactSphereConvex.obj
 0001:000022d0       ??__EmaxV3Error@_VecMathTests@aos@shdfnd@physx@@YAXXZ 00000001800032d0 f   GuPCMContactSphereConvex.obj
 0001:000022e0       ??__EmaxV4Error@_VecMathTests@aos@shdfnd@physx@@YAXXZ 00000001800032e0 f   GuPCMContactSphereConvex.obj
 0001:000022f0       ??__EminFError@_VecMathTests@aos@shdfnd@physx@@YAXXZ 00000001800032f0 f   GuPCMContactSphereConvex.obj
 0001:00002300       ??__EminV3Error@_VecMathTests@aos@shdfnd@physx@@YAXXZ 0000000180003300 f   GuPCMContactSphereConvex.obj
 0001:00002310       ??__EminV4Error@_VecMathTests@aos@shdfnd@physx@@YAXXZ 0000000180003310 f   GuPCMContactSphereConvex.obj
 0001:00002320       ??__EmaxFError@_VecMathTests@aos@shdfnd@physx@@YAXXZ 0000000180003320 f   GuPCMContactSphereHeightField.obj
 0001:00002330       ??__EmaxV3Error@_VecMathTests@aos@shdfnd@physx@@YAXXZ 0000000180003330 f   GuPCMContactSphereHeightField.obj
 0001:00002340       ??__EmaxV4Error@_VecMathTests@aos@shdfnd@physx@@YAXXZ 0000000180003340 f   GuPCMContactSphereHeightField.obj
 0001:00002350       ??__EminFError@_VecMathTests@aos@shdfnd@physx@@YAXXZ 0000000180003350 f   GuPCMContactSphereHeightField.obj
 0001:00002360       ??__EminV3Error@_VecMathTests@aos@shdfnd@physx@@YAXXZ 0000000180003360 f   GuPCMContactSphereHeightField.obj
 0001:00002370       ??__EminV4Error@_VecMathTests@aos@shdfnd@physx@@YAXXZ 0000000180003370 f   GuPCMContactSphereHeightField.obj
 0001:00002380       ??__EmaxFError@_VecMathTests@aos@shdfnd@physx@@YAXXZ 0000000180003380 f   GuPCMContactSphereMesh.obj
 0001:00002390       ??__EmaxV3Error@_VecMathTests@aos@shdfnd@physx@@YAXXZ 0000000180003390 f   GuPCMContactSphereMesh.obj
 0001:000023a0       ??__EmaxV4Error@_VecMathTests@aos@shdfnd@physx@@YAXXZ 00000001800033a0 f   GuPCMContactSphereMesh.obj
 0001:000023b0       ??__EminFError@_VecMathTests@aos@shdfnd@physx@@YAXXZ 00000001800033b0 f   GuPCMContactSphereMesh.obj
 0001:000023c0       ??__EminV3Error@_VecMathTests@aos@shdfnd@physx@@YAXXZ 00000001800033c0 f   GuPCMContactSphereMesh.obj
 0001:000023d0       ??__EminV4Error@_VecMathTests@aos@shdfnd@physx@@YAXXZ 00000001800033d0 f   GuPCMContactSphereMesh.obj
 0001:000023e0       ??__EmaxFError@_VecMathTests@aos@shdfnd@physx@@YAXXZ 00000001800033e0 f   GuPCMContactSpherePlane.obj
 0001:000023f0       ??__EmaxV3Error@_VecMathTests@aos@shdfnd@physx@@YAXXZ 00000001800033f0 f   GuPCMContactSpherePlane.obj
 0001:00002400       ??__EmaxV4Error@_VecMathTests@aos@shdfnd@physx@@YAXXZ 0000000180003400 f   GuPCMContactSpherePlane.obj
 0001:00002410       ??__EminFError@_VecMathTests@aos@shdfnd@physx@@YAXXZ 0000000180003410 f   GuPCMContactSpherePlane.obj
 0001:00002420       ??__EminV3Error@_VecMathTests@aos@shdfnd@physx@@YAXXZ 0000000180003420 f   GuPCMContactSpherePlane.obj
 0001:00002430       ??__EminV4Error@_VecMathTests@aos@shdfnd@physx@@YAXXZ 0000000180003430 f   GuPCMContactSpherePlane.obj
 0001:00002440       ??__EmaxFError@_VecMathTests@aos@shdfnd@physx@@YAXXZ 0000000180003440 f   GuPCMContactSphereSphere.obj
 0001:00002450       ??__EmaxV3Error@_VecMathTests@aos@shdfnd@physx@@YAXXZ 0000000180003450 f   GuPCMContactSphereSphere.obj
 0001:00002460       ??__EmaxV4Error@_VecMathTests@aos@shdfnd@physx@@YAXXZ 0000000180003460 f   GuPCMContactSphereSphere.obj
 0001:00002470       ??__EminFError@_VecMathTests@aos@shdfnd@physx@@YAXXZ 0000000180003470 f   GuPCMContactSphereSphere.obj
 0001:00002480       ??__EminV3Error@_VecMathTests@aos@shdfnd@physx@@YAXXZ 0000000180003480 f   GuPCMContactSphereSphere.obj
 0001:00002490       ??__EminV4Error@_VecMathTests@aos@shdfnd@physx@@YAXXZ 0000000180003490 f   GuPCMContactSphereSphere.obj
 0001:000024a0       ??__EmaxFError@_VecMathTests@aos@shdfnd@physx@@YAXXZ 00000001800034a0 f   GuPCMShapeConvex.obj
 0001:000024b0       ??__EmaxV3Error@_VecMathTests@aos@shdfnd@physx@@YAXXZ 00000001800034b0 f   GuPCMShapeConvex.obj
 0001:000024c0       ??__EmaxV4Error@_VecMathTests@aos@shdfnd@physx@@YAXXZ 00000001800034c0 f   GuPCMShapeConvex.obj
 0001:000024d0       ??__EminFError@_VecMathTests@aos@shdfnd@physx@@YAXXZ 00000001800034d0 f   GuPCMShapeConvex.obj
 0001:000024e0       ??__EminV3Error@_VecMathTests@aos@shdfnd@physx@@YAXXZ 00000001800034e0 f   GuPCMShapeConvex.obj
 0001:000024f0       ??__EminV4Error@_VecMathTests@aos@shdfnd@physx@@YAXXZ 00000001800034f0 f   GuPCMShapeConvex.obj
 0001:00002500       ??__EmaxFError@_VecMathTests@aos@shdfnd@physx@@YAXXZ 0000000180003500 f   GuPCMTriangleContactGen.obj
 0001:00002510       ??__EmaxV3Error@_VecMathTests@aos@shdfnd@physx@@YAXXZ 0000000180003510 f   GuPCMTriangleContactGen.obj
 0001:00002520       ??__EmaxV4Error@_VecMathTests@aos@shdfnd@physx@@YAXXZ 0000000180003520 f   GuPCMTriangleContactGen.obj
 0001:00002530       ??__EminFError@_VecMathTests@aos@shdfnd@physx@@YAXXZ 0000000180003530 f   GuPCMTriangleContactGen.obj
 0001:00002540       ??__EminV3Error@_VecMathTests@aos@shdfnd@physx@@YAXXZ 0000000180003540 f   GuPCMTriangleContactGen.obj
 0001:00002550       ??__EminV4Error@_VecMathTests@aos@shdfnd@physx@@YAXXZ 0000000180003550 f   GuPCMTriangleContactGen.obj
 0001:00002560       ??__EmaxFError@_VecMathTests@aos@shdfnd@physx@@YAXXZ 0000000180003560 f   GuPersistentContactManifold.obj
 0001:00002570       ??__EmaxV3Error@_VecMathTests@aos@shdfnd@physx@@YAXXZ 0000000180003570 f   GuPersistentContactManifold.obj
 0001:00002580       ??__EmaxV4Error@_VecMathTests@aos@shdfnd@physx@@YAXXZ 0000000180003580 f   GuPersistentContactManifold.obj
 0001:00002590       ??__EminFError@_VecMathTests@aos@shdfnd@physx@@YAXXZ 0000000180003590 f   GuPersistentContactManifold.obj
 0001:000025a0       ??__EminV3Error@_VecMathTests@aos@shdfnd@physx@@YAXXZ 00000001800035a0 f   GuPersistentContactManifold.obj
 0001:000025b0       ??__EminV4Error@_VecMathTests@aos@shdfnd@physx@@YAXXZ 00000001800035b0 f   GuPersistentContactManifold.obj
 0001:000025c0       ??__EmaxFError@_VecMathTests@aos@shdfnd@physx@@YAXXZ 00000001800035c0 f   GuSweepBoxBox.obj
 0001:000025d0       ??__EmaxV3Error@_VecMathTests@aos@shdfnd@physx@@YAXXZ 00000001800035d0 f   GuSweepBoxBox.obj
 0001:000025e0       ??__EmaxV4Error@_VecMathTests@aos@shdfnd@physx@@YAXXZ 00000001800035e0 f   GuSweepBoxBox.obj
 0001:000025f0       ??__EminFError@_VecMathTests@aos@shdfnd@physx@@YAXXZ 00000001800035f0 f   GuSweepBoxBox.obj
 0001:00002600       ??__EminV3Error@_VecMathTests@aos@shdfnd@physx@@YAXXZ 0000000180003600 f   GuSweepBoxBox.obj
 0001:00002610       ??__EminV4Error@_VecMathTests@aos@shdfnd@physx@@YAXXZ 0000000180003610 f   GuSweepBoxBox.obj
 0001:00002620       ??__EmaxFError@_VecMathTests@aos@shdfnd@physx@@YAXXZ 0000000180003620 f   GuSweepBoxSphere.obj
 0001:00002630       ??__EmaxV3Error@_VecMathTests@aos@shdfnd@physx@@YAXXZ 0000000180003630 f   GuSweepBoxSphere.obj
 0001:00002640       ??__EmaxV4Error@_VecMathTests@aos@shdfnd@physx@@YAXXZ 0000000180003640 f   GuSweepBoxSphere.obj
 0001:00002650       ??__EminFError@_VecMathTests@aos@shdfnd@physx@@YAXXZ 0000000180003650 f   GuSweepBoxSphere.obj
 0001:00002660       ??__EminV3Error@_VecMathTests@aos@shdfnd@physx@@YAXXZ 0000000180003660 f   GuSweepBoxSphere.obj
 0001:00002670       ??__EminV4Error@_VecMathTests@aos@shdfnd@physx@@YAXXZ 0000000180003670 f   GuSweepBoxSphere.obj
 0001:00002680       ??__EmaxFError@_VecMathTests@aos@shdfnd@physx@@YAXXZ 0000000180003680 f   GuSweepBoxTriangle_FeatureBased.obj
 0001:00002690       ??__EmaxV3Error@_VecMathTests@aos@shdfnd@physx@@YAXXZ 0000000180003690 f   GuSweepBoxTriangle_FeatureBased.obj
 0001:000026a0       ??__EmaxV4Error@_VecMathTests@aos@shdfnd@physx@@YAXXZ 00000001800036a0 f   GuSweepBoxTriangle_FeatureBased.obj
 0001:000026b0       ??__EminFError@_VecMathTests@aos@shdfnd@physx@@YAXXZ 00000001800036b0 f   GuSweepBoxTriangle_FeatureBased.obj
 0001:000026c0       ??__EminV3Error@_VecMathTests@aos@shdfnd@physx@@YAXXZ 00000001800036c0 f   GuSweepBoxTriangle_FeatureBased.obj
 0001:000026d0       ??__EminV4Error@_VecMathTests@aos@shdfnd@physx@@YAXXZ 00000001800036d0 f   GuSweepBoxTriangle_FeatureBased.obj
 0001:000026e0       ??__EmaxFError@_VecMathTests@aos@shdfnd@physx@@YAXXZ 00000001800036e0 f   GuSweepBoxTriangle_SAT.obj
 0001:000026f0       ??__EmaxV3Error@_VecMathTests@aos@shdfnd@physx@@YAXXZ 00000001800036f0 f   GuSweepBoxTriangle_SAT.obj
 0001:00002700       ??__EmaxV4Error@_VecMathTests@aos@shdfnd@physx@@YAXXZ 0000000180003700 f   GuSweepBoxTriangle_SAT.obj
 0001:00002710       ??__EminFError@_VecMathTests@aos@shdfnd@physx@@YAXXZ 0000000180003710 f   GuSweepBoxTriangle_SAT.obj
 0001:00002720       ??__EminV3Error@_VecMathTests@aos@shdfnd@physx@@YAXXZ 0000000180003720 f   GuSweepBoxTriangle_SAT.obj
 0001:00002730       ??__EminV4Error@_VecMathTests@aos@shdfnd@physx@@YAXXZ 0000000180003730 f   GuSweepBoxTriangle_SAT.obj
 0001:00002740       ??__EmaxFError@_VecMathTests@aos@shdfnd@physx@@YAXXZ 0000000180003740 f   GuSweepCapsuleBox.obj
 0001:00002750       ??__EmaxV3Error@_VecMathTests@aos@shdfnd@physx@@YAXXZ 0000000180003750 f   GuSweepCapsuleBox.obj
 0001:00002760       ??__EmaxV4Error@_VecMathTests@aos@shdfnd@physx@@YAXXZ 0000000180003760 f   GuSweepCapsuleBox.obj
 0001:00002770       ??__EminFError@_VecMathTests@aos@shdfnd@physx@@YAXXZ 0000000180003770 f   GuSweepCapsuleBox.obj
 0001:00002780       ??__EminV3Error@_VecMathTests@aos@shdfnd@physx@@YAXXZ 0000000180003780 f   GuSweepCapsuleBox.obj
 0001:00002790       ??__EminV4Error@_VecMathTests@aos@shdfnd@physx@@YAXXZ 0000000180003790 f   GuSweepCapsuleBox.obj
 0001:000027a0       ??__EmaxFError@_VecMathTests@aos@shdfnd@physx@@YAXXZ 00000001800037a0 f   GuSweepCapsuleTriangle.obj
 0001:000027b0       ??__EmaxV3Error@_VecMathTests@aos@shdfnd@physx@@YAXXZ 00000001800037b0 f   GuSweepCapsuleTriangle.obj
 0001:000027c0       ??__EmaxV4Error@_VecMathTests@aos@shdfnd@physx@@YAXXZ 00000001800037c0 f   GuSweepCapsuleTriangle.obj
 0001:000027d0       ??__EminFError@_VecMathTests@aos@shdfnd@physx@@YAXXZ 00000001800037d0 f   GuSweepCapsuleTriangle.obj
 0001:000027e0       ??__EminV3Error@_VecMathTests@aos@shdfnd@physx@@YAXXZ 00000001800037e0 f   GuSweepCapsuleTriangle.obj
 0001:000027f0       ??__EminV4Error@_VecMathTests@aos@shdfnd@physx@@YAXXZ 00000001800037f0 f   GuSweepCapsuleTriangle.obj
 0001:00002800       ??__EmaxFError@_VecMathTests@aos@shdfnd@physx@@YAXXZ 0000000180003800 f   GuSweepSphereTriangle.obj
 0001:00002810       ??__EmaxV3Error@_VecMathTests@aos@shdfnd@physx@@YAXXZ 0000000180003810 f   GuSweepSphereTriangle.obj
 0001:00002820       ??__EmaxV4Error@_VecMathTests@aos@shdfnd@physx@@YAXXZ 0000000180003820 f   GuSweepSphereTriangle.obj
 0001:00002830       ??__EminFError@_VecMathTests@aos@shdfnd@physx@@YAXXZ 0000000180003830 f   GuSweepSphereTriangle.obj
 0001:00002840       ??__EminV3Error@_VecMathTests@aos@shdfnd@physx@@YAXXZ 0000000180003840 f   GuSweepSphereTriangle.obj
 0001:00002850       ??__EminV4Error@_VecMathTests@aos@shdfnd@physx@@YAXXZ 0000000180003850 f   GuSweepSphereTriangle.obj
 0001:00002860       ??__EmaxFError@_VecMathTests@aos@shdfnd@physx@@YAXXZ 0000000180003860 f   GuSweepTriangleUtils.obj
 0001:00002870       ??__EmaxV3Error@_VecMathTests@aos@shdfnd@physx@@YAXXZ 0000000180003870 f   GuSweepTriangleUtils.obj
 0001:00002880       ??__EmaxV4Error@_VecMathTests@aos@shdfnd@physx@@YAXXZ 0000000180003880 f   GuSweepTriangleUtils.obj
 0001:00002890       ??__EminFError@_VecMathTests@aos@shdfnd@physx@@YAXXZ 0000000180003890 f   GuSweepTriangleUtils.obj
 0001:000028a0       ??__EminV3Error@_VecMathTests@aos@shdfnd@physx@@YAXXZ 00000001800038a0 f   GuSweepTriangleUtils.obj
 0001:000028b0       ??__EminV4Error@_VecMathTests@aos@shdfnd@physx@@YAXXZ 00000001800038b0 f   GuSweepTriangleUtils.obj
 0001:00009280       $LN24                      000000018000a280     CmWindowsDelayLoadHook.obj
 0001:0000a544       $LN727                     000000018000b544     GuBounds.obj
 0001:0000a718       $LN78                      000000018000b718     GuBounds.obj
 0001:0000a780       ?computeMeshBounds@@YAXAEBVPxVec3@physx@@AEBVPxMat33Padded@Gu@2@PEIBVCenterExtentsPadded@42@AEBVPxMeshScale@2@AEAVVec3p@42@4@Z 000000018000b780 f   GuBounds.obj
 0001:0000af20       ?computePlaneBounds@@YAXAEAVPxBounds3@physx@@AEBVPxTransform@2@MM@Z 000000018000bf20 f   GuBounds.obj
 0001:0000b1c0       ?computeScaledMatrix@@YAXAEAVPxMat33Padded@Gu@physx@@AEBVPxMeshScale@3@@Z 000000018000c1c0 f   GuBounds.obj
 0001:0000c700       ??_GLocalReport@?1??sweepBox_HeightFieldGeom_Precise@@YA_NAEBVPxGeometry@physx@@AEBVPxTransform@3@AEBVPxBoxGeometry@3@1AEBVBox@Gu@3@AEBVPxVec3@3@MAEAUPxSweepHit@3@V?$PxFlags@W4Enum@PxHitFlag@physx@@G@3@M@Z@UEAAPEAXI@Z 000000018000d700 f   GuCCTSweepTests.obj
 0001:0000c700       ??_GHfTrianglesEntityReport2@?A0x8e382abc@@UEAAPEAXI@Z 000000018000d700 f   GuMeshQuery.obj
 0001:0000d350       ?onEvent@LocalReport@?1??sweepBox_HeightFieldGeom_Precise@@YA_NAEBVPxGeometry@physx@@AEBVPxTransform@4@AEBVPxBoxGeometry@4@1AEBVBox@Gu@4@AEBVPxVec3@4@MAEAUPxSweepHit@4@V?$PxFlags@W4Enum@PxHitFlag@physx@@G@4@M@Z@UEAA_NIPEAI@Z 000000018000e350 f   GuCCTSweepTests.obj
 0001:0000d640       ?sweepBoxVsTriangles@@YA_NIPEBVPxTriangle@physx@@AEBVBox@Gu@2@AEBVPxVec3@2@MAEAUPxSweepHit@2@V?$PxFlags@W4Enum@PxHitFlag@physx@@G@2@_NPEBI@Z 000000018000e640 f   GuCCTSweepTests.obj
 0001:00010794       $LN46                      0000000180011794     GuGeometryUnion.obj
 0001:00012980       ?loadMeshData@@YAPEAVTriangleMeshData@Gu@physx@@AEAVPxInputStream@3@@Z 0000000180013980 f   GuMeshFactory.obj
 0001:00015d40       ?getBinaryMetaData@ShadowConvexMeshGeometry@?1??0GeometryUnion@Gu@physx@@SAXAEAVPxOutputStream@4@@Z@SAX0@Z 0000000180016d40 f   GuMetaData.obj
 0001:00015fb0       ?getBinaryMetaData@ShadowHeightFieldGeometry@?1??0GeometryUnion@Gu@physx@@SAXAEAVPxOutputStream@4@@Z@SAX0@Z 0000000180016fb0 f   GuMetaData.obj
 0001:00016250       ?getBinaryMetaData@ShadowTriangleMeshGeometry@?1??0GeometryUnion@Gu@physx@@SAXAEAVPxOutputStream@4@@Z@SAX0@Z 0000000180017250 f   GuMetaData.obj
 0001:00016d20       ?getBinaryMetaData_BVDataPackedQ@@YAXAEAVPxOutputStream@physx@@@Z 0000000180017d20 f   GuMetaData.obj
 0001:00016fa0       ?getBinaryMetaData_BigConvexRawData@@YAXAEAVPxOutputStream@physx@@@Z 0000000180017fa0 f   GuMetaData.obj
 0001:000171d0       ?getBinaryMetaData_ConvexHullData@@YAXAEAVPxOutputStream@physx@@@Z 00000001800181d0 f   GuMetaData.obj
 0001:00017440       ?getBinaryMetaData_HeightFieldData@@YAXAEAVPxOutputStream@physx@@@Z 0000000180018440 f   GuMetaData.obj
 0001:00017770       ?getBinaryMetaData_RTreePage@@YAXAEAVPxOutputStream@physx@@@Z 0000000180018770 f   GuMetaData.obj
 0001:00018100       ?GeomMTDCallback_NotSupported@@YA_NAEAVPxVec3@physx@@AEAMAEBVPxGeometry@2@AEBVPxTransform@2@23@Z 0000000180019100 f   GuMTD.obj
 0001:00018100       ?GeomOverlapCallback_NotSupported@@YA_NAEBVPxGeometry@physx@@AEBVPxTransform@2@01PEAUTriggerCache@Gu@2@@Z 0000000180019100 f   GuOverlapTests.obj
 0001:00018110       ?GeomMTDCallback_SphereSphere@@YA_NAEAVPxVec3@physx@@AEAMAEBVPxGeometry@2@AEBVPxTransform@2@23@Z 0000000180019110 f   GuMTD.obj
 0001:000181f0       ?GeomMTDCallback_SpherePlane@@YA_NAEAVPxVec3@physx@@AEAMAEBVPxGeometry@2@AEBVPxTransform@2@23@Z 00000001800191f0 f   GuMTD.obj
 0001:000182c0       ?GeomMTDCallback_SphereCapsule@@YA_NAEAVPxVec3@physx@@AEAMAEBVPxGeometry@2@AEBVPxTransform@2@23@Z 00000001800192c0 f   GuMTD.obj
 0001:00018400       ?GeomMTDCallback_SphereBox@@YA_NAEAVPxVec3@physx@@AEAMAEBVPxGeometry@2@AEBVPxTransform@2@23@Z 0000000180019400 f   GuMTD.obj
 0001:00018530       ?GeomMTDCallback_SphereConvex@@YA_NAEAVPxVec3@physx@@AEAMAEBVPxGeometry@2@AEBVPxTransform@2@23@Z 0000000180019530 f   GuMTD.obj
 0001:00018590       ?GeomMTDCallback_SphereMesh@@YA_NAEAVPxVec3@physx@@AEAMAEBVPxGeometry@2@AEBVPxTransform@2@23@Z 0000000180019590 f   GuMTD.obj
 0001:00018700       ?GeomMTDCallback_PlaneCapsule@@YA_NAEAVPxVec3@physx@@AEAMAEBVPxGeometry@2@AEBVPxTransform@2@23@Z 0000000180019700 f   GuMTD.obj
 0001:000188e0       ?GeomMTDCallback_PlaneBox@@YA_NAEAVPxVec3@physx@@AEAMAEBVPxGeometry@2@AEBVPxTransform@2@23@Z 00000001800198e0 f   GuMTD.obj
 0001:00018a00       ?GeomMTDCallback_PlaneConvex@@YA_NAEAVPxVec3@physx@@AEAMAEBVPxGeometry@2@AEBVPxTransform@2@23@Z 0000000180019a00 f   GuMTD.obj
 0001:00018a50       ?GeomMTDCallback_CapsuleCapsule@@YA_NAEAVPxVec3@physx@@AEAMAEBVPxGeometry@2@AEBVPxTransform@2@23@Z 0000000180019a50 f   GuMTD.obj
 0001:00018c30       ?GeomMTDCallback_CapsuleBox@@YA_NAEAVPxVec3@physx@@AEAMAEBVPxGeometry@2@AEBVPxTransform@2@23@Z 0000000180019c30 f   GuMTD.obj
 0001:00018e10       ?GeomMTDCallback_CapsuleConvex@@YA_NAEAVPxVec3@physx@@AEAMAEBVPxGeometry@2@AEBVPxTransform@2@23@Z 0000000180019e10 f   GuMTD.obj
 0001:00018f20       ?GeomMTDCallback_CapsuleMesh@@YA_NAEAVPxVec3@physx@@AEAMAEBVPxGeometry@2@AEBVPxTransform@2@23@Z 0000000180019f20 f   GuMTD.obj
 0001:00019130       ?GeomMTDCallback_BoxBox@@YA_NAEAVPxVec3@physx@@AEAMAEBVPxGeometry@2@AEBVPxTransform@2@23@Z 000000018001a130 f   GuMTD.obj
 0001:00019310       ?GeomMTDCallback_BoxConvex@@YA_NAEAVPxVec3@physx@@AEAMAEBVPxGeometry@2@AEBVPxTransform@2@23@Z 000000018001a310 f   GuMTD.obj
 0001:00019410       ?GeomMTDCallback_BoxMesh@@YA_NAEAVPxVec3@physx@@AEAMAEBVPxGeometry@2@AEBVPxTransform@2@23@Z 000000018001a410 f   GuMTD.obj
 0001:00019680       ?GeomMTDCallback_ConvexConvex@@YA_NAEAVPxVec3@physx@@AEAMAEBVPxGeometry@2@AEBVPxTransform@2@23@Z 000000018001a680 f   GuMTD.obj
 0001:00019690       ?GeomMTDCallback_ConvexMesh@@YA_NAEAVPxVec3@physx@@AEAMAEBVPxGeometry@2@AEBVPxTransform@2@23@Z 000000018001a690 f   GuMTD.obj
 0001:000197a0       ?GeomMTDCallback_SphereHeightField@@YA_NAEAVPxVec3@physx@@AEAMAEBVPxGeometry@2@AEBVPxTransform@2@23@Z 000000018001a7a0 f   GuMTD.obj
 0001:00019910       ?GeomMTDCallback_CapsuleHeightField@@YA_NAEAVPxVec3@physx@@AEAMAEBVPxGeometry@2@AEBVPxTransform@2@23@Z 000000018001a910 f   GuMTD.obj
 0001:00019b20       ?GeomMTDCallback_BoxHeightField@@YA_NAEAVPxVec3@physx@@AEAMAEBVPxGeometry@2@AEBVPxTransform@2@23@Z 000000018001ab20 f   GuMTD.obj
 0001:00019d90       ?GeomMTDCallback_ConvexHeightField@@YA_NAEAVPxVec3@physx@@AEAMAEBVPxGeometry@2@AEBVPxTransform@2@23@Z 000000018001ad90 f   GuMTD.obj
 0001:0001b470       ?PxcCapsuleOBBOverlap3@@YA_NAEBVSegment@Gu@physx@@MAEBVBox@23@PEAMPEAVPxVec3@3@@Z 000000018001c470 f   GuMTD.obj
