 PhysXCooking_64

 Timestamp is 6408692e (Wed Mar  8 11:53:34 2023)

 Preferred load address is 0000000180000000

 Start         Length     Name                   Class
 0001:00000000 00000ba0H .text$di                CODE
 0001:00000ba0 001035a0H .text$mn                CODE
 0001:00104140 00000040H .text$mn$00             CODE
 0001:00104180 00000fddH .text$x                 CODE
 0002:00000000 00000300H .idata$5                DATA
 0002:00000300 00000028H .00cfg                  DATA
 0002:00000328 00000008H .CRT$XCA                DATA
 0002:00000330 000001f0H .CRT$XCU                DATA
 0002:00000520 00000008H .CRT$XCZ                DATA
 0002:00000528 00000008H .CRT$XIA                DATA
 0002:00000530 00000018H .CRT$XIC                DATA
 0002:00000548 00000008H .CRT$XIZ                DATA
 0002:00000550 00000008H .CRT$XPA                DATA
 0002:00000558 00000010H .CRT$XPX                DATA
 0002:00000568 00000008H .CRT$XPXA               DATA
 0002:00000570 00000008H .CRT$XPZ                DATA
 0002:00000578 00000008H .CRT$XTA                DATA
 0002:00000580 00000010H .CRT$XTZ                DATA
 0002:00000588 00000000H .gehcont$y              DATA
 0002:00000588 00000000H .gfids$y                DATA
 0002:00000590 000283f0H .rdata                  DATA
 0002:00028980 00000008H .rdata$CastGuardVftablesA DATA
 0002:00028988 00000008H .rdata$CastGuardVftablesC DATA
 0002:00028990 00000464H .rdata$r                DATA
 0002:00028df4 00000024H .rdata$voltmd           DATA
 0002:00028e18 000004a8H .rdata$zzzdbg           DATA
 0002:000292c0 00000008H .rtc$IAA                DATA
 0002:000292c8 000000a0H .rtc$IMZ                DATA
 0002:00029368 00000008H .rtc$IZZ                DATA
 0002:00029370 00000008H .rtc$TAA                DATA
 0002:00029378 000000a0H .rtc$TMZ                DATA
 0002:00029418 00000008H .rtc$TZZ                DATA
 0002:00029420 00009250H .xdata                  DATA
 0002:00032670 00000084H .xdata$x                DATA
 0002:000326f4 00000040H .didat$2                DATA
 0002:00032734 00000024H .didat$3                DATA
 0002:00032758 000001d0H .didat$4                DATA
 0002:00032928 00000b30H .didat$6                DATA
 0002:00033458 000001d8H .didat$7                DATA
 0002:00033630 00001d34H .edata                  DATA
 0002:00035364 00000014H .idata$2                DATA
 0002:00035378 00000018H .idata$3                DATA
 0002:00035390 00000300H .idata$4                DATA
 0002:00035690 000006eeH .idata$6                DATA
 0003:00000000 00000af0H .data                   DATA
 0003:00000af0 00000380H .data$r                 DATA
 0003:00000e70 000000f0H .data$rs                DATA
 0003:00000f60 000001d0H .didat$5                DATA
 0003:00001130 000020c8H .bss                    DATA
 0004:00000000 0000b9d0H .pdata                  DATA
 0005:00000000 000000fcH _RDATA                  DATA
 0006:00000000 000000a0H .rsrc$01                DATA
 0006:000000a0 000004b0H .rsrc$02                DATA

  Address         Publics by Value              Rva+Base               Lib:Object

 0000:00000000       __guard_check_icall_a64n_fptr 0000000000000000     <absolute>
 0000:00000000       __guard_longjmp_table      0000000000000000     <absolute>
 0000:00000000       __guard_eh_cont_table      0000000000000000     <absolute>
 0000:00000000       __hybrid_code_map          0000000000000000     <absolute>
 0000:00000000       __arm64x_extra_rfe_table_size 0000000000000000     <absolute>
 0000:00000000       __arm64x_extra_rfe_table   0000000000000000     <absolute>
 0000:00000000       __arm64x_redirection_metadata 0000000000000000     <absolute>
 0000:00000000       __arm64x_native_entrypoint 0000000000000000     <absolute>
 0000:00000000       ___safe_se_handler_count   0000000000000000     <absolute>
 0000:00000000       __guard_iat_table          0000000000000000     <absolute>
 0000:00000000       __x64_code_ranges_to_entry_points_count 0000000000000000     <absolute>
 0000:00000000       __dynamic_value_reloc_table 0000000000000000     <absolute>
 0000:00000000       __guard_longjmp_count      0000000000000000     <absolute>
 0000:00000000       __x64_code_ranges_to_entry_points 0000000000000000     <absolute>
 0000:00000000       __guard_fids_table         0000000000000000     <absolute>
 0000:00000000       __enclave_config           0000000000000000     <absolute>
 0000:00000000       __guard_iat_count          0000000000000000     <absolute>
 0000:00000000       ___safe_se_handler_table   0000000000000000     <absolute>
 0000:00000000       __guard_eh_cont_count      0000000000000000     <absolute>
 0000:00000000       __guard_fids_count         0000000000000000     <absolute>
 0000:00000000       __hybrid_code_map_count    0000000000000000     <absolute>
 0000:00000000       __AbsoluteZero             0000000000000000     <absolute>
 0000:00000000       __arm64x_redirection_metadata_count 0000000000000000     <absolute>
 0000:00000000       __hybrid_auxiliary_iat_copy 0000000000000000     <absolute>
 0000:00000000       __hybrid_auxiliary_iat     0000000000000000     <absolute>
 0000:00000100       __guard_flags              0000000000000100     <absolute>
 0000:00000000       __ImageBase                0000000180000000     <linker-defined>
 0001:00000ba0       ?ComputeNbBoundaryEdges@AdjTriangle@physx@@QEBAIXZ 0000000180001ba0 f   Adjacencies.obj
 0001:00000c30       ?ComputeNbNeighbors@AdjTriangle@physx@@QEBAIXZ 0000000180001c30 f   Adjacencies.obj
 0001:00000cc0       ?HasNeighbor@AdjTriangle@physx@@QEBA_NIPEAI@Z 0000000180001cc0 f   Adjacencies.obj
 0001:00000dd0       ?Flip@AdjTriangle@physx@@QEAAXXZ 0000000180001dd0 f   Adjacencies.obj
 0001:00000e20       ??0Adjacencies@physx@@QEAA@XZ 0000000180001e20 f   Adjacencies.obj
 0001:00000e50       ??1Adjacencies@physx@@QEAA@XZ 0000000180001e50 f   Adjacencies.obj
 0001:00000eb0       ?Load@Adjacencies@physx@@QEAA_NAEAVPxInputStream@2@@Z 0000000180001eb0 f   Adjacencies.obj
 0001:00001040       ?ComputeNbBoundaryEdges@Adjacencies@physx@@QEBAIXZ 0000000180002040 f   Adjacencies.obj
 0001:000010c0       ?GetBoundaryVertices@Adjacencies@physx@@QEBA_NIPEA_NPEBU?$TriangleT@I@Gu@2@@Z 00000001800020c0 f   Adjacencies.obj
 0001:000013d0       ?MakeLastRef@Adjacencies@physx@@QEAA_NAEAVAdjTriangle@2@IPEAU?$TriangleT@I@Gu@2@@Z 00000001800023d0 f   Adjacencies.obj
 0001:00001730       ?AssignNewEdgeCode@Adjacencies@physx@@AEAAXIE@Z 0000000180002730 f   Adjacencies.obj
 0001:000017d0       ??0AdjacenciesBuilder@physx@@QEAA@XZ 00000001800027d0 f   Adjacencies.obj
 0001:00001800       ??1AdjacenciesBuilder@physx@@QEAA@XZ 0000000180002800 f   Adjacencies.obj
 0001:00001820       ?Init@AdjacenciesBuilder@physx@@QEAA_NAEBUADJACENCIESCREATE@2@@Z 0000000180002820 f   Adjacencies.obj
 0001:00002b10       ??$?_UI@@YAPEAX_KV?$ReflectionAllocator@I@shdfnd@physx@@PEBDH@Z 0000000180003b10 f i Adjacencies.obj
 0001:00002b50       ??$?_UV?$ReflectionAllocator@VAdjEdge@@@shdfnd@physx@@@UserAllocated@shdfnd@physx@@SAPEAX_KV?$ReflectionAllocator@VAdjEdge@@@12@PEBDH@Z 0000000180003b50 f i Adjacencies.obj
 0001:00002b90       ??$?_UV?$ReflectionAllocator@VAdjTriangle@physx@@@shdfnd@physx@@@UserAllocated@shdfnd@physx@@SAPEAX_KV?$ReflectionAllocator@VAdjTriangle@physx@@@12@PEBDH@Z 0000000180003b90 f i Adjacencies.obj
 0001:00002bd0       ??$swap@I@shdfnd@physx@@YAXAEAI0@Z 0000000180003bd0 f i Adjacencies.obj
 0001:00002c10       ??0?$ReflectionAllocator@I@shdfnd@physx@@QEAA@PEBD@Z 0000000180003c10 f i Adjacencies.obj
 0001:00002c20       ??0?$ReflectionAllocator@VAdjEdge@@@shdfnd@physx@@QEAA@PEBD@Z 0000000180003c20 f i Adjacencies.obj
 0001:00002c30       ??0?$ReflectionAllocator@VAdjTriangle@physx@@@shdfnd@physx@@QEAA@PEBD@Z 0000000180003c30 f i Adjacencies.obj
 0001:00002c40       ??0?$TriangleT@I@Gu@physx@@QEAA@XZ 0000000180003c40 f i Adjacencies.obj
 0001:00002c50       ??0AdjEdge@@QEAA@XZ        0000000180003c50 f i Adjacencies.obj
 0001:00002c60       ??0AdjTriangle@physx@@QEAA@XZ 0000000180003c60 f i Adjacencies.obj
 0001:00002c70       ??0Allocator@shdfnd@physx@@QEAA@PEBD@Z 0000000180003c70 f i Adjacencies.obj
 0001:00002c80       ??0EDGELISTCREATE@Gu@physx@@QEAA@XZ 0000000180003c80 f i Adjacencies.obj
 0001:00002cf0       ??0NonTrackingAllocator@shdfnd@physx@@QEAA@PEBD@Z 0000000180003cf0 f i Adjacencies.obj
 0001:00002d00       ??0PxFoundation@physx@@QEAA@AEBV01@@Z 0000000180003d00 f i Adjacencies.obj
 0001:00002d20       ??0PxFoundation@physx@@QEAA@XZ 0000000180003d20 f i Adjacencies.obj
 0001:00002d40       ??1AdjEdge@@QEAA@XZ        0000000180003d40 f i Adjacencies.obj
 0001:00002d50       ??1AdjTriangle@physx@@QEAA@XZ 0000000180003d50 f i Adjacencies.obj
 0001:00002d60       ??1PxFoundation@physx@@MEAA@XZ 0000000180003d60 f i Adjacencies.obj
 0001:00002d80       ??3UserAllocated@shdfnd@physx@@SAXPEAX@Z 0000000180003d80 f i Adjacencies.obj
 0001:00002db0       ??4Allocator@shdfnd@physx@@QEAAAEAV012@$$QEAV012@@Z 0000000180003db0 f i Adjacencies.obj
 0001:00002dc0       ??4Allocator@shdfnd@physx@@QEAAAEAV012@AEBV012@@Z 0000000180003dc0 f i Adjacencies.obj
 0001:00002dd0       ??4MutexImpl@shdfnd@physx@@QEAAAEAV012@AEBV012@@Z 0000000180003dd0 f i Adjacencies.obj
 0001:00002de0       ??4PxFoundation@physx@@QEAAAEAV01@AEBV01@@Z 0000000180003de0 f i Adjacencies.obj
 0001:00002df0       ??_EAdjEdge@@QEAAPEAXI@Z   0000000180003df0 f i Adjacencies.obj
 0001:00002ed0       ??_EAdjTriangle@physx@@QEAAPEAXI@Z 0000000180003ed0 f i Adjacencies.obj
 0001:00002fb0       ??_EPxFoundation@physx@@MEAAPEAXI@Z 0000000180003fb0 f i Adjacencies.obj
 0001:00003050       ??_FAllocator@shdfnd@physx@@QEAAXXZ 0000000180004050 f i Adjacencies.obj
 0001:00003070       ??_FNamedAllocator@shdfnd@physx@@QEAAXXZ 0000000180004070 f i Adjacencies.obj
 0001:00003090       ??_GPxFoundation@physx@@MEAAPEAXI@Z 0000000180004090 f i Adjacencies.obj
 0001:000030d0       ??_H@YAXPEAX_K1P6APEAX0@Z@Z 00000001800040d0 f i Adjacencies.obj
 0001:00003150       ??_I@YAXPEAX_K1P6AX0@Z@Z   0000000180004150 f i Adjacencies.obj
 0001:000031e0       ??_VUserAllocated@shdfnd@physx@@SAXPEAX@Z 00000001800041e0 f i Adjacencies.obj
 0001:00003210       ?GetNbHits@RadixSort@Cm@physx@@QEBAIXZ 0000000180004210 f i Adjacencies.obj
 0001:00003220       ?GetNbTotalCalls@RadixSort@Cm@physx@@QEBAIXZ 0000000180004220 f i Adjacencies.obj
 0001:00003230       ?GetRanks@RadixSort@Cm@physx@@QEBAPEBIXZ 0000000180004230 f i Adjacencies.obj
 0001:00003240       ?GetRecyclable@RadixSort@Cm@physx@@QEBAPEAIXZ 0000000180004240 f i Adjacencies.obj
 0001:00003250       ?HasActiveEdge01@AdjTriangle@physx@@QEBAHXZ 0000000180004250 f i Adjacencies.obj
 0001:00003270       ?HasActiveEdge01@EdgeTriangleAC@Gu@physx@@SAHAEBUEdgeTriangleData@23@@Z 0000000180004270 f i Adjacencies.obj
 0001:00003290       ?HasActiveEdge12@AdjTriangle@physx@@QEBAHXZ 0000000180004290 f i Adjacencies.obj
 0001:000032b0       ?HasActiveEdge12@EdgeTriangleAC@Gu@physx@@SAHAEBUEdgeTriangleData@23@@Z 00000001800042b0 f i Adjacencies.obj
 0001:000032d0       ?HasActiveEdge20@AdjTriangle@physx@@QEBAHXZ 00000001800042d0 f i Adjacencies.obj
 0001:000032f0       ?HasActiveEdge20@EdgeTriangleAC@Gu@physx@@SAHAEBUEdgeTriangleData@23@@Z 00000001800042f0 f i Adjacencies.obj
 0001:00003310       ?PxMemZero@physx@@YAPEAXPEAXI@Z 0000000180004310 f i Adjacencies.obj
 0001:00003330       ?__empty_global_delete@@YAXPEAX@Z 0000000180004330 f i Adjacencies.obj
 0001:00003340       ?__empty_global_delete@@YAXPEAX_K@Z 0000000180004340 f i Adjacencies.obj
 0001:00003350       ?allocate@?$ReflectionAllocator@I@shdfnd@physx@@QEAAPEAX_KPEBDH@Z 0000000180004350 f i Adjacencies.obj
 0001:000033d0       ?allocate@?$ReflectionAllocator@VAdjEdge@@@shdfnd@physx@@QEAAPEAX_KPEBDH@Z 00000001800043d0 f i Adjacencies.obj
 0001:00003450       ?allocate@?$ReflectionAllocator@VAdjTriangle@physx@@@shdfnd@physx@@QEAAPEAX_KPEBDH@Z 0000000180004450 f i Adjacencies.obj
 0001:000034d0       ?deallocate@NonTrackingAllocator@shdfnd@physx@@QEAAXPEAX@Z 00000001800044d0 f i Adjacencies.obj
 0001:00003510       ?findEdge@?$TriangleT@I@Gu@physx@@QEBAEII@Z 0000000180004510 f i Adjacencies.obj
 0001:00003670       ?getAllocator@Foundation@shdfnd@physx@@QEAAAEAVPxAllocatorCallback@3@XZ 0000000180004670 f i Adjacencies.obj
 0001:00003680       ?getAllocatorCallback@Foundation@shdfnd@physx@@UEAAAEAVPxAllocatorCallback@3@XZ 0000000180004680 f i Adjacencies.obj
 0001:00003690       ?getEdgeTriangle@EdgeList@Gu@physx@@QEBAAEBUEdgeTriangleData@23@I@Z 0000000180004690 f i Adjacencies.obj
 0001:000036b0       ?getErrorCallback@Foundation@shdfnd@physx@@UEAAAEAVPxErrorCallback@3@XZ 00000001800046b0 f i Adjacencies.obj
 0001:000036c0       ?getErrorLevel@Foundation@shdfnd@physx@@UEBA?AW4Enum@PxErrorCode@3@XZ 00000001800046c0 f i Adjacencies.obj
 0001:000036e0       ?getFoundation@shdfnd@physx@@YAAEAVFoundation@12@XZ 00000001800046e0 f i Adjacencies.obj
 0001:000036f0       ?getInternalErrorCallback@Foundation@shdfnd@physx@@QEAAAEAVPxErrorCallback@3@XZ 00000001800046f0 f i Adjacencies.obj
 0001:00003710       ?getName@?$ReflectionAllocator@I@shdfnd@physx@@CAPEBDXZ 0000000180004710 f i Adjacencies.obj
 0001:00003750       ?getName@?$ReflectionAllocator@VAdjEdge@@@shdfnd@physx@@CAPEBDXZ 0000000180004750 f i Adjacencies.obj
 0001:00003790       ?getName@?$ReflectionAllocator@VAdjTriangle@physx@@@shdfnd@physx@@CAPEBDXZ 0000000180004790 f i Adjacencies.obj
 0001:000037d0       ?getNamedAllocMap@Foundation@shdfnd@physx@@QEAAAEAV?$HashMap@PEBVNamedAllocator@shdfnd@physx@@PEBDU?$Hash@PEBVNamedAllocator@shdfnd@physx@@@23@VNonTrackingAllocator@23@@23@XZ 00000001800047d0 f i Adjacencies.obj
 0001:000037f0       ?getNamedAllocMutex@Foundation@shdfnd@physx@@QEAAAEAV?$MutexT@VAllocator@shdfnd@physx@@@23@XZ 00000001800047f0 f i Adjacencies.obj
 0001:00003810       ?getReportAllocationNames@Foundation@shdfnd@physx@@UEBA_NXZ 0000000180004810 f i Adjacencies.obj
 0001:00003830       ?getTempAllocFreeTable@Foundation@shdfnd@physx@@QEAAAEAV?$Array@PEATTempAllocatorChunk@shdfnd@physx@@VAllocator@23@@23@XZ 0000000180004830 f i Adjacencies.obj
 0001:00003850       ?getTempAllocMutex@Foundation@shdfnd@physx@@QEAAAEAV?$MutexT@VAllocator@shdfnd@physx@@@23@XZ 0000000180004850 f i Adjacencies.obj
 0001:00003870       ?invalidateRanks@RadixSort@Cm@physx@@QEAAXXZ 0000000180004870 f i Adjacencies.obj
 0001:00003890       ?memZero@intrinsics@physx@@YAPEAXPEAXI@Z 0000000180004890 f i Adjacencies.obj
 0001:000038c0       ?name@type_info@@QEBAPEBDXZ 00000001800048c0 f i Adjacencies.obj
 0001:000038f0       ?setErrorLevel@Foundation@shdfnd@physx@@UEAAXW4Enum@PxErrorCode@3@@Z 00000001800048f0 f i Adjacencies.obj
 0001:00003910       ?setReportAllocationNames@Foundation@shdfnd@physx@@UEAAX_N@Z 0000000180004910 f i Adjacencies.obj
 0001:00003930       PxCreateCooking            0000000180004930 f   Cooking.obj
 0001:00003a20       ?release@Cooking@physx@@UEAAXXZ 0000000180004a20 f   Cooking.obj
 0001:00003a70       ?setParams@Cooking@physx@@UEAAXAEBUPxCookingParams@2@@Z 0000000180004a70 f   Cooking.obj
 0001:00003aa0       ?getParams@Cooking@physx@@UEBAAEBUPxCookingParams@2@XZ 0000000180004aa0 f   Cooking.obj
 0001:00003ac0       ?platformMismatch@Cooking@physx@@UEBA_NXZ 0000000180004ac0 f   Cooking.obj
 0001:00003b10       ?cookTriangleMesh@Cooking@physx@@UEBA_NAEBVPxTriangleMeshDesc@2@AEAVPxOutputStream@2@PEAW4Enum@PxTriangleMeshCookingResult@2@@Z 0000000180004b10 f   Cooking.obj
 0001:00003c20       ?createTriangleMesh@Cooking@physx@@UEBAPEAVPxTriangleMesh@2@AEBVPxTriangleMeshDesc@2@AEAVPxPhysicsInsertionCallback@2@PEAW4Enum@PxTriangleMeshCookingResult@2@@Z 0000000180004c20 f   Cooking.obj
 0001:00003d30       ?validateTriangleMesh@Cooking@physx@@UEBA_NAEBVPxTriangleMeshDesc@2@@Z 0000000180004d30 f   Cooking.obj
 0001:00003e00       ?cookConvexMesh@Cooking@physx@@UEBA_NAEBVPxConvexMeshDesc@2@AEAVPxOutputStream@2@PEAW4Enum@PxConvexMeshCookingResult@2@@Z 0000000180004e00 f   Cooking.obj
 0001:00004130       ?createConvexMesh@Cooking@physx@@UEBAPEAVPxConvexMesh@2@AEBVPxConvexMeshDesc@2@AEAVPxPhysicsInsertionCallback@2@PEAW4Enum@PxConvexMeshCookingResult@2@@Z 0000000180005130 f   Cooking.obj
 0001:000044b0       ?validateConvexMesh@Cooking@physx@@UEBA_NAEBVPxConvexMeshDesc@2@@Z 00000001800054b0 f   Cooking.obj
 0001:00004530       ?computeHullPolygons@Cooking@physx@@UEBA_NAEBVPxSimpleTriangleMesh@2@AEAVPxAllocatorCallback@2@AEAIAEAPEAVPxVec3@2@2AEAPEAI2AEAPEAUPxHullPolygon@2@@Z 0000000180005530 f   Cooking.obj
 0001:00004800       ?cookHeightField@Cooking@physx@@UEBA_NAEBVPxHeightFieldDesc@2@AEAVPxOutputStream@2@@Z 0000000180005800 f   Cooking.obj
 0001:00004960       ?createHeightField@Cooking@physx@@UEBAPEAVPxHeightField@2@AEBVPxHeightFieldDesc@2@AEAVPxPhysicsInsertionCallback@2@@Z 0000000180005960 f   Cooking.obj
 0001:00004c50       ?cookBVHStructure@Cooking@physx@@UEBA_NAEBVPxBVHStructureDesc@2@AEAVPxOutputStream@2@@Z 0000000180005c50 f   Cooking.obj
 0001:00004d70       ?createBVHStructure@Cooking@physx@@UEBAPEAVPxBVHStructure@2@AEBVPxBVHStructureDesc@2@AEAVPxPhysicsInsertionCallback@2@@Z 0000000180005d70 f   Cooking.obj
 0001:00004ea0       ?cookConvexMeshInternal@Cooking@physx@@AEBA_NAEBVPxConvexMeshDesc@2@AEAVConvexMeshBuilder@2@PEAVConvexHullLib@2@PEAW4Enum@PxConvexMeshCookingResult@2@@Z 0000000180005ea0 f   Cooking.obj
 0001:000051c0       ?cookTriangleMesh@Cooking@physx@@AEBA_NAEAVTriangleMeshBuilder@2@AEBVPxTriangleMeshDesc@2@AEAVPxOutputStream@2@PEAW4Enum@PxTriangleMeshCookingResult@2@@Z 00000001800061c0 f   Cooking.obj
 0001:000052a0       ?createTriangleMesh@Cooking@physx@@AEBAPEAVPxTriangleMesh@2@AEAVTriangleMeshBuilder@2@AEBVPxTriangleMeshDesc@2@AEAVPxPhysicsInsertionCallback@2@PEAW4Enum@PxTriangleMeshCookingResult@2@@Z 00000001800062a0 f   Cooking.obj
 0001:00005470       ??$?2V?$ReflectionAllocator@VCooking@physx@@@shdfnd@physx@@@UserAllocated@shdfnd@physx@@SAPEAX_KV?$ReflectionAllocator@VCooking@physx@@@12@PEBDH@Z 0000000180006470 f i Cooking.obj
 0001:000054b0       ??$?2V?$ReflectionAllocator@VQuickHullConvexHullLib@physx@@@shdfnd@physx@@@UserAllocated@shdfnd@physx@@SAPEAX_KV?$ReflectionAllocator@VQuickHullConvexHullLib@physx@@@12@PEBDH@Z 00000001800064b0 f i Cooking.obj
 0001:000054f0       ??$PX_UNUSED@VPxFoundation@physx@@@@YAXAEBVPxFoundation@physx@@@Z 00000001800064f0 f i Cooking.obj
 0001:00005500       ??$PX_UNUSED@W4PxIDENTITY@physx@@@@YAXAEBW4PxIDENTITY@physx@@@Z 0000000180006500 f i Cooking.obj
 0001:00005510       ??$PxMax@I@physx@@YAIII@Z  0000000180006510 f i Cooking.obj
 0001:00005540       ??$PxMin@G@physx@@YAGGG@Z  0000000180006540 f i Cooking.obj
 0001:00005580       ??0?$PxBitAndDataT@G$0IAAA@@physx@@QEAA@XZ 0000000180006580 f i Cooking.obj
 0001:000055a0       ??0?$PxFlags@W4Enum@PxBaseFlag@physx@@G@physx@@QEAA@AEBV01@@Z 00000001800065a0 f i Cooking.obj
 0001:000055c0       ??0?$PxFlags@W4Enum@PxConvexFlag@physx@@G@physx@@QEAA@AEBV01@@Z 00000001800065c0 f i Cooking.obj
 0001:000055e0       ??0?$PxFlags@W4Enum@PxConvexFlag@physx@@G@physx@@QEAA@W4Enum@PxConvexFlag@1@@Z 00000001800065e0 f i Cooking.obj
 0001:00005600       ??0?$PxFlags@W4Enum@PxConvexFlag@physx@@G@physx@@QEAA@XZ 0000000180006600 f i Cooking.obj
 0001:00005620       ??0?$PxFlags@W4Enum@PxHeightFieldFlag@physx@@G@physx@@QEAA@AEBV01@@Z 0000000180006620 f i Cooking.obj
 0001:00005640       ??0?$PxFlags@W4Enum@PxHeightFieldFlag@physx@@G@physx@@QEAA@W4PxEMPTY@1@@Z 0000000180006640 f i Cooking.obj
 0001:00005650       ??0?$PxFlags@W4Enum@PxHeightFieldFlag@physx@@G@physx@@QEAA@XZ 0000000180006650 f i Cooking.obj
 0001:00005670       ??0?$PxFlags@W4Enum@PxMeshFlag@physx@@G@physx@@QEAA@AEBV01@@Z 0000000180006670 f i Cooking.obj
 0001:00005690       ??0?$PxFlags@W4Enum@PxMeshPreprocessingFlag@physx@@I@physx@@QEAA@AEBV01@@Z 0000000180006690 f i Cooking.obj
 0001:000056b0       ??0?$ReflectionAllocator@VCooking@physx@@@shdfnd@physx@@QEAA@PEBD@Z 00000001800066b0 f i Cooking.obj
 0001:000056c0       ??0?$ReflectionAllocator@VHeightField@Gu@physx@@@shdfnd@physx@@QEAA@PEBD@Z 00000001800066c0 f i Cooking.obj
 0001:000056d0       ??0?$ReflectionAllocator@VQuickHullConvexHullLib@physx@@@shdfnd@physx@@QEAA@PEBD@Z 00000001800066d0 f i Cooking.obj
 0001:000056e0       ??0CenterExtents@Gu@physx@@QEAA@AEBV012@@Z 00000001800066e0 f i Cooking.obj
 0001:00005730       ??0CenterExtents@Gu@physx@@QEAA@XZ 0000000180006730 f i Cooking.obj
 0001:00005770       ??0ConvexHullData@Gu@physx@@QEAA@XZ 0000000180006770 f i Cooking.obj
 0001:000057c0       ??0ConvexHullInitData@Gu@physx@@QEAA@XZ 00000001800067c0 f i Cooking.obj
 0001:00005800       ??0Cooking@physx@@QEAA@AEBUPxCookingParams@1@@Z 0000000180006800 f i Cooking.obj
 0001:00005850       ??0DebugText@Cm@physx@@QEAA@$$QEAU012@@Z 0000000180006850 f i Cooking.obj
 0001:000058c0       ??0DebugText@Cm@physx@@QEAA@AEBU012@@Z 00000001800068c0 f i Cooking.obj
 0001:00005930       ??0HeightFieldData@Gu@physx@@QEAA@$$QEAU012@@Z 0000000180006930 f i Cooking.obj
 0001:00005a10       ??0HeightFieldData@Gu@physx@@QEAA@AEBU012@@Z 0000000180006a10 f i Cooking.obj
 0001:00005af0       ??0HeightFieldData@Gu@physx@@QEAA@W4PxEMPTY@2@@Z 0000000180006af0 f i Cooking.obj
 0001:00005b30       ??0HeightFieldData@Gu@physx@@QEAA@XZ 0000000180006b30 f i Cooking.obj
 0001:00005b70       ??0PxConvexMeshDesc@physx@@QEAA@AEBV01@@Z 0000000180006b70 f i Cooking.obj
 0001:00005c10       ??0PxCooking@physx@@QEAA@XZ 0000000180006c10 f i Cooking.obj
 0001:00005c30       ??0PxCookingParams@physx@@QEAA@AEBU01@@Z 0000000180006c30 f i Cooking.obj
 0001:00005d20       ??0PxDebugLine@physx@@QEAA@AEBU01@@Z 0000000180006d20 f i Cooking.obj
 0001:00005d90       ??0PxMat33@physx@@QEAA@XZ  0000000180006d90 f i Cooking.obj
 0001:00005de0       ??0PxMat44@physx@@QEAA@AEBV01@@Z 0000000180006de0 f i Cooking.obj
 0001:00005e60       ??0PxMat44@physx@@QEAA@W4PxIDENTITY@1@@Z 0000000180006e60 f i Cooking.obj
 0001:00005f20       ??0PxVec3@physx@@QEAA@AEBV01@@Z 0000000180006f20 f i Cooking.obj
 0001:00005f70       ??0PxVec3@physx@@QEAA@M@Z  0000000180006f70 f i Cooking.obj
 0001:00005fb0       ??0PxVec3@physx@@QEAA@MMM@Z 0000000180006fb0 f i Cooking.obj
 0001:00006000       ??0PxVec3@physx@@QEAA@XZ   0000000180007000 f i Cooking.obj
 0001:00006010       ??0PxVec4@physx@@QEAA@AEBV01@@Z 0000000180007010 f i Cooking.obj
 0001:00006070       ??0PxVec4@physx@@QEAA@MMMM@Z 0000000180007070 f i Cooking.obj
 0001:000060d0       ??0RenderOutput@Cm@physx@@QEAA@AEAVRenderBuffer@12@@Z 00000001800070d0 f i Cooking.obj
 0001:00006160       ??0RenderOutput@Cm@physx@@QEAA@AEBV012@@Z 0000000180007160 f i Cooking.obj
 0001:00006210       ??1CenterExtents@Gu@physx@@QEAA@XZ 0000000180007210 f i Cooking.obj
 0001:00006220       ??1ConvexHullData@Gu@physx@@QEAA@XZ 0000000180007220 f i Cooking.obj
 0001:00006240       ??1ConvexHullInitData@Gu@physx@@QEAA@XZ 0000000180007240 f i Cooking.obj
 0001:00006260       ??1Cooking@physx@@UEAA@XZ  0000000180007260 f i Cooking.obj
 0001:00006280       ??1HeightFieldData@Gu@physx@@QEAA@XZ 0000000180007280 f i Cooking.obj
 0001:000062a0       ??1PxBase@physx@@MEAA@XZ   00000001800072a0 f i Cooking.obj
 0001:000062c0       ??1PxConvexMesh@physx@@MEAA@XZ 00000001800072c0 f i Cooking.obj
 0001:000062f0       ??1PxCooking@physx@@MEAA@XZ 00000001800072f0 f i Cooking.obj
 0001:00006310       ??1PxHeightField@physx@@MEAA@XZ 0000000180007310 f i Cooking.obj
 0001:00006340       ??2@YAPEAX_KPEAX@Z         0000000180007340 f i Cooking.obj
 0001:00006350       ??2UserAllocated@shdfnd@physx@@SAPEAX_KPEAX@Z 0000000180007350 f i Cooking.obj
 0001:00006360       ??4?$PxFlags@W4Enum@PxHeightFieldFlag@physx@@G@physx@@QEAAAEAV01@AEBV01@@Z 0000000180007360 f i Cooking.obj
 0001:00006380       ??4?$PxFlags@W4Enum@PxMeshPreprocessingFlag@physx@@I@physx@@QEAAAEAV01@AEBV01@@Z 0000000180007380 f i Cooking.obj
 0001:000063a0       ??4CenterExtents@Gu@physx@@QEAAAEAV012@AEBV012@@Z 00000001800073a0 f i Cooking.obj
 0001:000063f0       ??4DebugText@Cm@physx@@QEAAAEAU012@$$QEAU012@@Z 00000001800073f0 f i Cooking.obj
 0001:00006490       ??4DebugText@Cm@physx@@QEAAAEAU012@AEBU012@@Z 0000000180007490 f i Cooking.obj
 0001:00006530       ??4FPUGuard@shdfnd@physx@@QEAAAEAV012@AEBV012@@Z 0000000180007530 f i Cooking.obj
 0001:00006560       ??4HeightFieldData@Gu@physx@@QEAAAEAU012@$$QEAU012@@Z 0000000180007560 f i Cooking.obj
 0001:00006640       ??4HeightFieldData@Gu@physx@@QEAAAEAU012@AEBU012@@Z 0000000180007640 f i Cooking.obj
 0001:00006720       ??4PxCookingParams@physx@@QEAAAEAU01@AEBU01@@Z 0000000180007720 f i Cooking.obj
 0001:00006810       ??4PxVec3@physx@@QEAAAEAV01@AEBV01@@Z 0000000180007810 f i Cooking.obj
 0001:00006860       ??9?$PxFlags@W4Enum@PxHeightFieldFlag@physx@@G@physx@@QEBA_NAEBV01@@Z 0000000180007860 f i Cooking.obj
 0001:000068a0       ??B?$PxBitAndDataT@E$0IA@@physx@@QEBAEXZ 00000001800078a0 f i Cooking.obj
 0001:000068c0       ??B?$PxBitAndDataT@G$0IAAA@@physx@@QEBAGXZ 00000001800078c0 f i Cooking.obj
 0001:000068e0       ??B?$PxFlags@W4Enum@PxBaseFlag@physx@@G@physx@@QEBA_NXZ 00000001800078e0 f i Cooking.obj
 0001:00006910       ??B?$PxFlags@W4Enum@PxConvexFlag@physx@@G@physx@@QEBA_NXZ 0000000180007910 f i Cooking.obj
 0001:00006940       ??B?$PxFlags@W4Enum@PxMeshFlag@physx@@G@physx@@QEBA_NXZ 0000000180007940 f i Cooking.obj
 0001:00006970       ??B?$PxFlags@W4Enum@PxMeshPreprocessingFlag@physx@@I@physx@@QEBA_NXZ 0000000180007970 f i Cooking.obj
 0001:000069a0       ??I?$PxFlags@W4Enum@PxBaseFlag@physx@@G@physx@@QEBA?AV01@W4Enum@PxBaseFlag@1@@Z 00000001800079a0 f i Cooking.obj
 0001:000069f0       ??I?$PxFlags@W4Enum@PxConvexFlag@physx@@G@physx@@QEBA?AV01@W4Enum@PxConvexFlag@1@@Z 00000001800079f0 f i Cooking.obj
 0001:00006a40       ??I?$PxFlags@W4Enum@PxHeightFieldFlag@physx@@G@physx@@QEBA?AV01@W4Enum@PxHeightFieldFlag@1@@Z 0000000180007a40 f i Cooking.obj
 0001:00006a90       ??I?$PxFlags@W4Enum@PxMeshFlag@physx@@G@physx@@QEBA?AV01@W4Enum@PxMeshFlag@1@@Z 0000000180007a90 f i Cooking.obj
 0001:00006ae0       ??I?$PxFlags@W4Enum@PxMeshPreprocessingFlag@physx@@I@physx@@QEBA?AV01@W4Enum@PxMeshPreprocessingFlag@1@@Z 0000000180007ae0 f i Cooking.obj
 0001:00006b30       ??S?$PxFlags@W4Enum@PxConvexFlag@physx@@G@physx@@QEBA?AV01@XZ 0000000180007b30 f i Cooking.obj
 0001:00006b70       ??Sphysx@@YA?AV?$PxFlags@W4Enum@PxConvexFlag@physx@@G@0@W4Enum@PxConvexFlag@0@@Z 0000000180007b70 f i Cooking.obj
 0001:00006bb0       ??_4?$PxFlags@W4Enum@PxConvexFlag@physx@@G@physx@@QEAAAEAV01@AEBV01@@Z 0000000180007bb0 f i Cooking.obj
 0001:00006be0       ??_EPxConvexMesh@physx@@MEAAPEAXI@Z 0000000180007be0 f i Cooking.obj
 0001:00006c80       ??_EPxHeightField@physx@@MEAAPEAXI@Z 0000000180007c80 f i Cooking.obj
 0001:00006d20       ??_GCooking@physx@@UEAAPEAXI@Z 0000000180007d20 f i Cooking.obj
 0001:00006d20       ??_ECooking@physx@@UEAAPEAXI@Z 0000000180007d20 f i Cooking.obj
 0001:00006d80       ??_GPxBase@physx@@MEAAPEAXI@Z 0000000180007d80 f i Cooking.obj
 0001:00006d80       ??_EPxBase@physx@@MEAAPEAXI@Z 0000000180007d80 f i Cooking.obj
 0001:00006dc0       ??_EPxCooking@physx@@MEAAPEAXI@Z 0000000180007dc0 f i Cooking.obj
 0001:00006dc0       ??_GPxCooking@physx@@MEAAPEAXI@Z 0000000180007dc0 f i Cooking.obj
 0001:00006e00       ?FLoad@aos@shdfnd@physx@@YA?AT__m128@@M@Z 0000000180007e00 f i Cooking.obj
 0001:00006e30       ?PxMemCopy@physx@@YAPEAXPEAXPEBXI@Z 0000000180007e30 f i Cooking.obj
 0001:00006e60       ?V3Load@aos@shdfnd@physx@@YA?AT__m128@@M@Z 0000000180007e60 f i Cooking.obj
 0001:00006ea0       ?V4Load@aos@shdfnd@physx@@YA?AT__m128@@M@Z 0000000180007ea0 f i Cooking.obj
 0001:00006ed0       ?allocate@?$Array@UPxDebugLine@physx@@VNamedAllocator@shdfnd@2@@shdfnd@physx@@IEAAPEAUPxDebugLine@3@I@Z 0000000180007ed0 f i Cooking.obj
 0001:00006f60       ?allocate@?$ReflectionAllocator@VCooking@physx@@@shdfnd@physx@@QEAAPEAX_KPEBDH@Z 0000000180007f60 f i Cooking.obj
 0001:00006fe0       ?allocate@?$ReflectionAllocator@VHeightField@Gu@physx@@@shdfnd@physx@@QEAAPEAX_KPEBDH@Z 0000000180007fe0 f i Cooking.obj
 0001:00007060       ?allocate@?$ReflectionAllocator@VQuickHullConvexHullLib@physx@@@shdfnd@physx@@QEAAPEAX_KPEBDH@Z 0000000180008060 f i Cooking.obj
 0001:000070e0       ?capacity@?$Array@UPxDebugLine@physx@@VNamedAllocator@shdfnd@2@@shdfnd@physx@@QEBAIXZ 00000001800080e0 f i Cooking.obj
 0001:00007100       ?copy@?$Array@UPxDebugLine@physx@@VNamedAllocator@shdfnd@2@@shdfnd@physx@@KAXPEAUPxDebugLine@3@0PEBU43@@Z 0000000180008100 f i Cooking.obj
 0001:00007180       ?deallocate@?$Array@UPxDebugLine@physx@@VNamedAllocator@shdfnd@2@@shdfnd@physx@@IEAAXPEAX@Z 0000000180008180 f i Cooking.obj
 0001:000071b0       ?destroy@?$Array@UPxDebugLine@physx@@VNamedAllocator@shdfnd@2@@shdfnd@physx@@KAXPEAUPxDebugLine@3@0@Z 00000001800081b0 f i Cooking.obj
 0001:000071e0       ?end@?$Array@UPxDebugLine@physx@@VNamedAllocator@shdfnd@2@@shdfnd@physx@@QEAAPEAUPxDebugLine@3@XZ 00000001800081e0 f i Cooking.obj
 0001:00007200       ?forceSize_Unsafe@?$Array@UPxDebugLine@physx@@VNamedAllocator@shdfnd@2@@shdfnd@physx@@QEAAXI@Z 0000000180008200 f i Cooking.obj
 0001:00007280       ?fsel@intrinsics@physx@@YAMMMM@Z 0000000180008280 f i Cooking.obj
 0001:000072d0       ?gatherStrided@Cooking@physx@@SAXPEBXPEAXIII@Z 00000001800082d0 f i Cooking.obj
 0001:00007360       ?getConcreteTypeName@PxConvexMesh@physx@@UEBAPEBDXZ 0000000180008360 f i Cooking.obj
 0001:00007370       ?getConcreteTypeName@PxHeightField@physx@@UEBAPEBDXZ 0000000180008370 f i Cooking.obj
 0001:00007380       ?getConvexEdgeThreshold@HeightField@Gu@physx@@UEBAMXZ 0000000180008380 f i Cooking.obj
 0001:00007390       ?getFlags@HeightField@Gu@physx@@UEBA?AV?$PxFlags@W4Enum@PxHeightFieldFlag@physx@@G@3@XZ 0000000180008390 f i Cooking.obj
 0001:000073c0       ?getFormat@HeightField@Gu@physx@@UEBA?AW4Enum@PxHeightFieldFormat@3@XZ 00000001800083c0 f i Cooking.obj
 0001:000073d0       ?getHeight@HeightField@Gu@physx@@QEBAMI@Z 00000001800083d0 f i Cooking.obj
 0001:00007400       ?getHeight@HeightField@Gu@physx@@UEBAMMM@Z 0000000180008400 f i Cooking.obj
 0001:00007430       ?getHeightInternal2@HeightField@Gu@physx@@QEBAMIMM@Z 0000000180008430 f i Cooking.obj
 0001:000076a0       ?getHeightInternal@HeightField@Gu@physx@@QEBAMMM@Z 00000001800086a0 f i Cooking.obj
 0001:00007700       ?getHullVertices@ConvexHullData@Gu@physx@@QEBAPEBVPxVec3@3@XZ 0000000180008700 f i Cooking.obj
 0001:00007740       ?getIndexBuffer@ConvexMesh@Gu@physx@@UEBAPEBEXZ 0000000180008740 f i Cooking.obj
 0001:00007760       ?getMaterialIndex0@HeightField@Gu@physx@@QEBAGI@Z 0000000180008760 f i Cooking.obj
 0001:00007790       ?getMaterialIndex1@HeightField@Gu@physx@@QEBAGI@Z 0000000180008790 f i Cooking.obj
 0001:000077c0       ?getMeshData@TriangleMeshBuilder@physx@@QEAAAEAVTriangleMeshData@Gu@2@XZ 00000001800087c0 f i Cooking.obj
 0001:000077d0       ?getName@?$ReflectionAllocator@VCooking@physx@@@shdfnd@physx@@CAPEBDXZ 00000001800087d0 f i Cooking.obj
 0001:00007810       ?getName@?$ReflectionAllocator@VHeightField@Gu@physx@@@shdfnd@physx@@CAPEBDXZ 0000000180008810 f i Cooking.obj
 0001:00007850       ?getName@?$ReflectionAllocator@VQuickHullConvexHullLib@physx@@@shdfnd@physx@@CAPEBDXZ 0000000180008850 f i Cooking.obj
 0001:00007890       ?getNbColumns@HeightField@Gu@physx@@UEBAIXZ 0000000180008890 f i Cooking.obj
 0001:000078a0       ?getNbColumnsFast@HeightField@Gu@physx@@QEBAIXZ 00000001800088a0 f i Cooking.obj
 0001:000078b0       ?getNbPolygons@ConvexMesh@Gu@physx@@UEBAIXZ 00000001800088b0 f i Cooking.obj
 0001:000078c0       ?getNbRows@HeightField@Gu@physx@@UEBAIXZ 00000001800088c0 f i Cooking.obj
 0001:000078d0       ?getNbVertices@ConvexMesh@Gu@physx@@UEBAIXZ 00000001800088d0 f i Cooking.obj
 0001:000078e0       ?getPaddedBounds@HeightFieldData@Gu@physx@@QEBAAEBVCenterExtentsPadded@23@XZ 00000001800088e0 f i Cooking.obj
 0001:000078f0       ?getSample@HeightField@Gu@physx@@QEBAAEBUPxHeightFieldSample@3@I@Z 00000001800088f0 f i Cooking.obj
 0001:00007970       ?getSample@HeightField@Gu@physx@@UEBAAEBUPxHeightFieldSample@3@II@Z 0000000180008970 f i Cooking.obj
 0001:000079b0       ?getSampleStride@HeightField@Gu@physx@@UEBAIXZ 00000001800089b0 f i Cooking.obj
 0001:000079c0       ?getTimestamp@HeightField@Gu@physx@@UEBAIXZ 00000001800089c0 f i Cooking.obj
 0001:000079d0       ?getTriangleMaterial@HeightField@Gu@physx@@QEBAGI@Z 00000001800089d0 f i Cooking.obj
 0001:00007a30       ?getTriangleMaterialIndex@HeightField@Gu@physx@@UEBAGI@Z 0000000180008a30 f i Cooking.obj
 0001:00007a50       ?getTriangleNormal@HeightField@Gu@physx@@UEBA?AVPxVec3@3@I@Z 0000000180008a50 f i Cooking.obj
 0001:00007a90       ?getTriangleNormalInternal@HeightField@Gu@physx@@QEBA?AVPxVec3@3@I@Z 0000000180008a90 f i Cooking.obj
 0001:00007cf0       ?getTriangleVertexIndices@HeightField@Gu@physx@@QEBAXIAEAI00@Z 0000000180008cf0 f i Cooking.obj
 0001:00007e40       ?getType@PxMidphaseDesc@physx@@QEBA?AW4Enum@PxMeshMidPhase@2@XZ 0000000180008e40 f i Cooking.obj
 0001:00007e50       ?getVertexData8@ConvexHullData@Gu@physx@@QEBAPEBEXZ 0000000180008e50 f i Cooking.obj
 0001:00007f30       ?getVertices@ConvexMesh@Gu@physx@@UEBAPEBVPxVec3@3@XZ 0000000180008f30 f i Cooking.obj
 0001:00007f50       ?grow@?$Array@UPxDebugLine@physx@@VNamedAllocator@shdfnd@2@@shdfnd@physx@@IEAAXI@Z 0000000180008f50 f i Cooking.obj
 0001:00007fd0       ?isBitSet@?$PxBitAndDataT@E$0IA@@physx@@QEBAEXZ 0000000180008fd0 f i Cooking.obj
 0001:00007ff0       ?isBitSet@?$PxBitAndDataT@G$0IAAA@@physx@@QEBAGXZ 0000000180008ff0 f i Cooking.obj
 0001:00008010       ?isFirstTriangle@HeightField@Gu@physx@@QEBA_NI@Z 0000000180009010 f i Cooking.obj
 0001:00008050       ?isInUserMemory@?$Array@UPxDebugLine@physx@@VNamedAllocator@shdfnd@2@@shdfnd@physx@@QEBAIXZ 0000000180009050 f i Cooking.obj
 0001:00008070       ?isKindOf@PxBase@physx@@MEBA_NPEBD@Z 0000000180009070 f i Cooking.obj
 0001:000080b0       ?isKindOf@PxConvexMesh@physx@@MEBA_NPEBD@Z 00000001800090b0 f i Cooking.obj
 0001:00008110       ?isKindOf@PxHeightField@physx@@MEBA_NPEBD@Z 0000000180009110 f i Cooking.obj
 0001:00008170       ?isReleasable@PxBase@physx@@UEBA_NXZ 0000000180009170 f i Cooking.obj
 0001:000081b0       ?isValid@PxBVHStructureDesc@physx@@QEBA_NXZ 00000001800091b0 f i Cooking.obj
 0001:000081f0       ?isValid@PxConvexMeshDesc@physx@@QEBA_NXZ 00000001800091f0 f i Cooking.obj
 0001:00008400       ?isValid@PxHeightFieldDesc@physx@@QEBA_NXZ 0000000180009400 f i Cooking.obj
 0001:000084b0       ?isValid@PxSimpleTriangleMesh@physx@@QEBA_NXZ 00000001800094b0 f i Cooking.obj
 0001:00008590       ?isValid@PxTriangleMeshDesc@physx@@QEBA_NXZ 0000000180009590 f i Cooking.obj
 0001:00008600       ?isValidVertex@HeightField@Gu@physx@@QEBA_NI@Z 0000000180009600 f i Cooking.obj
 0001:00008640       ?isZerothVertexShared@HeightField@Gu@physx@@QEBA_NI@Z 0000000180009640 f i Cooking.obj
 0001:00008690       ?littleEndian@shdfnd@physx@@YADXZ 0000000180009690 f i Cooking.obj
 0001:000086b0       ?markSerializedMem@Cm@physx@@YAXPEAXI@Z 00000001800096b0 f i Cooking.obj
 0001:000086f0       ?memCopy@intrinsics@physx@@YAPEAXPEAXPEBXI@Z 00000001800096f0 f i Cooking.obj
 0001:00008720       ?outputSegment@RenderOutput@Cm@physx@@QEAAXAEBVPxVec3@3@0@Z 0000000180009720 f i Cooking.obj
 0001:000087a0       ?preExportDataReset@ConvexMesh@Gu@physx@@QEAAXXZ 00000001800097a0 f i Cooking.obj
 0001:000087c0       ?preExportDataReset@HeightField@Gu@physx@@QEAAXXZ 00000001800097c0 f i Cooking.obj
 0001:000087e0       ?preExportDataReset@RefCountable@Cm@physx@@QEAAXXZ 00000001800097e0 f i Cooking.obj
 0001:00008800       ?recreate@?$Array@UPxDebugLine@physx@@VNamedAllocator@shdfnd@2@@shdfnd@physx@@IEAAXI@Z 0000000180009800 f i Cooking.obj
 0001:00008920       ?reserve@?$Array@UPxDebugLine@physx@@VNamedAllocator@shdfnd@2@@shdfnd@physx@@QEAAXI@Z 0000000180009920 f i Cooking.obj
 0001:00008950       ?reserveSegments@RenderOutput@Cm@physx@@QEAAPEAUPxDebugLine@3@I@Z 0000000180009950 f i Cooking.obj
 0001:00008980       ?size@?$Array@UPxDebugLine@physx@@VNamedAllocator@shdfnd@2@@shdfnd@physx@@QEBAIXZ 0000000180009980 f i Cooking.obj
 0001:00008990       ?tessFlag@PxHeightFieldSample@physx@@QEBAEXZ 0000000180009990 f i Cooking.obj
 0001:000089d0       ??0ReducedVertexCloud@physx@@QEAA@PEBVPxVec3@1@I@Z 00000001800099d0 f   CookingUtils.obj
 0001:00008a30       ??1ReducedVertexCloud@physx@@QEAA@XZ 0000000180009a30 f   CookingUtils.obj
 0001:00008a50       ?Clean@ReducedVertexCloud@physx@@QEAAAEAV12@XZ 0000000180009a50 f   CookingUtils.obj
 0001:00008ac0       ?Reduce@ReducedVertexCloud@physx@@QEAA_NPEAUREDUCEDCLOUD@2@@Z 0000000180009ac0 f   CookingUtils.obj
 0001:00008fc0       ??$?_UM@@YAPEAX_KV?$ReflectionAllocator@M@shdfnd@physx@@PEBDH@Z 0000000180009fc0 f i CookingUtils.obj
 0001:00009000       ??0?$ReflectionAllocator@M@shdfnd@physx@@QEAA@PEBD@Z 000000018000a000 f i CookingUtils.obj
 0001:00009010       ?allocate@?$ReflectionAllocator@M@shdfnd@physx@@QEAAPEAX_KPEBDH@Z 000000018000a010 f i CookingUtils.obj
 0001:00009090       ?getName@?$ReflectionAllocator@M@shdfnd@physx@@CAPEBDXZ 000000018000a090 f i CookingUtils.obj
 0001:000090d0       ??0EdgeList@Gu@physx@@QEAA@XZ 000000018000a0d0 f   EdgeList.obj
 0001:00009120       ??1EdgeList@Gu@physx@@QEAA@XZ 000000018000a120 f   EdgeList.obj
 0001:000091e0       ?load@EdgeList@Gu@physx@@QEAA_NAEAVPxInputStream@3@@Z 000000018000a1e0 f   EdgeList.obj
 0001:00009510       ??0EdgeListBuilder@Gu@physx@@QEAA@XZ 000000018000a510 f   EdgeList.obj
 0001:00009540       ??1EdgeListBuilder@Gu@physx@@QEAA@XZ 000000018000a540 f   EdgeList.obj
 0001:00009560       ?init@EdgeListBuilder@Gu@physx@@QEAA_NAEBUEDGELISTCREATE@23@@Z 000000018000a560 f   EdgeList.obj
 0001:00009740       ?createFacesToEdges@EdgeListBuilder@Gu@physx@@AEAA_NIPEBIPEBG@Z 000000018000a740 f   EdgeList.obj
 0001:00009f10       ?createEdgesToFaces@EdgeListBuilder@Gu@physx@@AEAA_NIPEBIPEBG@Z 000000018000af10 f   EdgeList.obj
 0001:0000a4b0       ?computeActiveEdges@EdgeListBuilder@Gu@physx@@AEAA_NIPEBIPEBGPEBVPxVec3@3@M@Z 000000018000b4b0 f   EdgeList.obj
 0001:0000bfa0       ??$?_UUEdgeData@Gu@physx@@@@YAPEAX_KV?$ReflectionAllocator@UEdgeData@Gu@physx@@@shdfnd@physx@@PEBDH@Z 000000018000cfa0 f i EdgeList.obj
 0001:0000bfe0       ??$?_UUEdgeTriangleData@Gu@physx@@@@YAPEAX_KV?$ReflectionAllocator@UEdgeTriangleData@Gu@physx@@@shdfnd@physx@@PEBDH@Z 000000018000cfe0 f i EdgeList.obj
 0001:0000c020       ??0?$ReflectionAllocator@UEdgeData@Gu@physx@@@shdfnd@physx@@QEAA@PEBD@Z 000000018000d020 f i EdgeList.obj
 0001:0000c030       ??0?$ReflectionAllocator@UEdgeTriangleData@Gu@physx@@@shdfnd@physx@@QEAA@PEBD@Z 000000018000d030 f i EdgeList.obj
 0001:0000c040       ??0PxPlane@physx@@QEAA@AEBVPxVec3@1@00@Z 000000018000d040 f i EdgeList.obj
 0001:0000c100       ??0PxTriangle@physx@@QEAA@AEBVPxVec3@1@00@Z 000000018000d100 f i EdgeList.obj
 0001:0000c1b0       ??1PxTriangle@physx@@QEAA@XZ 000000018000d1b0 f i EdgeList.obj
 0001:0000c1c0       ??DPxVec3@physx@@QEBA?AV01@M@Z 000000018000d1c0 f i EdgeList.obj
 0001:0000c230       ??GPxVec3@physx@@QEBA?AV01@AEBV01@@Z 000000018000d230 f i EdgeList.obj
 0001:0000c2b0       ??_0PxVec3@physx@@QEAAAEAV01@M@Z 000000018000d2b0 f i EdgeList.obj
 0001:0000c330       ?PxAtan2@physx@@YAMMM@Z    000000018000d330 f i EdgeList.obj
 0001:0000c360       ?PxRecipSqrt@physx@@YAMM@Z 000000018000d360 f i EdgeList.obj
 0001:0000c380       ?PxSqrt@physx@@YAMM@Z      000000018000d380 f i EdgeList.obj
 0001:0000c3a0       ?allocate@?$ReflectionAllocator@UEdgeData@Gu@physx@@@shdfnd@physx@@QEAAPEAX_KPEBDH@Z 000000018000d3a0 f i EdgeList.obj
 0001:0000c420       ?allocate@?$ReflectionAllocator@UEdgeTriangleData@Gu@physx@@@shdfnd@physx@@QEAAPEAX_KPEBDH@Z 000000018000d420 f i EdgeList.obj
 0001:0000c4a0       ?angle@shdfnd@physx@@YAMAEBVPxVec3@2@0@Z 000000018000d4a0 f i EdgeList.obj
 0001:0000c500       ?cross@PxVec3@physx@@QEBA?AV12@AEBV12@@Z 000000018000d500 f i EdgeList.obj
 0001:0000c5c0       ?distance@PxPlane@physx@@QEBAMAEBVPxVec3@2@@Z 000000018000d5c0 f i EdgeList.obj
 0001:0000c5f0       ?dot@PxVec3@physx@@QEBAMAEBV12@@Z 000000018000d5f0 f i EdgeList.obj
 0001:0000c640       ?getEdgeToTriangles@EdgeList@Gu@physx@@QEBAPEBUEdgeDescData@23@XZ 000000018000d640 f i EdgeList.obj
 0001:0000c650       ?getEdges@EdgeList@Gu@physx@@QEBAPEBUEdgeData@23@XZ 000000018000d650 f i EdgeList.obj
 0001:0000c660       ?getFacesByEdges@EdgeList@Gu@physx@@QEBAPEBIXZ 000000018000d660 f i EdgeList.obj
 0001:0000c670       ?getName@?$ReflectionAllocator@UEdgeData@Gu@physx@@@shdfnd@physx@@CAPEBDXZ 000000018000d670 f i EdgeList.obj
 0001:0000c6b0       ?getName@?$ReflectionAllocator@UEdgeTriangleData@Gu@physx@@@shdfnd@physx@@CAPEBDXZ 000000018000d6b0 f i EdgeList.obj
 0001:0000c6f0       ?getNbEdges@EdgeList@Gu@physx@@QEBAIXZ 000000018000d6f0 f i EdgeList.obj
 0001:0000c700       ?getNormalized@PxVec3@physx@@QEBA?AV12@XZ 000000018000d700 f i EdgeList.obj
 0001:0000c790       ?magnitude@PxVec3@physx@@QEBAMXZ 000000018000d790 f i EdgeList.obj
 0001:0000c7b0       ?magnitudeSquared@PxVec3@physx@@QEBAMXZ 000000018000d7b0 f i EdgeList.obj
 0001:0000c800       ?normal@PxTriangle@physx@@QEBAXAEAVPxVec3@2@@Z 000000018000d800 f i EdgeList.obj
 0001:0000c8c0       ?normalize@PxVec3@physx@@QEAAMXZ 000000018000d8c0 f i EdgeList.obj
 0001:0000c910       ?recipSqrt@intrinsics@physx@@YAMM@Z 000000018000d910 f i EdgeList.obj
 0001:0000c940       ?sqrt@intrinsics@physx@@YAMM@Z 000000018000d940 f i EdgeList.obj
 0001:0000c960       fabsf                      000000018000d960 f i EdgeList.obj
 0001:0000c980       ??0MeshCleaner@physx@@QEAA@IPEBVPxVec3@1@IPEBIM@Z 000000018000d980 f   MeshCleaner.obj
 0001:0000d650       ??1MeshCleaner@physx@@QEAA@XZ 000000018000e650 f   MeshCleaner.obj
 0001:0000d960       ??9Indices@@QEBA_NAEBU0@@Z 000000018000e960 f i MeshCleaner.obj
 0001:0000da00       ??9PxVec3@physx@@QEBA_NAEBV01@@Z 000000018000ea00 f i MeshCleaner.obj
 0001:0000da70       ?PxFloor@physx@@YAMM@Z     000000018000ea70 f i MeshCleaner.obj
 0001:0000da90       ?nextPowerOfTwo@shdfnd@physx@@YAII@Z 000000018000ea90 f i MeshCleaner.obj
 0001:0000db00       ?createQuantizer@physx@@YAPEAVQuantizer@1@XZ 000000018000eb00 f   Quantizer.obj
 0001:0000db80       ?kmeans_cluster3d@@YAIPEBVPxVec3@physx@@IIPEAV12@PEAIMM@Z 000000018000eb80 f   Quantizer.obj
 0001:0000dbe0       ??$?2V?$ReflectionAllocator@VQuantizerImpl@@@shdfnd@physx@@@UserAllocated@shdfnd@physx@@SAPEAX_KV?$ReflectionAllocator@VQuantizerImpl@@@12@PEBDH@Z 000000018000ebe0 f i Quantizer.obj
 0001:0000dc20       ??$PX_UNUSED@W4PxZERO@physx@@@@YAXAEBW4PxZERO@physx@@@Z 000000018000ec20 f i Quantizer.obj
 0001:0000dc30       ??$PxMax@M@physx@@YAMMM@Z  000000018000ec30 f i Quantizer.obj
 0001:0000dc60       ??$PxMin@M@physx@@YAMMM@Z  000000018000ec60 f i Quantizer.obj
 0001:0000dc90       ??$kmeans_cluster@VPxVec3@physx@@M@@YAIPEBVPxVec3@physx@@IIPEAV01@PEAIMM@Z 000000018000ec90 f i Quantizer.obj
 0001:0000e3f0       ??0?$Array@VPxVec3@physx@@VNamedAllocator@shdfnd@2@@shdfnd@physx@@QEAA@AEBVNamedAllocator@12@@Z 000000018000f3f0 f i Quantizer.obj
 0001:0000e440       ??0?$ReflectionAllocator@VQuantizerImpl@@@shdfnd@physx@@QEAA@PEBD@Z 000000018000f440 f i Quantizer.obj
 0001:0000e450       ??0PxBounds3@physx@@QEAA@XZ 000000018000f450 f i Quantizer.obj
 0001:0000e490       ??0PxVec3@physx@@QEAA@W4PxZERO@1@@Z 000000018000f490 f i Quantizer.obj
 0001:0000e4e0       ??0Quantizer@physx@@QEAA@XZ 000000018000f4e0 f i Quantizer.obj
 0001:0000e500       ??0QuantizerImpl@@QEAA@XZ  000000018000f500 f i Quantizer.obj
 0001:0000e600       ??1?$Array@VPxVec3@physx@@VNamedAllocator@shdfnd@2@@shdfnd@physx@@QEAA@XZ 000000018000f600 f i Quantizer.obj
 0001:0000e670       ??1Quantizer@physx@@MEAA@XZ 000000018000f670 f i Quantizer.obj
 0001:0000e690       ??1QuantizerImpl@@EEAA@XZ  000000018000f690 f i Quantizer.obj
 0001:0000e6e0       ??A?$Array@VPxVec3@physx@@VNamedAllocator@shdfnd@2@@shdfnd@physx@@QEAAAEAVPxVec3@2@I@Z 000000018000f6e0 f i Quantizer.obj
 0001:0000e760       ??APxVec3@physx@@QEAAAEAMI@Z 000000018000f760 f i Quantizer.obj
 0001:0000e7b0       ??HPxVec3@physx@@QEBA?AV01@AEBV01@@Z 000000018000f7b0 f i Quantizer.obj
 0001:0000e830       ??XPxVec3@physx@@QEAAAEAV01@M@Z 000000018000f830 f i Quantizer.obj
 0001:0000e890       ??YPxVec3@physx@@QEAAAEAV01@AEBV01@@Z 000000018000f890 f i Quantizer.obj
 0001:0000e900       ??_EQuantizer@physx@@MEAAPEAXI@Z 000000018000f900 f i Quantizer.obj
 0001:0000e900       ??_GQuantizer@physx@@MEAAPEAXI@Z 000000018000f900 f i Quantizer.obj
 0001:0000e940       ??_GQuantizerImpl@@EEAAPEAXI@Z 000000018000f940 f i Quantizer.obj
 0001:0000e940       ??_EQuantizerImpl@@EEAAPEAXI@Z 000000018000f940 f i Quantizer.obj
 0001:0000e9a0       ?PxAbs@physx@@YAMM@Z       000000018000f9a0 f i Quantizer.obj
 0001:0000e9c0       ?PxIsFinite@physx@@YA_NM@Z 000000018000f9c0 f i Quantizer.obj
 0001:0000e9e0       ?abs@intrinsics@physx@@YAMM@Z 000000018000f9e0 f i Quantizer.obj
 0001:0000ea00       ?allocate@?$Array@VPxVec3@physx@@VNamedAllocator@shdfnd@2@@shdfnd@physx@@IEAAPEAVPxVec3@3@I@Z 000000018000fa00 f i Quantizer.obj
 0001:0000ea90       ?allocate@?$ReflectionAllocator@VQuantizerImpl@@@shdfnd@physx@@QEAAPEAX_KPEBDH@Z 000000018000fa90 f i Quantizer.obj
 0001:0000eb10       ?capacity@?$Array@VPxVec3@physx@@VNamedAllocator@shdfnd@2@@shdfnd@physx@@QEBAIXZ 000000018000fb10 f i Quantizer.obj
 0001:0000eb30       ?capacityIncrement@?$Array@VPxVec3@physx@@VNamedAllocator@shdfnd@2@@shdfnd@physx@@IEBAIXZ 000000018000fb30 f i Quantizer.obj
 0001:0000eb70       ?clear@?$Array@VPxVec3@physx@@VNamedAllocator@shdfnd@2@@shdfnd@physx@@QEAAXXZ 000000018000fb70 f i Quantizer.obj
 0001:0000ebb0       ?copy@?$Array@VPxVec3@physx@@VNamedAllocator@shdfnd@2@@shdfnd@physx@@KAXPEAVPxVec3@3@0PEBV43@@Z 000000018000fbb0 f i Quantizer.obj
 0001:0000ec30       ?deallocate@?$Array@VPxVec3@physx@@VNamedAllocator@shdfnd@2@@shdfnd@physx@@IEAAXPEAX@Z 000000018000fc30 f i Quantizer.obj
 0001:0000ec60       ?destroy@?$Array@VPxVec3@physx@@VNamedAllocator@shdfnd@2@@shdfnd@physx@@KAXPEAVPxVec3@3@0@Z 000000018000fc60 f i Quantizer.obj
 0001:0000ec90       ?getCenter@PxBounds3@physx@@QEBA?AVPxVec3@2@XZ 000000018000fc90 f i Quantizer.obj
 0001:0000ed10       ?getDenormalizeCenter@QuantizerImpl@@UEBAAEBVPxVec3@physx@@XZ 000000018000fd10 f i Quantizer.obj
 0001:0000ed20       ?getDenormalizeScale@QuantizerImpl@@UEBAAEBVPxVec3@physx@@XZ 000000018000fd20 f i Quantizer.obj
 0001:0000ed30       ?getDimensions@PxBounds3@physx@@QEBA?AVPxVec3@2@XZ 000000018000fd30 f i Quantizer.obj
 0001:0000ed90       ?getName@?$ReflectionAllocator@VQuantizerImpl@@@shdfnd@physx@@CAPEBDXZ 000000018000fd90 f i Quantizer.obj
 0001:0000edd0       ?growAndPushBack@?$Array@VPxVec3@physx@@VNamedAllocator@shdfnd@2@@shdfnd@physx@@IEAAAEAVPxVec3@3@AEBV43@@Z 000000018000fdd0 f i Quantizer.obj
 0001:0000ef60       ?include@PxBounds3@physx@@QEAAXAEBVPxVec3@2@@Z 000000018000ff60 f i Quantizer.obj
 0001:0000eff0       ?isFinite@PxBounds3@physx@@QEBA_NXZ 000000018000fff0 f i Quantizer.obj
 0001:0000f050       ?isFinite@PxVec3@physx@@QEBA_NXZ 0000000180010050 f i Quantizer.obj
 0001:0000f0c0       ?isFinite@intrinsics@physx@@YA_NM@Z 00000001800100c0 f i Quantizer.obj
 0001:0000f100       ?isInUserMemory@?$Array@VPxVec3@physx@@VNamedAllocator@shdfnd@2@@shdfnd@physx@@QEBAIXZ 0000000180010100 f i Quantizer.obj
 0001:0000f120       ?isValid@PxBounds3@physx@@QEBA_NXZ 0000000180010120 f i Quantizer.obj
 0001:0000f210       ?kmeansQuantize3D@QuantizerImpl@@UEAAPEBVPxVec3@physx@@IPEBV23@I_NIAEAI@Z 0000000180010210 f i Quantizer.obj
 0001:0000f540       ?maximum@PxVec3@physx@@QEBA?AV12@AEBV12@@Z 0000000180010540 f i Quantizer.obj
 0001:0000f5e0       ?minimum@PxVec3@physx@@QEBA?AV12@AEBV12@@Z 00000001800105e0 f i Quantizer.obj
 0001:0000f680       ?multiply@PxVec3@physx@@QEBA?AV12@AEBV12@@Z 0000000180010680 f i Quantizer.obj
 0001:0000f700       ?normalizeInput@QuantizerImpl@@AEAAXIPEBVPxVec3@physx@@I@Z 0000000180010700 f i Quantizer.obj
 0001:0000f9a0       ?pushBack@?$Array@VPxVec3@physx@@VNamedAllocator@shdfnd@2@@shdfnd@physx@@QEAAAEAVPxVec3@3@AEBV43@@Z 00000001800109a0 f i Quantizer.obj
 0001:0000fa40       ?release@QuantizerImpl@@UEAAXXZ 0000000180010a40 f i Quantizer.obj
 0001:0000fa90       ?selectMax@intrinsics@physx@@YAMMM@Z 0000000180010a90 f i Quantizer.obj
 0001:0000fad0       ?selectMin@intrinsics@physx@@YAMMM@Z 0000000180010ad0 f i Quantizer.obj
 0001:0000fb10       ?setEmpty@PxBounds3@physx@@QEAAXXZ 0000000180010b10 f i Quantizer.obj
 0001:0000fb60       ??0BVHStructureBuilder@physx@@QEAA@XZ 0000000180010b60 f   BVHStructureBuilder.obj
 0001:0000fbb0       ??1BVHStructureBuilder@physx@@QEAA@XZ 0000000180010bb0 f   BVHStructureBuilder.obj
 0001:0000fc40       ?loadFromDesc@BVHStructureBuilder@physx@@QEAA_NAEBVPxBVHStructureDesc@2@@Z 0000000180010c40 f   BVHStructureBuilder.obj
 0001:0000ff80       ?save@BVHStructureBuilder@physx@@QEBA_NAEAVPxOutputStream@2@_N@Z 0000000180010f80 f   BVHStructureBuilder.obj
 0001:00010180       ?moveData@BVHStructureBuilder@physx@@QEAAXAEAUBVHStructureData@Gu@2@@Z 0000000180011180 f   BVHStructureBuilder.obj
 0001:00010230       ?flatten@@YAXAEBVNodeAllocator@Gu@physx@@PEAUBVHNode@23@@Z 0000000180011230 f   BVHStructureBuilder.obj
 0001:000105d0       ??$?4VNamedAllocator@shdfnd@physx@@@?$Array@USlab@NodeAllocator@Gu@physx@@VNamedAllocator@shdfnd@4@@shdfnd@physx@@QEAAAEAV012@AEBV012@@Z 00000001800115d0 f i BVHStructureBuilder.obj
 0001:00010660       ??$PX_UNUSED@_N@@YAXAEB_N@Z 0000000180011660 f i BVHStructureBuilder.obj
 0001:00010670       ??$copy@VNamedAllocator@shdfnd@physx@@@?$Array@USlab@NodeAllocator@Gu@physx@@VNamedAllocator@shdfnd@4@@shdfnd@physx@@IEAAXAEBV012@@Z 0000000180011670 f i BVHStructureBuilder.obj
 0001:00010730       ??0?$Array@USlab@NodeAllocator@Gu@physx@@VNamedAllocator@shdfnd@4@@shdfnd@physx@@QEAA@AEBV012@AEBVNamedAllocator@12@@Z 0000000180011730 f i BVHStructureBuilder.obj
 0001:00010770       ??0AABBTreeBuildNode@Gu@physx@@QEAA@AEBV012@@Z 0000000180011770 f i BVHStructureBuilder.obj
 0001:000107d0       ??0AABBTreeBuildNode@Gu@physx@@QEAA@XZ 00000001800117d0 f i BVHStructureBuilder.obj
 0001:000107f0       ??0AABBTreeBuildParams@Gu@physx@@QEAA@IIPEBVPxBounds3@2@@Z 00000001800117f0 f i BVHStructureBuilder.obj
 0001:00010840       ??0BuildStats@Gu@physx@@QEAA@XZ 0000000180011840 f i BVHStructureBuilder.obj
 0001:00010870       ??0NodeAllocator@Gu@physx@@QEAA@AEBV012@@Z 0000000180011870 f i BVHStructureBuilder.obj
 0001:00010900       ??0PxBounds3@physx@@QEAA@AEBV01@@Z 0000000180011900 f i BVHStructureBuilder.obj
 0001:00010950       ??0PxVec4@physx@@QEAA@XZ   0000000180011950 f i BVHStructureBuilder.obj
 0001:00010960       ??1AABBTreeBuildNode@Gu@physx@@QEAA@XZ 0000000180011960 f i BVHStructureBuilder.obj
 0001:00010970       ??1AABBTreeBuildParams@Gu@physx@@QEAA@XZ 0000000180011970 f i BVHStructureBuilder.obj
 0001:00010990       ??4?$Array@USlab@NodeAllocator@Gu@physx@@VNamedAllocator@shdfnd@4@@shdfnd@physx@@QEAAAEAV012@AEBV012@@Z 0000000180011990 f i BVHStructureBuilder.obj
 0001:000109c0       ??4AABBTreeBuildNode@Gu@physx@@QEAAAEAV012@AEBV012@@Z 00000001800119c0 f i BVHStructureBuilder.obj
 0001:00010a20       ??4AABBTreeBuildParams@Gu@physx@@QEAAAEAV012@AEBV012@@Z 0000000180011a20 f i BVHStructureBuilder.obj
 0001:00010a50       ??4BuildStats@Gu@physx@@QEAAAEAU012@$$QEAU012@@Z 0000000180011a50 f i BVHStructureBuilder.obj
 0001:00010a80       ??4BuildStats@Gu@physx@@QEAAAEAU012@AEBU012@@Z 0000000180011a80 f i BVHStructureBuilder.obj
 0001:00010aa0       ??4NodeAllocator@Gu@physx@@QEAAAEAV012@AEBV012@@Z 0000000180011aa0 f i BVHStructureBuilder.obj
 0001:00010b10       ??4PxBounds3@physx@@QEAAAEAV01@AEBV01@@Z 0000000180011b10 f i BVHStructureBuilder.obj
 0001:00010b60       ??A?$Array@USlab@NodeAllocator@Gu@physx@@VNamedAllocator@shdfnd@4@@shdfnd@physx@@QEBAAEBUSlab@NodeAllocator@Gu@2@I@Z 0000000180011b60 f i BVHStructureBuilder.obj
 0001:00010be0       ??_FAABBTreeBuildParams@Gu@physx@@QEAAXXZ 0000000180011be0 f i BVHStructureBuilder.obj
 0001:00010c10       ?V4Add@aos@shdfnd@physx@@YA?AT__m128@@T4@0@Z 0000000180011c10 f i BVHStructureBuilder.obj
 0001:00010c40       ?V4LoadU@aos@shdfnd@physx@@YA?AT__m128@@QEBM@Z 0000000180011c40 f i BVHStructureBuilder.obj
 0001:00010c60       ?V4Scale@aos@shdfnd@physx@@YA?AT__m128@@T4@0@Z 0000000180011c60 f i BVHStructureBuilder.obj
 0001:00010c90       ?V4StoreA@aos@shdfnd@physx@@YAXT__m128@@PEAM@Z 0000000180011c90 f i BVHStructureBuilder.obj
 0001:00010d10       ?V4StoreU@aos@shdfnd@physx@@YAXT__m128@@PEAM@Z 0000000180011d10 f i BVHStructureBuilder.obj
 0001:00010d30       ?V4Sub@aos@shdfnd@physx@@YA?AT__m128@@T4@0@Z 0000000180011d30 f i BVHStructureBuilder.obj
 0001:00010d60       ?__global_array_delete@@YAXPEAX@Z 0000000180011d60 f i BVHStructureBuilder.obj
 0001:00010d80       ?__global_array_delete@@YAXPEAX_K@Z 0000000180011d80 f i BVHStructureBuilder.obj
 0001:00010db0       ?__global_delete@@YAXPEAX@Z 0000000180011db0 f i BVHStructureBuilder.obj
 0001:00010dd0       ?__global_delete@@YAXPEAX_K@Z 0000000180011dd0 f i BVHStructureBuilder.obj
 0001:00010e00       ?allocate@?$Array@USlab@NodeAllocator@Gu@physx@@VNamedAllocator@shdfnd@4@@shdfnd@physx@@IEAAPEAUSlab@NodeAllocator@Gu@3@I@Z 0000000180011e00 f i BVHStructureBuilder.obj
 0001:00010e90       ?begin@?$Array@USlab@NodeAllocator@Gu@physx@@VNamedAllocator@shdfnd@4@@shdfnd@physx@@QEBAPEBUSlab@NodeAllocator@Gu@3@XZ 0000000180011e90 f i BVHStructureBuilder.obj
 0001:00010ea0       ?capacity@?$Array@USlab@NodeAllocator@Gu@physx@@VNamedAllocator@shdfnd@4@@shdfnd@physx@@QEBAIXZ 0000000180011ea0 f i BVHStructureBuilder.obj
 0001:00010ec0       ?clear@?$Array@USlab@NodeAllocator@Gu@physx@@VNamedAllocator@shdfnd@4@@shdfnd@physx@@QEAAXXZ 0000000180011ec0 f i BVHStructureBuilder.obj
 0001:00010f00       ?copy@?$Array@USlab@NodeAllocator@Gu@physx@@VNamedAllocator@shdfnd@4@@shdfnd@physx@@KAXPEAUSlab@NodeAllocator@Gu@3@0PEBU4563@@Z 0000000180011f00 f i BVHStructureBuilder.obj
 0001:00010f80       ?deallocate@?$Array@USlab@NodeAllocator@Gu@physx@@VNamedAllocator@shdfnd@4@@shdfnd@physx@@IEAAXPEAX@Z 0000000180011f80 f i BVHStructureBuilder.obj
 0001:00010fb0       ?destroy@?$Array@USlab@NodeAllocator@Gu@physx@@VNamedAllocator@shdfnd@4@@shdfnd@physx@@KAXPEAUSlab@NodeAllocator@Gu@3@0@Z 0000000180011fb0 f i BVHStructureBuilder.obj
 0001:00010fe0       ?empty@?$Array@USlab@NodeAllocator@Gu@physx@@VNamedAllocator@shdfnd@4@@shdfnd@physx@@QEBA_NXZ 0000000180011fe0 f i BVHStructureBuilder.obj
 0001:00011010       ?getAABB@AABBTreeBuildNode@Gu@physx@@QEBAAEBVPxBounds3@3@XZ 0000000180012010 f i BVHStructureBuilder.obj
 0001:00011020       ?getCount@BuildStats@Gu@physx@@QEBAIXZ 0000000180012020 f i BVHStructureBuilder.obj
 0001:00011030       ?getNbPrimitives@AABBTreeBuildNode@Gu@physx@@QEBAIXZ 0000000180012030 f i BVHStructureBuilder.obj
 0001:00011040       ?getNbRuntimePrimitives@AABBTreeBuildNode@Gu@physx@@QEBAIXZ 0000000180012040 f i BVHStructureBuilder.obj
 0001:00011050       ?getNeg@AABBTreeBuildNode@Gu@physx@@QEBAPEBV123@XZ 0000000180012050 f i BVHStructureBuilder.obj
 0001:00011090       ?getPos@AABBTreeBuildNode@Gu@physx@@QEBAPEBV123@XZ 0000000180012090 f i BVHStructureBuilder.obj
 0001:000110a0       ?getPrimitives@AABBTreeBuildNode@Gu@physx@@QEAAPEAIPEAI@Z 00000001800120a0 f i BVHStructureBuilder.obj
 0001:000110c0       ?getPrimitives@AABBTreeBuildNode@Gu@physx@@QEBAPEBIPEBI@Z 00000001800120c0 f i BVHStructureBuilder.obj
 0001:000110e0       ?grow@?$Array@USlab@NodeAllocator@Gu@physx@@VNamedAllocator@shdfnd@4@@shdfnd@physx@@IEAAXI@Z 00000001800120e0 f i BVHStructureBuilder.obj
 0001:00011160       ?increaseCount@BuildStats@Gu@physx@@QEAAXI@Z 0000000180012160 f i BVHStructureBuilder.obj
 0001:00011180       ?inflateBounds@@YAXAEAVPxBounds3@physx@@AEBV12@@Z 0000000180012180 f i BVHStructureBuilder.obj
 0001:00011370       ?isAligned16@aos@shdfnd@physx@@YA_NPEAX@Z 0000000180012370 f i BVHStructureBuilder.obj
 0001:000113a0       ?isInUserMemory@?$Array@USlab@NodeAllocator@Gu@physx@@VNamedAllocator@shdfnd@4@@shdfnd@physx@@QEBAIXZ 00000001800123a0 f i BVHStructureBuilder.obj
 0001:000113c0       ?isLeaf@AABBTreeBuildNode@Gu@physx@@QEBA_NXZ 00000001800123c0 f i BVHStructureBuilder.obj
 0001:00011400       ?recreate@?$Array@USlab@NodeAllocator@Gu@physx@@VNamedAllocator@shdfnd@4@@shdfnd@physx@@IEAAXI@Z 0000000180012400 f i BVHStructureBuilder.obj
 0001:00011520       ?reserve@?$Array@USlab@NodeAllocator@Gu@physx@@VNamedAllocator@shdfnd@4@@shdfnd@physx@@QEAAXI@Z 0000000180012520 f i BVHStructureBuilder.obj
 0001:00011550       ?reset@AABBTreeBuildParams@Gu@physx@@QEAAXXZ 0000000180012550 f i BVHStructureBuilder.obj
 0001:000115b0       ?reset@BuildStats@Gu@physx@@QEAAXXZ 00000001800125b0 f i BVHStructureBuilder.obj
 0001:000115d0       ?setCount@BuildStats@Gu@physx@@QEAAXI@Z 00000001800125d0 f i BVHStructureBuilder.obj
 0001:000115f0       ?setNbRunTimePrimitives@AABBTreeBuildNode@Gu@physx@@QEAAXI@Z 00000001800125f0 f i BVHStructureBuilder.obj
 0001:00011610       ?size@?$Array@USlab@NodeAllocator@Gu@physx@@VNamedAllocator@shdfnd@4@@shdfnd@physx@@QEBAIXZ 0000000180012610 f i BVHStructureBuilder.obj
 0001:00011620       ?saveHeightField@physx@@YA_NAEBVHeightField@Gu@1@AEAVPxOutputStream@1@_N@Z 0000000180012620 f   HeightFieldCooking.obj
 0001:000119d0       ??APxVec3@physx@@QEBAAEBMI@Z 00000001800129d0 f i HeightFieldCooking.obj
 0001:00011a20       ??B?$PxFlags@W4Enum@PxHeightFieldFlag@physx@@G@physx@@QEBAGXZ 0000000180012a20 f i HeightFieldCooking.obj
 0001:00011a30       ?getData@HeightField@Gu@physx@@QEBAAEBUHeightFieldData@23@XZ 0000000180012a30 f i HeightFieldCooking.obj
 0001:00011a40       ?getMax@CenterExtents@Gu@physx@@QEBAMI@Z 0000000180012a40 f i HeightFieldCooking.obj
 0001:00011a90       ?getMin@CenterExtents@Gu@physx@@QEBAMI@Z 0000000180012a90 f i HeightFieldCooking.obj
 0001:00011ae0       ?buildFromTriangles@RTreeCooker@physx@@SAXAEAURTree@Gu@2@PEBVPxVec3@2@IPEBGPEBIIAEAV?$Array@IVNamedAllocator@shdfnd@physx@@@shdfnd@2@PEAURemapCallback@12@MW4Enum@PxMeshCookingHint@2@@Z 0000000180012ae0 f   RTreeCooking.obj
 0001:00013320       ??$PX_UNUSED@I@@YAXAEBI@Z  0000000180014320 f i RTreeCooking.obj
 0001:00013330       ??$PX_UNUSED@M@@YAXAEBM@Z  0000000180014330 f i RTreeCooking.obj
 0001:00013340       ??$PX_UNUSED@PEAURTreeNodeNQ@physx@@@@YAXAEBQEAURTreeNodeNQ@physx@@@Z 0000000180014340 f i RTreeCooking.obj
 0001:00013350       ??$PX_UNUSED@URTreeNodeNQ@physx@@@@YAXAEBURTreeNodeNQ@physx@@@Z 0000000180014350 f i RTreeCooking.obj
 0001:00013360       ??$PxMax@H@physx@@YAHHH@Z  0000000180014360 f i RTreeCooking.obj
 0001:00013390       ??$PxMin@I@physx@@YAIII@Z  0000000180014390 f i RTreeCooking.obj
 0001:000133c0       ??$median3@I$$CBU?$Less@I@shdfnd@physx@@@internal@shdfnd@physx@@YAXPEAIHHAEBU?$Less@I@12@@Z 00000001800143c0 f i RTreeCooking.obj
 0001:00013520       ??$median3@I$$CBUSortBoundsPredicate@physx@@@internal@shdfnd@physx@@YAXPEAIHHAEBUSortBoundsPredicate@2@@Z 0000000180014520 f i RTreeCooking.obj
 0001:00013680       ??$partition@I$$CBU?$Less@I@shdfnd@physx@@@internal@shdfnd@physx@@YAHPEAIHHAEBU?$Less@I@12@@Z 0000000180014680 f i RTreeCooking.obj
 0001:00013870       ??$partition@I$$CBUSortBoundsPredicate@physx@@@internal@shdfnd@physx@@YAHPEAIHHAEBUSortBoundsPredicate@2@@Z 0000000180014870 f i RTreeCooking.obj
 0001:00013a60       ??$partition@UBoundsLTE@physx@@@quickSelect@physx@@YAIPEIAIIIIAEBUBoundsLTE@1@@Z 0000000180014a60 f i RTreeCooking.obj
 0001:00013db0       ??$quickSelectFirstK@UBoundsLTE@physx@@@quickSelect@physx@@YAXPEIAIIIIAEBUBoundsLTE@1@@Z 0000000180014db0 f i RTreeCooking.obj
 0001:00013f10       ??$smallSort@I$$CBU?$Less@I@shdfnd@physx@@@internal@shdfnd@physx@@YAXPEAIHHAEBU?$Less@I@12@@Z 0000000180014f10 f i RTreeCooking.obj
 0001:00013ff0       ??$smallSort@I$$CBUSortBoundsPredicate@physx@@@internal@shdfnd@physx@@YAXPEAIHHAEBUSortBoundsPredicate@2@@Z 0000000180014ff0 f i RTreeCooking.obj
 0001:000140d0       ??$sort@I@shdfnd@physx@@YAXPEAII@Z 00000001800150d0 f i RTreeCooking.obj
 0001:00014120       ??$sort@IU?$Less@I@shdfnd@physx@@VNamedAllocator@23@@shdfnd@physx@@YAXPEAIIAEBU?$Less@I@01@AEBVNamedAllocator@01@I@Z 0000000180015120 f i RTreeCooking.obj
 0001:00014410       ??$sort@IUSortBoundsPredicate@physx@@@shdfnd@physx@@YAXPEAIIAEBUSortBoundsPredicate@1@@Z 0000000180015410 f i RTreeCooking.obj
 0001:00014460       ??$sort@IUSortBoundsPredicate@physx@@VNamedAllocator@shdfnd@2@@shdfnd@physx@@YAXPEAIIAEBUSortBoundsPredicate@1@AEBVNamedAllocator@01@I@Z 0000000180015460 f i RTreeCooking.obj
 0001:00014750       ??0?$AlignedAllocator@$0IA@VNonTrackingAllocator@shdfnd@physx@@@shdfnd@physx@@QEAA@AEBVNonTrackingAllocator@12@@Z 0000000180015750 f i RTreeCooking.obj
 0001:00014760       ??0?$Array@IVNamedAllocator@shdfnd@physx@@@shdfnd@physx@@QEAA@IAEBIAEBVNamedAllocator@12@@Z 0000000180015760 f i RTreeCooking.obj
 0001:000147d0       ??0?$Array@UInterval@physx@@V?$InlineAllocator@$0CAAA@VNamedAllocator@shdfnd@physx@@@shdfnd@2@@shdfnd@physx@@QEAA@AEBV?$InlineAllocator@$0CAAA@VNamedAllocator@shdfnd@physx@@@12@@Z 00000001800157d0 f i RTreeCooking.obj
 0001:00014830       ??0?$Array@UPxBounds3V@physx@@VNamedAllocator@shdfnd@2@@shdfnd@physx@@QEAA@AEBVNamedAllocator@12@@Z 0000000180015830 f i RTreeCooking.obj
 0001:00014880       ??0?$Array@URTreeNodeNQ@physx@@VNamedAllocator@shdfnd@2@@shdfnd@physx@@QEAA@AEBVNamedAllocator@12@@Z 0000000180015880 f i RTreeCooking.obj
 0001:000148d0       ??0?$Array@URTreeNodeQ@Gu@physx@@VNamedAllocator@shdfnd@3@@shdfnd@physx@@QEAA@AEBVNamedAllocator@12@@Z 00000001800158d0 f i RTreeCooking.obj
 0001:00014920       ??0?$InlineAllocator@$0CAAA@VNamedAllocator@shdfnd@physx@@@shdfnd@physx@@QEAA@AEBV012@@Z 0000000180015920 f i RTreeCooking.obj
 0001:00014960       ??0?$InlineAllocator@$0CAAA@VNamedAllocator@shdfnd@physx@@@shdfnd@physx@@QEAA@AEBVNamedAllocator@12@@Z 0000000180015960 f i RTreeCooking.obj
 0001:000149a0       ??0?$InlineArray@UInterval@physx@@$0EAA@VNamedAllocator@shdfnd@2@@shdfnd@physx@@QEAA@AEBVNamedAllocator@12@@Z 00000001800159a0 f i RTreeCooking.obj
 0001:00014a30       ??0?$ScopedPointer@HVTempAllocator@shdfnd@physx@@@shdfnd@physx@@QEAA@XZ 0000000180015a30 f i RTreeCooking.obj
 0001:00014a50       ??0?$Stack@VNamedAllocator@shdfnd@physx@@@internal@shdfnd@physx@@QEAA@PEAHIAEBVNamedAllocator@23@@Z 0000000180015a50 f i RTreeCooking.obj
 0001:00014ac0       ??0BoundsLTE@physx@@QEAA@IPEBVPxVec3@1@@Z 0000000180015ac0 f i RTreeCooking.obj
 0001:00014af0       ??0Interval@physx@@QEAA@II@Z 0000000180015af0 f i RTreeCooking.obj
 0001:00014b20       ??0PxBounds3@physx@@QEAA@AEBVPxVec3@1@0@Z 0000000180015b20 f i RTreeCooking.obj
 0001:00014b70       ??0PxBounds3V@physx@@QEAA@AEAT__m128@@0@Z 0000000180015b70 f i RTreeCooking.obj
 0001:00014bb0       ??0PxBounds3V@physx@@QEAA@UU@01@@Z 0000000180015bb0 f i RTreeCooking.obj
 0001:00014bc0       ??0PxVec4@physx@@QEAA@AEBVPxVec3@1@M@Z 0000000180015bc0 f i RTreeCooking.obj
 0001:00014c20       ??0PxVec4@physx@@QEAA@M@Z  0000000180015c20 f i RTreeCooking.obj
 0001:00014c70       ??0RTreeNodeNQ@physx@@QEAA@AEBU01@@Z 0000000180015c70 f i RTreeCooking.obj
 0001:00014cc0       ??0RTreeNodeNQ@physx@@QEAA@XZ 0000000180015cc0 f i RTreeCooking.obj
 0001:00014d00       ??0SortBoundsPredicate@physx@@QEAA@IPEBUPxBounds3V@1@@Z 0000000180015d00 f i RTreeCooking.obj
 0001:00014d30       ??0SubSortQuick@physx@@QEAA@PEAIPEBUPxBounds3V@1@IM@Z 0000000180015d30 f i RTreeCooking.obj
 0001:00014ea0       ??0SubSortSAH@physx@@QEAA@PEAIPEBUPxBounds3V@1@IPEBI22222M@Z 0000000180015ea0 f i RTreeCooking.obj
 0001:000150c0       ??0TempAllocator@shdfnd@physx@@QEAA@PEBD@Z 00000001800160c0 f i RTreeCooking.obj
 0001:000150d0       ??1?$Array@IVNamedAllocator@shdfnd@physx@@@shdfnd@physx@@QEAA@XZ 00000001800160d0 f i RTreeCooking.obj
 0001:00015140       ??1?$Array@UInterval@physx@@V?$InlineAllocator@$0CAAA@VNamedAllocator@shdfnd@physx@@@shdfnd@2@@shdfnd@physx@@QEAA@XZ 0000000180016140 f i RTreeCooking.obj
 0001:000151c0       ??1?$Array@UPxBounds3V@physx@@VNamedAllocator@shdfnd@2@@shdfnd@physx@@QEAA@XZ 00000001800161c0 f i RTreeCooking.obj
 0001:00015230       ??1?$Array@URTreeNodeNQ@physx@@VNamedAllocator@shdfnd@2@@shdfnd@physx@@QEAA@XZ 0000000180016230 f i RTreeCooking.obj
 0001:000152a0       ??1?$Array@URTreeNodeQ@Gu@physx@@VNamedAllocator@shdfnd@3@@shdfnd@physx@@QEAA@XZ 00000001800162a0 f i RTreeCooking.obj
 0001:00015310       ??1?$InlineAllocator@$0CAAA@VNamedAllocator@shdfnd@physx@@@shdfnd@physx@@QEAA@XZ 0000000180016310 f i RTreeCooking.obj
 0001:00015330       ??1?$InlineArray@UInterval@physx@@$0EAA@VNamedAllocator@shdfnd@2@@shdfnd@physx@@QEAA@XZ 0000000180016330 f i RTreeCooking.obj
 0001:00015350       ??1?$ScopedPointer@HVTempAllocator@shdfnd@physx@@@shdfnd@physx@@QEAA@XZ 0000000180016350 f i RTreeCooking.obj
 0001:00015380       ??1?$Stack@VNamedAllocator@shdfnd@physx@@@internal@shdfnd@physx@@QEAA@XZ 0000000180016380 f i RTreeCooking.obj
 0001:000153c0       ??1SubSortQuick@physx@@QEAA@XZ 00000001800163c0 f i RTreeCooking.obj
 0001:000153e0       ??1SubSortSAH@physx@@QEAA@XZ 00000001800163e0 f i RTreeCooking.obj
 0001:000154a0       ??4PxVec4@physx@@QEAAAEAV01@AEBV01@@Z 00000001800164a0 f i RTreeCooking.obj
 0001:00015500       ??A?$Array@IVNamedAllocator@shdfnd@physx@@@shdfnd@physx@@QEAAAEAII@Z 0000000180016500 f i RTreeCooking.obj
 0001:00015580       ??A?$Array@UInterval@physx@@V?$InlineAllocator@$0CAAA@VNamedAllocator@shdfnd@physx@@@shdfnd@2@@shdfnd@physx@@QEAAAEAUInterval@2@I@Z 0000000180016580 f i RTreeCooking.obj
 0001:00015600       ??A?$Array@URTreeNodeNQ@physx@@VNamedAllocator@shdfnd@2@@shdfnd@physx@@QEAAAEAURTreeNodeNQ@2@I@Z 0000000180016600 f i RTreeCooking.obj
 0001:00015680       ??A?$Array@URTreeNodeQ@Gu@physx@@VNamedAllocator@shdfnd@3@@shdfnd@physx@@QEAAAEAURTreeNodeQ@Gu@2@I@Z 0000000180016680 f i RTreeCooking.obj
 0001:00015700       ??B?$ScopedPointer@HVTempAllocator@shdfnd@physx@@@shdfnd@physx@@QEBAPEAHXZ 0000000180016700 f i RTreeCooking.obj
 0001:00015710       ??GPxVec4@physx@@QEBA?AV01@AEBV01@@Z 0000000180016710 f i RTreeCooking.obj
 0001:000157a0       ??KPxVec4@physx@@QEBA?AV01@M@Z 00000001800167a0 f i RTreeCooking.obj
 0001:00015840       ??R?$Less@I@shdfnd@physx@@QEBA_NAEBI0@Z 0000000180016840 f i RTreeCooking.obj
 0001:00015880       ??RBoundsLTE@physx@@QEBA_NAEBI0@Z 0000000180016880 f i RTreeCooking.obj
 0001:00015920       ??RSortBoundsPredicate@physx@@QEBA_NAEBI0@Z 0000000180016920 f i RTreeCooking.obj
 0001:00015a50       ?FMax@aos@shdfnd@physx@@YA?AT__m128@@XZ 0000000180016a50 f i RTreeCooking.obj
 0001:00015a70       ?FNegMax@aos@shdfnd@physx@@YA?AT__m128@@XZ 0000000180016a70 f i RTreeCooking.obj
 0001:00015a90       ?FStore@aos@shdfnd@physx@@YAXT__m128@@PEIAM@Z 0000000180016a90 f i RTreeCooking.obj
 0001:00015b20       ?PxAbs@physx@@YAHH@Z       0000000180016b20 f i RTreeCooking.obj
 0001:00015b40       ?V3Add@aos@shdfnd@physx@@YA?AT__m128@@T4@0@Z 0000000180016b40 f i RTreeCooking.obj
 0001:00015c50       ?V3Dot@aos@shdfnd@physx@@YA?AT__m128@@T4@0@Z 0000000180016c50 f i RTreeCooking.obj
 0001:00015df0       ?V3LoadU@aos@shdfnd@physx@@YA?AT__m128@@AEBVPxVec3@3@@Z 0000000180016df0 f i RTreeCooking.obj
 0001:00015e40       ?V3Max@aos@shdfnd@physx@@YA?AT__m128@@T4@0@Z 0000000180016e40 f i RTreeCooking.obj
 0001:00015f50       ?V3Min@aos@shdfnd@physx@@YA?AT__m128@@T4@0@Z 0000000180016f50 f i RTreeCooking.obj
 0001:00016060       ?V3PermZXY@aos@shdfnd@physx@@YA?AT__m128@@T4@@Z 0000000180017060 f i RTreeCooking.obj
 0001:000160f0       ?V3ReadXYZ@aos@shdfnd@physx@@YAAEBVPxVec3@3@AEBT__m128@@@Z 00000001800170f0 f i RTreeCooking.obj
 0001:00016100       ?V3Splat@aos@shdfnd@physx@@YA?AT__m128@@T4@@Z 0000000180017100 f i RTreeCooking.obj
 0001:000161e0       ?V3StoreA@aos@shdfnd@physx@@YAXT__m128@@AEAVPxVec3@3@@Z 00000001800171e0 f i RTreeCooking.obj
 0001:000162a0       ?V3StoreU@aos@shdfnd@physx@@YAXT__m128@@AEAVPxVec3@3@@Z 00000001800172a0 f i RTreeCooking.obj
 0001:00016310       ?V3Sub@aos@shdfnd@physx@@YA?AT__m128@@T4@0@Z 0000000180017310 f i RTreeCooking.obj
 0001:00016420       ?V3Zero@aos@shdfnd@physx@@YA?AT__m128@@XZ 0000000180017420 f i RTreeCooking.obj
 0001:00016440       ?V4ClearW@aos@shdfnd@physx@@YA?AT__m128@@T4@@Z 0000000180017440 f i RTreeCooking.obj
 0001:00016470       ?V4ReadW@aos@shdfnd@physx@@YAMAEBT__m128@@@Z 0000000180017470 f i RTreeCooking.obj
 0001:00016480       ?V4ReadX@aos@shdfnd@physx@@YAMAEBT__m128@@@Z 0000000180017480 f i RTreeCooking.obj
 0001:00016490       ?V4ReadY@aos@shdfnd@physx@@YAMAEBT__m128@@@Z 0000000180017490 f i RTreeCooking.obj
 0001:000164a0       ?V4ReadZ@aos@shdfnd@physx@@YAMAEBT__m128@@@Z 00000001800174a0 f i RTreeCooking.obj
 0001:000164b0       ?Vec3V_From_FloatV@aos@shdfnd@physx@@YA?AT__m128@@T4@@Z 00000001800174b0 f i RTreeCooking.obj
 0001:00016500       ?Vec3V_From_Vec4V@aos@shdfnd@physx@@YA?AT__m128@@T4@@Z 0000000180017500 f i RTreeCooking.obj
 0001:00016530       ?Vec4V_From_FloatV@aos@shdfnd@physx@@YA?AT__m128@@T4@@Z 0000000180017530 f i RTreeCooking.obj
 0001:00016540       ?allocate@?$AlignedAllocator@$0IA@VNonTrackingAllocator@shdfnd@physx@@@shdfnd@physx@@QEAAPEAX_KPEBDH@Z 0000000180017540 f i RTreeCooking.obj
 0001:000165e0       ?allocate@?$Array@IVNamedAllocator@shdfnd@physx@@@shdfnd@physx@@IEAAPEAII@Z 00000001800175e0 f i RTreeCooking.obj
 0001:00016670       ?allocate@?$Array@UInterval@physx@@V?$InlineAllocator@$0CAAA@VNamedAllocator@shdfnd@physx@@@shdfnd@2@@shdfnd@physx@@IEAAPEAUInterval@3@I@Z 0000000180017670 f i RTreeCooking.obj
 0001:00016700       ?allocate@?$Array@UPxBounds3V@physx@@VNamedAllocator@shdfnd@2@@shdfnd@physx@@IEAAPEAUPxBounds3V@3@I@Z 0000000180017700 f i RTreeCooking.obj
 0001:00016790       ?allocate@?$Array@URTreeNodeNQ@physx@@VNamedAllocator@shdfnd@2@@shdfnd@physx@@IEAAPEAURTreeNodeNQ@3@I@Z 0000000180017790 f i RTreeCooking.obj
 0001:00016820       ?allocate@?$Array@URTreeNodeQ@Gu@physx@@VNamedAllocator@shdfnd@3@@shdfnd@physx@@IEAAPEAURTreeNodeQ@Gu@3@I@Z 0000000180017820 f i RTreeCooking.obj
 0001:000168b0       ?allocate@?$InlineAllocator@$0CAAA@VNamedAllocator@shdfnd@physx@@@shdfnd@physx@@QEAAPEAXIPEBDH@Z 00000001800178b0 f i RTreeCooking.obj
 0001:00016920       ?allocate@NonTrackingAllocator@shdfnd@physx@@QEAAPEAX_KPEBDH@Z 0000000180017920 f i RTreeCooking.obj
 0001:00016990       ?begin@?$Array@IVNamedAllocator@shdfnd@physx@@@shdfnd@physx@@QEAAPEAIXZ 0000000180017990 f i RTreeCooking.obj
 0001:000169a0       ?begin@?$Array@UPxBounds3V@physx@@VNamedAllocator@shdfnd@2@@shdfnd@physx@@QEAAPEAUPxBounds3V@3@XZ 00000001800179a0 f i RTreeCooking.obj
 0001:000169b0       ?begin@?$Array@VPxVec3@physx@@VNamedAllocator@shdfnd@2@@shdfnd@physx@@QEAAPEAVPxVec3@3@XZ 00000001800179b0 f i RTreeCooking.obj
 0001:000169c0       ?capacity@?$Array@IVNamedAllocator@shdfnd@physx@@@shdfnd@physx@@QEBAIXZ 00000001800179c0 f i RTreeCooking.obj
 0001:000169e0       ?capacity@?$Array@UInterval@physx@@V?$InlineAllocator@$0CAAA@VNamedAllocator@shdfnd@physx@@@shdfnd@2@@shdfnd@physx@@QEBAIXZ 00000001800179e0 f i RTreeCooking.obj
 0001:00016a00       ?capacity@?$Array@UPxBounds3V@physx@@VNamedAllocator@shdfnd@2@@shdfnd@physx@@QEBAIXZ 0000000180017a00 f i RTreeCooking.obj
 0001:00016a20       ?capacity@?$Array@URTreeNodeNQ@physx@@VNamedAllocator@shdfnd@2@@shdfnd@physx@@QEBAIXZ 0000000180017a20 f i RTreeCooking.obj
 0001:00016a40       ?capacity@?$Array@URTreeNodeQ@Gu@physx@@VNamedAllocator@shdfnd@3@@shdfnd@physx@@QEBAIXZ 0000000180017a40 f i RTreeCooking.obj
 0001:00016a60       ?capacityIncrement@?$Array@IVNamedAllocator@shdfnd@physx@@@shdfnd@physx@@IEBAIXZ 0000000180017a60 f i RTreeCooking.obj
 0001:00016aa0       ?capacityIncrement@?$Array@UInterval@physx@@V?$InlineAllocator@$0CAAA@VNamedAllocator@shdfnd@physx@@@shdfnd@2@@shdfnd@physx@@IEBAIXZ 0000000180017aa0 f i RTreeCooking.obj
 0001:00016ae0       ?capacityIncrement@?$Array@UPxBounds3V@physx@@VNamedAllocator@shdfnd@2@@shdfnd@physx@@IEBAIXZ 0000000180017ae0 f i RTreeCooking.obj
 0001:00016b20       ?capacityIncrement@?$Array@URTreeNodeNQ@physx@@VNamedAllocator@shdfnd@2@@shdfnd@physx@@IEBAIXZ 0000000180017b20 f i RTreeCooking.obj
 0001:00016b60       ?capacityIncrement@?$Array@URTreeNodeQ@Gu@physx@@VNamedAllocator@shdfnd@3@@shdfnd@physx@@IEBAIXZ 0000000180017b60 f i RTreeCooking.obj
 0001:00016ba0       ?computeSA@SubSortSAH@physx@@QEAAMPEBIAEBUInterval@2@@Z 0000000180017ba0 f i RTreeCooking.obj
 0001:00016db0       ?copy@?$Array@IVNamedAllocator@shdfnd@physx@@@shdfnd@physx@@KAXPEAI0PEBI@Z 0000000180017db0 f i RTreeCooking.obj
 0001:00016e30       ?copy@?$Array@UInterval@physx@@V?$InlineAllocator@$0CAAA@VNamedAllocator@shdfnd@physx@@@shdfnd@2@@shdfnd@physx@@KAXPEAUInterval@3@0PEBU43@@Z 0000000180017e30 f i RTreeCooking.obj
 0001:00016eb0       ?copy@?$Array@UPxBounds3V@physx@@VNamedAllocator@shdfnd@2@@shdfnd@physx@@KAXPEAUPxBounds3V@3@0PEBU43@@Z 0000000180017eb0 f i RTreeCooking.obj
 0001:00016f30       ?copy@?$Array@URTreeNodeNQ@physx@@VNamedAllocator@shdfnd@2@@shdfnd@physx@@KAXPEAURTreeNodeNQ@3@0PEBU43@@Z 0000000180017f30 f i RTreeCooking.obj
 0001:00016fb0       ?copy@?$Array@URTreeNodeQ@Gu@physx@@VNamedAllocator@shdfnd@3@@shdfnd@physx@@KAXPEAURTreeNodeQ@Gu@3@0PEBU453@@Z 0000000180017fb0 f i RTreeCooking.obj
 0001:00017030       ?create@?$Array@IVNamedAllocator@shdfnd@physx@@@shdfnd@physx@@KAXPEAI0AEBI@Z 0000000180018030 f i RTreeCooking.obj
 0001:00017090       ?deallocate@?$Array@IVNamedAllocator@shdfnd@physx@@@shdfnd@physx@@IEAAXPEAX@Z 0000000180018090 f i RTreeCooking.obj
 0001:000170c0       ?deallocate@?$Array@UInterval@physx@@V?$InlineAllocator@$0CAAA@VNamedAllocator@shdfnd@physx@@@shdfnd@2@@shdfnd@physx@@IEAAXPEAX@Z 00000001800180c0 f i RTreeCooking.obj
 0001:000170f0       ?deallocate@?$Array@UPxBounds3V@physx@@VNamedAllocator@shdfnd@2@@shdfnd@physx@@IEAAXPEAX@Z 00000001800180f0 f i RTreeCooking.obj
 0001:00017120       ?deallocate@?$Array@URTreeNodeNQ@physx@@VNamedAllocator@shdfnd@2@@shdfnd@physx@@IEAAXPEAX@Z 0000000180018120 f i RTreeCooking.obj
 0001:00017150       ?deallocate@?$Array@URTreeNodeQ@Gu@physx@@VNamedAllocator@shdfnd@3@@shdfnd@physx@@IEAAXPEAX@Z 0000000180018150 f i RTreeCooking.obj
 0001:00017180       ?deallocate@?$InlineAllocator@$0CAAA@VNamedAllocator@shdfnd@physx@@@shdfnd@physx@@QEAAXPEAX@Z 0000000180018180 f i RTreeCooking.obj
 0001:000171c0       ?destroy@?$Array@IVNamedAllocator@shdfnd@physx@@@shdfnd@physx@@KAXPEAI0@Z 00000001800181c0 f i RTreeCooking.obj
 0001:000171f0       ?destroy@?$Array@UInterval@physx@@V?$InlineAllocator@$0CAAA@VNamedAllocator@shdfnd@physx@@@shdfnd@2@@shdfnd@physx@@KAXPEAUInterval@3@0@Z 00000001800181f0 f i RTreeCooking.obj
 0001:00017220       ?destroy@?$Array@UPxBounds3V@physx@@VNamedAllocator@shdfnd@2@@shdfnd@physx@@KAXPEAUPxBounds3V@3@0@Z 0000000180018220 f i RTreeCooking.obj
 0001:00017250       ?destroy@?$Array@URTreeNodeNQ@physx@@VNamedAllocator@shdfnd@2@@shdfnd@physx@@KAXPEAURTreeNodeNQ@3@0@Z 0000000180018250 f i RTreeCooking.obj
 0001:00017280       ?destroy@?$Array@URTreeNodeQ@Gu@physx@@VNamedAllocator@shdfnd@3@@shdfnd@physx@@KAXPEAURTreeNodeQ@Gu@3@0@Z 0000000180018280 f i RTreeCooking.obj
 0001:000172b0       ?empty@?$Stack@VNamedAllocator@shdfnd@physx@@@internal@shdfnd@physx@@QEAA_NXZ 00000001800182b0 f i RTreeCooking.obj
 0001:000172e0       ?empty@PxBounds3@physx@@SA?AV12@XZ 00000001800182e0 f i RTreeCooking.obj
 0001:00017340       ?getExtents@PxBounds3V@physx@@QEBA?AT__m128@@XZ 0000000180018340 f i RTreeCooking.obj
 0001:000173a0       ?getMaxVec3@PxBounds3V@physx@@QEBA?BVPxVec3@2@XZ 00000001800183a0 f i RTreeCooking.obj
 0001:000173f0       ?getMinVec3@PxBounds3V@physx@@QEBA?BVPxVec3@2@XZ 00000001800183f0 f i RTreeCooking.obj
 0001:00017440       ?grow@?$Array@IVNamedAllocator@shdfnd@physx@@@shdfnd@physx@@IEAAXI@Z 0000000180018440 f i RTreeCooking.obj
 0001:000174c0       ?grow@?$Array@UPxBounds3V@physx@@VNamedAllocator@shdfnd@2@@shdfnd@physx@@IEAAXI@Z 00000001800184c0 f i RTreeCooking.obj
 0001:00017540       ?grow@?$Array@URTreeNodeNQ@physx@@VNamedAllocator@shdfnd@2@@shdfnd@physx@@IEAAXI@Z 0000000180018540 f i RTreeCooking.obj
 0001:000175c0       ?grow@?$Array@URTreeNodeQ@Gu@physx@@VNamedAllocator@shdfnd@3@@shdfnd@physx@@IEAAXI@Z 00000001800185c0 f i RTreeCooking.obj
 0001:00017640       ?grow@?$Array@VPxVec3@physx@@VNamedAllocator@shdfnd@2@@shdfnd@physx@@IEAAXI@Z 0000000180018640 f i RTreeCooking.obj
 0001:000176c0       ?grow@?$Stack@VNamedAllocator@shdfnd@physx@@@internal@shdfnd@physx@@QEAAXXZ 00000001800186c0 f i RTreeCooking.obj
 0001:00017770       ?growAndPushBack@?$Array@IVNamedAllocator@shdfnd@physx@@@shdfnd@physx@@IEAAAEAIAEBI@Z 0000000180018770 f i RTreeCooking.obj
 0001:000178f0       ?growAndPushBack@?$Array@UInterval@physx@@V?$InlineAllocator@$0CAAA@VNamedAllocator@shdfnd@physx@@@shdfnd@2@@shdfnd@physx@@IEAAAEAUInterval@3@AEBU43@@Z 00000001800188f0 f i RTreeCooking.obj
 0001:00017aa0       ?growAndPushBack@?$Array@UPxBounds3V@physx@@VNamedAllocator@shdfnd@2@@shdfnd@physx@@IEAAAEAUPxBounds3V@3@AEBU43@@Z 0000000180018aa0 f i RTreeCooking.obj
 0001:00017c70       ?growAndPushBack@?$Array@URTreeNodeNQ@physx@@VNamedAllocator@shdfnd@2@@shdfnd@physx@@IEAAAEAURTreeNodeNQ@3@AEBU43@@Z 0000000180018c70 f i RTreeCooking.obj
 0001:00017e00       ?growAndPushBack@?$Array@URTreeNodeQ@Gu@physx@@VNamedAllocator@shdfnd@3@@shdfnd@physx@@IEAAAEAURTreeNodeQ@Gu@3@AEBU453@@Z 0000000180018e00 f i RTreeCooking.obj
 0001:00017fd0       ?include@PxBounds3V@physx@@QEAAXAEBU12@@Z 0000000180018fd0 f i RTreeCooking.obj
 0001:00018080       ?isInUserMemory@?$Array@IVNamedAllocator@shdfnd@physx@@@shdfnd@physx@@QEBAIXZ 0000000180019080 f i RTreeCooking.obj
 0001:000180a0       ?isInUserMemory@?$Array@UInterval@physx@@V?$InlineAllocator@$0CAAA@VNamedAllocator@shdfnd@physx@@@shdfnd@2@@shdfnd@physx@@QEBAIXZ 00000001800190a0 f i RTreeCooking.obj
 0001:000180c0       ?isInUserMemory@?$Array@UPxBounds3V@physx@@VNamedAllocator@shdfnd@2@@shdfnd@physx@@QEBAIXZ 00000001800190c0 f i RTreeCooking.obj
 0001:000180e0       ?isInUserMemory@?$Array@URTreeNodeNQ@physx@@VNamedAllocator@shdfnd@2@@shdfnd@physx@@QEBAIXZ 00000001800190e0 f i RTreeCooking.obj
 0001:00018100       ?isInUserMemory@?$Array@URTreeNodeQ@Gu@physx@@VNamedAllocator@shdfnd@3@@shdfnd@physx@@QEBAIXZ 0000000180019100 f i RTreeCooking.obj
 0001:00018120       ?isInside@PxBounds3@physx@@QEBA_NAEBV12@@Z 0000000180019120 f i RTreeCooking.obj
 0001:00018210       ?isLeaf@RTreeNodeQ@Gu@physx@@QEBAIXZ 0000000180019210 f i RTreeCooking.obj
 0001:00018230       ?isValidFloatV@aos@shdfnd@physx@@YA_NT__m128@@@Z 0000000180019230 f i RTreeCooking.obj
 0001:00018340       ?isValidVec3V@aos@shdfnd@physx@@YA_NT__m128@@@Z 0000000180019340 f i RTreeCooking.obj
 0001:000183a0       ?pop@?$Stack@VNamedAllocator@shdfnd@physx@@@internal@shdfnd@physx@@QEAAXAEAH0@Z 00000001800193a0 f i RTreeCooking.obj
 0001:00018480       ?popBack@?$Array@IVNamedAllocator@shdfnd@physx@@@shdfnd@physx@@QEAAIXZ 0000000180019480 f i RTreeCooking.obj
 0001:00018520       ?push@?$Stack@VNamedAllocator@shdfnd@physx@@@internal@shdfnd@physx@@QEAAXHH@Z 0000000180019520 f i RTreeCooking.obj
 0001:000185b0       ?pushBack@?$Array@IVNamedAllocator@shdfnd@physx@@@shdfnd@physx@@QEAAAEAIAEBI@Z 00000001800195b0 f i RTreeCooking.obj
 0001:00018650       ?pushBack@?$Array@UInterval@physx@@V?$InlineAllocator@$0CAAA@VNamedAllocator@shdfnd@physx@@@shdfnd@2@@shdfnd@physx@@QEAAAEAUInterval@3@AEBU43@@Z 0000000180019650 f i RTreeCooking.obj
 0001:00018710       ?pushBack@?$Array@UPxBounds3V@physx@@VNamedAllocator@shdfnd@2@@shdfnd@physx@@QEAAAEAUPxBounds3V@3@AEBU43@@Z 0000000180019710 f i RTreeCooking.obj
 0001:000187c0       ?pushBack@?$Array@URTreeNodeNQ@physx@@VNamedAllocator@shdfnd@2@@shdfnd@physx@@QEAAAEAURTreeNodeNQ@3@AEBU43@@Z 00000001800197c0 f i RTreeCooking.obj
 0001:00018860       ?pushBack@?$Array@URTreeNodeQ@Gu@physx@@VNamedAllocator@shdfnd@3@@shdfnd@physx@@QEAAAEAURTreeNodeQ@Gu@3@AEBU453@@Z 0000000180019860 f i RTreeCooking.obj
 0001:00018910       ?recreate@?$Array@IVNamedAllocator@shdfnd@physx@@@shdfnd@physx@@IEAAXI@Z 0000000180019910 f i RTreeCooking.obj
 0001:00018a20       ?recreate@?$Array@UPxBounds3V@physx@@VNamedAllocator@shdfnd@2@@shdfnd@physx@@IEAAXI@Z 0000000180019a20 f i RTreeCooking.obj
 0001:00018b40       ?recreate@?$Array@URTreeNodeNQ@physx@@VNamedAllocator@shdfnd@2@@shdfnd@physx@@IEAAXI@Z 0000000180019b40 f i RTreeCooking.obj
 0001:00018c60       ?recreate@?$Array@URTreeNodeQ@Gu@physx@@VNamedAllocator@shdfnd@3@@shdfnd@physx@@IEAAXI@Z 0000000180019c60 f i RTreeCooking.obj
 0001:00018d80       ?recreate@?$Array@VPxVec3@physx@@VNamedAllocator@shdfnd@2@@shdfnd@physx@@IEAAXI@Z 0000000180019d80 f i RTreeCooking.obj
 0001:00018ea0       ?replaceWithLast@?$Array@UInterval@physx@@V?$InlineAllocator@$0CAAA@VNamedAllocator@shdfnd@physx@@@shdfnd@2@@shdfnd@physx@@QEAAXI@Z 0000000180019ea0 f i RTreeCooking.obj
 0001:00018f60       ?reserve@?$Array@IVNamedAllocator@shdfnd@physx@@@shdfnd@physx@@QEAAXI@Z 0000000180019f60 f i RTreeCooking.obj
 0001:00018f90       ?reserve@?$Array@UPxBounds3V@physx@@VNamedAllocator@shdfnd@2@@shdfnd@physx@@QEAAXI@Z 0000000180019f90 f i RTreeCooking.obj
 0001:00018fc0       ?reserve@?$Array@URTreeNodeNQ@physx@@VNamedAllocator@shdfnd@2@@shdfnd@physx@@QEAAXI@Z 0000000180019fc0 f i RTreeCooking.obj
 0001:00018ff0       ?reserve@?$Array@URTreeNodeQ@Gu@physx@@VNamedAllocator@shdfnd@3@@shdfnd@physx@@QEAAXI@Z 0000000180019ff0 f i RTreeCooking.obj
 0001:00019020       ?reserve@?$Array@VPxVec3@physx@@VNamedAllocator@shdfnd@2@@shdfnd@physx@@QEAAXI@Z 000000018001a020 f i RTreeCooking.obj
 0001:00019050       ?resize@?$Array@IVNamedAllocator@shdfnd@physx@@@shdfnd@physx@@QEAAXIAEBI@Z 000000018001a050 f i RTreeCooking.obj
 0001:000190e0       ?resizeUninitialized@?$Array@URTreeNodeNQ@physx@@VNamedAllocator@shdfnd@2@@shdfnd@physx@@QEAAXI@Z 000000018001a0e0 f i RTreeCooking.obj
 0001:00019110       ?setLeaf@RTreeNodeQ@Gu@physx@@QEAAX_N@Z 000000018001a110 f i RTreeCooking.obj
 0001:00019150       ?size@?$Array@IVNamedAllocator@shdfnd@physx@@@shdfnd@physx@@QEBAIXZ 000000018001a150 f i RTreeCooking.obj
 0001:00019160       ?size@?$Array@UInterval@physx@@V?$InlineAllocator@$0CAAA@VNamedAllocator@shdfnd@physx@@@shdfnd@2@@shdfnd@physx@@QEBAIXZ 000000018001a160 f i RTreeCooking.obj
 0001:00019180       ?size@?$Array@URTreeNodeNQ@physx@@VNamedAllocator@shdfnd@2@@shdfnd@physx@@QEBAIXZ 000000018001a180 f i RTreeCooking.obj
 0001:00019190       ?size@?$Array@URTreeNodeQ@Gu@physx@@VNamedAllocator@shdfnd@3@@shdfnd@physx@@QEBAIXZ 000000018001a190 f i RTreeCooking.obj
 0001:000191a0       ?size@?$Array@VPxVec3@physx@@VNamedAllocator@shdfnd@2@@shdfnd@physx@@QEBAIXZ 000000018001a1a0 f i RTreeCooking.obj
 0001:000191b0       ?sort4@SubSortQuick@physx@@QEAAXPEIAIIAEAV?$Array@URTreeNodeNQ@physx@@VNamedAllocator@shdfnd@2@@shdfnd@2@AEAIAEAUPxBounds3V@2@I@Z 000000018001a1b0 f i RTreeCooking.obj
 0001:00019bd0       ?sort4@SubSortSAH@physx@@QEAAXPEAIIAEAV?$Array@URTreeNodeNQ@physx@@VNamedAllocator@shdfnd@2@@shdfnd@2@AEAIIPEAURTreeNodeNQ@2@@Z 000000018001abd0 f i RTreeCooking.obj
 0001:0001a9e0       ?split@SubSortSAH@physx@@QEAAIPEAII@Z 000000018001b9e0 f i RTreeCooking.obj
 0001:0001b8c0       ?computeLocalBounds@MeshBulider@physx@@IEAAXAEAVMeshDataBase@Gu@2@@Z 000000018001c8c0 f   MeshBuilder.obj
 0001:0001b9c0       ??0TriangleMeshBuilder@physx@@QEAA@AEAVTriangleMeshData@Gu@1@AEBUPxCookingParams@1@@Z 000000018001c9c0 f   TriangleMeshBuilder.obj
 0001:0001ba20       ??1TriangleMeshBuilder@physx@@UEAA@XZ 000000018001ca20 f   TriangleMeshBuilder.obj
 0001:0001ba50       ?cleanMesh@TriangleMeshBuilder@physx@@QEAA_N_NPEAW4Enum@PxTriangleMeshCookingResult@2@@Z 000000018001ca50 f   TriangleMeshBuilder.obj
 0001:0001c2f0       ?remapTopology@TriangleMeshBuilder@physx@@QEAAXPEBI@Z 000000018001d2f0 f   TriangleMeshBuilder.obj
 0001:0001c720       ?createSharedEdgeData@TriangleMeshBuilder@physx@@QEAAX_N0@Z 000000018001d720 f   TriangleMeshBuilder.obj
 0001:0001cfd0       ?recordTriangleIndices@TriangleMeshBuilder@physx@@QEAAXXZ 000000018001dfd0 f   TriangleMeshBuilder.obj
 0001:0001d1d0       ?createGRBMidPhaseAndData@TriangleMeshBuilder@physx@@QEAAXI@Z 000000018001e1d0 f   TriangleMeshBuilder.obj
 0001:0001d530       ?createGRBData@TriangleMeshBuilder@physx@@QEAAXXZ 000000018001e530 f   TriangleMeshBuilder.obj
 0001:0001d6d0       ?loadFromDesc@TriangleMeshBuilder@physx@@QEAA_NAEBVPxTriangleMeshDesc@2@PEAW4Enum@PxTriangleMeshCookingResult@2@_N@Z 000000018001e6d0 f   TriangleMeshBuilder.obj
 0001:0001d9d0       ?save@TriangleMeshBuilder@physx@@QEBA_NAEAVPxOutputStream@2@_NAEBUPxCookingParams@2@@Z 000000018001e9d0 f   TriangleMeshBuilder.obj
 0001:0001e2f0       ?checkMeshIndicesSize@TriangleMeshBuilder@physx@@QEAAXXZ 000000018001f2f0 f   TriangleMeshBuilder.obj
 0001:0001e4f0       ?importMesh@TriangleMeshBuilder@physx@@IEAA_NAEBVPxTriangleMeshDesc@2@AEBUPxCookingParams@2@PEAW4Enum@PxTriangleMeshCookingResult@2@_N@Z 000000018001f4f0 f   TriangleMeshBuilder.obj
 0001:0001eb80       ?releaseEdgeList@TriangleMeshBuilder@physx@@IEAAXXZ 000000018001fb80 f   TriangleMeshBuilder.obj
 0001:0001ebe0       ?createEdgeList@TriangleMeshBuilder@physx@@IEAAXXZ 000000018001fbe0 f   TriangleMeshBuilder.obj
 0001:0001ed60       ??0RTreeTriangleMeshBuilder@physx@@QEAA@AEBUPxCookingParams@1@@Z 000000018001fd60 f   TriangleMeshBuilder.obj
 0001:0001edc0       ??1RTreeTriangleMeshBuilder@physx@@UEAA@XZ 000000018001fdc0 f   TriangleMeshBuilder.obj
 0001:0001ee00       ?createMidPhaseStructure@RTreeTriangleMeshBuilder@physx@@UEAAXXZ 000000018001fe00 f   TriangleMeshBuilder.obj
 0001:0001f020       ?saveMidPhaseStructure@RTreeTriangleMeshBuilder@physx@@UEBAXAEAVPxOutputStream@2@_N@Z 0000000180020020 f   TriangleMeshBuilder.obj
 0001:0001f300       ??0BV4TriangleMeshBuilder@physx@@QEAA@AEBUPxCookingParams@1@@Z 0000000180020300 f   TriangleMeshBuilder.obj
 0001:0001f360       ??1BV4TriangleMeshBuilder@physx@@UEAA@XZ 0000000180020360 f   TriangleMeshBuilder.obj
 0001:0001f3a0       ?createMidPhaseStructure@BV4TriangleMeshBuilder@physx@@UEAAXXZ 00000001800203a0 f   TriangleMeshBuilder.obj
 0001:0001f860       ?saveMidPhaseStructure@BV4TriangleMeshBuilder@physx@@UEBAXAEAVPxOutputStream@2@_N@Z 0000000180020860 f   TriangleMeshBuilder.obj
 0001:0001fab0       ?onMeshIndexFormatChange@BV4TriangleMeshBuilder@physx@@UEAAXXZ 0000000180020ab0 f   TriangleMeshBuilder.obj
 0001:0001fb40       ?createMidPhaseStructure@BV32TriangleMeshBuilder@physx@@SAXAEBUPxCookingParams@2@AEAVTriangleMeshData@Gu@2@AEAVBV32Tree@52@@Z 0000000180020b40 f   TriangleMeshBuilder.obj
 0001:0001fe30       ?saveMidPhaseStructure@BV32TriangleMeshBuilder@physx@@SAXPEAVBV32Tree@Gu@2@AEAVPxOutputStream@2@_N@Z 0000000180020e30 f   TriangleMeshBuilder.obj
 0001:000208c0       ?findSharpVertices@GrbTrimeshCookerHelper@physx@@YAXAEAV?$Array@USortedNeighbor@GrbTrimeshCookerHelper@physx@@VNamedAllocator@shdfnd@3@@shdfnd@2@AEAV?$Array@USharpEdgeRange@GrbTrimeshCookerHelper@physx@@VNamedAllocator@shdfnd@3@@42@PEBUuint3@2@PEBUuint4@2@II@Z 00000001800218c0 f   TriangleMeshBuilder.obj
 0001:00020dd0       ?buildVertexConnectionNew_p1@GrbTrimeshCookerHelper@physx@@YAIAEAV?$Array@USortedNeighbor@GrbTrimeshCookerHelper@physx@@VNamedAllocator@shdfnd@3@@shdfnd@2@AEAV?$Array@USharpEdgeRange@GrbTrimeshCookerHelper@physx@@VNamedAllocator@shdfnd@3@@42@PEBUuint3@2@PEBUuint4@2@II@Z 0000000180021dd0 f   TriangleMeshBuilder.obj
 0001:00020e70       ?buildVertexConnectionNew_p2@GrbTrimeshCookerHelper@physx@@YAXPEAI00AEAV?$Array@USortedNeighbor@GrbTrimeshCookerHelper@physx@@VNamedAllocator@shdfnd@3@@shdfnd@2@AEAV?$Array@USharpEdgeRange@GrbTrimeshCookerHelper@physx@@VNamedAllocator@shdfnd@3@@42@I@Z 0000000180021e70 f   TriangleMeshBuilder.obj
 0001:00020f50       ??$?2V?$ReflectionAllocator@VBV32Tree@Gu@physx@@@shdfnd@physx@@@UserAllocated@shdfnd@physx@@SAPEAX_KV?$ReflectionAllocator@VBV32Tree@Gu@physx@@@12@PEBDH@Z 0000000180021f50 f i TriangleMeshBuilder.obj
 0001:00020f90       ??$?2V?$ReflectionAllocator@VEdgeListBuilder@Gu@physx@@@shdfnd@physx@@@UserAllocated@shdfnd@physx@@SAPEAX_KV?$ReflectionAllocator@VEdgeListBuilder@Gu@physx@@@12@PEBDH@Z 0000000180021f90 f i TriangleMeshBuilder.obj
 0001:00020fd0       ??$?_UE@@YAPEAX_KV?$ReflectionAllocator@E@shdfnd@physx@@PEBDH@Z 0000000180021fd0 f i TriangleMeshBuilder.obj
 0001:00021010       ??$?_UG@@YAPEAX_KV?$ReflectionAllocator@G@shdfnd@physx@@PEBDH@Z 0000000180022010 f i TriangleMeshBuilder.obj
 0001:00021050       ??$PX_UNUSED@U?$TriangleT@I@Gu@physx@@@@YAXAEBU?$TriangleT@I@Gu@physx@@@Z 0000000180022050 f i TriangleMeshBuilder.obj
 0001:00021060       ??$median3@UEdgeTriLookup@physx@@$$CBU?$Less@UEdgeTriLookup@physx@@@shdfnd@2@@internal@shdfnd@physx@@YAXPEAUEdgeTriLookup@2@HHAEBU?$Less@UEdgeTriLookup@physx@@@12@@Z 0000000180022060 f i TriangleMeshBuilder.obj
 0001:00021220       ??$median3@USortedNeighbor@GrbTrimeshCookerHelper@physx@@$$CBU?$Less@USortedNeighbor@GrbTrimeshCookerHelper@physx@@@shdfnd@3@@internal@shdfnd@physx@@YAXPEAUSortedNeighbor@GrbTrimeshCookerHelper@2@HHAEBU?$Less@USortedNeighbor@GrbTrimeshCookerHelper@physx@@@12@@Z 0000000180022220 f i TriangleMeshBuilder.obj
 0001:000213e0       ??$partition@UEdgeTriLookup@physx@@$$CBU?$Less@UEdgeTriLookup@physx@@@shdfnd@2@@internal@shdfnd@physx@@YAHPEAUEdgeTriLookup@2@HHAEBU?$Less@UEdgeTriLookup@physx@@@12@@Z 00000001800223e0 f i TriangleMeshBuilder.obj
 0001:00021600       ??$partition@USortedNeighbor@GrbTrimeshCookerHelper@physx@@$$CBU?$Less@USortedNeighbor@GrbTrimeshCookerHelper@physx@@@shdfnd@3@@internal@shdfnd@physx@@YAHPEAUSortedNeighbor@GrbTrimeshCookerHelper@2@HHAEBU?$Less@USortedNeighbor@GrbTrimeshCookerHelper@physx@@@12@@Z 0000000180022600 f i TriangleMeshBuilder.obj
 0001:00021820       ??$smallSort@UEdgeTriLookup@physx@@$$CBU?$Less@UEdgeTriLookup@physx@@@shdfnd@2@@internal@shdfnd@physx@@YAXPEAUEdgeTriLookup@2@HHAEBU?$Less@UEdgeTriLookup@physx@@@12@@Z 0000000180022820 f i TriangleMeshBuilder.obj
 0001:00021910       ??$smallSort@USortedNeighbor@GrbTrimeshCookerHelper@physx@@$$CBU?$Less@USortedNeighbor@GrbTrimeshCookerHelper@physx@@@shdfnd@3@@internal@shdfnd@physx@@YAXPEAUSortedNeighbor@GrbTrimeshCookerHelper@2@HHAEBU?$Less@USortedNeighbor@GrbTrimeshCookerHelper@physx@@@12@@Z 0000000180022910 f i TriangleMeshBuilder.obj
 0001:00021a00       ??$sort@UEdgeTriLookup@physx@@@shdfnd@physx@@YAXPEAUEdgeTriLookup@1@I@Z 0000000180022a00 f i TriangleMeshBuilder.obj
 0001:00021a50       ??$sort@UEdgeTriLookup@physx@@U?$Less@UEdgeTriLookup@physx@@@shdfnd@2@VNamedAllocator@42@@shdfnd@physx@@YAXPEAUEdgeTriLookup@1@IAEBU?$Less@UEdgeTriLookup@physx@@@01@AEBVNamedAllocator@01@I@Z 0000000180022a50 f i TriangleMeshBuilder.obj
 0001:00021d50       ??$sort@USortedNeighbor@GrbTrimeshCookerHelper@physx@@@shdfnd@physx@@YAXPEAUSortedNeighbor@GrbTrimeshCookerHelper@1@I@Z 0000000180022d50 f i TriangleMeshBuilder.obj
 0001:00021da0       ??$sort@USortedNeighbor@GrbTrimeshCookerHelper@physx@@U?$Less@USortedNeighbor@GrbTrimeshCookerHelper@physx@@@shdfnd@3@VNamedAllocator@53@@shdfnd@physx@@YAXPEAUSortedNeighbor@GrbTrimeshCookerHelper@1@IAEBU?$Less@USortedNeighbor@GrbTrimeshCookerHelper@physx@@@01@AEBVNamedAllocator@01@I@Z 0000000180022da0 f i TriangleMeshBuilder.obj
 0001:000220a0       ??$swap@UEdgeTriLookup@physx@@@shdfnd@physx@@YAXAEAUEdgeTriLookup@1@0@Z 00000001800230a0 f i TriangleMeshBuilder.obj
 0001:000220f0       ??$swap@USortedNeighbor@GrbTrimeshCookerHelper@physx@@@shdfnd@physx@@YAXAEAUSortedNeighbor@GrbTrimeshCookerHelper@1@0@Z 00000001800230f0 f i TriangleMeshBuilder.obj
 0001:00022140       ??0?$Array@IVNamedAllocator@shdfnd@physx@@@shdfnd@physx@@QEAA@AEBVNamedAllocator@12@@Z 0000000180023140 f i TriangleMeshBuilder.obj
 0001:00022190       ??0?$PxFlags@W4Enum@PxMeshFlag@physx@@G@physx@@QEAA@W4Enum@PxMeshFlag@1@@Z 0000000180023190 f i TriangleMeshBuilder.obj
 0001:000221b0       ??0?$PxFlags@W4Enum@PxMeshFlag@physx@@G@physx@@QEAA@XZ 00000001800231b0 f i TriangleMeshBuilder.obj
 0001:000221d0       ??0?$ReflectionAllocator@E@shdfnd@physx@@QEAA@PEBD@Z 00000001800231d0 f i TriangleMeshBuilder.obj
 0001:000221e0       ??0?$ReflectionAllocator@G@shdfnd@physx@@QEAA@PEBD@Z 00000001800231e0 f i TriangleMeshBuilder.obj
 0001:000221f0       ??0?$ReflectionAllocator@VBV32Tree@Gu@physx@@@shdfnd@physx@@QEAA@PEBD@Z 00000001800231f0 f i TriangleMeshBuilder.obj
 0001:00022200       ??0?$ReflectionAllocator@VEdgeListBuilder@Gu@physx@@@shdfnd@physx@@QEAA@PEBD@Z 0000000180023200 f i TriangleMeshBuilder.obj
 0001:00022210       ??0BV4TriangleData@Gu@physx@@QEAA@XZ 0000000180023210 f i TriangleMeshBuilder.obj
 0001:00022270       ??0MeshDataBase@Gu@physx@@QEAA@XZ 0000000180023270 f i TriangleMeshBuilder.obj
 0001:00022320       ??0PxPlane@physx@@QEAA@AEBVPxVec3@1@0@Z 0000000180023320 f i TriangleMeshBuilder.obj
 0001:00022380       ??0PxSimpleTriangleMesh@physx@@QEAA@AEBV01@@Z 0000000180023380 f i TriangleMeshBuilder.obj
 0001:000223e0       ??0PxTriangleMeshDesc@physx@@QEAA@AEBV01@@Z 00000001800233e0 f i TriangleMeshBuilder.obj
 0001:00022430       ??0RTree@Gu@physx@@QEAA@XZ 0000000180023430 f i TriangleMeshBuilder.obj
 0001:000224c0       ??0RTreeCookerRemap@physx@@QEAA@I@Z 00000001800234c0 f i TriangleMeshBuilder.obj
 0001:00022500       ??0RTreeTriangleData@Gu@physx@@QEAA@XZ 0000000180023500 f i TriangleMeshBuilder.obj
 0001:00022550       ??0RemapCallback@RTreeCooker@physx@@QEAA@XZ 0000000180023550 f i TriangleMeshBuilder.obj
 0001:00022570       ??0SharpEdgeRange@GrbTrimeshCookerHelper@physx@@QEAA@II@Z 0000000180023570 f i TriangleMeshBuilder.obj
 0001:000225a0       ??0SharpEdgeRange@GrbTrimeshCookerHelper@physx@@QEAA@XZ 00000001800235a0 f i TriangleMeshBuilder.obj
 0001:000225d0       ??0SortedNeighbor@GrbTrimeshCookerHelper@physx@@QEAA@II_N@Z 00000001800235d0 f i TriangleMeshBuilder.obj
 0001:00022610       ??0TriangleMeshData@Gu@physx@@QEAA@XZ 0000000180023610 f i TriangleMeshBuilder.obj
 0001:00022690       ??1BV4TriangleData@Gu@physx@@UEAA@XZ 0000000180023690 f i TriangleMeshBuilder.obj
 0001:000226e0       ??1MeshDataBase@Gu@physx@@UEAA@XZ 00000001800236e0 f i TriangleMeshBuilder.obj
 0001:00022830       ??1RTree@Gu@physx@@QEAA@XZ 0000000180023830 f i TriangleMeshBuilder.obj
 0001:00022850       ??1RTreeCookerRemap@physx@@UEAA@XZ 0000000180023850 f i TriangleMeshBuilder.obj
 0001:00022870       ??1RTreeTriangleData@Gu@physx@@UEAA@XZ 0000000180023870 f i TriangleMeshBuilder.obj
 0001:000228b0       ??1RemapCallback@RTreeCooker@physx@@UEAA@XZ 00000001800238b0 f i TriangleMeshBuilder.obj
 0001:000228d0       ??1TriangleMeshData@Gu@physx@@UEAA@XZ 00000001800238d0 f i TriangleMeshBuilder.obj
 0001:00022a00       ??A?$Array@USharpEdgeRange@GrbTrimeshCookerHelper@physx@@VNamedAllocator@shdfnd@3@@shdfnd@physx@@QEAAAEAUSharpEdgeRange@GrbTrimeshCookerHelper@2@I@Z 0000000180023a00 f i TriangleMeshBuilder.obj
 0001:00022a80       ??A?$Array@USortedNeighbor@GrbTrimeshCookerHelper@physx@@VNamedAllocator@shdfnd@3@@shdfnd@physx@@QEAAAEAUSortedNeighbor@GrbTrimeshCookerHelper@2@I@Z 0000000180023a80 f i TriangleMeshBuilder.obj
 0001:00022b00       ??MEdgeTriLookup@physx@@QEBA_NAEBU01@@Z 0000000180023b00 f i TriangleMeshBuilder.obj
 0001:00022b60       ??MSortedNeighbor@GrbTrimeshCookerHelper@physx@@QEBA_NAEBU012@@Z 0000000180023b60 f i TriangleMeshBuilder.obj
 0001:00022c00       ??NEdgeTriLookup@physx@@QEBA_NAEBU01@@Z 0000000180023c00 f i TriangleMeshBuilder.obj
 0001:00022c60       ??R?$Less@UEdgeTriLookup@physx@@@shdfnd@physx@@QEBA_NAEBUEdgeTriLookup@2@0@Z 0000000180023c60 f i TriangleMeshBuilder.obj
 0001:00022c90       ??R?$Less@USortedNeighbor@GrbTrimeshCookerHelper@physx@@@shdfnd@physx@@QEBA_NAEBUSortedNeighbor@GrbTrimeshCookerHelper@2@0@Z 0000000180023c90 f i TriangleMeshBuilder.obj
 0001:00022cc0       ??S?$PxFlags@W4Enum@PxMeshFlag@physx@@G@physx@@QEBA?AV01@XZ 0000000180023cc0 f i TriangleMeshBuilder.obj
 0001:00022d00       ??Sphysx@@YA?AV?$PxFlags@W4Enum@PxMeshFlag@physx@@G@0@W4Enum@PxMeshFlag@0@@Z 0000000180023d00 f i TriangleMeshBuilder.obj
 0001:00022d40       ??_4?$PxFlags@W4Enum@PxMeshFlag@physx@@G@physx@@QEAAAEAV01@AEBV01@@Z 0000000180023d40 f i TriangleMeshBuilder.obj
 0001:00022d70       ??_GBV32Tree@Gu@physx@@QEAAPEAXI@Z 0000000180023d70 f i TriangleMeshBuilder.obj
 0001:00022dd0       ??_GBV4TriangleData@Gu@physx@@UEAAPEAXI@Z 0000000180023dd0 f i TriangleMeshBuilder.obj
 0001:00022dd0       ??_EBV4TriangleData@Gu@physx@@UEAAPEAXI@Z 0000000180023dd0 f i TriangleMeshBuilder.obj
 0001:00022e30       ??_EBV4TriangleMeshBuilder@physx@@UEAAPEAXI@Z 0000000180023e30 f i TriangleMeshBuilder.obj
 0001:00022e30       ??_GBV4TriangleMeshBuilder@physx@@UEAAPEAXI@Z 0000000180023e30 f i TriangleMeshBuilder.obj
 0001:00022e70       ??_GEdgeListBuilder@Gu@physx@@QEAAPEAXI@Z 0000000180023e70 f i TriangleMeshBuilder.obj
 0001:00022ed0       ??_EMeshDataBase@Gu@physx@@UEAAPEAXI@Z 0000000180023ed0 f i TriangleMeshBuilder.obj
 0001:00022ed0       ??_GMeshDataBase@Gu@physx@@UEAAPEAXI@Z 0000000180023ed0 f i TriangleMeshBuilder.obj
 0001:00022f30       ??_ERTreeCookerRemap@physx@@UEAAPEAXI@Z 0000000180023f30 f i TriangleMeshBuilder.obj
 0001:00022f30       ??_GRTreeCookerRemap@physx@@UEAAPEAXI@Z 0000000180023f30 f i TriangleMeshBuilder.obj
 0001:00022f70       ??_ERTreeTriangleData@Gu@physx@@UEAAPEAXI@Z 0000000180023f70 f i TriangleMeshBuilder.obj
 0001:00022f70       ??_GRTreeTriangleData@Gu@physx@@UEAAPEAXI@Z 0000000180023f70 f i TriangleMeshBuilder.obj
 0001:00022fd0       ??_GRTreeTriangleMeshBuilder@physx@@UEAAPEAXI@Z 0000000180023fd0 f i TriangleMeshBuilder.obj
 0001:00022fd0       ??_ERTreeTriangleMeshBuilder@physx@@UEAAPEAXI@Z 0000000180023fd0 f i TriangleMeshBuilder.obj
 0001:00023010       ??_ERemapCallback@RTreeCooker@physx@@UEAAPEAXI@Z 0000000180024010 f i TriangleMeshBuilder.obj
 0001:00023010       ??_GRemapCallback@RTreeCooker@physx@@UEAAPEAXI@Z 0000000180024010 f i TriangleMeshBuilder.obj
 0001:00023050       ??_GTriangleMeshBuilder@physx@@UEAAPEAXI@Z 0000000180024050 f i TriangleMeshBuilder.obj
 0001:00023050       ??_ETriangleMeshBuilder@physx@@UEAAPEAXI@Z 0000000180024050 f i TriangleMeshBuilder.obj
 0001:00023090       ??_ETriangleMeshData@Gu@physx@@UEAAPEAXI@Z 0000000180024090 f i TriangleMeshBuilder.obj
 0001:00023090       ??_GTriangleMeshData@Gu@physx@@UEAAPEAXI@Z 0000000180024090 f i TriangleMeshBuilder.obj
 0001:000230f0       ?LeafSetData@Gu@physx@@YAIII@Z 00000001800240f0 f i TriangleMeshBuilder.obj
 0001:000231c0       ?SetData@LeafTriangles@Gu@physx@@QEAAXII@Z 00000001800241c0 f i TriangleMeshBuilder.obj
 0001:000231f0       ?WriteDwordBuffer@physx@@YAXPEBII_NAEAVPxOutputStream@1@@Z 00000001800241f0 f i TriangleMeshBuilder.obj
 0001:00023230       ?allocate@?$Array@USharpEdgeRange@GrbTrimeshCookerHelper@physx@@VNamedAllocator@shdfnd@3@@shdfnd@physx@@IEAAPEAUSharpEdgeRange@GrbTrimeshCookerHelper@3@I@Z 0000000180024230 f i TriangleMeshBuilder.obj
 0001:000232c0       ?allocate@?$Array@USortedNeighbor@GrbTrimeshCookerHelper@physx@@VNamedAllocator@shdfnd@3@@shdfnd@physx@@IEAAPEAUSortedNeighbor@GrbTrimeshCookerHelper@3@I@Z 00000001800242c0 f i TriangleMeshBuilder.obj
 0001:00023350       ?allocate@?$ReflectionAllocator@E@shdfnd@physx@@QEAAPEAX_KPEBDH@Z 0000000180024350 f i TriangleMeshBuilder.obj
 0001:000233d0       ?allocate@?$ReflectionAllocator@G@shdfnd@physx@@QEAAPEAX_KPEBDH@Z 00000001800243d0 f i TriangleMeshBuilder.obj
 0001:00023450       ?allocate@?$ReflectionAllocator@VBV32Tree@Gu@physx@@@shdfnd@physx@@QEAAPEAX_KPEBDH@Z 0000000180024450 f i TriangleMeshBuilder.obj
 0001:000234d0       ?allocate@?$ReflectionAllocator@VEdgeListBuilder@Gu@physx@@@shdfnd@physx@@QEAAPEAX_KPEBDH@Z 00000001800244d0 f i TriangleMeshBuilder.obj
 0001:00023550       ?allocateMaterials@TriangleMeshData@Gu@physx@@QEAAPEAGXZ 0000000180024550 f i TriangleMeshBuilder.obj
 0001:00023680       ?allocateTriangles@TriangleMeshData@Gu@physx@@QEAAPEAXI_NI@Z 0000000180024680 f i TriangleMeshBuilder.obj
 0001:000238c0       ?allocateVertices@MeshDataBase@Gu@physx@@QEAAPEAVPxVec3@3@I@Z 00000001800248c0 f i TriangleMeshBuilder.obj
 0001:000239a0       ?begin@?$Array@USortedNeighbor@GrbTrimeshCookerHelper@physx@@VNamedAllocator@shdfnd@3@@shdfnd@physx@@QEAAPEAUSortedNeighbor@GrbTrimeshCookerHelper@3@XZ 00000001800249a0 f i TriangleMeshBuilder.obj
 0001:000239b0       ?capacity@?$Array@USharpEdgeRange@GrbTrimeshCookerHelper@physx@@VNamedAllocator@shdfnd@3@@shdfnd@physx@@QEBAIXZ 00000001800249b0 f i TriangleMeshBuilder.obj
 0001:000239d0       ?capacity@?$Array@USortedNeighbor@GrbTrimeshCookerHelper@physx@@VNamedAllocator@shdfnd@3@@shdfnd@physx@@QEBAIXZ 00000001800249d0 f i TriangleMeshBuilder.obj
 0001:000239f0       ?capacityIncrement@?$Array@USortedNeighbor@GrbTrimeshCookerHelper@physx@@VNamedAllocator@shdfnd@3@@shdfnd@physx@@IEBAIXZ 00000001800249f0 f i TriangleMeshBuilder.obj
 0001:00023a30       ?copy@?$Array@USharpEdgeRange@GrbTrimeshCookerHelper@physx@@VNamedAllocator@shdfnd@3@@shdfnd@physx@@KAXPEAUSharpEdgeRange@GrbTrimeshCookerHelper@3@0PEBU453@@Z 0000000180024a30 f i TriangleMeshBuilder.obj
 0001:00023ab0       ?copy@?$Array@USortedNeighbor@GrbTrimeshCookerHelper@physx@@VNamedAllocator@shdfnd@3@@shdfnd@physx@@KAXPEAUSortedNeighbor@GrbTrimeshCookerHelper@3@0PEBU453@@Z 0000000180024ab0 f i TriangleMeshBuilder.obj
 0001:00023b30       ?create@?$Array@USharpEdgeRange@GrbTrimeshCookerHelper@physx@@VNamedAllocator@shdfnd@3@@shdfnd@physx@@KAXPEAUSharpEdgeRange@GrbTrimeshCookerHelper@3@0AEBU453@@Z 0000000180024b30 f i TriangleMeshBuilder.obj
 0001:00023b90       ?deallocate@?$AlignedAllocator@$0IA@VNonTrackingAllocator@shdfnd@physx@@@shdfnd@physx@@QEAAXPEAX@Z 0000000180024b90 f i TriangleMeshBuilder.obj
 0001:00023be0       ?deallocate@?$Array@USharpEdgeRange@GrbTrimeshCookerHelper@physx@@VNamedAllocator@shdfnd@3@@shdfnd@physx@@IEAAXPEAX@Z 0000000180024be0 f i TriangleMeshBuilder.obj
 0001:00023c10       ?deallocate@?$Array@USortedNeighbor@GrbTrimeshCookerHelper@physx@@VNamedAllocator@shdfnd@3@@shdfnd@physx@@IEAAXPEAX@Z 0000000180024c10 f i TriangleMeshBuilder.obj
 0001:00023c40       ?destroy@?$Array@USharpEdgeRange@GrbTrimeshCookerHelper@physx@@VNamedAllocator@shdfnd@3@@shdfnd@physx@@KAXPEAUSharpEdgeRange@GrbTrimeshCookerHelper@3@0@Z 0000000180024c40 f i TriangleMeshBuilder.obj
 0001:00023c70       ?destroy@?$Array@USortedNeighbor@GrbTrimeshCookerHelper@physx@@VNamedAllocator@shdfnd@3@@shdfnd@physx@@KAXPEAUSortedNeighbor@GrbTrimeshCookerHelper@3@0@Z 0000000180024c70 f i TriangleMeshBuilder.obj
 0001:00023ca0       ?findEdgeCCW@?$TriangleT@I@Gu@physx@@QEBAEII@Z 0000000180024ca0 f i TriangleMeshBuilder.obj
 0001:00023e00       ?getMidphaseID@BV4TriangleMeshBuilder@physx@@UEBA?AW4Enum@PxMeshMidPhase@2@XZ 0000000180024e00 f i TriangleMeshBuilder.obj
 0001:00023e10       ?getMidphaseID@RTreeTriangleMeshBuilder@physx@@UEBA?AW4Enum@PxMeshMidPhase@2@XZ 0000000180024e10 f i TriangleMeshBuilder.obj
 0001:00023e20       ?getName@?$ReflectionAllocator@E@shdfnd@physx@@CAPEBDXZ 0000000180024e20 f i TriangleMeshBuilder.obj
 0001:00023e60       ?getName@?$ReflectionAllocator@G@shdfnd@physx@@CAPEBDXZ 0000000180024e60 f i TriangleMeshBuilder.obj
 0001:00023ea0       ?getName@?$ReflectionAllocator@VBV32Tree@Gu@physx@@@shdfnd@physx@@CAPEBDXZ 0000000180024ea0 f i TriangleMeshBuilder.obj
 0001:00023ee0       ?getName@?$ReflectionAllocator@VEdgeListBuilder@Gu@physx@@@shdfnd@physx@@CAPEBDXZ 0000000180024ee0 f i TriangleMeshBuilder.obj
 0001:00023f20       ?getNbFaces@EdgeList@Gu@physx@@QEBAIXZ 0000000180024f20 f i TriangleMeshBuilder.obj
 0001:00023f30       ?getRemap@SourceMeshBase@Gu@physx@@QEBAPEBIXZ 0000000180024f30 f i TriangleMeshBuilder.obj
 0001:00023f40       ?grow@?$Array@USharpEdgeRange@GrbTrimeshCookerHelper@physx@@VNamedAllocator@shdfnd@3@@shdfnd@physx@@IEAAXI@Z 0000000180024f40 f i TriangleMeshBuilder.obj
 0001:00023fc0       ?grow@?$Array@USortedNeighbor@GrbTrimeshCookerHelper@physx@@VNamedAllocator@shdfnd@3@@shdfnd@physx@@IEAAXI@Z 0000000180024fc0 f i TriangleMeshBuilder.obj
 0001:00024040       ?growAndPushBack@?$Array@USortedNeighbor@GrbTrimeshCookerHelper@physx@@VNamedAllocator@shdfnd@3@@shdfnd@physx@@IEAAAEAUSortedNeighbor@GrbTrimeshCookerHelper@3@AEBU453@@Z 0000000180025040 f i TriangleMeshBuilder.obj
 0001:00024210       ?has16BitIndices@MeshDataBase@Gu@physx@@QEBA_NXZ 0000000180025210 f i TriangleMeshBuilder.obj
 0001:00024240       ?initRemap@SourceMeshBase@Gu@physx@@QEAAXXZ 0000000180025240 f i TriangleMeshBuilder.obj
 0001:00024260       ?isInUserMemory@?$Array@USharpEdgeRange@GrbTrimeshCookerHelper@physx@@VNamedAllocator@shdfnd@3@@shdfnd@physx@@QEBAIXZ 0000000180025260 f i TriangleMeshBuilder.obj
 0001:00024280       ?isInUserMemory@?$Array@USortedNeighbor@GrbTrimeshCookerHelper@physx@@VNamedAllocator@shdfnd@3@@shdfnd@physx@@QEBAIXZ 0000000180025280 f i TriangleMeshBuilder.obj
 0001:000242a0       ?isValid@PxBVH33MidphaseDesc@physx@@QEBA_NXZ 00000001800252a0 f i TriangleMeshBuilder.obj
 0001:000242d0       ?isValid@PxBVH34MidphaseDesc@physx@@QEBA_NXZ 00000001800252d0 f i TriangleMeshBuilder.obj
 0001:000242f0       ?isValid@PxMidphaseDesc@physx@@QEBA_NXZ 00000001800252f0 f i TriangleMeshBuilder.obj
 0001:00024340       ?onMeshIndexFormatChange@TriangleMeshBuilder@physx@@UEAAXXZ 0000000180025340 f i TriangleMeshBuilder.obj
 0001:00024350       ?pushBack@?$Array@USortedNeighbor@GrbTrimeshCookerHelper@physx@@VNamedAllocator@shdfnd@3@@shdfnd@physx@@QEAAAEAUSortedNeighbor@GrbTrimeshCookerHelper@3@AEBU453@@Z 0000000180025350 f i TriangleMeshBuilder.obj
 0001:00024400       ?recreate@?$Array@USharpEdgeRange@GrbTrimeshCookerHelper@physx@@VNamedAllocator@shdfnd@3@@shdfnd@physx@@IEAAXI@Z 0000000180025400 f i TriangleMeshBuilder.obj
 0001:00024510       ?recreate@?$Array@USortedNeighbor@GrbTrimeshCookerHelper@physx@@VNamedAllocator@shdfnd@3@@shdfnd@physx@@IEAAXI@Z 0000000180025510 f i TriangleMeshBuilder.obj
 0001:00024630       ?release@RTree@Gu@physx@@QEAAXXZ 0000000180025630 f i TriangleMeshBuilder.obj
 0001:00024690       ?releaseRemap@SourceMeshBase@Gu@physx@@QEAAXXZ 0000000180025690 f i TriangleMeshBuilder.obj
 0001:000246d0       ?remap@RTreeCookerRemap@physx@@UEAAXPEAIII@Z 00000001800256d0 f i TriangleMeshBuilder.obj
 0001:000248c0       ?reserve@?$Array@USharpEdgeRange@GrbTrimeshCookerHelper@physx@@VNamedAllocator@shdfnd@3@@shdfnd@physx@@QEAAXI@Z 00000001800258c0 f i TriangleMeshBuilder.obj
 0001:000248f0       ?reserve@?$Array@USortedNeighbor@GrbTrimeshCookerHelper@physx@@VNamedAllocator@shdfnd@3@@shdfnd@physx@@QEAAXI@Z 00000001800258f0 f i TriangleMeshBuilder.obj
 0001:00024920       ?resize@?$Array@USharpEdgeRange@GrbTrimeshCookerHelper@physx@@VNamedAllocator@shdfnd@3@@shdfnd@physx@@QEAAXIAEBUSharpEdgeRange@GrbTrimeshCookerHelper@3@@Z 0000000180025920 f i TriangleMeshBuilder.obj
 0001:000249b0       ?resizeUninitialized@?$Array@USortedNeighbor@GrbTrimeshCookerHelper@physx@@VNamedAllocator@shdfnd@3@@shdfnd@physx@@QEAAXI@Z 00000001800259b0 f i TriangleMeshBuilder.obj
 0001:000249e0       ?setNbTriangles@SourceMesh@Gu@physx@@QEAAXI@Z 00000001800259e0 f i TriangleMeshBuilder.obj
 0001:00024a00       ?setNbVertices@SourceMeshBase@Gu@physx@@QEAAXI@Z 0000000180025a00 f i TriangleMeshBuilder.obj
 0001:00024a20       ?setPointers@SourceMesh@Gu@physx@@QEAAXPEAVIndTri32@23@PEAVIndTri16@23@PEBVPxVec3@3@@Z 0000000180025a20 f i TriangleMeshBuilder.obj
 0001:00024a60       ?setTriangleAdjacency@TriangleMeshData@Gu@physx@@QEAAXIII@Z 0000000180025a60 f i TriangleMeshBuilder.obj
 0001:00024af0       ?size@?$Array@USortedNeighbor@GrbTrimeshCookerHelper@physx@@VNamedAllocator@shdfnd@3@@shdfnd@physx@@QEBAIXZ 0000000180025af0 f i TriangleMeshBuilder.obj
 0001:00024b00       ?to16@shdfnd@physx@@YAGI@Z 0000000180025b00 f i TriangleMeshBuilder.obj
 0001:00024b70       ?writeChunk@physx@@YAXCCCCAEAVPxOutputStream@1@@Z 0000000180025b70 f i TriangleMeshBuilder.obj
 0001:00024c00       ?writeIntBuffer@physx@@YAXPEBII_NAEAVPxOutputStream@1@@Z 0000000180025c00 f i TriangleMeshBuilder.obj
 0001:00024c40       ??0BigConvexDataBuilder@physx@@QEAA@PEBUConvexHullData@Gu@1@PEAVBigConvexData@1@PEBVPxVec3@1@@Z 0000000180025c40 f   BigConvexDataBuilder.obj
 0001:00024c90       ??1BigConvexDataBuilder@physx@@QEAA@XZ 0000000180025c90 f   BigConvexDataBuilder.obj
 0001:00024ca0       ?precompute@BigConvexDataBuilder@physx@@QEAA_NI@Z 0000000180025ca0 f   BigConvexDataBuilder.obj
 0001:000252c0       ?initialize@BigConvexDataBuilder@physx@@QEAA_NXZ 00000001800262c0 f   BigConvexDataBuilder.obj
 0001:00025330       ?save@BigConvexDataBuilder@physx@@QEBA_NAEAVPxOutputStream@2@_N@Z 0000000180026330 f   BigConvexDataBuilder.obj
 0001:00025460       ?computeValencies@BigConvexDataBuilder@physx@@QEAA_NAEBVConvexHullBuilder@2@@Z 0000000180026460 f   BigConvexDataBuilder.obj
 0001:00025ca0       ?saveValencies@BigConvexDataBuilder@physx@@QEBA_NAEAVPxOutputStream@2@_N@Z 0000000180026ca0 f   BigConvexDataBuilder.obj
 0001:00025ee0       ??0BigConvexData@physx@@QEAA@W4PxEMPTY@1@@Z 0000000180026ee0 f i BigConvexDataBuilder.obj
 0001:00025ef0       ??4BigConvexData@physx@@QEAAAEAV01@AEBV01@@Z 0000000180026ef0 f i BigConvexDataBuilder.obj
 0001:00025f20       ?GetAdjacentVerts@BigConvexData@physx@@QEBAPEBEXZ 0000000180026f20 f i BigConvexDataBuilder.obj
 0001:00025f30       ?GetNbNeighbors@BigConvexData@physx@@QEBAGI@Z 0000000180026f30 f i BigConvexDataBuilder.obj
 0001:00025f50       ?GetNbSamples@BigConvexData@physx@@QEBAIXZ 0000000180026f50 f i BigConvexDataBuilder.obj
 0001:00025f60       ?GetNbVerts@BigConvexData@physx@@QEBAIXZ 0000000180026f60 f i BigConvexDataBuilder.obj
 0001:00025f70       ?GetNeighbors@BigConvexData@physx@@QEBAPEBEI@Z 0000000180026f70 f i BigConvexDataBuilder.obj
 0001:00025fa0       ?GetOffset@BigConvexData@physx@@QEBAGI@Z 0000000180026fa0 f i BigConvexDataBuilder.obj
 0001:00025fc0       ?GetSubdiv@BigConvexData@physx@@QEBAIXZ 0000000180026fc0 f i BigConvexDataBuilder.obj
 0001:00025fd0       ?GetValencies@BigConvexData@physx@@QEBAPEBUValency@Gu@2@XZ 0000000180026fd0 f i BigConvexDataBuilder.obj
 0001:00025fe0       ?GetValency@BigConvexData@physx@@QEBAGI@Z 0000000180026fe0 f i BigConvexDataBuilder.obj
 0001:00026000       ?precomputeSample@BigConvexDataBuilder@physx@@IEAAXAEBVPxVec3@2@AEAEM@Z 0000000180027000 f i BigConvexDataBuilder.obj
 0001:00026360       ??0ConvexHullBuilder@physx@@QEAA@PEAUConvexHullData@Gu@1@_N@Z 0000000180027360 f   ConvexHullBuilder.obj
 0001:000263f0       ??1ConvexHullBuilder@physx@@QEAA@XZ 00000001800273f0 f   ConvexHullBuilder.obj
 0001:00026530       ?init@ConvexHullBuilder@physx@@QEAA_NIPEBVPxVec3@2@PEBIIIPEBUPxHullPolygon@2@_NPEAVConvexHullLib@2@@Z 0000000180027530 f   ConvexHullBuilder.obj
 0001:00026df0       ?save@ConvexHullBuilder@physx@@QEBA_NAEAVPxOutputStream@2@_N@Z 0000000180027df0 f   ConvexHullBuilder.obj
 0001:000271d0       ?copy@ConvexHullBuilder@physx@@QEAA_NAEAUConvexHullData@Gu@2@AEAI@Z 00000001800281d0 f   ConvexHullBuilder.obj
 0001:00027950       ?createEdgeList@ConvexHullBuilder@physx@@QEAA_N_NI@Z 0000000180028950 f   ConvexHullBuilder.obj
 0001:00028740       ?checkHullPolygons@ConvexHullBuilder@physx@@QEBA_NXZ 0000000180029740 f   ConvexHullBuilder.obj
 0001:00028ff0       ?calculateVertexMapTable@ConvexHullBuilder@physx@@QEAA_NI_N@Z 0000000180029ff0 f   ConvexHullBuilder.obj
 0001:000292a0       ?computeGeomCenter@ConvexHullBuilder@physx@@IEBA_NAEAVPxVec3@2@IPEAUHullTriangleData@2@@Z 000000018002a2a0 f   ConvexHullBuilder.obj
 0001:00029450       ??$?_UUEdgeDescData@Gu@physx@@@@YAPEAX_KV?$ReflectionAllocator@UEdgeDescData@Gu@physx@@@shdfnd@physx@@PEBDH@Z 000000018002a450 f i ConvexHullBuilder.obj
 0001:00029490       ??$?_U_N@@YAPEAX_KV?$ReflectionAllocator@_N@shdfnd@physx@@PEBDH@Z 000000018002a490 f i ConvexHullBuilder.obj
 0001:000294d0       ??0?$PxBitAndDataT@G$0IAAA@@physx@@QEAA@G_N@Z 000000018002a4d0 f i ConvexHullBuilder.obj
 0001:00029520       ??0?$ReflectionAllocator@UEdgeDescData@Gu@physx@@@shdfnd@physx@@QEAA@PEBD@Z 000000018002a520 f i ConvexHullBuilder.obj
 0001:00029530       ??0?$ReflectionAllocator@_N@shdfnd@physx@@QEAA@PEBD@Z 000000018002a530 f i ConvexHullBuilder.obj
 0001:00029540       ??0?$TriangleT@I@Gu@physx@@QEAA@III@Z 000000018002a540 f i ConvexHullBuilder.obj
 0001:000295a0       ??0HullPolygonData@Gu@physx@@QEAA@AEBU012@@Z 000000018002a5a0 f i ConvexHullBuilder.obj
 0001:00029600       ??0PxPlane@physx@@QEAA@AEBV01@@Z 000000018002a600 f i ConvexHullBuilder.obj
 0001:00029640       ??0PxPlane@physx@@QEAA@MMMM@Z 000000018002a640 f i ConvexHullBuilder.obj
 0001:000296a0       ??4PxPlane@physx@@QEAAAEAV01@$$QEAV01@@Z 000000018002a6a0 f i ConvexHullBuilder.obj
 0001:000296e0       ?PxMemSet@physx@@YAPEAXPEAXHI@Z 000000018002a6e0 f i ConvexHullBuilder.obj
 0001:00029710       ?allocate@?$ReflectionAllocator@UEdgeDescData@Gu@physx@@@shdfnd@physx@@QEAAPEAX_KPEBDH@Z 000000018002a710 f i ConvexHullBuilder.obj
 0001:00029790       ?allocate@?$ReflectionAllocator@_N@shdfnd@physx@@QEAAPEAX_KPEBDH@Z 000000018002a790 f i ConvexHullBuilder.obj
 0001:00029810       ?area@?$TriangleT@I@Gu@physx@@QEBAMPEBVPxVec3@3@@Z 000000018002a810 f i ConvexHullBuilder.obj
 0001:00029900       ?center@?$TriangleT@I@Gu@physx@@QEBAXPEBVPxVec3@3@AEAV43@@Z 000000018002a900 f i ConvexHullBuilder.obj
 0001:000299e0       ?computeBufferSize@Gu@physx@@YAIAEBUConvexHullData@12@I@Z 000000018002a9e0 f i ConvexHullBuilder.obj
 0001:00029b00       ?computeNbPolygons@ConvexHullBuilder@physx@@QEBAIXZ 000000018002ab00 f i ConvexHullBuilder.obj
 0001:00029b80       ?flip@physx@@YAXAEAG@Z     000000018002ab80 f i ConvexHullBuilder.obj
 0001:00029bf0       ?flip@physx@@YAXAEAM@Z     000000018002abf0 f i ConvexHullBuilder.obj
 0001:00029cb0       ?flipData@Gu@physx@@YAXAEAUHullPolygonData@12@@Z 000000018002acb0 f i ConvexHullBuilder.obj
 0001:00029d10       ?getName@?$ReflectionAllocator@UEdgeDescData@Gu@physx@@@shdfnd@physx@@CAPEBDXZ 000000018002ad10 f i ConvexHullBuilder.obj
 0001:00029d50       ?getName@?$ReflectionAllocator@_N@shdfnd@physx@@CAPEBDXZ 000000018002ad50 f i ConvexHullBuilder.obj
 0001:00029d90       ?memSet@intrinsics@physx@@YAPEAXPEAXHI@Z 000000018002ad90 f i ConvexHullBuilder.obj
 0001:00029dc0       ?to8@shdfnd@physx@@YAEI@Z  000000018002adc0 f i ConvexHullBuilder.obj
 0001:00029e30       ??1ConvexHullLib@physx@@UEAA@XZ 000000018002ae30 f   ConvexHullLib.obj
 0001:00029eb0       ?cleanupVertices@ConvexHullLib@physx@@IEAA_NIPEBVPxVec3@2@IAEAIPEAV32@AEAV32@3@Z 000000018002aeb0 f   ConvexHullLib.obj
 0001:0002a5c0       ?shiftAndcleanupVertices@ConvexHullLib@physx@@IEAA_NIPEBVPxVec3@2@IAEAIPEAV32@AEAV32@3@Z 000000018002b5c0 f   ConvexHullLib.obj
 0001:0002a7c0       ?swapLargestFace@ConvexHullLib@physx@@IEAAXAEAVPxConvexMeshDesc@2@@Z 000000018002b7c0 f   ConvexHullLib.obj
 0001:0002abb0       ?shiftConvexMeshDesc@ConvexHullLib@physx@@IEAAXAEAVPxConvexMeshDesc@2@@Z 000000018002bbb0 f   ConvexHullLib.obj
 0001:0002b3f0       ??_GConvexHullLib@physx@@UEAAPEAXI@Z 000000018002c3f0 f i ConvexHullLib.obj
 0001:0002b3f0       ??_EConvexHullLib@physx@@UEAAPEAXI@Z 000000018002c3f0 f i ConvexHullLib.obj
 0001:0002b430       ??0ConvexHull@physx@@QEAA@AEBVPxVec3@1@0AEBV?$Array@VPxPlane@physx@@VNamedAllocator@shdfnd@2@@shdfnd@1@@Z 000000018002c430 f   ConvexHullUtils.obj
 0001:0002bce0       ??0ConvexHull@physx@@QEAA@AEBVPxVec3@1@AEBVPxTransform@1@AEBV?$Array@VPxPlane@physx@@VNamedAllocator@shdfnd@2@@shdfnd@1@@Z 000000018002cce0 f   ConvexHullUtils.obj
 0001:0002c710       ?findCandidatePlane@ConvexHull@physx@@QEBAHMM@Z 000000018002d710 f   ConvexHullUtils.obj
 0001:0002cb10       ?assertIntact@ConvexHull@physx@@QEBA_NM@Z 000000018002db10 f   ConvexHullUtils.obj
 0001:0002d310       ?maxNumVertsPerFace@ConvexHull@physx@@QEBAIXZ 000000018002e310 f   ConvexHullUtils.obj
 0001:0002d3e0       ?convexHullCrop@physx@@YAPEAVConvexHull@1@AEBV21@AEBVPxPlane@1@M@Z 000000018002e3e0 f   ConvexHullUtils.obj
 0001:0002ea50       ?computeOBBFromConvex@physx@@YA_NAEBVPxConvexMeshDesc@1@AEAVPxVec3@1@AEAVPxTransform@1@@Z 000000018002fa50 f   ConvexHullUtils.obj
 0001:0002f390       ?computeOBBSIMD@local@@YAXIPEBT__m128@@AEAT2@AEBT2@1@Z 0000000180030390 f   ConvexHullUtils.obj
 0001:0002f9f0       ??$?2V?$ReflectionAllocator@VConvexHull@physx@@@shdfnd@physx@@@UserAllocated@shdfnd@physx@@SAPEAX_KV?$ReflectionAllocator@VConvexHull@physx@@@12@PEBDH@Z 00000001800309f0 f i ConvexHullUtils.obj
 0001:0002fa30       ??0?$Array@VHalfEdge@ConvexHull@physx@@VNamedAllocator@shdfnd@3@@shdfnd@physx@@QEAA@AEBVNamedAllocator@12@@Z 0000000180030a30 f i ConvexHullUtils.obj
 0001:0002fa80       ??0?$Array@VPxPlane@physx@@VNamedAllocator@shdfnd@2@@shdfnd@physx@@QEAA@AEBVNamedAllocator@12@@Z 0000000180030a80 f i ConvexHullUtils.obj
 0001:0002fad0       ??0?$ReflectionAllocator@VConvexHull@physx@@@shdfnd@physx@@QEAA@PEBD@Z 0000000180030ad0 f i ConvexHullUtils.obj
 0001:0002fae0       ??0Box@Gu@physx@@QEAA@AEBV012@@Z 0000000180030ae0 f i ConvexHullUtils.obj
 0001:0002fb40       ??0Box@Gu@physx@@QEAA@AEBVPxVec3@2@0AEBVPxMat33@2@@Z 0000000180030b40 f i ConvexHullUtils.obj
 0001:0002fba0       ??0Box@Gu@physx@@QEAA@XZ   0000000180030ba0 f i ConvexHullUtils.obj
 0001:0002fbf0       ??0ConvexHull@physx@@QEAA@AEBV01@@Z 0000000180030bf0 f i ConvexHullUtils.obj
 0001:0002fca0       ??0ConvexHull@physx@@QEAA@AEBV?$Array@VPxPlane@physx@@VNamedAllocator@shdfnd@2@@shdfnd@1@@Z 0000000180030ca0 f i ConvexHullUtils.obj
 0001:0002fd40       ??0HalfEdge@ConvexHull@physx@@QEAA@FEE@Z 0000000180030d40 f i ConvexHullUtils.obj
 0001:0002fd90       ??0HalfEdge@ConvexHull@physx@@QEAA@XZ 0000000180030d90 f i ConvexHullUtils.obj
 0001:0002fda0       ??0Mat33V@aos@shdfnd@physx@@QEAA@XZ 0000000180030da0 f i ConvexHullUtils.obj
 0001:0002fdb0       ??0PxBoundedData@physx@@QEAA@XZ 0000000180030db0 f i ConvexHullUtils.obj
 0001:0002fde0       ??0PxConvexMeshDesc@physx@@QEAA@XZ 0000000180030de0 f i ConvexHullUtils.obj
 0001:0002fe50       ??0PxIntegrals@physx@@QEAA@XZ 0000000180030e50 f i ConvexHullUtils.obj
 0001:0002fe70       ??0PxMat33@physx@@QEAA@AEBV01@@Z 0000000180030e70 f i ConvexHullUtils.obj
 0001:0002fed0       ??0PxMat33@physx@@QEAA@AEBVPxQuat@1@@Z 0000000180030ed0 f i ConvexHullUtils.obj
 0001:00030170       ??0PxMat33@physx@@QEAA@AEBVPxVec3@1@00@Z 0000000180031170 f i ConvexHullUtils.obj
 0001:000301d0       ??0PxMat33@physx@@QEAA@W4PxIDENTITY@1@@Z 00000001800311d0 f i ConvexHullUtils.obj
 0001:00030250       ??0PxPlane@physx@@QEAA@AEBVPxVec3@1@M@Z 0000000180031250 f i ConvexHullUtils.obj
 0001:00030290       ??0PxPlane@physx@@QEAA@XZ  0000000180031290 f i ConvexHullUtils.obj
 0001:000302b0       ??0PxQuat@physx@@QEAA@AEBV01@@Z 00000001800312b0 f i ConvexHullUtils.obj
 0001:00030310       ??0PxQuat@physx@@QEAA@AEBVPxMat33@1@@Z 0000000180031310 f i ConvexHullUtils.obj
 0001:00030760       ??0PxQuat@physx@@QEAA@MAEBVPxVec3@1@@Z 0000000180031760 f i ConvexHullUtils.obj
 0001:00030850       ??0PxQuat@physx@@QEAA@MMMM@Z 0000000180031850 f i ConvexHullUtils.obj
 0001:000308b0       ??0PxQuat@physx@@QEAA@XZ   00000001800318b0 f i ConvexHullUtils.obj
 0001:000308c0       ??0PxStridedData@physx@@QEAA@XZ 00000001800318c0 f i ConvexHullUtils.obj
 0001:000308f0       ??0PxTransform@physx@@QEAA@AEBVPxVec3@1@AEBVPxQuat@1@@Z 00000001800318f0 f i ConvexHullUtils.obj
 0001:00030970       ??1Box@Gu@physx@@QEAA@XZ   0000000180031970 f i ConvexHullUtils.obj
 0001:00030980       ??4Box@Gu@physx@@QEAAAEBV012@AEBV012@@Z 0000000180031980 f i ConvexHullUtils.obj
 0001:000309e0       ??4PxMat33@physx@@QEAAAEAV01@AEBV01@@Z 00000001800319e0 f i ConvexHullUtils.obj
 0001:00030a40       ??4PxPlane@physx@@QEAAAEAV01@AEBV01@@Z 0000000180031a40 f i ConvexHullUtils.obj
 0001:00030a80       ??4PxQuat@physx@@QEAAAEAV01@AEBV01@@Z 0000000180031a80 f i ConvexHullUtils.obj
 0001:00030ae0       ??8PxPlane@physx@@QEBA_NAEBV01@@Z 0000000180031ae0 f i ConvexHullUtils.obj
 0001:00030b40       ??8PxVec3@physx@@QEBA_NAEBV01@@Z 0000000180031b40 f i ConvexHullUtils.obj
 0001:00030bb0       ??A?$Array@VHalfEdge@ConvexHull@physx@@VNamedAllocator@shdfnd@3@@shdfnd@physx@@QEAAAEAVHalfEdge@ConvexHull@2@I@Z 0000000180031bb0 f i ConvexHullUtils.obj
 0001:00030c30       ??A?$Array@VHalfEdge@ConvexHull@physx@@VNamedAllocator@shdfnd@3@@shdfnd@physx@@QEBAAEBVHalfEdge@ConvexHull@2@I@Z 0000000180031c30 f i ConvexHullUtils.obj
 0001:00030cb0       ??A?$Array@VPxPlane@physx@@VNamedAllocator@shdfnd@2@@shdfnd@physx@@QEBAAEBVPxPlane@2@I@Z 0000000180031cb0 f i ConvexHullUtils.obj
 0001:00030d30       ??A?$Array@VPxVec3@physx@@VNamedAllocator@shdfnd@2@@shdfnd@physx@@QEBAAEBVPxVec3@2@I@Z 0000000180031d30 f i ConvexHullUtils.obj
 0001:00030db0       ??APxMat33@physx@@QEAAAEAVPxVec3@1@I@Z 0000000180031db0 f i ConvexHullUtils.obj
 0001:00030dd0       ??APxMat33@physx@@QEBAAEBVPxVec3@1@I@Z 0000000180031dd0 f i ConvexHullUtils.obj
 0001:00030df0       ??DPxMat33@physx@@QEBA?BVPxVec3@1@AEBV21@@Z 0000000180031df0 f i ConvexHullUtils.obj
 0001:00030e30       ??DPxQuat@physx@@QEBA?AV01@M@Z 0000000180031e30 f i ConvexHullUtils.obj
 0001:00030eb0       ??GPxVec3@physx@@QEBA?AV01@XZ 0000000180031eb0 f i ConvexHullUtils.obj
 0001:00030f20       ??RPxMat33@physx@@QEAAAEAMII@Z 0000000180031f20 f i ConvexHullUtils.obj
 0001:00030f60       ?FAdd@aos@shdfnd@physx@@YA?AT__m128@@T4@0@Z 0000000180031f60 f i ConvexHullUtils.obj
 0001:00031070       ?FMul@aos@shdfnd@physx@@YA?AT__m128@@T4@0@Z 0000000180032070 f i ConvexHullUtils.obj
 0001:00031180       ?FScaleAdd@aos@shdfnd@physx@@YA?AT__m128@@T4@00@Z 0000000180032180 f i ConvexHullUtils.obj
 0001:00031370       ?PxCos@physx@@YAMM@Z       0000000180032370 f i ConvexHullUtils.obj
 0001:00031390       ?PxSin@physx@@YAMM@Z       0000000180032390 f i ConvexHullUtils.obj
 0001:000313b0       ?QuatGetMat33V@aos@shdfnd@physx@@YAXAEBT__m128@@AEAT4@11@Z 00000001800323b0 f i ConvexHullUtils.obj
 0001:00031760       ?QuatRotateInv@aos@shdfnd@physx@@YA?AT__m128@@T4@0@Z 0000000180032760 f i ConvexHullUtils.obj
 0001:00031a40       ?QuatVLoadU@aos@shdfnd@physx@@YA?AT__m128@@PEBM@Z 0000000180032a40 f i ConvexHullUtils.obj
 0001:00031a70       ?V3Cross@aos@shdfnd@physx@@YA?AT__m128@@T4@0@Z 0000000180032a70 f i ConvexHullUtils.obj
 0001:00031c60       ?V3NegScaleSub@aos@shdfnd@physx@@YA?AT__m128@@T4@00@Z 0000000180032c60 f i ConvexHullUtils.obj
 0001:00031e50       ?V3Scale@aos@shdfnd@physx@@YA?AT__m128@@T4@0@Z 0000000180032e50 f i ConvexHullUtils.obj
 0001:00031f60       ?V3ScaleAdd@aos@shdfnd@physx@@YA?AT__m128@@T4@00@Z 0000000180032f60 f i ConvexHullUtils.obj
 0001:00032150       ?V4GetW@aos@shdfnd@physx@@YA?AT__m128@@T4@@Z 0000000180033150 f i ConvexHullUtils.obj
 0001:00032180       ?V4GetX@aos@shdfnd@physx@@YA?AT__m128@@T4@@Z 0000000180033180 f i ConvexHullUtils.obj
 0001:000321b0       ?V4GetY@aos@shdfnd@physx@@YA?AT__m128@@T4@@Z 00000001800331b0 f i ConvexHullUtils.obj
 0001:000321e0       ?V4GetZ@aos@shdfnd@physx@@YA?AT__m128@@T4@@Z 00000001800331e0 f i ConvexHullUtils.obj
 0001:00032210       ?V4Max@aos@shdfnd@physx@@YA?AT__m128@@T4@0@Z 0000000180033210 f i ConvexHullUtils.obj
 0001:00032240       ?V4Min@aos@shdfnd@physx@@YA?AT__m128@@T4@0@Z 0000000180033240 f i ConvexHullUtils.obj
 0001:00032270       ?V4Mul@aos@shdfnd@physx@@YA?AT__m128@@T4@0@Z 0000000180033270 f i ConvexHullUtils.obj
 0001:000322a0       ?V4MulAdd@aos@shdfnd@physx@@YA?AT__m128@@T4@00@Z 00000001800332a0 f i ConvexHullUtils.obj
 0001:00032330       ?V4Neg@aos@shdfnd@physx@@YA?AT__m128@@T4@@Z 0000000180033330 f i ConvexHullUtils.obj
 0001:00032360       ?Vec4V_From_Vec3V@aos@shdfnd@physx@@YA?AT__m128@@T4@@Z 0000000180033360 f i ConvexHullUtils.obj
 0001:00032370       ?allocate@?$Array@VHalfEdge@ConvexHull@physx@@VNamedAllocator@shdfnd@3@@shdfnd@physx@@IEAAPEAVHalfEdge@ConvexHull@3@I@Z 0000000180033370 f i ConvexHullUtils.obj
 0001:00032400       ?allocate@?$Array@VPxPlane@physx@@VNamedAllocator@shdfnd@2@@shdfnd@physx@@IEAAPEAVPxPlane@3@I@Z 0000000180033400 f i ConvexHullUtils.obj
 0001:00032490       ?allocate@?$ReflectionAllocator@VConvexHull@physx@@@shdfnd@physx@@QEAAPEAX_KPEBDH@Z 0000000180033490 f i ConvexHullUtils.obj
 0001:00032510       ?begin@?$Array@VHalfEdge@ConvexHull@physx@@VNamedAllocator@shdfnd@3@@shdfnd@physx@@QEAAPEAVHalfEdge@ConvexHull@3@XZ 0000000180033510 f i ConvexHullUtils.obj
 0001:00032520       ?begin@?$Array@VHalfEdge@ConvexHull@physx@@VNamedAllocator@shdfnd@3@@shdfnd@physx@@QEBAPEBVHalfEdge@ConvexHull@3@XZ 0000000180033520 f i ConvexHullUtils.obj
 0001:00032530       ?begin@?$Array@VPxPlane@physx@@VNamedAllocator@shdfnd@2@@shdfnd@physx@@QEAAPEAVPxPlane@3@XZ 0000000180033530 f i ConvexHullUtils.obj
 0001:00032540       ?begin@?$Array@VPxPlane@physx@@VNamedAllocator@shdfnd@2@@shdfnd@physx@@QEBAPEBVPxPlane@3@XZ 0000000180033540 f i ConvexHullUtils.obj
 0001:00032550       ?begin@?$Array@VPxVec3@physx@@VNamedAllocator@shdfnd@2@@shdfnd@physx@@QEBAPEBVPxVec3@3@XZ 0000000180033550 f i ConvexHullUtils.obj
 0001:00032560       ?capacity@?$Array@VHalfEdge@ConvexHull@physx@@VNamedAllocator@shdfnd@3@@shdfnd@physx@@QEBAIXZ 0000000180033560 f i ConvexHullUtils.obj
 0001:00032580       ?capacity@?$Array@VPxPlane@physx@@VNamedAllocator@shdfnd@2@@shdfnd@physx@@QEBAIXZ 0000000180033580 f i ConvexHullUtils.obj
 0001:000325a0       ?capacityIncrement@?$Array@VHalfEdge@ConvexHull@physx@@VNamedAllocator@shdfnd@3@@shdfnd@physx@@IEBAIXZ 00000001800335a0 f i ConvexHullUtils.obj
 0001:000325e0       ?capacityIncrement@?$Array@VPxPlane@physx@@VNamedAllocator@shdfnd@2@@shdfnd@physx@@IEBAIXZ 00000001800335e0 f i ConvexHullUtils.obj
 0001:00032620       ?computeAABBExtent@Box@Gu@physx@@QEBA?AVPxVec3@3@XZ 0000000180033620 f i ConvexHullUtils.obj
 0001:000328a0       ?computeBoxPoints@Box@Gu@physx@@QEBAXPEIAVPxVec3@3@@Z 00000001800338a0 f i ConvexHullUtils.obj
 0001:00032900       ?copy@?$Array@VHalfEdge@ConvexHull@physx@@VNamedAllocator@shdfnd@3@@shdfnd@physx@@KAXPEAVHalfEdge@ConvexHull@3@0PEBV453@@Z 0000000180033900 f i ConvexHullUtils.obj
 0001:00032980       ?copy@?$Array@VPxPlane@physx@@VNamedAllocator@shdfnd@2@@shdfnd@physx@@KAXPEAVPxPlane@3@0PEBV43@@Z 0000000180033980 f i ConvexHullUtils.obj
 0001:00032a00       ?copyHull@ConvexHull@physx@@QEAAXAEBV12@@Z 0000000180033a00 f i ConvexHullUtils.obj
 0001:00032c00       ?cos@intrinsics@physx@@YAMM@Z 0000000180033c00 f i ConvexHullUtils.obj
 0001:00032c20       ?create@?$Array@VHalfEdge@ConvexHull@physx@@VNamedAllocator@shdfnd@3@@shdfnd@physx@@KAXPEAVHalfEdge@ConvexHull@3@0AEBV453@@Z 0000000180033c20 f i ConvexHullUtils.obj
 0001:00032c80       ?create@?$Array@VPxPlane@physx@@VNamedAllocator@shdfnd@2@@shdfnd@physx@@KAXPEAVPxPlane@3@0AEBV43@@Z 0000000180033c80 f i ConvexHullUtils.obj
 0001:00032ce0       ?create@?$Array@VPxVec3@physx@@VNamedAllocator@shdfnd@2@@shdfnd@physx@@KAXPEAVPxVec3@3@0AEBV43@@Z 0000000180033ce0 f i ConvexHullUtils.obj
 0001:00032d40       ?deallocate@?$Array@VHalfEdge@ConvexHull@physx@@VNamedAllocator@shdfnd@3@@shdfnd@physx@@IEAAXPEAX@Z 0000000180033d40 f i ConvexHullUtils.obj
 0001:00032d70       ?deallocate@?$Array@VPxPlane@physx@@VNamedAllocator@shdfnd@2@@shdfnd@physx@@IEAAXPEAX@Z 0000000180033d70 f i ConvexHullUtils.obj
 0001:00032da0       ?degToRad@shdfnd@physx@@YAMM@Z 0000000180033da0 f i ConvexHullUtils.obj
 0001:00032dc0       ?destroy@?$Array@VHalfEdge@ConvexHull@physx@@VNamedAllocator@shdfnd@3@@shdfnd@physx@@KAXPEAVHalfEdge@ConvexHull@3@0@Z 0000000180033dc0 f i ConvexHullUtils.obj
 0001:00032df0       ?destroy@?$Array@VPxPlane@physx@@VNamedAllocator@shdfnd@2@@shdfnd@physx@@KAXPEAVPxPlane@3@0@Z 0000000180033df0 f i ConvexHullUtils.obj
 0001:00032e20       ?getDeterminant@PxMat33@physx@@QEBAMXZ 0000000180033e20 f i ConvexHullUtils.obj
 0001:00032e60       ?getEdges@ConvexHull@physx@@QEAAAEAV?$Array@VHalfEdge@ConvexHull@physx@@VNamedAllocator@shdfnd@3@@shdfnd@2@XZ 0000000180033e60 f i ConvexHullUtils.obj
 0001:00032e70       ?getEdges@ConvexHull@physx@@QEBAAEBV?$Array@VHalfEdge@ConvexHull@physx@@VNamedAllocator@shdfnd@3@@shdfnd@2@XZ 0000000180033e70 f i ConvexHullUtils.obj
 0001:00032e80       ?getFacets@ConvexHull@physx@@QEAAAEAV?$Array@VPxPlane@physx@@VNamedAllocator@shdfnd@2@@shdfnd@2@XZ 0000000180033e80 f i ConvexHullUtils.obj
 0001:00032e90       ?getFacets@ConvexHull@physx@@QEBAAEBV?$Array@VPxPlane@physx@@VNamedAllocator@shdfnd@2@@shdfnd@2@XZ 0000000180033e90 f i ConvexHullUtils.obj
 0001:00032ea0       ?getInputPlanes@ConvexHull@physx@@QEBAAEBV?$Array@VPxPlane@physx@@VNamedAllocator@shdfnd@2@@shdfnd@2@XZ 0000000180033ea0 f i ConvexHullUtils.obj
 0001:00032eb0       ?getInverse@PxMat33@physx@@QEBA?BV12@XZ 0000000180033eb0 f i ConvexHullUtils.obj
 0001:00033180       ?getName@?$ReflectionAllocator@VConvexHull@physx@@@shdfnd@physx@@CAPEBDXZ 0000000180034180 f i ConvexHullUtils.obj
 0001:000331c0       ?getOriginInertia@PxIntegrals@physx@@QEAAXAEAVPxMat33@2@@Z 00000001800341c0 f i ConvexHullUtils.obj
 0001:00033250       ?getTransform@Box@Gu@physx@@QEBA?AVPxTransform@3@XZ 0000000180034250 f i ConvexHullUtils.obj
 0001:000332a0       ?getTranspose@PxMat33@physx@@QEBA?BV12@XZ 00000001800342a0 f i ConvexHullUtils.obj
 0001:00033350       ?getVertices@ConvexHull@physx@@QEAAAEAV?$Array@VPxVec3@physx@@VNamedAllocator@shdfnd@2@@shdfnd@2@XZ 0000000180034350 f i ConvexHullUtils.obj
 0001:00033360       ?getVertices@ConvexHull@physx@@QEBAAEBV?$Array@VPxVec3@physx@@VNamedAllocator@shdfnd@2@@shdfnd@2@XZ 0000000180034360 f i ConvexHullUtils.obj
 0001:00033370       ?grow@?$Array@VHalfEdge@ConvexHull@physx@@VNamedAllocator@shdfnd@3@@shdfnd@physx@@IEAAXI@Z 0000000180034370 f i ConvexHullUtils.obj
 0001:000333f0       ?grow@?$Array@VPxPlane@physx@@VNamedAllocator@shdfnd@2@@shdfnd@physx@@IEAAXI@Z 00000001800343f0 f i ConvexHullUtils.obj
 0001:00033470       ?growAndPushBack@?$Array@VHalfEdge@ConvexHull@physx@@VNamedAllocator@shdfnd@3@@shdfnd@physx@@IEAAAEAVHalfEdge@ConvexHull@3@AEBV453@@Z 0000000180034470 f i ConvexHullUtils.obj
 0001:000335f0       ?growAndPushBack@?$Array@VPxPlane@physx@@VNamedAllocator@shdfnd@2@@shdfnd@physx@@IEAAAEAVPxPlane@3@AEBV43@@Z 00000001800345f0 f i ConvexHullUtils.obj
 0001:00033780       ?isFinite@PxQuat@physx@@QEBA_NXZ 0000000180034780 f i ConvexHullUtils.obj
 0001:00033800       ?isInUserMemory@?$Array@VHalfEdge@ConvexHull@physx@@VNamedAllocator@shdfnd@3@@shdfnd@physx@@QEBAIXZ 0000000180034800 f i ConvexHullUtils.obj
 0001:00033820       ?isInUserMemory@?$Array@VPxPlane@physx@@VNamedAllocator@shdfnd@2@@shdfnd@physx@@QEBAIXZ 0000000180034820 f i ConvexHullUtils.obj
 0001:00033840       ?isSane@PxQuat@physx@@QEBA_NXZ 0000000180034840 f i ConvexHullUtils.obj
 0001:000338b0       ?isValid@Box@Gu@physx@@QEBA_NXZ 00000001800348b0 f i ConvexHullUtils.obj
 0001:000338f0       ?magnitude@PxQuat@physx@@QEBAMXZ 00000001800348f0 f i ConvexHullUtils.obj
 0001:00033910       ?magnitudeSquared@PxQuat@physx@@QEBAMXZ 0000000180034910 f i ConvexHullUtils.obj
 0001:00033970       ?pushBack@?$Array@VHalfEdge@ConvexHull@physx@@VNamedAllocator@shdfnd@3@@shdfnd@physx@@QEAAAEAVHalfEdge@ConvexHull@3@AEBV453@@Z 0000000180034970 f i ConvexHullUtils.obj
 0001:00033a10       ?pushBack@?$Array@VPxPlane@physx@@VNamedAllocator@shdfnd@2@@shdfnd@physx@@QEAAAEAVPxPlane@3@AEBV43@@Z 0000000180034a10 f i ConvexHullUtils.obj
 0001:00033ab0       ?recreate@?$Array@VHalfEdge@ConvexHull@physx@@VNamedAllocator@shdfnd@3@@shdfnd@physx@@IEAAXI@Z 0000000180034ab0 f i ConvexHullUtils.obj
 0001:00033bc0       ?recreate@?$Array@VPxPlane@physx@@VNamedAllocator@shdfnd@2@@shdfnd@physx@@IEAAXI@Z 0000000180034bc0 f i ConvexHullUtils.obj
 0001:00033ce0       ?reserve@?$Array@VHalfEdge@ConvexHull@physx@@VNamedAllocator@shdfnd@3@@shdfnd@physx@@QEAAXI@Z 0000000180034ce0 f i ConvexHullUtils.obj
 0001:00033d10       ?reserve@?$Array@VPxPlane@physx@@VNamedAllocator@shdfnd@2@@shdfnd@physx@@QEAAXI@Z 0000000180034d10 f i ConvexHullUtils.obj
 0001:00033d40       ?resize@?$Array@VHalfEdge@ConvexHull@physx@@VNamedAllocator@shdfnd@3@@shdfnd@physx@@QEAAXIAEBVHalfEdge@ConvexHull@3@@Z 0000000180034d40 f i ConvexHullUtils.obj
 0001:00033dd0       ?resize@?$Array@VPxPlane@physx@@VNamedAllocator@shdfnd@2@@shdfnd@physx@@QEAAXIAEBVPxPlane@3@@Z 0000000180034dd0 f i ConvexHullUtils.obj
 0001:00033e60       ?resize@?$Array@VPxVec3@physx@@VNamedAllocator@shdfnd@2@@shdfnd@physx@@QEAAXIAEBVPxVec3@3@@Z 0000000180034e60 f i ConvexHullUtils.obj
 0001:00033ef0       ?rotate@Box@Gu@physx@@QEBA?AVPxVec3@3@AEBV43@@Z 0000000180034ef0 f i ConvexHullUtils.obj
 0001:00033f30       ?rotateInv@Box@Gu@physx@@QEBA?AVPxVec3@3@AEBV43@@Z 0000000180034f30 f i ConvexHullUtils.obj
 0001:00033f70       ?setAxes@Box@Gu@physx@@QEAAXAEBVPxVec3@3@00@Z 0000000180034f70 f i ConvexHullUtils.obj
 0001:00033fd0       ?setEmpty@Box@Gu@physx@@QEAAXXZ 0000000180034fd0 f i ConvexHullUtils.obj
 0001:00034050       ?sin@intrinsics@physx@@YAMM@Z 0000000180035050 f i ConvexHullUtils.obj
 0001:00034070       ?size@?$Array@VHalfEdge@ConvexHull@physx@@VNamedAllocator@shdfnd@3@@shdfnd@physx@@QEBAIXZ 0000000180035070 f i ConvexHullUtils.obj
 0001:00034080       ?size@?$Array@VPxPlane@physx@@VNamedAllocator@shdfnd@2@@shdfnd@physx@@QEBAIXZ 0000000180035080 f i ConvexHullUtils.obj
 0001:00034090       ?threePlaneIntersection@physx@@YA?AVPxVec3@1@AEBVPxPlane@1@00@Z 0000000180035090 f i ConvexHullUtils.obj
 0001:00034160       ?to8@shdfnd@physx@@YAEG@Z  0000000180035160 f i ConvexHullUtils.obj
 0001:000341d0       ?transform@Box@Gu@physx@@QEBA?AVPxVec3@3@AEBV43@@Z 00000001800351d0 f i ConvexHullUtils.obj
 0001:00034230       ?transform@PxMat33@physx@@QEBA?BVPxVec3@2@AEBV32@@Z 0000000180035230 f i ConvexHullUtils.obj
 0001:000342e0       ?transformTranspose@PxMat33@physx@@QEBA?BVPxVec3@2@AEBV32@@Z 00000001800352e0 f i ConvexHullUtils.obj
 0001:00034420       ??0ConvexMeshBuilder@physx@@QEAA@_N@Z 0000000180035420 f   ConvexMeshBuilder.obj
 0001:000344a0       ??1ConvexMeshBuilder@physx@@QEAA@XZ 00000001800354a0 f   ConvexMeshBuilder.obj
 0001:00034520       ?build@ConvexMeshBuilder@physx@@QEAA_NAEBVPxConvexMeshDesc@2@I_NPEAVConvexHullLib@2@@Z 0000000180035520 f   ConvexMeshBuilder.obj
 0001:00034640       ?save@ConvexMeshBuilder@physx@@QEBA_NAEAVPxOutputStream@2@_N@Z 0000000180035640 f   ConvexMeshBuilder.obj
 0001:00034980       ?copy@ConvexMeshBuilder@physx@@QEAA_NAEAUConvexHullInitData@Gu@2@@Z 0000000180035980 f   ConvexMeshBuilder.obj
 0001:00034b30       ?loadConvexHull@ConvexMeshBuilder@physx@@QEAA_NAEBVPxConvexMeshDesc@2@PEAVConvexHullLib@2@@Z 0000000180035b30 f   ConvexMeshBuilder.obj
 0001:00034f60       ?computeHullPolygons@ConvexMeshBuilder@physx@@QEAA_NAEBIPEBVPxVec3@2@0PEBIAEAVPxAllocatorCallback@2@AEAIAEAPEAV32@4AEAPEAI4AEAPEAUPxHullPolygon@2@@Z 0000000180035f60 f   ConvexMeshBuilder.obj
 0001:000353a0       ?computeGaussMaps@ConvexMeshBuilder@physx@@QEAA_NXZ 00000001800363a0 f   ConvexMeshBuilder.obj
 0001:000354f0       ?computeMassInfo@ConvexMeshBuilder@physx@@QEAAX_N@Z 00000001800364f0 f   ConvexMeshBuilder.obj
 0001:00035840       ?computeInternalObjects@ConvexMeshBuilder@physx@@QEAAXXZ 0000000180036840 f   ConvexMeshBuilder.obj
 0001:00036140       ??0?$ReflectionAllocator@VBigConvexData@physx@@@shdfnd@physx@@QEAA@PEBD@Z 0000000180037140 f i ConvexMeshBuilder.obj
 0001:00036150       ??0CenterExtents@Gu@physx@@QEAA@AEBVPxBounds3@2@@Z 0000000180037150 f i ConvexMeshBuilder.obj
 0001:000361d0       ??GPxMat33@physx@@QEBA?BV01@XZ 00000001800371d0 f i ConvexMeshBuilder.obj
 0001:00036250       ??_GBigConvexData@physx@@QEAAPEAXI@Z 0000000180037250 f i ConvexMeshBuilder.obj
 0001:000362b0       ?allocate@?$ReflectionAllocator@VBigConvexData@physx@@@shdfnd@physx@@QEAAPEAX_KPEBDH@Z 00000001800372b0 f i ConvexMeshBuilder.obj
 0001:00036330       ?getExtents@PxBounds3@physx@@QEBA?AVPxVec3@2@XZ 0000000180037330 f i ConvexMeshBuilder.obj
 0001:000363a0       ?getMax@CenterExtents@Gu@physx@@QEBA?AVPxVec3@3@XZ 00000001800373a0 f i ConvexMeshBuilder.obj
 0001:000363e0       ?getMin@CenterExtents@Gu@physx@@QEBA?AVPxVec3@3@XZ 00000001800373e0 f i ConvexMeshBuilder.obj
 0001:00036420       ?getName@?$ReflectionAllocator@VBigConvexData@physx@@@shdfnd@physx@@CAPEBDXZ 0000000180037420 f i ConvexMeshBuilder.obj
 0001:00036460       ?getNextIndex3@shdfnd@physx@@YAII@Z 0000000180037460 f i ConvexMeshBuilder.obj
 0001:00036480       ?largestAxis@shdfnd@physx@@YAIAEBVPxVec3@2@@Z 0000000180037480 f i ConvexMeshBuilder.obj
 0001:000364f0       ??0ConvexPolygonsBuilder@physx@@QEAA@PEAUConvexHullData@Gu@1@_N@Z 00000001800374f0 f   ConvexPolygonsBuilder.obj
 0001:00036550       ??1ConvexPolygonsBuilder@physx@@QEAA@XZ 0000000180037550 f   ConvexPolygonsBuilder.obj
 0001:000365a0       ?computeHullPolygons@ConvexPolygonsBuilder@physx@@QEAA_NAEBIPEBVPxVec3@2@0PEBI@Z 00000001800375a0 f   ConvexPolygonsBuilder.obj
 0001:00036b10       ?createPolygonData@ConvexPolygonsBuilder@physx@@AEAA_NXZ 0000000180037b10 f   ConvexPolygonsBuilder.obj
 0001:00037a50       ?createTrianglesFromPolygons@ConvexPolygonsBuilder@physx@@AEAA_NXZ 0000000180038a50 f   ConvexPolygonsBuilder.obj
 0001:0003aa00       ??$?4VNamedAllocator@shdfnd@physx@@@?$Array@IVNamedAllocator@shdfnd@physx@@@shdfnd@physx@@QEAAAEAV012@AEBV012@@Z 000000018003ba00 f i ConvexPolygonsBuilder.obj
 0001:0003aa90       ??$?_UUHullTriangleData@physx@@@@YAPEAX_KV?$ReflectionAllocator@UHullTriangleData@physx@@@shdfnd@physx@@PEBDH@Z 000000018003ba90 f i ConvexPolygonsBuilder.obj
 0001:0003aad0       ??$PlaneEquation@U?$TriangleT@I@Gu@physx@@@@YA?AVPxPlane@physx@@AEBU?$TriangleT@I@Gu@1@PEBVPxVec3@1@@Z 000000018003bad0 f i ConvexPolygonsBuilder.obj
 0001:0003ab80       ??$copy@VNamedAllocator@shdfnd@physx@@@?$Array@VPair@@VNamedAllocator@shdfnd@physx@@@shdfnd@physx@@IEAAXAEBV012@@Z 000000018003bb80 f i ConvexPolygonsBuilder.obj
 0001:0003ac40       ??$swap@E@shdfnd@physx@@YAXAEAE0@Z 000000018003bc40 f i ConvexPolygonsBuilder.obj
 0001:0003ac80       ??0?$Array@VPair@@VNamedAllocator@shdfnd@physx@@@shdfnd@physx@@QEAA@AEBV012@AEBVNamedAllocator@12@@Z 000000018003bc80 f i ConvexPolygonsBuilder.obj
 0001:0003acc0       ??0?$Array@VPair@@VNamedAllocator@shdfnd@physx@@@shdfnd@physx@@QEAA@AEBVNamedAllocator@12@@Z 000000018003bcc0 f i ConvexPolygonsBuilder.obj
 0001:0003ad10       ??0?$ReflectionAllocator@UHullTriangleData@physx@@@shdfnd@physx@@QEAA@PEBD@Z 000000018003bd10 f i ConvexPolygonsBuilder.obj
 0001:0003ad20       ??0ADJACENCIESCREATE@physx@@QEAA@XZ 000000018003bd20 f i ConvexPolygonsBuilder.obj
 0001:0003ad70       ??0Pair@@QEAA@II@Z         000000018003bd70 f i ConvexPolygonsBuilder.obj
 0001:0003ada0       ??1?$Array@VPair@@VNamedAllocator@shdfnd@physx@@@shdfnd@physx@@QEAA@XZ 000000018003bda0 f i ConvexPolygonsBuilder.obj
 0001:0003ae10       ??1Pair@@QEAA@XZ           000000018003be10 f i ConvexPolygonsBuilder.obj
 0001:0003ae20       ??4?$Array@IVNamedAllocator@shdfnd@physx@@@shdfnd@physx@@QEAAAEAV012@AEBV012@@Z 000000018003be20 f i ConvexPolygonsBuilder.obj
 0001:0003ae50       ??A?$Array@VPair@@VNamedAllocator@shdfnd@physx@@@shdfnd@physx@@QEAAAEAVPair@@I@Z 000000018003be50 f i ConvexPolygonsBuilder.obj
 0001:0003aed0       ??_GPair@@QEAAPEAXI@Z      000000018003bed0 f i ConvexPolygonsBuilder.obj
 0001:0003af30       ?GetAdjTri@AdjTriangle@physx@@QEBAIW4SharedEdgeIndex@2@@Z 000000018003bf30 f i ConvexPolygonsBuilder.obj
 0001:0003af50       ?HasActiveEdge@AdjTriangle@physx@@QEBAHI@Z 000000018003bf50 f i ConvexPolygonsBuilder.obj
 0001:0003af70       ?allocate@?$Array@VPair@@VNamedAllocator@shdfnd@physx@@@shdfnd@physx@@IEAAPEAVPair@@I@Z 000000018003bf70 f i ConvexPolygonsBuilder.obj
 0001:0003b000       ?allocate@?$ReflectionAllocator@UHullTriangleData@physx@@@shdfnd@physx@@QEAAPEAX_KPEBDH@Z 000000018003c000 f i ConvexPolygonsBuilder.obj
 0001:0003b080       ?begin@?$Array@VPair@@VNamedAllocator@shdfnd@physx@@@shdfnd@physx@@QEAAPEAVPair@@XZ 000000018003c080 f i ConvexPolygonsBuilder.obj
 0001:0003b090       ?begin@?$Array@VPair@@VNamedAllocator@shdfnd@physx@@@shdfnd@physx@@QEBAPEBVPair@@XZ 000000018003c090 f i ConvexPolygonsBuilder.obj
 0001:0003b0a0       ?capacity@?$Array@VPair@@VNamedAllocator@shdfnd@physx@@@shdfnd@physx@@QEBAIXZ 000000018003c0a0 f i ConvexPolygonsBuilder.obj
 0001:0003b0c0       ?capacityIncrement@?$Array@VPair@@VNamedAllocator@shdfnd@physx@@@shdfnd@physx@@IEBAIXZ 000000018003c0c0 f i ConvexPolygonsBuilder.obj
 0001:0003b100       ?clear@?$Array@IVNamedAllocator@shdfnd@physx@@@shdfnd@physx@@QEAAXXZ 000000018003c100 f i ConvexPolygonsBuilder.obj
 0001:0003b140       ?copy@?$Array@VPair@@VNamedAllocator@shdfnd@physx@@@shdfnd@physx@@KAXPEAVPair@@0PEBV4@@Z 000000018003c140 f i ConvexPolygonsBuilder.obj
 0001:0003b1c0       ?deallocate@?$Array@VPair@@VNamedAllocator@shdfnd@physx@@@shdfnd@physx@@IEAAXPEAX@Z 000000018003c1c0 f i ConvexPolygonsBuilder.obj
 0001:0003b1f0       ?destroy@?$Array@VPair@@VNamedAllocator@shdfnd@physx@@@shdfnd@physx@@KAXPEAVPair@@0@Z 000000018003c1f0 f i ConvexPolygonsBuilder.obj
 0001:0003b230       ?empty@?$Array@VPair@@VNamedAllocator@shdfnd@physx@@@shdfnd@physx@@QEBA_NXZ 000000018003c230 f i ConvexPolygonsBuilder.obj
 0001:0003b260       ?end@?$Array@IVNamedAllocator@shdfnd@physx@@@shdfnd@physx@@QEAAPEAIXZ 000000018003c260 f i ConvexPolygonsBuilder.obj
 0001:0003b280       ?find@?$Array@IVNamedAllocator@shdfnd@physx@@@shdfnd@physx@@QEAAPEAIAEBI@Z 000000018003c280 f i ConvexPolygonsBuilder.obj
 0001:0003b2e0       ?flip@?$TriangleT@I@Gu@physx@@QEAAXXZ 000000018003c2e0 f i ConvexPolygonsBuilder.obj
 0001:0003b320       ?forceSize_Unsafe@?$Array@IVNamedAllocator@shdfnd@physx@@@shdfnd@physx@@QEAAXI@Z 000000018003c320 f i ConvexPolygonsBuilder.obj
 0001:0003b3a0       ?getFaces@ConvexPolygonsBuilder@physx@@QEBAPEBUHullTriangleData@2@XZ 000000018003c3a0 f i ConvexPolygonsBuilder.obj
 0001:0003b3b0       ?getName@?$ReflectionAllocator@UHullTriangleData@physx@@@shdfnd@physx@@CAPEBDXZ 000000018003c3b0 f i ConvexPolygonsBuilder.obj
 0001:0003b3f0       ?getNbFaces@ConvexPolygonsBuilder@physx@@QEBAIXZ 000000018003c3f0 f i ConvexPolygonsBuilder.obj
 0001:0003b400       ?growAndPushBack@?$Array@VPair@@VNamedAllocator@shdfnd@physx@@@shdfnd@physx@@IEAAAEAVPair@@AEBV4@@Z 000000018003c400 f i ConvexPolygonsBuilder.obj
 0001:0003b5a0       ?isInUserMemory@?$Array@VPair@@VNamedAllocator@shdfnd@physx@@@shdfnd@physx@@QEBAIXZ 000000018003c5a0 f i ConvexPolygonsBuilder.obj
 0001:0003b5c0       ?pushBack@?$Array@VPair@@VNamedAllocator@shdfnd@physx@@@shdfnd@physx@@QEAAAEAVPair@@AEBV4@@Z 000000018003c5c0 f i ConvexPolygonsBuilder.obj
 0001:0003b680       ?remove@?$Array@IVNamedAllocator@shdfnd@physx@@@shdfnd@physx@@QEAAXI@Z 000000018003c680 f i ConvexPolygonsBuilder.obj
 0001:0003b760       ?remove@?$Array@VPair@@VNamedAllocator@shdfnd@physx@@@shdfnd@physx@@QEAAXI@Z 000000018003c760 f i ConvexPolygonsBuilder.obj
 0001:0003b880       ?size@?$Array@VPair@@VNamedAllocator@shdfnd@physx@@@shdfnd@physx@@QEBAIXZ 000000018003c880 f i ConvexPolygonsBuilder.obj
 0001:0003b910       ??0QuickHullConvexHullLib@physx@@QEAA@AEBVPxConvexMeshDesc@1@AEBUPxCookingParams@1@@Z 000000018003c910 f   QuickHullConvexHullLib.obj
 0001:0003ba10       ??1QuickHullConvexHullLib@physx@@UEAA@XZ 000000018003ca10 f   QuickHullConvexHullLib.obj
 0001:0003baf0       ?createConvexHull@QuickHullConvexHullLib@physx@@UEAA?AW4Enum@PxConvexMeshCookingResult@2@XZ 000000018003caf0 f   QuickHullConvexHullLib.obj
 0001:0003c090       ?fillConvexMeshDesc@QuickHullConvexHullLib@physx@@UEAAXAEAVPxConvexMeshDesc@2@@Z 000000018003d090 f   QuickHullConvexHullLib.obj
 0001:0003c120       ?createEdgeList@QuickHullConvexHullLib@physx@@UEAA_NIPEBEPEAPEAEPEAPEAG2@Z 000000018003d120 f   QuickHullConvexHullLib.obj
 0001:0003c670       ?expandHullOBB@QuickHullConvexHullLib@physx@@IEAA?AW4Enum@PxConvexMeshCookingResult@2@XZ 000000018003d670 f   QuickHullConvexHullLib.obj
 0001:0003cc40       ?expandHull@QuickHullConvexHullLib@physx@@IEAA?AW4Enum@PxConvexMeshCookingResult@2@XZ 000000018003dc40 f   QuickHullConvexHullLib.obj
 0001:0003d3d0       ?cleanupForSimplex@QuickHullConvexHullLib@physx@@IEAA_NPEAVPxVec3@2@IPEAUQuickHullVertex@local@@1AEAM2@Z 000000018003e3d0 f   QuickHullConvexHullLib.obj
 0001:0003de40       ?fillConvexMeshDescFromQuickHull@QuickHullConvexHullLib@physx@@IEAAXAEAVPxConvexMeshDesc@2@@Z 000000018003ee40 f   QuickHullConvexHullLib.obj
 0001:0003e620       ?fillConvexMeshDescFromCroppedHull@QuickHullConvexHullLib@physx@@IEAAXAEAVPxConvexMeshDesc@2@@Z 000000018003f620 f   QuickHullConvexHullLib.obj
 0001:0003ebb0       ?getOppositeFaceDistance@QuickHullHalfEdge@local@@QEBAMXZ 000000018003fbb0 f   QuickHullConvexHullLib.obj
 0001:0003ecb0       ?mergeAdjacentFace@QuickHullFace@local@@QEAA_NPEAUQuickHullHalfEdge@2@AEAV?$Array@PEAUQuickHullFace@local@@VNamedAllocator@shdfnd@physx@@@shdfnd@physx@@@Z 000000018003fcb0 f   QuickHullConvexHullLib.obj
 0001:0003ef30       ?checkFaceConsistency@QuickHullFace@local@@QEAA_NXZ 000000018003ff30 f   QuickHullConvexHullLib.obj
 0001:0003f1e0       ?connectHalfEdges@QuickHullFace@local@@AEAAPEAU12@PEAUQuickHullHalfEdge@2@0@Z 00000001800401e0 f   QuickHullConvexHullLib.obj
 0001:0003f360       ??0QuickHull@local@@QEAA@AEBUPxCookingParams@physx@@AEBVPxConvexMeshDesc@3@@Z 0000000180040360 f   QuickHullConvexHullLib.obj
 0001:0003f580       ??1QuickHull@local@@QEAA@XZ 0000000180040580 f   QuickHullConvexHullLib.obj
 0001:0003f630       ?preallocate@QuickHull@local@@QEAAXI@Z 0000000180040630 f   QuickHullConvexHullLib.obj
 0001:0003f7f0       ?parseInputVertices@QuickHull@local@@QEAAXPEBVPxVec3@physx@@I@Z 00000001800407f0 f   QuickHullConvexHullLib.obj
 0001:0003f930       ?releaseHull@QuickHull@local@@QEAAXXZ 0000000180040930 f   QuickHullConvexHullLib.obj
 0001:0003f990       ?setPrecomputedMinMax@QuickHull@local@@QEAAXPEBUQuickHullVertex@2@0MM@Z 0000000180040990 f   QuickHullConvexHullLib.obj
 0001:0003fa70       ?buildHull@QuickHull@local@@QEAA?AW4Enum@QuickHullResult@2@XZ 0000000180040a70 f   QuickHullConvexHullLib.obj
 0001:0003fda0       ?maxNumVertsPerFace@QuickHull@local@@QEBAIXZ 0000000180040da0 f   QuickHullConvexHullLib.obj
 0001:0003fe40       ?computeMinMaxVerts@QuickHull@local@@IEAAXXZ 0000000180040e40 f   QuickHullConvexHullLib.obj
 0001:00040190       ?findSimplex@QuickHull@local@@IEAA_NXZ 0000000180041190 f   QuickHullConvexHullLib.obj
 0001:000406e0       ?addSimplex@QuickHull@local@@IEAAXPEAUQuickHullVertex@2@_N@Z 00000001800416e0 f   QuickHullConvexHullLib.obj
 0001:00040f20       ?nextPointToAdd@QuickHull@local@@IEAAPEAUQuickHullVertex@2@AEAPEAUQuickHullFace@2@@Z 0000000180041f20 f   QuickHullConvexHullLib.obj
 0001:00041070       ?addPointToHull@QuickHull@local@@IEAA_NPEBUQuickHullVertex@2@AEAUQuickHullFace@2@AEA_N@Z 0000000180042070 f   QuickHullConvexHullLib.obj
 0001:000413b0       ?createTriangle@QuickHull@local@@IEAAPEAUQuickHullFace@2@AEBUQuickHullVertex@2@00@Z 00000001800423b0 f   QuickHullConvexHullLib.obj
 0001:000414f0       ?addPointToFace@QuickHull@local@@IEAAXAEAUQuickHullFace@2@PEAUQuickHullVertex@2@M@Z 00000001800424f0 f   QuickHullConvexHullLib.obj
 0001:00041620       ?removeEyePointFromFace@QuickHull@local@@IEAAXAEAUQuickHullFace@2@PEBUQuickHullVertex@2@@Z 0000000180042620 f   QuickHullConvexHullLib.obj
 0001:000416c0       ?calculateHorizon@QuickHull@local@@IEAAXAEBVPxVec3@physx@@PEAUQuickHullHalfEdge@2@AEAUQuickHullFace@2@AEAV?$Array@PEAUQuickHullHalfEdge@local@@VNamedAllocator@shdfnd@physx@@@shdfnd@4@AEAV?$Array@PEAUQuickHullFace@local@@VNamedAllocator@shdfnd@physx@@@84@@Z 00000001800426c0 f   QuickHullConvexHullLib.obj
 0001:00041860       ?addNewFacesFromHorizon@QuickHull@local@@IEAAXPEBUQuickHullVertex@2@AEBV?$Array@PEAUQuickHullHalfEdge@local@@VNamedAllocator@shdfnd@physx@@@shdfnd@physx@@AEAV?$Array@PEAUQuickHullFace@local@@VNamedAllocator@shdfnd@physx@@@56@@Z 0000000180042860 f   QuickHullConvexHullLib.obj
 0001:000419d0       ?doAdjacentMerge@QuickHull@local@@IEAA_NAEAUQuickHullFace@2@_NAEA_N@Z 00000001800429d0 f   QuickHullConvexHullLib.obj
 0001:00041cb0       ?doPostAdjacentMerge@QuickHull@local@@IEAA_NAEAUQuickHullFace@2@M@Z 0000000180042cb0 f   QuickHullConvexHullLib.obj
 0001:00041ec0       ?deleteFacePoints@QuickHull@local@@IEAAXAEAUQuickHullFace@2@PEAU32@@Z 0000000180042ec0 f   QuickHullConvexHullLib.obj
 0001:00041ff0       ?resolveUnclaimedPoints@QuickHull@local@@IEAAXAEBV?$Array@PEAUQuickHullFace@local@@VNamedAllocator@shdfnd@physx@@@shdfnd@physx@@@Z 0000000180042ff0 f   QuickHullConvexHullLib.obj
 0001:00042160       ?postMergeHull@QuickHull@local@@IEAAXXZ 0000000180043160 f   QuickHullConvexHullLib.obj
 0001:00042250       ?canMergeFaces@QuickHull@local@@IEAA_NAEBUQuickHullHalfEdge@2@@Z 0000000180043250 f   QuickHullConvexHullLib.obj
 0001:00042b40       ?getExpandPoint@local@@YAXAEBUQuickHullHalfEdge@1@AEAUExpandPoint@1@PEBV?$Array@IVNamedAllocator@shdfnd@physx@@@shdfnd@physx@@@Z 0000000180043b40 f   QuickHullConvexHullLib.obj
 0001:00042d90       ?addExpandPoint@local@@YAXAEBUExpandPoint@1@AEAV?$Array@UExpandPoint@local@@VNamedAllocator@shdfnd@physx@@@shdfnd@physx@@@Z 0000000180043d90 f   QuickHullConvexHullLib.obj
 0001:00042ee0       ??$?2V?$ReflectionAllocator@VQuickHull@local@@@shdfnd@physx@@@UserAllocated@shdfnd@physx@@SAPEAX_KV?$ReflectionAllocator@VQuickHull@local@@@12@PEBDH@Z 0000000180043ee0 f i QuickHullConvexHullLib.obj
 0001:00042f20       ??$PX_UNUSED@PEAUQuickHullFace@local@@@@YAXAEBQEAUQuickHullFace@local@@@Z 0000000180043f20 f i QuickHullConvexHullLib.obj
 0001:00042f30       ??$PX_UNUSED@PEBUQuickHullVertex@local@@@@YAXAEBQEBUQuickHullVertex@local@@@Z 0000000180043f30 f i QuickHullConvexHullLib.obj
 0001:00042f40       ??0?$Array@PEAUQuickHullFace@local@@VNamedAllocator@shdfnd@physx@@@shdfnd@physx@@QEAA@AEBVNamedAllocator@12@@Z 0000000180043f40 f i QuickHullConvexHullLib.obj
 0001:00042f90       ??0?$Array@PEAUQuickHullHalfEdge@local@@VNamedAllocator@shdfnd@physx@@@shdfnd@physx@@QEAA@AEBVNamedAllocator@12@@Z 0000000180043f90 f i QuickHullConvexHullLib.obj
 0001:00042fe0       ??0?$Array@PEAUQuickHullVertex@local@@VNamedAllocator@shdfnd@physx@@@shdfnd@physx@@QEAA@AEBVNamedAllocator@12@@Z 0000000180043fe0 f i QuickHullConvexHullLib.obj
 0001:00043030       ??0?$Array@UExpandPoint@local@@VNamedAllocator@shdfnd@physx@@@shdfnd@physx@@QEAA@AEBVNamedAllocator@12@@Z 0000000180044030 f i QuickHullConvexHullLib.obj
 0001:00043080       ??0?$MemBlock@UQuickHullFace@local@@$00@local@@QEAA@XZ 0000000180044080 f i QuickHullConvexHullLib.obj
 0001:000430e0       ??0?$MemBlock@UQuickHullHalfEdge@local@@$0A@@local@@QEAA@XZ 00000001800440e0 f i QuickHullConvexHullLib.obj
 0001:00043140       ??0?$ReflectionAllocator@VQuickHull@local@@@shdfnd@physx@@QEAA@PEBD@Z 0000000180044140 f i QuickHullConvexHullLib.obj
 0001:00043150       ??0?$ScopedPointer@UQuickHullHalfEdge@local@@VTempAllocator@shdfnd@physx@@@shdfnd@physx@@QEAA@XZ 0000000180044150 f i QuickHullConvexHullLib.obj
 0001:00043170       ??0?$ScopedPointer@VPxVec3@physx@@VTempAllocator@shdfnd@2@@shdfnd@physx@@QEAA@XZ 0000000180044170 f i QuickHullConvexHullLib.obj
 0001:00043190       ??0ConvexHullLib@physx@@QEAA@AEBVPxConvexMeshDesc@1@AEBUPxCookingParams@1@@Z 0000000180044190 f i QuickHullConvexHullLib.obj
 0001:00043210       ??0ExpandPoint@local@@QEAA@AEBU01@@Z 0000000180044210 f i QuickHullConvexHullLib.obj
 0001:00043270       ??0ExpandPoint@local@@QEAA@XZ 0000000180044270 f i QuickHullConvexHullLib.obj
 0001:000432b0       ??0PxTransform@physx@@QEAA@XZ 00000001800442b0 f i QuickHullConvexHullLib.obj
 0001:000432f0       ??0QuickHullFace@local@@QEAA@I@Z 00000001800442f0 f i QuickHullConvexHullLib.obj
 0001:000433b0       ??0QuickHullFace@local@@QEAA@XZ 00000001800443b0 f i QuickHullConvexHullLib.obj
 0001:00043460       ??0QuickHullHalfEdge@local@@QEAA@I@Z 0000000180044460 f i QuickHullConvexHullLib.obj
 0001:000434d0       ??0QuickHullVertex@local@@QEAA@XZ 00000001800444d0 f i QuickHullConvexHullLib.obj
 0001:000434f0       ??1?$Array@PEAUQuickHullFace@local@@VNamedAllocator@shdfnd@physx@@@shdfnd@physx@@QEAA@XZ 00000001800444f0 f i QuickHullConvexHullLib.obj
 0001:00043560       ??1?$Array@PEAUQuickHullHalfEdge@local@@VNamedAllocator@shdfnd@physx@@@shdfnd@physx@@QEAA@XZ 0000000180044560 f i QuickHullConvexHullLib.obj
 0001:000435d0       ??1?$Array@PEAUQuickHullVertex@local@@VNamedAllocator@shdfnd@physx@@@shdfnd@physx@@QEAA@XZ 00000001800445d0 f i QuickHullConvexHullLib.obj
 0001:00043640       ??1?$Array@UExpandPoint@local@@VNamedAllocator@shdfnd@physx@@@shdfnd@physx@@QEAA@XZ 0000000180044640 f i QuickHullConvexHullLib.obj
 0001:000436b0       ??1?$Array@VHalfEdge@ConvexHull@physx@@VNamedAllocator@shdfnd@3@@shdfnd@physx@@QEAA@XZ 00000001800446b0 f i QuickHullConvexHullLib.obj
 0001:00043720       ??1?$Array@VPxPlane@physx@@VNamedAllocator@shdfnd@2@@shdfnd@physx@@QEAA@XZ 0000000180044720 f i QuickHullConvexHullLib.obj
 0001:00043790       ??1?$MemBlock@UQuickHullFace@local@@$00@local@@QEAA@XZ 0000000180044790 f i QuickHullConvexHullLib.obj
 0001:00043830       ??1?$MemBlock@UQuickHullHalfEdge@local@@$0A@@local@@QEAA@XZ 0000000180044830 f i QuickHullConvexHullLib.obj
 0001:000438d0       ??1?$ScopedPointer@UQuickHullHalfEdge@local@@VTempAllocator@shdfnd@physx@@@shdfnd@physx@@QEAA@XZ 00000001800448d0 f i QuickHullConvexHullLib.obj
 0001:00043900       ??1?$ScopedPointer@VPxVec3@physx@@VTempAllocator@shdfnd@2@@shdfnd@physx@@QEAA@XZ 0000000180044900 f i QuickHullConvexHullLib.obj
 0001:00043930       ??1ConvexHull@physx@@QEAA@XZ 0000000180044930 f i QuickHullConvexHullLib.obj
 0001:00043970       ??1QuickHullFace@local@@QEAA@XZ 0000000180044970 f i QuickHullConvexHullLib.obj
 0001:00043980       ??4?$PxFlags@W4Enum@PxConvexFlag@physx@@G@physx@@QEAAAEAV01@AEBV01@@Z 0000000180044980 f i QuickHullConvexHullLib.obj
 0001:000439a0       ??4QuickHullVertex@local@@QEAAAEAU01@AEBU01@@Z 00000001800449a0 f i QuickHullConvexHullLib.obj
 0001:00043a00       ??8ExpandPoint@local@@QEBA_NAEBU01@@Z 0000000180044a00 f i QuickHullConvexHullLib.obj
 0001:00043a90       ??8QuickHullVertex@local@@QEBA_NAEBU01@@Z 0000000180044a90 f i QuickHullConvexHullLib.obj
 0001:00043ad0       ??A?$Array@IVNamedAllocator@shdfnd@physx@@@shdfnd@physx@@QEBAAEBII@Z 0000000180044ad0 f i QuickHullConvexHullLib.obj
 0001:00043b50       ??A?$Array@PEAUQuickHullFace@local@@VNamedAllocator@shdfnd@physx@@@shdfnd@physx@@QEAAAEAPEAUQuickHullFace@local@@I@Z 0000000180044b50 f i QuickHullConvexHullLib.obj
 0001:00043bd0       ??A?$Array@PEAUQuickHullFace@local@@VNamedAllocator@shdfnd@physx@@@shdfnd@physx@@QEBAAEBQEAUQuickHullFace@local@@I@Z 0000000180044bd0 f i QuickHullConvexHullLib.obj
 0001:00043c50       ??A?$Array@PEAUQuickHullHalfEdge@local@@VNamedAllocator@shdfnd@physx@@@shdfnd@physx@@QEAAAEAPEAUQuickHullHalfEdge@local@@I@Z 0000000180044c50 f i QuickHullConvexHullLib.obj
 0001:00043cd0       ??A?$Array@PEAUQuickHullHalfEdge@local@@VNamedAllocator@shdfnd@physx@@@shdfnd@physx@@QEBAAEBQEAUQuickHullHalfEdge@local@@I@Z 0000000180044cd0 f i QuickHullConvexHullLib.obj
 0001:00043d50       ??A?$Array@PEAUQuickHullVertex@local@@VNamedAllocator@shdfnd@physx@@@shdfnd@physx@@QEAAAEAPEAUQuickHullVertex@local@@I@Z 0000000180044d50 f i QuickHullConvexHullLib.obj
 0001:00043dd0       ??A?$Array@UExpandPoint@local@@VNamedAllocator@shdfnd@physx@@@shdfnd@physx@@QEAAAEAUExpandPoint@local@@I@Z 0000000180044dd0 f i QuickHullConvexHullLib.obj
 0001:00043e50       ??A?$Array@VPxPlane@physx@@VNamedAllocator@shdfnd@2@@shdfnd@physx@@QEAAAEAVPxPlane@2@I@Z 0000000180044e50 f i QuickHullConvexHullLib.obj
 0001:00043ed0       ??B?$ScopedPointer@UQuickHullHalfEdge@local@@VTempAllocator@shdfnd@physx@@@shdfnd@physx@@QEBAPEAUQuickHullHalfEdge@local@@XZ 0000000180044ed0 f i QuickHullConvexHullLib.obj
 0001:00043ee0       ??B?$ScopedPointer@VPxVec3@physx@@VTempAllocator@shdfnd@2@@shdfnd@physx@@QEBAPEAVPxVec3@2@XZ 0000000180044ee0 f i QuickHullConvexHullLib.obj
 0001:00043ef0       ??KPxVec3@physx@@QEBA?AV01@M@Z 0000000180044ef0 f i QuickHullConvexHullLib.obj
 0001:00043f70       ??_GConvexHull@physx@@QEAAPEAXI@Z 0000000180044f70 f i QuickHullConvexHullLib.obj
 0001:00043fd0       ??_GQuickHull@local@@QEAAPEAXI@Z 0000000180044fd0 f i QuickHullConvexHullLib.obj
 0001:00044030       ??_EQuickHullConvexHullLib@physx@@UEAAPEAXI@Z 0000000180045030 f i QuickHullConvexHullLib.obj
 0001:00044030       ??_GQuickHullConvexHullLib@physx@@UEAAPEAXI@Z 0000000180045030 f i QuickHullConvexHullLib.obj
 0001:00044090       ??__G@YAXPEAX0_K1P6APEAX00@Z@Z 0000000180045090 f i QuickHullConvexHullLib.obj
 0001:00044120       ?allocate@?$Array@PEAUQuickHullFace@local@@VNamedAllocator@shdfnd@physx@@@shdfnd@physx@@IEAAPEAPEAUQuickHullFace@local@@I@Z 0000000180045120 f i QuickHullConvexHullLib.obj
 0001:000441b0       ?allocate@?$Array@PEAUQuickHullHalfEdge@local@@VNamedAllocator@shdfnd@physx@@@shdfnd@physx@@IEAAPEAPEAUQuickHullHalfEdge@local@@I@Z 00000001800451b0 f i QuickHullConvexHullLib.obj
 0001:00044240       ?allocate@?$Array@PEAUQuickHullVertex@local@@VNamedAllocator@shdfnd@physx@@@shdfnd@physx@@IEAAPEAPEAUQuickHullVertex@local@@I@Z 0000000180045240 f i QuickHullConvexHullLib.obj
 0001:000442d0       ?allocate@?$Array@UExpandPoint@local@@VNamedAllocator@shdfnd@physx@@@shdfnd@physx@@IEAAPEAUExpandPoint@local@@I@Z 00000001800452d0 f i QuickHullConvexHullLib.obj
 0001:00044360       ?allocate@?$ReflectionAllocator@VQuickHull@local@@@shdfnd@physx@@QEAAPEAX_KPEBDH@Z 0000000180045360 f i QuickHullConvexHullLib.obj
 0001:000443e0       ?capacity@?$Array@PEAUQuickHullFace@local@@VNamedAllocator@shdfnd@physx@@@shdfnd@physx@@QEBAIXZ 00000001800453e0 f i QuickHullConvexHullLib.obj
 0001:00044400       ?capacity@?$Array@PEAUQuickHullHalfEdge@local@@VNamedAllocator@shdfnd@physx@@@shdfnd@physx@@QEBAIXZ 0000000180045400 f i QuickHullConvexHullLib.obj
 0001:00044420       ?capacity@?$Array@PEAUQuickHullVertex@local@@VNamedAllocator@shdfnd@physx@@@shdfnd@physx@@QEBAIXZ 0000000180045420 f i QuickHullConvexHullLib.obj
 0001:00044440       ?capacity@?$Array@UExpandPoint@local@@VNamedAllocator@shdfnd@physx@@@shdfnd@physx@@QEBAIXZ 0000000180045440 f i QuickHullConvexHullLib.obj
 0001:00044460       ?capacityIncrement@?$Array@PEAUQuickHullFace@local@@VNamedAllocator@shdfnd@physx@@@shdfnd@physx@@IEBAIXZ 0000000180045460 f i QuickHullConvexHullLib.obj
 0001:000444a0       ?capacityIncrement@?$Array@PEAUQuickHullHalfEdge@local@@VNamedAllocator@shdfnd@physx@@@shdfnd@physx@@IEBAIXZ 00000001800454a0 f i QuickHullConvexHullLib.obj
 0001:000444e0       ?capacityIncrement@?$Array@PEAUQuickHullVertex@local@@VNamedAllocator@shdfnd@physx@@@shdfnd@physx@@IEBAIXZ 00000001800454e0 f i QuickHullConvexHullLib.obj
 0001:00044520       ?capacityIncrement@?$Array@UExpandPoint@local@@VNamedAllocator@shdfnd@physx@@@shdfnd@physx@@IEBAIXZ 0000000180045520 f i QuickHullConvexHullLib.obj
 0001:00044560       ?clear@?$Array@PEAUQuickHullFace@local@@VNamedAllocator@shdfnd@physx@@@shdfnd@physx@@QEAAXXZ 0000000180045560 f i QuickHullConvexHullLib.obj
 0001:000445a0       ?clear@?$Array@PEAUQuickHullHalfEdge@local@@VNamedAllocator@shdfnd@physx@@@shdfnd@physx@@QEAAXXZ 00000001800455a0 f i QuickHullConvexHullLib.obj
 0001:000445e0       ?clear@?$Array@PEAUQuickHullVertex@local@@VNamedAllocator@shdfnd@physx@@@shdfnd@physx@@QEAAXXZ 00000001800455e0 f i QuickHullConvexHullLib.obj
 0001:00044620       ?computeNormalAndCentroid@QuickHullFace@local@@QEAAXXZ 0000000180045620 f i QuickHullConvexHullLib.obj
 0001:00044910       ?copy@?$Array@PEAUQuickHullFace@local@@VNamedAllocator@shdfnd@physx@@@shdfnd@physx@@KAXPEAPEAUQuickHullFace@local@@0PEBQEAU45@@Z 0000000180045910 f i QuickHullConvexHullLib.obj
 0001:00044990       ?copy@?$Array@PEAUQuickHullHalfEdge@local@@VNamedAllocator@shdfnd@physx@@@shdfnd@physx@@KAXPEAPEAUQuickHullHalfEdge@local@@0PEBQEAU45@@Z 0000000180045990 f i QuickHullConvexHullLib.obj
 0001:00044a10       ?copy@?$Array@PEAUQuickHullVertex@local@@VNamedAllocator@shdfnd@physx@@@shdfnd@physx@@KAXPEAPEAUQuickHullVertex@local@@0PEBQEAU45@@Z 0000000180045a10 f i QuickHullConvexHullLib.obj
 0001:00044a90       ?copy@?$Array@UExpandPoint@local@@VNamedAllocator@shdfnd@physx@@@shdfnd@physx@@KAXPEAUExpandPoint@local@@0PEBU45@@Z 0000000180045a90 f i QuickHullConvexHullLib.obj
 0001:00044b10       ?deallocate@?$Array@PEAUQuickHullFace@local@@VNamedAllocator@shdfnd@physx@@@shdfnd@physx@@IEAAXPEAX@Z 0000000180045b10 f i QuickHullConvexHullLib.obj
 0001:00044b40       ?deallocate@?$Array@PEAUQuickHullHalfEdge@local@@VNamedAllocator@shdfnd@physx@@@shdfnd@physx@@IEAAXPEAX@Z 0000000180045b40 f i QuickHullConvexHullLib.obj
 0001:00044b70       ?deallocate@?$Array@PEAUQuickHullVertex@local@@VNamedAllocator@shdfnd@physx@@@shdfnd@physx@@IEAAXPEAX@Z 0000000180045b70 f i QuickHullConvexHullLib.obj
 0001:00044ba0       ?deallocate@?$Array@UExpandPoint@local@@VNamedAllocator@shdfnd@physx@@@shdfnd@physx@@IEAAXPEAX@Z 0000000180045ba0 f i QuickHullConvexHullLib.obj
 0001:00044bd0       ?destroy@?$Array@PEAUQuickHullFace@local@@VNamedAllocator@shdfnd@physx@@@shdfnd@physx@@KAXPEAPEAUQuickHullFace@local@@0@Z 0000000180045bd0 f i QuickHullConvexHullLib.obj
 0001:00044c00       ?destroy@?$Array@PEAUQuickHullHalfEdge@local@@VNamedAllocator@shdfnd@physx@@@shdfnd@physx@@KAXPEAPEAUQuickHullHalfEdge@local@@0@Z 0000000180045c00 f i QuickHullConvexHullLib.obj
 0001:00044c30       ?destroy@?$Array@PEAUQuickHullVertex@local@@VNamedAllocator@shdfnd@physx@@@shdfnd@physx@@KAXPEAPEAUQuickHullVertex@local@@0@Z 0000000180045c30 f i QuickHullConvexHullLib.obj
 0001:00044c60       ?destroy@?$Array@UExpandPoint@local@@VNamedAllocator@shdfnd@physx@@@shdfnd@physx@@KAXPEAUExpandPoint@local@@0@Z 0000000180045c60 f i QuickHullConvexHullLib.obj
 0001:00044c90       ?distanceToPlane@QuickHullFace@local@@QEBAMVPxVec3@physx@@@Z 0000000180045c90 f i QuickHullConvexHullLib.obj
 0001:00044cd0       ?getEdge@QuickHullFace@local@@QEBAPEAUQuickHullHalfEdge@2@I@Z 0000000180045cd0 f i QuickHullConvexHullLib.obj
 0001:00044d20       ?getFreeHullFace@QuickHull@local@@IEAAPEAUQuickHullFace@2@XZ 0000000180045d20 f i QuickHullConvexHullLib.obj
 0001:00044d40       ?getFreeHullHalfEdge@QuickHull@local@@IEAAPEAUQuickHullHalfEdge@2@XZ 0000000180045d40 f i QuickHullConvexHullLib.obj
 0001:00044d60       ?getFreeItem@?$MemBlock@UQuickHullFace@local@@$00@local@@QEAAPEAUQuickHullFace@2@XZ 0000000180045d60 f i QuickHullConvexHullLib.obj
 0001:00044fa0       ?getFreeItem@?$MemBlock@UQuickHullHalfEdge@local@@$0A@@local@@QEAAPEAUQuickHullHalfEdge@2@XZ 0000000180045fa0 f i QuickHullConvexHullLib.obj
 0001:000451e0       ?getHead@QuickHullHalfEdge@local@@QEBAAEBUQuickHullVertex@2@XZ 00000001800461e0 f i QuickHullConvexHullLib.obj
 0001:00045250       ?getItem@?$MemBlock@UQuickHullFace@local@@$00@local@@QEAAPEAUQuickHullFace@2@I@Z 0000000180046250 f i QuickHullConvexHullLib.obj
 0001:00045360       ?getName@?$ReflectionAllocator@VQuickHull@local@@@shdfnd@physx@@CAPEBDXZ 0000000180046360 f i QuickHullConvexHullLib.obj
 0001:000453a0       ?getNbHullVerts@QuickHull@local@@IEAAIXZ 00000001800463a0 f i QuickHullConvexHullLib.obj
 0001:000453b0       ?getOppositeFace@QuickHullHalfEdge@local@@QEBAPEAUQuickHullFace@2@XZ 00000001800463b0 f i QuickHullConvexHullLib.obj
 0001:000453d0       ?getTail@QuickHullHalfEdge@local@@QEBAAEBUQuickHullVertex@2@XZ 00000001800463d0 f i QuickHullConvexHullLib.obj
 0001:000453e0       ?grow@?$Array@PEAUQuickHullFace@local@@VNamedAllocator@shdfnd@physx@@@shdfnd@physx@@IEAAXI@Z 00000001800463e0 f i QuickHullConvexHullLib.obj
 0001:00045460       ?grow@?$Array@PEAUQuickHullHalfEdge@local@@VNamedAllocator@shdfnd@physx@@@shdfnd@physx@@IEAAXI@Z 0000000180046460 f i QuickHullConvexHullLib.obj
 0001:000454e0       ?grow@?$Array@PEAUQuickHullVertex@local@@VNamedAllocator@shdfnd@physx@@@shdfnd@physx@@IEAAXI@Z 00000001800464e0 f i QuickHullConvexHullLib.obj
 0001:00045560       ?grow@?$Array@UExpandPoint@local@@VNamedAllocator@shdfnd@physx@@@shdfnd@physx@@IEAAXI@Z 0000000180046560 f i QuickHullConvexHullLib.obj
 0001:000455e0       ?growAndPushBack@?$Array@PEAUQuickHullFace@local@@VNamedAllocator@shdfnd@physx@@@shdfnd@physx@@IEAAAEAPEAUQuickHullFace@local@@AEBQEAU45@@Z 00000001800465e0 f i QuickHullConvexHullLib.obj
 0001:00045760       ?growAndPushBack@?$Array@PEAUQuickHullHalfEdge@local@@VNamedAllocator@shdfnd@physx@@@shdfnd@physx@@IEAAAEAPEAUQuickHullHalfEdge@local@@AEBQEAU45@@Z 0000000180046760 f i QuickHullConvexHullLib.obj
 0001:000458e0       ?growAndPushBack@?$Array@PEAUQuickHullVertex@local@@VNamedAllocator@shdfnd@physx@@@shdfnd@physx@@IEAAAEAPEAUQuickHullVertex@local@@AEBQEAU45@@Z 00000001800468e0 f i QuickHullConvexHullLib.obj
 0001:00045a60       ?growAndPushBack@?$Array@UExpandPoint@local@@VNamedAllocator@shdfnd@physx@@@shdfnd@physx@@IEAAAEAUExpandPoint@local@@AEBU45@@Z 0000000180046a60 f i QuickHullConvexHullLib.obj
 0001:00045bf0       ?init@?$MemBlock@UQuickHullFace@local@@$00@local@@QEAAXI@Z 0000000180046bf0 f i QuickHullConvexHullLib.obj
 0001:00045d20       ?init@?$MemBlock@UQuickHullHalfEdge@local@@$0A@@local@@QEAAXI@Z 0000000180046d20 f i QuickHullConvexHullLib.obj
 0001:00045e50       ?isInUserMemory@?$Array@PEAUQuickHullFace@local@@VNamedAllocator@shdfnd@physx@@@shdfnd@physx@@QEBAIXZ 0000000180046e50 f i QuickHullConvexHullLib.obj
 0001:00045e70       ?isInUserMemory@?$Array@PEAUQuickHullHalfEdge@local@@VNamedAllocator@shdfnd@physx@@@shdfnd@physx@@QEBAIXZ 0000000180046e70 f i QuickHullConvexHullLib.obj
 0001:00045e90       ?isInUserMemory@?$Array@PEAUQuickHullVertex@local@@VNamedAllocator@shdfnd@physx@@@shdfnd@physx@@QEBAIXZ 0000000180046e90 f i QuickHullConvexHullLib.obj
 0001:00045eb0       ?isInUserMemory@?$Array@UExpandPoint@local@@VNamedAllocator@shdfnd@physx@@@shdfnd@physx@@QEBAIXZ 0000000180046eb0 f i QuickHullConvexHullLib.obj
 0001:00045ed0       ?isTriangle@QuickHullFace@local@@AEBA_NXZ 0000000180046ed0 f i QuickHullConvexHullLib.obj
 0001:00045f00       ?pushBack@?$Array@PEAUQuickHullFace@local@@VNamedAllocator@shdfnd@physx@@@shdfnd@physx@@QEAAAEAPEAUQuickHullFace@local@@AEBQEAU45@@Z 0000000180046f00 f i QuickHullConvexHullLib.obj
 0001:00045fa0       ?pushBack@?$Array@PEAUQuickHullHalfEdge@local@@VNamedAllocator@shdfnd@physx@@@shdfnd@physx@@QEAAAEAPEAUQuickHullHalfEdge@local@@AEBQEAU45@@Z 0000000180046fa0 f i QuickHullConvexHullLib.obj
 0001:00046040       ?pushBack@?$Array@PEAUQuickHullVertex@local@@VNamedAllocator@shdfnd@physx@@@shdfnd@physx@@QEAAAEAPEAUQuickHullVertex@local@@AEBQEAU45@@Z 0000000180047040 f i QuickHullConvexHullLib.obj
 0001:000460e0       ?pushBack@?$Array@UExpandPoint@local@@VNamedAllocator@shdfnd@physx@@@shdfnd@physx@@QEAAAEAUExpandPoint@local@@AEBU45@@Z 00000001800470e0 f i QuickHullConvexHullLib.obj
 0001:00046180       ?recreate@?$Array@PEAUQuickHullFace@local@@VNamedAllocator@shdfnd@physx@@@shdfnd@physx@@IEAAXI@Z 0000000180047180 f i QuickHullConvexHullLib.obj
 0001:00046290       ?recreate@?$Array@PEAUQuickHullHalfEdge@local@@VNamedAllocator@shdfnd@physx@@@shdfnd@physx@@IEAAXI@Z 0000000180047290 f i QuickHullConvexHullLib.obj
 0001:000463a0       ?recreate@?$Array@PEAUQuickHullVertex@local@@VNamedAllocator@shdfnd@physx@@@shdfnd@physx@@IEAAXI@Z 00000001800473a0 f i QuickHullConvexHullLib.obj
 0001:000464b0       ?recreate@?$Array@UExpandPoint@local@@VNamedAllocator@shdfnd@physx@@@shdfnd@physx@@IEAAXI@Z 00000001800474b0 f i QuickHullConvexHullLib.obj
 0001:000465d0       ?reserve@?$Array@PEAUQuickHullFace@local@@VNamedAllocator@shdfnd@physx@@@shdfnd@physx@@QEAAXI@Z 00000001800475d0 f i QuickHullConvexHullLib.obj
 0001:00046600       ?reserve@?$Array@PEAUQuickHullHalfEdge@local@@VNamedAllocator@shdfnd@physx@@@shdfnd@physx@@QEAAXI@Z 0000000180047600 f i QuickHullConvexHullLib.obj
 0001:00046630       ?reserve@?$Array@PEAUQuickHullVertex@local@@VNamedAllocator@shdfnd@physx@@@shdfnd@physx@@QEAAXI@Z 0000000180047630 f i QuickHullConvexHullLib.obj
 0001:00046660       ?reserve@?$Array@UExpandPoint@local@@VNamedAllocator@shdfnd@physx@@@shdfnd@physx@@QEAAXI@Z 0000000180047660 f i QuickHullConvexHullLib.obj
 0001:00046690       ?reset@?$MemBlock@UQuickHullFace@local@@$00@local@@QEAAXXZ 0000000180047690 f i QuickHullConvexHullLib.obj
 0001:00046740       ?reset@?$MemBlock@UQuickHullHalfEdge@local@@$0A@@local@@QEAAXXZ 0000000180047740 f i QuickHullConvexHullLib.obj
 0001:000467f0       ?setTwin@QuickHullHalfEdge@local@@QEAAXPEAU12@@Z 00000001800477f0 f i QuickHullConvexHullLib.obj
 0001:00046820       ?size@?$Array@PEAUQuickHullFace@local@@VNamedAllocator@shdfnd@physx@@@shdfnd@physx@@QEBAIXZ 0000000180047820 f i QuickHullConvexHullLib.obj
 0001:00046830       ?size@?$Array@PEAUQuickHullHalfEdge@local@@VNamedAllocator@shdfnd@physx@@@shdfnd@physx@@QEBAIXZ 0000000180047830 f i QuickHullConvexHullLib.obj
 0001:00046840       ?size@?$Array@PEAUQuickHullVertex@local@@VNamedAllocator@shdfnd@physx@@@shdfnd@physx@@QEBAIXZ 0000000180047840 f i QuickHullConvexHullLib.obj
 0001:00046850       ?size@?$Array@UExpandPoint@local@@VNamedAllocator@shdfnd@physx@@@shdfnd@physx@@QEBAIXZ 0000000180047850 f i QuickHullConvexHullLib.obj
 0001:000468e0       ?computeVolumeIntegrals@physx@@YA_NAEBVPxSimpleTriangleMesh@1@MAEAUPxIntegrals@1@@Z 00000001800478e0 f   VolumeIntegration.obj
 0001:00046970       ?computeVolumeIntegralsEberly@physx@@YA_NAEBVPxConvexMeshDesc@1@MAEAUPxIntegrals@1@AEBVPxVec3@1@@Z 0000000180047970 f   VolumeIntegration.obj
 0001:000469e0       ?computeVolumeIntegralsEberlySIMD@physx@@YA_NAEBVPxConvexMeshDesc@1@MAEAUPxIntegrals@1@AEBVPxVec3@1@@Z 00000001800479e0 f   VolumeIntegration.obj
 0001:0004c280       ??$swap@VPxVec3@physx@@@shdfnd@physx@@YAXAEAVPxVec3@1@0@Z 000000018004d280 f i VolumeIntegration.obj
 0001:0004c2c0       ??0PxSimpleTriangleMesh@physx@@QEAA@XZ 000000018004d2c0 f i VolumeIntegration.obj
 0001:0004c310       ??4?$PxFlags@W4Enum@PxMeshFlag@physx@@G@physx@@QEAAAEAV01@AEBV01@@Z 000000018004d310 f i VolumeIntegration.obj
 0001:0004c330       ??4PxSimpleTriangleMesh@physx@@QEAAAEAV01@AEBV01@@Z 000000018004d330 f i VolumeIntegration.obj
 0001:0004c390       ?FAllGrtr@aos@shdfnd@physx@@YAIT__m128@@0@Z 000000018004d390 f i VolumeIntegration.obj
 0001:0004c490       ?V4Cross@aos@shdfnd@physx@@YA?AT__m128@@T4@0@Z 000000018004d490 f i VolumeIntegration.obj
 0001:0004c590       ?V4Dot3@aos@shdfnd@physx@@YA?AT__m128@@T4@0@Z 000000018004d590 f i VolumeIntegration.obj
 0001:0004c650       ?V4PermYZXW@aos@shdfnd@physx@@YA?AT__m128@@T4@@Z 000000018004d650 f i VolumeIntegration.obj
 0001:0004c680       ?V4ScaleInv@aos@shdfnd@physx@@YA?AT__m128@@T4@0@Z 000000018004d680 f i VolumeIntegration.obj
 0001:0004c720       ?Vec4V_From_PxVec3_WUndefined@aos@shdfnd@physx@@YA?AT__m128@@AEBVPxVec3@3@@Z 000000018004d720 f i VolumeIntegration.obj
 0001:0004c770       ?isZero@PxVec3@physx@@QEBA_NXZ 000000018004d770 f i VolumeIntegration.obj
 0001:0004c7c0       PxSetPhysXCookingDelayLoadHook 000000018004d7c0 f   WindowsCookingDelayLoadHook.obj
 0001:0004c7e0       ?cookingDelayHook@@YAP6A_JXZIPEAUDelayLoadInfo@@@Z 000000018004d7e0 f   WindowsCookingDelayLoadHook.obj
 0001:0004c860       ?loadLibrary@Cm@physx@@YAPEAUHINSTANCE__@@PEBD@Z 000000018004d860 f i WindowsCookingDelayLoadHook.obj
 0001:0004c880       ?physXCommonDliNotePreLoadLibrary@Cm@physx@@YAP6A_JXZPEBDPEBVPxDelayLoadHook@2@@Z 000000018004d880 f i WindowsCookingDelayLoadHook.obj
 0001:0004c90b       __imp_load_??0RadixSortBuffered@Cm@physx@@QEAA@XZ 000000018004d90b f   PhysXCommon_64:PhysXCommon_64.dll
 0001:0004c917       ??0RadixSortBuffered@Cm@physx@@QEAA@XZ 000000018004d917 f   PhysXCommon_64:PhysXCommon_64.dll
 0001:0004c91d       __tailMerge_physxcommon_64_dll 000000018004d91d     PhysXCommon_64:PhysXCommon_64.dll
 0001:0004c996       __imp_load_??1RadixSortBuffered@Cm@physx@@UEAA@XZ 000000018004d996 f   PhysXCommon_64:PhysXCommon_64.dll
 0001:0004c9a2       ??1RadixSortBuffered@Cm@physx@@UEAA@XZ 000000018004d9a2 f   PhysXCommon_64:PhysXCommon_64.dll
 0001:0004c9a8       __imp_load_?Sort@RadixSortBuffered@Cm@physx@@QEAAAEAV123@PEBIIW4RadixHint@23@@Z 000000018004d9a8 f   PhysXCommon_64:PhysXCommon_64.dll
 0001:0004c9b4       ?Sort@RadixSortBuffered@Cm@physx@@QEAAAEAV123@PEBIIW4RadixHint@23@@Z 000000018004d9b4 f   PhysXCommon_64:PhysXCommon_64.dll
 0001:0004c9ba       __imp_load_?readDword@physx@@YAI_NAEAVPxInputStream@1@@Z 000000018004d9ba f   PhysXCommon_64:PhysXCommon_64.dll
 0001:0004c9c6       ?readDword@physx@@YAI_NAEAVPxInputStream@1@@Z 000000018004d9c6 f   PhysXCommon_64:PhysXCommon_64.dll
 0001:0004c9cc       __imp_load_?ReadHeader@Gu@physx@@YA_NEEEEAEAIAEA_NAEAVPxInputStream@2@@Z 000000018004d9cc f   PhysXCommon_64:PhysXCommon_64.dll
 0001:0004c9d8       ?ReadHeader@Gu@physx@@YA_NEEEEAEAIAEA_NAEAVPxInputStream@2@@Z 000000018004d9d8 f   PhysXCommon_64:PhysXCommon_64.dll
 0001:0004c9de       __imp_load_??0HeightField@Gu@physx@@QEAA@PEAVGuMeshFactory@2@@Z 000000018004d9de f   PhysXCommon_64:PhysXCommon_64.dll
 0001:0004c9ea       ??0HeightField@Gu@physx@@QEAA@PEAVGuMeshFactory@2@@Z 000000018004d9ea f   PhysXCommon_64:PhysXCommon_64.dll
 0001:0004c9f0       __imp_load_?loadFromDesc@HeightField@Gu@physx@@QEAA_NAEBVPxHeightFieldDesc@3@@Z 000000018004d9f0 f   PhysXCommon_64:PhysXCommon_64.dll
 0001:0004c9fc       ?loadFromDesc@HeightField@Gu@physx@@QEAA_NAEBVPxHeightFieldDesc@3@@Z 000000018004d9fc f   PhysXCommon_64:PhysXCommon_64.dll
 0001:0004ca02       __imp_load_?computeCellCoordinates@HeightField@Gu@physx@@QEBAIMMAEAM0@Z 000000018004da02 f   PhysXCommon_64:PhysXCommon_64.dll
 0001:0004ca0e       ?computeCellCoordinates@HeightField@Gu@physx@@QEBAIMMAEAM0@Z 000000018004da0e f   PhysXCommon_64:PhysXCommon_64.dll
 0001:0004ca14       __imp_load_?releaseMemory@HeightField@Gu@physx@@QEAAXXZ 000000018004da14 f   PhysXCommon_64:PhysXCommon_64.dll
 0001:0004ca20       ?releaseMemory@HeightField@Gu@physx@@QEAAXXZ 000000018004da20 f   PhysXCommon_64:PhysXCommon_64.dll
 0001:0004ca26       __imp_load_??1HeightField@Gu@physx@@UEAA@XZ 000000018004da26 f   PhysXCommon_64:PhysXCommon_64.dll
 0001:0004ca32       ??1HeightField@Gu@physx@@UEAA@XZ 000000018004da32 f   PhysXCommon_64:PhysXCommon_64.dll
 0001:0004ca38       __imp_load_??0NodeAllocator@Gu@physx@@QEAA@XZ 000000018004da38 f   PhysXCommon_64:PhysXCommon_64.dll
 0001:0004ca44       ??0NodeAllocator@Gu@physx@@QEAA@XZ 000000018004da44 f   PhysXCommon_64:PhysXCommon_64.dll
 0001:0004ca4a       __imp_load_??1NodeAllocator@Gu@physx@@QEAA@XZ 000000018004da4a f   PhysXCommon_64:PhysXCommon_64.dll
 0001:0004ca56       ??1NodeAllocator@Gu@physx@@QEAA@XZ 000000018004da56 f   PhysXCommon_64:PhysXCommon_64.dll
 0001:0004ca5c       __imp_load_?release@NodeAllocator@Gu@physx@@QEAAXXZ 000000018004da5c f   PhysXCommon_64:PhysXCommon_64.dll
 0001:0004ca68       ?release@NodeAllocator@Gu@physx@@QEAAXXZ 000000018004da68 f   PhysXCommon_64:PhysXCommon_64.dll
 0001:0004ca6e       __imp_load_?buildAABBTree@Gu@physx@@YA_NAEAVAABBTreeBuildParams@12@AEAVNodeAllocator@12@AEAUBuildStats@12@AEAPEAI@Z 000000018004da6e f   PhysXCommon_64:PhysXCommon_64.dll
 0001:0004ca7a       ?buildAABBTree@Gu@physx@@YA_NAEAVAABBTreeBuildParams@12@AEAVNodeAllocator@12@AEAUBuildStats@12@AEAPEAI@Z 000000018004da7a f   PhysXCommon_64:PhysXCommon_64.dll
 0001:0004ca80       __imp_load_?writeDword@physx@@YAXI_NAEAVPxOutputStream@1@@Z 000000018004da80 f   PhysXCommon_64:PhysXCommon_64.dll
 0001:0004ca8c       ?writeDword@physx@@YAXI_NAEAVPxOutputStream@1@@Z 000000018004da8c f   PhysXCommon_64:PhysXCommon_64.dll
 0001:0004ca92       __imp_load_?writeFloatBuffer@physx@@YAXPEBMI_NAEAVPxOutputStream@1@@Z 000000018004da92 f   PhysXCommon_64:PhysXCommon_64.dll
 0001:0004ca9e       ?writeFloatBuffer@physx@@YAXPEBMI_NAEAVPxOutputStream@1@@Z 000000018004da9e f   PhysXCommon_64:PhysXCommon_64.dll
 0001:0004caa4       __imp_load_?writeHeader@physx@@YA_NCCCCI_NAEAVPxOutputStream@1@@Z 000000018004daa4 f   PhysXCommon_64:PhysXCommon_64.dll
 0001:0004cab0       ?writeHeader@physx@@YA_NCCCCI_NAEAVPxOutputStream@1@@Z 000000018004dab0 f   PhysXCommon_64:PhysXCommon_64.dll
 0001:0004cab6       __imp_load_?writeWord@physx@@YAXG_NAEAVPxOutputStream@1@@Z 000000018004dab6 f   PhysXCommon_64:PhysXCommon_64.dll
 0001:0004cac2       ?writeWord@physx@@YAXG_NAEAVPxOutputStream@1@@Z 000000018004dac2 f   PhysXCommon_64:PhysXCommon_64.dll
 0001:0004cac8       __imp_load_?writeFloat@physx@@YAXM_NAEAVPxOutputStream@1@@Z 000000018004dac8 f   PhysXCommon_64:PhysXCommon_64.dll
 0001:0004cad4       ?writeFloat@physx@@YAXM_NAEAVPxOutputStream@1@@Z 000000018004dad4 f   PhysXCommon_64:PhysXCommon_64.dll
 0001:0004cada       __imp_load_?validate@RTree@Gu@physx@@QEAAXPEAUCallbackRefit@123@@Z 000000018004dada f   PhysXCommon_64:PhysXCommon_64.dll
 0001:0004cae6       ?validate@RTree@Gu@physx@@QEAAXPEAUCallbackRefit@123@@Z 000000018004dae6 f   PhysXCommon_64:PhysXCommon_64.dll
 0001:0004caec       __imp_load_?computeBoundsAroundVertices@Gu@physx@@YAXAEAVPxBounds3@2@IPEIBVPxVec3@2@@Z 000000018004daec f   PhysXCommon_64:PhysXCommon_64.dll
 0001:0004caf8       ?computeBoundsAroundVertices@Gu@physx@@YAXAEAVPxBounds3@2@IPEIBVPxVec3@2@@Z 000000018004daf8 f   PhysXCommon_64:PhysXCommon_64.dll
 0001:0004cafe       __imp_load_??0SourceMesh@Gu@physx@@QEAA@XZ 000000018004dafe f   PhysXCommon_64:PhysXCommon_64.dll
 0001:0004cb0a       ??0SourceMesh@Gu@physx@@QEAA@XZ 000000018004db0a f   PhysXCommon_64:PhysXCommon_64.dll
 0001:0004cb10       __imp_load_??1SourceMesh@Gu@physx@@QEAA@XZ 000000018004db10 f   PhysXCommon_64:PhysXCommon_64.dll
 0001:0004cb1c       ??1SourceMesh@Gu@physx@@QEAA@XZ 000000018004db1c f   PhysXCommon_64:PhysXCommon_64.dll
 0001:0004cb22       __imp_load_??0BV4Tree@Gu@physx@@QEAA@XZ 000000018004db22 f   PhysXCommon_64:PhysXCommon_64.dll
 0001:0004cb2e       ??0BV4Tree@Gu@physx@@QEAA@XZ 000000018004db2e f   PhysXCommon_64:PhysXCommon_64.dll
 0001:0004cb34       __imp_load_??1BV4Tree@Gu@physx@@QEAA@XZ 000000018004db34 f   PhysXCommon_64:PhysXCommon_64.dll
 0001:0004cb40       ??1BV4Tree@Gu@physx@@QEAA@XZ 000000018004db40 f   PhysXCommon_64:PhysXCommon_64.dll
 0001:0004cb46       __imp_load_??0BV32Tree@Gu@physx@@QEAA@XZ 000000018004db46 f   PhysXCommon_64:PhysXCommon_64.dll
 0001:0004cb52       ??0BV32Tree@Gu@physx@@QEAA@XZ 000000018004db52 f   PhysXCommon_64:PhysXCommon_64.dll
 0001:0004cb58       __imp_load_??1BV32Tree@Gu@physx@@QEAA@XZ 000000018004db58 f   PhysXCommon_64:PhysXCommon_64.dll
 0001:0004cb64       ??1BV32Tree@Gu@physx@@QEAA@XZ 000000018004db64 f   PhysXCommon_64:PhysXCommon_64.dll
 0001:0004cb6a       __imp_load_?writeWordBuffer@physx@@YAXPEBGI_NAEAVPxOutputStream@1@@Z 000000018004db6a f   PhysXCommon_64:PhysXCommon_64.dll
 0001:0004cb76       ?writeWordBuffer@physx@@YAXPEBGI_NAEAVPxOutputStream@1@@Z 000000018004db76 f   PhysXCommon_64:PhysXCommon_64.dll
 0001:0004cb7c       __imp_load_?computeMaxIndex@physx@@YAIPEBII@Z 000000018004db7c f   PhysXCommon_64:PhysXCommon_64.dll
 0001:0004cb88       ?computeMaxIndex@physx@@YAIPEBII@Z 000000018004db88 f   PhysXCommon_64:PhysXCommon_64.dll
 0001:0004cb8e       __imp_load_?storeIndices@physx@@YAXIIPEBIAEAVPxOutputStream@1@_N@Z 000000018004db8e f   PhysXCommon_64:PhysXCommon_64.dll
 0001:0004cb9a       ?storeIndices@physx@@YAXIIPEBIAEAVPxOutputStream@1@_N@Z 000000018004db9a f   PhysXCommon_64:PhysXCommon_64.dll
 0001:0004cba0       __imp_load_?BuildBV4Ex@Gu@physx@@YA_NAEAVBV4Tree@12@AEAVSourceMesh@12@MI@Z 000000018004dba0 f   PhysXCommon_64:PhysXCommon_64.dll
 0001:0004cbac       ?BuildBV4Ex@Gu@physx@@YA_NAEAVBV4Tree@12@AEAVSourceMesh@12@MI@Z 000000018004dbac f   PhysXCommon_64:PhysXCommon_64.dll
 0001:0004cbb2       __imp_load_?BuildBV32Ex@Gu@physx@@YA_NAEAVBV32Tree@12@AEAVSourceMesh@12@MI@Z 000000018004dbb2 f   PhysXCommon_64:PhysXCommon_64.dll
 0001:0004cbbe       ?BuildBV32Ex@Gu@physx@@YA_NAEAVBV32Tree@12@AEAVSourceMesh@12@MI@Z 000000018004dbbe f   PhysXCommon_64:PhysXCommon_64.dll
 0001:0004cbc4       __imp_load_?computeMaxIndex@physx@@YAGPEBGI@Z 000000018004dbc4 f   PhysXCommon_64:PhysXCommon_64.dll
 0001:0004cbd0       ?computeMaxIndex@physx@@YAGPEBGI@Z 000000018004dbd0 f   PhysXCommon_64:PhysXCommon_64.dll
 0001:0004cbd6       __imp_load_?WriteHeader@Gu@physx@@YA_NEEEEI_NAEAVPxOutputStream@2@@Z 000000018004dbd6 f   PhysXCommon_64:PhysXCommon_64.dll
 0001:0004cbe2       ?WriteHeader@Gu@physx@@YA_NEEEEI_NAEAVPxOutputStream@2@@Z 000000018004dbe2 f   PhysXCommon_64:PhysXCommon_64.dll
 0001:0004cbe8       __imp_load_?StoreIndices@Gu@physx@@YAXGIPEBGAEAVPxOutputStream@2@_N@Z 000000018004dbe8 f   PhysXCommon_64:PhysXCommon_64.dll
 0001:0004cbf4       ?StoreIndices@Gu@physx@@YAXGIPEBGAEAVPxOutputStream@2@_N@Z 000000018004dbf4 f   PhysXCommon_64:PhysXCommon_64.dll
 0001:0004cbfa       __imp_load_?CreateOffsets@BigConvexData@physx@@IEAAXXZ 000000018004dbfa f   PhysXCommon_64:PhysXCommon_64.dll
 0001:0004cc06       ?CreateOffsets@BigConvexData@physx@@IEAAXXZ 000000018004dc06 f   PhysXCommon_64:PhysXCommon_64.dll
 0001:0004cc0c       __imp_load_?computeOBBPoints@Gu@physx@@YAXPEIAVPxVec3@2@AEBV32@1111@Z 000000018004dc0c f   PhysXCommon_64:PhysXCommon_64.dll
 0001:0004cc18       ?computeOBBPoints@Gu@physx@@YAXPEIAVPxVec3@2@AEBV32@1111@Z 000000018004dc18 f   PhysXCommon_64:PhysXCommon_64.dll
 0001:0004cc1e       __imp_load_??0BigConvexData@physx@@QEAA@XZ 000000018004dc1e f   PhysXCommon_64:PhysXCommon_64.dll
 0001:0004cc2a       ??0BigConvexData@physx@@QEAA@XZ 000000018004dc2a f   PhysXCommon_64:PhysXCommon_64.dll
 0001:0004cc30       __imp_load_??1BigConvexData@physx@@QEAA@XZ 000000018004dc30 f   PhysXCommon_64:PhysXCommon_64.dll
 0001:0004cc3c       ??1BigConvexData@physx@@QEAA@XZ 000000018004dc3c f   PhysXCommon_64:PhysXCommon_64.dll
 0001:0004cc42       __imp_load_?PxGetAssertHandler@physx@@YAAEAVPxAssertHandler@1@XZ 000000018004dc42 f   PhysXFoundation_64:PhysXFoundation_64.dll
 0001:0004cc4e       ?PxGetAssertHandler@physx@@YAAEAVPxAssertHandler@1@XZ 000000018004dc4e f   PhysXFoundation_64:PhysXFoundation_64.dll
 0001:0004cc54       __tailMerge_physxfoundation_64_dll 000000018004dc54     PhysXFoundation_64:PhysXFoundation_64.dll
 0001:0004cccd       __imp_load_PxGetFoundation 000000018004dccd f   PhysXFoundation_64:PhysXFoundation_64.dll
 0001:0004ccd9       PxGetFoundation            000000018004dcd9 f   PhysXFoundation_64:PhysXFoundation_64.dll
 0001:0004ccdf       __imp_load_?getAllocator@shdfnd@physx@@YAAEAVPxAllocatorCallback@2@XZ 000000018004dcdf f   PhysXFoundation_64:PhysXFoundation_64.dll
 0001:0004cceb       ?getAllocator@shdfnd@physx@@YAAEAVPxAllocatorCallback@2@XZ 000000018004dceb f   PhysXFoundation_64:PhysXFoundation_64.dll
 0001:0004ccf1       __imp_load_??0NamedAllocator@shdfnd@physx@@QEAA@PEBD@Z 000000018004dcf1 f   PhysXFoundation_64:PhysXFoundation_64.dll
 0001:0004ccfd       ??0NamedAllocator@shdfnd@physx@@QEAA@PEBD@Z 000000018004dcfd f   PhysXFoundation_64:PhysXFoundation_64.dll
 0001:0004cd03       __imp_load_?getInstance@Foundation@shdfnd@physx@@SAAEAV123@XZ 000000018004dd03 f   PhysXFoundation_64:PhysXFoundation_64.dll
 0001:0004cd0f       ?getInstance@Foundation@shdfnd@physx@@SAAEAV123@XZ 000000018004dd0f f   PhysXFoundation_64:PhysXFoundation_64.dll
 0001:0004cd15       __imp_load_?error@Foundation@shdfnd@physx@@QEAAXW4Enum@PxErrorCode@3@PEBDH1ZZ 000000018004dd15 f   PhysXFoundation_64:PhysXFoundation_64.dll
 0001:0004cd21       ?error@Foundation@shdfnd@physx@@QEAAXW4Enum@PxErrorCode@3@PEBDH1ZZ 000000018004dd21 f   PhysXFoundation_64:PhysXFoundation_64.dll
 0001:0004cd27       __imp_load_?allocate@NamedAllocator@shdfnd@physx@@QEAAPEAX_KPEBDH@Z 000000018004dd27 f   PhysXFoundation_64:PhysXFoundation_64.dll
 0001:0004cd33       ?allocate@NamedAllocator@shdfnd@physx@@QEAAPEAX_KPEBDH@Z 000000018004dd33 f   PhysXFoundation_64:PhysXFoundation_64.dll
 0001:0004cd39       __imp_load_?deallocate@NamedAllocator@shdfnd@physx@@QEAAXPEAX@Z 000000018004dd39 f   PhysXFoundation_64:PhysXFoundation_64.dll
 0001:0004cd45       ?deallocate@NamedAllocator@shdfnd@physx@@QEAAXPEAX@Z 000000018004dd45 f   PhysXFoundation_64:PhysXFoundation_64.dll
 0001:0004cd4b       __imp_load_?incRefCount@Foundation@shdfnd@physx@@SAXXZ 000000018004dd4b f   PhysXFoundation_64:PhysXFoundation_64.dll
 0001:0004cd57       ?incRefCount@Foundation@shdfnd@physx@@SAXXZ 000000018004dd57 f   PhysXFoundation_64:PhysXFoundation_64.dll
 0001:0004cd5d       __imp_load_?decRefCount@Foundation@shdfnd@physx@@SAXXZ 000000018004dd5d f   PhysXFoundation_64:PhysXFoundation_64.dll
 0001:0004cd69       ?decRefCount@Foundation@shdfnd@physx@@SAXXZ 000000018004dd69 f   PhysXFoundation_64:PhysXFoundation_64.dll
 0001:0004cd6f       __imp_load_??0FPUGuard@shdfnd@physx@@QEAA@XZ 000000018004dd6f f   PhysXFoundation_64:PhysXFoundation_64.dll
 0001:0004cd7b       ??0FPUGuard@shdfnd@physx@@QEAA@XZ 000000018004dd7b f   PhysXFoundation_64:PhysXFoundation_64.dll
 0001:0004cd81       __imp_load_??1FPUGuard@shdfnd@physx@@QEAA@XZ 000000018004dd81 f   PhysXFoundation_64:PhysXFoundation_64.dll
 0001:0004cd8d       ??1FPUGuard@shdfnd@physx@@QEAA@XZ 000000018004dd8d f   PhysXFoundation_64:PhysXFoundation_64.dll
 0001:0004cd93       __imp_load_??1NamedAllocator@shdfnd@physx@@QEAA@XZ 000000018004dd93 f   PhysXFoundation_64:PhysXFoundation_64.dll
 0001:0004cd9f       ??1NamedAllocator@shdfnd@physx@@QEAA@XZ 000000018004dd9f f   PhysXFoundation_64:PhysXFoundation_64.dll
 0001:0004cda5       __imp_load_??0NamedAllocator@shdfnd@physx@@QEAA@AEBV012@@Z 000000018004dda5 f   PhysXFoundation_64:PhysXFoundation_64.dll
 0001:0004cdb1       ??0NamedAllocator@shdfnd@physx@@QEAA@AEBV012@@Z 000000018004ddb1 f   PhysXFoundation_64:PhysXFoundation_64.dll
 0001:0004cdb7       __imp_load_?allocate@TempAllocator@shdfnd@physx@@QEAAPEAX_KPEBDH@Z 000000018004ddb7 f   PhysXFoundation_64:PhysXFoundation_64.dll
 0001:0004cdc3       ?allocate@TempAllocator@shdfnd@physx@@QEAAPEAX_KPEBDH@Z 000000018004ddc3 f   PhysXFoundation_64:PhysXFoundation_64.dll
 0001:0004cdc9       __imp_load_?deallocate@TempAllocator@shdfnd@physx@@QEAAXPEAX@Z 000000018004ddc9 f   PhysXFoundation_64:PhysXFoundation_64.dll
 0001:0004cdd5       ?deallocate@TempAllocator@shdfnd@physx@@QEAAXPEAX@Z 000000018004ddd5 f   PhysXFoundation_64:PhysXFoundation_64.dll
 0001:0004cddb       __imp_load_?PxDiagonalize@physx@@YA?AVPxVec3@1@AEBVPxMat33@1@AEAVPxQuat@1@@Z 000000018004dddb f   PhysXFoundation_64:PhysXFoundation_64.dll
 0001:0004cde7       ?PxDiagonalize@physx@@YA?AVPxVec3@1@AEBVPxMat33@1@AEAVPxQuat@1@@Z 000000018004dde7 f   PhysXFoundation_64:PhysXFoundation_64.dll
 0001:0004cded       LoadLibraryA               000000018004dded f   kernel32:KERNEL32.dll
 0001:0004cdf4       ??$PFromRva@PEAP6A_JXZ@@YAPEAP6A_JXZK@Z 000000018004ddf4 f i Delayimp:delayhlp.obj
 0001:0004ce04       ??$PFromRva@PEAPEAUHINSTANCE__@@@@YAPEAPEAUHINSTANCE__@@K@Z 000000018004de04 f i Delayimp:delayhlp.obj
 0001:0004ce14       ??$PFromRva@PEAU_IMAGE_IMPORT_BY_NAME@@@@YAPEAU_IMAGE_IMPORT_BY_NAME@@K@Z 000000018004de14 f i Delayimp:delayhlp.obj
 0001:0004ce24       ??$PFromRva@PEAU_IMAGE_THUNK_DATA64@@@@YAPEAU_IMAGE_THUNK_DATA64@@K@Z 000000018004de24 f i Delayimp:delayhlp.obj
 0001:0004ce34       ??$PFromRva@PEBD@@YAPEBDK@Z 000000018004de34 f i Delayimp:delayhlp.obj
 0001:0004ce44       ??$PFromRva@PEBUImgDelayDescr@@@@YAPEBUImgDelayDescr@@K@Z 000000018004de44 f i Delayimp:delayhlp.obj
 0001:0004ce54       ??$PFromRva@PEBU_IMAGE_THUNK_DATA64@@@@YAPEBU_IMAGE_THUNK_DATA64@@K@Z 000000018004de54 f i Delayimp:delayhlp.obj
 0001:0004ce64       ?CountOfImports@@YAIPEBU_IMAGE_THUNK_DATA64@@@Z 000000018004de64 f i Delayimp:delayhlp.obj
 0001:0004ce78       ?DloadAcquireSectionWriteAccess@@YAXXZ 000000018004de78 f i Delayimp:delayhlp.obj
 0001:0004cf24       ?DloadGetSRWLockFunctionPointers@@YAEXZ 000000018004df24 f i Delayimp:delayhlp.obj
 0001:0004cfc0       ?DloadLock@@YAXXZ          000000018004dfc0 f i Delayimp:delayhlp.obj
 0001:0004d008       ?DloadMakePermanentImageCommit@@YAXPEAX_K@Z 000000018004e008 f i Delayimp:delayhlp.obj
 0001:0004d0a0       ?DloadObtainSection@@YAPEAXPEAK0@Z 000000018004e0a0 f i Delayimp:delayhlp.obj
 0001:0004d13c       ?DloadProtectSection@@YAXKPEAK@Z 000000018004e13c f i Delayimp:delayhlp.obj
 0001:0004d1cc       ?DloadReleaseSectionWriteAccess@@YAXXZ 000000018004e1cc f i Delayimp:delayhlp.obj
 0001:0004d260       ?DloadUnlock@@YAXXZ        000000018004e260 f i Delayimp:delayhlp.obj
 0001:0004d2a0       ?IndexFromPImgThunkData@@YAIPEBU_IMAGE_THUNK_DATA64@@0@Z 000000018004e2a0 f i Delayimp:delayhlp.obj
 0001:0004d3e8       HRESULT_FROM_WIN32         000000018004e3e8 f i Delayimp:delayhlp.obj
 0001:0004d3f8       ReadAcquire64              000000018004e3f8 f i Delayimp:delayhlp.obj
 0001:0004d3fc       ReadPointerAcquire         000000018004e3fc f i Delayimp:delayhlp.obj
 0001:0004d400       WritePointerRelease        000000018004e400 f i Delayimp:delayhlp.obj
 0001:0004d404       WriteRelease64             000000018004e404 f i Delayimp:delayhlp.obj
 0001:0004d408       __FUnloadDelayLoadedDLL2   000000018004e408 f   Delayimp:delayhlp.obj
 0001:0004d4c4       __HrLoadAllImportsForDll   000000018004e4c4 f   Delayimp:delayhlp.obj
 0001:0004d538       __delayLoadHelper2         000000018004e538 f   Delayimp:delayhlp.obj
 0001:0004d810       ??3@YAXPEAX_K@Z            000000018004e810 f   LIBCMTD:delete_scalar_size.obj
 0001:0004d830       ??_V@YAXPEAX_K@Z           000000018004e830 f   LIBCMTD:delete_array_size.obj
 0001:0004d850       _CRT_RTC_INIT              000000018004e850 f   LIBCMTD:init.obj
 0001:0004d860       _CRT_RTC_INITW             000000018004e860 f   LIBCMTD:init.obj
 0001:0004d870       _RTC_InitBase              000000018004e870 f   LIBCMTD:init.obj
 0001:0004d8b0       _RTC_Shutdown              000000018004e8b0 f   LIBCMTD:init.obj
 0001:0004d8e0       ??1type_info@@UEAA@XZ      000000018004e8e0 f   LIBCMTD:std_type_info_static.obj
 0001:0004d900       ??_Gtype_info@@UEAAPEAXI@Z 000000018004e900 f i LIBCMTD:std_type_info_static.obj
 0001:0004d900       ??_Etype_info@@UEAAPEAXI@Z 000000018004e900 f i LIBCMTD:std_type_info_static.obj
 0001:0004d940       ?__scrt_initialize_type_info@@YAXXZ 000000018004e940 f   LIBCMTD:tncleanup.obj
 0001:0004d960       ?__scrt_uninitialize_type_info@@YAXXZ 000000018004e960 f   LIBCMTD:tncleanup.obj
 0001:0004d990       __chkstk                   000000018004e990 f   LIBCMTD:chkstk.obj
 0001:0004d990       _alloca_probe              000000018004e990 f   LIBCMTD:chkstk.obj
 0001:0004d9e0       ??3@YAXPEAX@Z              000000018004e9e0 f   LIBCMTD:delete_scalar.obj
 0001:0004da00       ??_V@YAXPEAX@Z             000000018004ea00 f   LIBCMTD:delete_array.obj
 0001:0004de30       _CRT_INIT                  000000018004ee30 f   LIBCMTD:dll_dllmain.obj
 0001:0004de60       _DllMainCRTStartup         000000018004ee60 f   LIBCMTD:dll_dllmain.obj
 0001:0004dea0       _guard_check_icall_nop     000000018004eea0 f i LIBCMTD:guard_support.obj
 0001:0004deb0       ReadNoFence64              000000018004eeb0 f i LIBCMTD:guard_support.obj
 0001:0004ded0       ReadPointerNoFence         000000018004eed0 f i LIBCMTD:guard_support.obj
 0001:0004def0       __castguard_check_failure_debugbreak 000000018004eef0 f i LIBCMTD:guard_support.obj
 0001:0004df10       __castguard_check_failure_fastfail 000000018004ef10 f i LIBCMTD:guard_support.obj
 0001:0004df40       __castguard_check_failure_nop 000000018004ef40 f i LIBCMTD:guard_support.obj
 0001:0004df50       __castguard_check_failure_os_handled 000000018004ef50 f i LIBCMTD:guard_support.obj
 0001:0004e010       __castguard_slow_path_check_debugbreak 000000018004f010 f i LIBCMTD:guard_support.obj
 0001:0004e050       __castguard_slow_path_check_fastfail 000000018004f050 f i LIBCMTD:guard_support.obj
 0001:0004e0a0       __castguard_slow_path_check_nop 000000018004f0a0 f i LIBCMTD:guard_support.obj
 0001:0004e0b0       __castguard_slow_path_check_os_handled 000000018004f0b0 f i LIBCMTD:guard_support.obj
 0001:0004e190       _guard_icall_checks_enforced 000000018004f190 f i LIBCMTD:guard_support.obj
 0001:0004e1d0       _guard_rf_checks_enforced  000000018004f1d0 f i LIBCMTD:guard_support.obj
 0001:0004e1e0       ?_RTC_GetErrorFunc@@YAP6AHHPEBDH00ZZPEBX@Z 000000018004f1e0 f   LIBCMTD:userapi.obj
 0001:0004e1f0       ?_RTC_GetErrorFuncW@@YAP6AHHPEB_WH00ZZPEBX@Z 000000018004f1f0 f   LIBCMTD:userapi.obj
 0001:0004e200       _RTC_GetErrDesc            000000018004f200 f   LIBCMTD:userapi.obj
 0001:0004e220       _RTC_NumErrors             000000018004f220 f   LIBCMTD:userapi.obj
 0001:0004e230       _RTC_SetErrorFunc          000000018004f230 f   LIBCMTD:userapi.obj
 0001:0004e250       _RTC_SetErrorFuncW         000000018004f250 f   LIBCMTD:userapi.obj
 0001:0004e270       _RTC_SetErrorType          000000018004f270 f   LIBCMTD:userapi.obj
 0001:0004e350       __security_init_cookie     000000018004f350 f   LIBCMTD:gs_support.obj
 0001:0004e3d0       DllMain                    000000018004f3d0 f   LIBCMTD:dll_dllmain_stub.obj
 0001:0004e3f0       __local_stdio_printf_options 000000018004f3f0 f i LIBCMTD:default_local_stdio_options.obj
 0001:0004e400       __local_stdio_scanf_options 000000018004f400 f i LIBCMTD:default_local_stdio_options.obj
 0001:0004e410       __scrt_initialize_default_local_stdio_options 000000018004f410 f   LIBCMTD:default_local_stdio_options.obj
 0001:0004e460       ?configure_argv@__scrt_narrow_argv_policy@@SAHXZ 000000018004f460 f i LIBCMTD:utility.obj
 0001:0004e550       ?initialize_environment@__scrt_narrow_environment_policy@@SAHXZ 000000018004f550 f i LIBCMTD:utility.obj
 0001:0004e5f0       NtCurrentTeb               000000018004f5f0 f i LIBCMTD:utility.obj
 0001:0004e600       __scrt_acquire_startup_lock 000000018004f600 f   LIBCMTD:utility.obj
 0001:0004e670       __scrt_dllmain_after_initialize_c 000000018004f670 f   LIBCMTD:utility.obj
 0001:0004e6a0       __scrt_dllmain_before_initialize_c 000000018004f6a0 f   LIBCMTD:utility.obj
 0001:0004e6c0       __scrt_dllmain_crt_thread_attach 000000018004f6c0 f   LIBCMTD:utility.obj
 0001:0004e6f0       __scrt_dllmain_crt_thread_detach 000000018004f6f0 f   LIBCMTD:utility.obj
 0001:0004e710       __scrt_dllmain_exception_filter 000000018004f710 f   LIBCMTD:utility.obj
 0001:0004e780       __scrt_dllmain_uninitialize_c 000000018004f780 f   LIBCMTD:utility.obj
 0001:0004e7b0       __scrt_dllmain_uninitialize_critical 000000018004f7b0 f   LIBCMTD:utility.obj
 0001:0004e7d0       __scrt_initialize_crt      000000018004f7d0 f   LIBCMTD:utility.obj
 0001:0004e820       __scrt_initialize_onexit_tables 000000018004f820 f   LIBCMTD:utility.obj
 0001:0004e930       __scrt_is_nonwritable_in_current_image 000000018004f930 f   LIBCMTD:utility.obj
 0001:0004e9c0       __scrt_release_startup_lock 000000018004f9c0 f   LIBCMTD:utility.obj
 0001:0004e9f0       __scrt_uninitialize_crt    000000018004f9f0 f   LIBCMTD:utility.obj
 0001:0004ea30       _onexit                    000000018004fa30 f   LIBCMTD:utility.obj
 0001:0004eab0       at_quick_exit              000000018004fab0 f   LIBCMTD:utility.obj
 0001:0004eb00       atexit                     000000018004fb00 f   LIBCMTD:utility.obj
 0001:0004eb40       __scrt_get_dyn_tls_init_callback 000000018004fb40 f   LIBCMTD:dyn_tls_init.obj
 0001:0004eb50       __crt_debugger_hook        000000018004fb50 f   LIBCMTD:utility_desktop.obj
 0001:0004eb60       __scrt_fastfail            000000018004fb60 f   LIBCMTD:utility_desktop.obj
 0001:0004ed00       __scrt_get_show_window_mode 000000018004fd00 f   LIBCMTD:utility_desktop.obj
 0001:0004ed60       __scrt_initialize_mta      000000018004fd60 f   LIBCMTD:utility_desktop.obj
 0001:0004ed70       __scrt_initialize_winrt    000000018004fd70 f   LIBCMTD:utility_desktop.obj
 0001:0004ed80       __scrt_is_managed_app      000000018004fd80 f   LIBCMTD:utility_desktop.obj
 0001:0004ee30       __scrt_set_unhandled_exception_filter 000000018004fe30 f   LIBCMTD:utility_desktop.obj
 0001:0004ee50       __scrt_exe_initialize_mta  000000018004fe50 f   LIBCMTD:utility_desktop.obj
 0001:0004ee50       __scrt_stub_for_initialize_mta 000000018004fe50 f   LIBCMTD:utility_desktop.obj
 0001:0004ee60       __scrt_unhandled_exception_filter 000000018004fe60 f   LIBCMTD:utility_desktop.obj
 0001:0004ef00       _RTC_Initialize            000000018004ff00 f   LIBCMTD:initsect.obj
 0001:0004ef50       _RTC_Terminate             000000018004ff50 f   LIBCMTD:initsect.obj
 0001:0004f030       ?_RTC_AllocaFailure@@YAXPEAXPEAU_RTC_ALLOCA_NODE@@H@Z 0000000180050030 f   LIBCMTD:error.obj
 0001:0004f190       ?_RTC_Failure@@YAXPEAXH@Z  0000000180050190 f   LIBCMTD:error.obj
 0001:0004f1e0       ?_RTC_StackFailure@@YAXPEAXPEBD@Z 00000001800501e0 f   LIBCMTD:error.obj
 0001:0004f610       _RTC_UninitUse             0000000180050610 f   LIBCMTD:error.obj
 0001:0004f6e0       _vsprintf_s_l              00000001800506e0 f i LIBCMTD:error.obj
 0001:0004f750       sprintf_s                  0000000180050750 f i LIBCMTD:error.obj
 0001:0004f780       __isa_available_init       0000000180050780 f   LIBCMTD:cpu_disp.obj
 0001:0004fb20       _get_startup_argv_mode     0000000180050b20 f   LIBCMTD:argv_mode.obj
 0001:0004fb30       __scrt_is_ucrt_dll_in_use  0000000180050b30 f   LIBCMTD:ucrt_detection.obj
 0001:00050070       ?_RTC_GetSrcLine@@YAHPEAEPEA_WKPEAH1K@Z 0000000180051070 f   LIBCMTD:pdblkup.obj
 0001:00050440       __GSHandlerCheck           0000000180051440 f   LIBCMTD:gshandler.obj
 0001:00050480       __GSHandlerCheckCommon     0000000180051480 f   LIBCMTD:gshandler.obj
 0001:00050590       __security_check_cookie    0000000180051590 f   LIBCMTD:amdsecgs.obj
 0001:000505b0       __raise_securityfailure    00000001800515b0 f   LIBCMTD:gs_report.obj
 0001:000505f0       __report_gsfailure         00000001800515f0 f   LIBCMTD:gs_report.obj
 0001:000506d0       __report_rangecheckfailure 00000001800516d0 f   LIBCMTD:gs_report.obj
 0001:000506f0       __report_securityfailure   00000001800516f0 f   LIBCMTD:gs_report.obj
 0001:00050790       __report_securityfailureEx 0000000180051790 f   LIBCMTD:gs_report.obj
 0001:00050a00       ??$__crt_interlocked_exchange_pointer@$$A6AXXZP6AXXZ@@YAP6AXXZPEDS6AXXZQ6AXXZ@Z 0000000180051a00 f i libvcruntimed:purevirt.obj
 0001:00050a20       ??$__crt_interlocked_read_pointer@$$A6AXXZ@@YAP6AXXZPEDS6AXXZ@Z 0000000180051a20 f i libvcruntimed:purevirt.obj
 0001:00050a40       ?__crt_interlocked_read_64@@YA_JPED_J@Z 0000000180051a40 f i libvcruntimed:purevirt.obj
 0001:00050a60       _get_purecall_handler      0000000180051a60 f   libvcruntimed:purevirt.obj
 0001:00050a80       _purecall                  0000000180051a80 f   libvcruntimed:purevirt.obj
 0001:00050ac0       _set_purecall_handler      0000000180051ac0 f   libvcruntimed:purevirt.obj
 0001:00050af0       memset_repmovs             0000000180051af0 f   libvcruntimed:memset.obj
 0001:00050b10       memset                     0000000180051b10 f   libvcruntimed:memset.obj
 0001:00050ce0       ??$?RD@__crt_internal_free_policy@@QEBAXQEBD@Z 0000000180051ce0 f i libvcruntimed:std_type_info.obj
 0001:00050d10       ??$?RX@__crt_internal_free_policy@@QEBAXQEBX@Z 0000000180051d10 f i libvcruntimed:std_type_info.obj
 0001:00050d40       ??$__crt_interlocked_compare_exchange_pointer@$$CBDPEAD$$T@@YAPEBDPEDSEBDQEAD$$T@Z 0000000180051d40 f i libvcruntimed:std_type_info.obj
 0001:00050d80       ??$__crt_interlocked_read_pointer@$$CBD@@YAPEBDPEDSEBD@Z 0000000180051d80 f i libvcruntimed:std_type_info.obj
 0001:00050da0       ??0?$__crt_unique_heap_ptr@DU__crt_internal_free_policy@@@@QEAA@QEAD@Z 0000000180051da0 f i libvcruntimed:std_type_info.obj
 0001:00050dc0       ??0?$__crt_unique_heap_ptr@XU__crt_internal_free_policy@@@@QEAA@QEAX@Z 0000000180051dc0 f i libvcruntimed:std_type_info.obj
 0001:00050de0       ??1?$__crt_unique_heap_ptr@DU__crt_internal_free_policy@@@@QEAA@XZ 0000000180051de0 f i libvcruntimed:std_type_info.obj
 0001:00050e00       ??1?$__crt_unique_heap_ptr@XU__crt_internal_free_policy@@@@QEAA@XZ 0000000180051e00 f i libvcruntimed:std_type_info.obj
 0001:00050e20       ??B?$__crt_unique_heap_ptr@DU__crt_internal_free_policy@@@@QEBA_NXZ 0000000180051e20 f i libvcruntimed:std_type_info.obj
 0001:00050e40       ??B?$__crt_unique_heap_ptr@XU__crt_internal_free_policy@@@@QEBA_NXZ 0000000180051e40 f i libvcruntimed:std_type_info.obj
 0001:00050ee0       ?detach@?$__crt_unique_heap_ptr@XU__crt_internal_free_policy@@@@QEAAPEAXXZ 0000000180051ee0 f i libvcruntimed:std_type_info.obj
 0001:00050f10       ?get@?$__crt_unique_heap_ptr@DU__crt_internal_free_policy@@@@QEBAPEADXZ 0000000180051f10 f i libvcruntimed:std_type_info.obj
 0001:00050f20       ?get@?$__crt_unique_heap_ptr@XU__crt_internal_free_policy@@@@QEBAPEAXXZ 0000000180051f20 f i libvcruntimed:std_type_info.obj
 0001:00050f30       ?is_valid@?$__crt_unique_heap_ptr@DU__crt_internal_free_policy@@@@QEBA_NXZ 0000000180051f30 f i libvcruntimed:std_type_info.obj
 0001:00050f60       ?is_valid@?$__crt_unique_heap_ptr@XU__crt_internal_free_policy@@@@QEBA_NXZ 0000000180051f60 f i libvcruntimed:std_type_info.obj
 0001:00050f90       ?release@?$__crt_unique_heap_ptr@DU__crt_internal_free_policy@@@@QEAAXXZ 0000000180051f90 f i libvcruntimed:std_type_info.obj
 0001:00050fc0       ?release@?$__crt_unique_heap_ptr@XU__crt_internal_free_policy@@@@QEAAXXZ 0000000180051fc0 f i libvcruntimed:std_type_info.obj
 0001:00050ff0       __std_type_info_compare    0000000180051ff0 f   libvcruntimed:std_type_info.obj
 0001:00051030       __std_type_info_destroy_list 0000000180052030 f   libvcruntimed:std_type_info.obj
 0001:00051090       __std_type_info_hash       0000000180052090 f   libvcruntimed:std_type_info.obj
 0001:00051140       __std_type_info_name       0000000180052140 f   libvcruntimed:std_type_info.obj
 0001:00051400       memcpy_repmovs             0000000180052400 f   libvcruntimed:memcpy.obj
 0001:00051420       memmove                    0000000180052420 f   libvcruntimed:memcpy.obj
 0001:00051420       memcpy                     0000000180052420 f   libvcruntimed:memcpy.obj
 0001:00051aa0       strstr                     0000000180052aa0 f   libvcruntimed:strstr.obj
 0001:000520e0       __C_specific_handler       00000001800530e0 f   libvcruntimed:riscchandler.obj
 0001:00052550       __vcrt_initialize          0000000180053550 f   libvcruntimed:initialization.obj
 0001:00052590       __vcrt_thread_attach       0000000180053590 f   libvcruntimed:initialization.obj
 0001:000525b0       __vcrt_thread_detach       00000001800535b0 f   libvcruntimed:initialization.obj
 0001:000525d0       __vcrt_uninitialize        00000001800535d0 f   libvcruntimed:initialization.obj
 0001:000525f0       __vcrt_uninitialize_critical 00000001800535f0 f   libvcruntimed:initialization.obj
 0001:00052610       __DestructExceptionObject  0000000180053610 f   libvcruntimed:ehhelpers.obj
 0001:00052710       ?_CallMemberFunction0@@YAXQEAX0@Z 0000000180053710 f i libvcruntimed:ehhelpers.obj
 0001:000527e0       ?raw_name@type_info@@QEBAPEBDXZ 00000001800537e0 f i libvcruntimed:ehhelpers.obj
 0001:000527f0       _IsExceptionObjectToBeDestroyed 00000001800537f0 f   libvcruntimed:ehhelpers.obj
 0001:00052840       _SetWinRTOutOfMemoryExceptionCallback 0000000180053840 f   libvcruntimed:ehhelpers.obj
 0001:00052860       __AdjustPointer            0000000180053860 f   libvcruntimed:ehhelpers.obj
 0001:000528e0       __FrameUnwindFilter        00000001800538e0 f   libvcruntimed:ehhelpers.obj
 0001:00052990       __GetPlatformExceptionInfo 0000000180053990 f   libvcruntimed:ehhelpers.obj
 0001:00052a40       __current_exception        0000000180053a40 f   libvcruntimed:ehhelpers.obj
 0001:00052a60       __current_exception_context 0000000180053a60 f   libvcruntimed:ehhelpers.obj
 0001:00052a80       __processing_throw         0000000180053a80 f   libvcruntimed:ehhelpers.obj
 0001:00052aa0       __std_terminate            0000000180053aa0 f   libvcruntimed:ehhelpers.obj
 0001:00052ab0       _is_exception_typeof       0000000180053ab0 f   libvcruntimed:ehhelpers.obj
 0001:00052c00       __C_specific_handler_noexcept 0000000180053c00 f   libvcruntimed:chandler_noexcept.obj
 0001:00052c90       __vcrt_GetModuleFileNameW  0000000180053c90 f   libvcruntimed:winapi_thunks.obj
 0001:00052cc0       __vcrt_GetModuleHandleW    0000000180053cc0 f   libvcruntimed:winapi_thunks.obj
 0001:00052ce0       __vcrt_LoadLibraryExW      0000000180053ce0 f   libvcruntimed:winapi_thunks.obj
 0001:00052d10       ??$?0$00@DName@@QEAA@PEBDU?$StringLifeSelector@$00@@@Z 0000000180053d10 f i libvcruntimed:undname.obj
 0001:00052d80       ??$?0$00@pcharNode@@QEAA@PEBDHU?$StringLifeSelector@$00@@@Z 0000000180053d80 f i libvcruntimed:undname.obj
 0001:00052de0       ??$?0$01@DName@@QEAA@PEBDU?$StringLifeSelector@$01@@@Z 0000000180053de0 f i libvcruntimed:undname.obj
 0001:00052e50       ??$?0$01@pcharNode@@QEAA@PEBDHU?$StringLifeSelector@$01@@@Z 0000000180053e50 f i libvcruntimed:undname.obj
 0001:00052f00       ??$?0$0A@@DName@@QEAA@PEBDU?$StringLifeSelector@$0A@@@@Z 0000000180053f00 f i libvcruntimed:undname.obj
 0001:00052f70       ??$?0$0A@@pcharNode@@QEAA@PEBDHU?$StringLifeSelector@$0A@@@@Z 0000000180053f70 f i libvcruntimed:undname.obj
 0001:00053020       ??$?0_K$0A@@?$optional@_K@std@@QEAA@$$QEA_K@Z 0000000180054020 f i libvcruntimed:undname.obj
 0001:00053070       ??$?0_K@?$_Optional_construct_base@_K@std@@QEAA@Uin_place_t@1@$$QEA_K@Z 0000000180054070 f i libvcruntimed:undname.obj
 0001:000530a0       ??$?0_K@?$_Optional_destruct_base@_K$00@std@@QEAA@Uin_place_t@1@$$QEA_K@Z 00000001800540a0 f i libvcruntimed:undname.obj
 0001:000530e0       ??$append@VDNameNode@@@DName@@AEAAXPEBVDNameNode@@@Z 00000001800540e0 f i libvcruntimed:undname.obj
 0001:00053190       ??$append@VDNameStatusNode@@@DName@@AEAAXPEBVDNameStatusNode@@@Z 0000000180054190 f i libvcruntimed:undname.obj
 0001:00053240       ??$append@VcharNode@@@DName@@AEAAXPEBVcharNode@@@Z 0000000180054240 f i libvcruntimed:undname.obj
 0001:000532f0       ??$append@VpDNameNode@@@DName@@AEAAXPEBVpDNameNode@@@Z 00000001800542f0 f i libvcruntimed:undname.obj
 0001:000533a0       ??$append@VpcharNode@@@DName@@AEAAXPEBVpcharNode@@@Z 00000001800543a0 f i libvcruntimed:undname.obj
 0001:00053450       ??$doPchar@$00@DName@@AEAAXPEBDH@Z 0000000180054450 f i libvcruntimed:undname.obj
 0001:000535b0       ??$doPchar@$01@DName@@AEAAXPEBDH@Z 00000001800545b0 f i libvcruntimed:undname.obj
 0001:00053710       ??$doPchar@$0A@@DName@@AEAAXPEBDH@Z 0000000180054710 f i libvcruntimed:undname.obj
 0001:00053870       ??$forward@_K@std@@YA$$QEA_KAEA_K@Z 0000000180054870 f i libvcruntimed:undname.obj
 0001:00053880       ??$size@D$04@std@@YA_KAEAY04$$CBD@Z 0000000180054880 f i libvcruntimed:undname.obj
 0001:00053890       ??$size@D$0EB@@std@@YA_KAEAY0EB@$$CBD@Z 0000000180054890 f i libvcruntimed:undname.obj
 0001:000538a0       ??0?$_Optional_construct_base@_K@std@@QEAA@XZ 00000001800548a0 f i libvcruntimed:undname.obj
 0001:000538c0       ??0?$_Optional_destruct_base@_K$00@std@@QEAA@XZ 00000001800548c0 f i libvcruntimed:undname.obj
 0001:000538f0       ??0?$optional@_K@std@@QEAA@XZ 00000001800548f0 f i libvcruntimed:undname.obj
 0001:00053910       ??0Block@_HeapManager@@QEAA@XZ 0000000180054910 f i libvcruntimed:undname.obj
 0001:00053930       ??0DName@@QEAA@AEAPEBDD@Z  0000000180054930 f   libvcruntimed:undname.obj
 0001:00053b00       ??0DName@@QEAA@AEBUStringLiteral@@@Z 0000000180054b00 f   libvcruntimed:undname.obj
 0001:00053b60       ??0DName@@QEAA@AEBV0@@Z    0000000180054b60 f i libvcruntimed:undname.obj
 0001:00053b90       ??0DName@@QEAA@D@Z         0000000180054b90 f   libvcruntimed:undname.obj
 0001:00053bd0       ??0DName@@QEAA@PEAV0@@Z    0000000180054bd0 f   libvcruntimed:undname.obj
 0001:00053cb0       ??0DName@@QEAA@W4DNameStatus@@@Z 0000000180054cb0 f   libvcruntimed:undname.obj
 0001:00053d60       ??0DName@@QEAA@XZ          0000000180054d60 f i libvcruntimed:undname.obj
 0001:00053d90       ??0DName@@QEAA@_J@Z        0000000180054d90 f   libvcruntimed:undname.obj
 0001:00053ea0       ??0DName@@QEAA@_K@Z        0000000180054ea0 f   libvcruntimed:undname.obj
 0001:00053f70       ??0DNameNode@@IEAA@XZ      0000000180054f70 f i libvcruntimed:undname.obj
 0001:00053f90       ??0Replicator@@QEAA@XZ     0000000180054f90 f i libvcruntimed:undname.obj
 0001:00053fd0       ??0UnDecorator@@QEAA@PEBDP6APEADJ@ZK@Z 0000000180054fd0 f i libvcruntimed:undname.obj
 0001:00054080       ??0_Nontrivial_dummy_type@std@@QEAA@XZ 0000000180055080 f i libvcruntimed:undname.obj
 0001:00054090       ??0charNode@@QEAA@D@Z      0000000180055090 f i libvcruntimed:undname.obj
 0001:000540d0       ??0pDNameNode@@QEAA@PEAVDName@@@Z 00000001800550d0 f   libvcruntimed:undname.obj
 0001:00054150       ??0pairNode@@QEAA@PEBVDNameNode@@0@Z 0000000180055150 f i libvcruntimed:undname.obj
 0001:000541d0       ??2@YAPEAX_KAEAV_HeapManager@@H@Z 00000001800551d0 f   libvcruntimed:undname.obj
 0001:00054230       ??4DName@@QEAAAEAV0@AEBUStringLiteral@@@Z 0000000180055230 f   libvcruntimed:undname.obj
 0001:00054280       ??4DName@@QEAAAEAV0@AEBV0@@Z 0000000180055280 f   libvcruntimed:undname.obj
 0001:000542b0       ??4DName@@QEAAAEAV0@D@Z    00000001800552b0 f i libvcruntimed:undname.obj
 0001:000542f0       ??4DName@@QEAAAEAV0@PEAV0@@Z 00000001800552f0 f   libvcruntimed:undname.obj
 0001:000543c0       ??4DName@@QEAAAEAV0@W4DNameStatus@@@Z 00000001800553c0 f   libvcruntimed:undname.obj
 0001:00054450       ??AReplicator@@QEBA?AVDName@@H@Z 0000000180055450 f   libvcruntimed:undname.obj
 0001:000544e0       ??B?$optional@_K@std@@QEBA_NXZ 00000001800554e0 f i libvcruntimed:undname.obj
 0001:000544f0       ??D?$optional@_K@std@@QEGAAAEA_KXZ 00000001800554f0 f i libvcruntimed:undname.obj
 0001:00054590       ??H@YA?AVDName@@AEBUStringLiteral@@AEBV0@@Z 0000000180055590 f i libvcruntimed:undname.obj
 0001:000545e0       ??H@YA?AVDName@@DAEBV0@@Z  00000001800555e0 f i libvcruntimed:undname.obj
 0001:00054630       ??H@YA?AVDName@@W4DNameStatus@@AEBV0@@Z 0000000180055630 f i libvcruntimed:undname.obj
 0001:00054680       ??HDName@@QEBA?AV0@AEBUStringLiteral@@@Z 0000000180055680 f   libvcruntimed:undname.obj
 0001:000546d0       ??HDName@@QEBA?AV0@AEBV0@@Z 00000001800556d0 f   libvcruntimed:undname.obj
 0001:00054720       ??HDName@@QEBA?AV0@D@Z     0000000180055720 f   libvcruntimed:undname.obj
 0001:00054770       ??HDName@@QEBA?AV0@PEAV0@@Z 0000000180055770 f   libvcruntimed:undname.obj
 0001:000547c0       ??HDName@@QEBA?AV0@W4DNameStatus@@@Z 00000001800557c0 f   libvcruntimed:undname.obj
 0001:00054810       ??HStringLiteral@@QEBA?AU0@H@Z 0000000180055810 f i libvcruntimed:undname.obj
 0001:00054850       ??YDName@@QEAAAEAV0@AEBUStringLiteral@@@Z 0000000180055850 f   libvcruntimed:undname.obj
 0001:00054920       ??YDName@@QEAAAEAV0@AEBV0@@Z 0000000180055920 f   libvcruntimed:undname.obj
 0001:000549e0       ??YDName@@QEAAAEAV0@D@Z    00000001800559e0 f   libvcruntimed:undname.obj
 0001:00054a80       ??YDName@@QEAAAEAV0@PEAV0@@Z 0000000180055a80 f   libvcruntimed:undname.obj
 0001:00054b60       ??YDName@@QEAAAEAV0@W4DNameStatus@@@Z 0000000180055b60 f   libvcruntimed:undname.obj
 0001:00054bd0       ??YReplicator@@QEAAAEAV0@AEBVDName@@@Z 0000000180055bd0 f   libvcruntimed:undname.obj
 0001:00054c90       ??_5DName@@QEAAAEAV0@AEBV0@@Z 0000000180055c90 f   libvcruntimed:undname.obj
 0001:00054d00       ??__K_l@@YA?AUStringLiteral@@PEBD_K@Z 0000000180055d00 f i libvcruntimed:undname.obj
 0001:00054d50       ?Constructor@_HeapManager@@QEAAXP6APEAX_K@ZP6AXPEAX@Z@Z 0000000180055d50 f i libvcruntimed:undname.obj
 0001:00054db0       ?Destructor@_HeapManager@@QEAAXXZ 0000000180055db0 f i libvcruntimed:undname.obj
 0001:00054e50       ?UScore@UnDecorator@@SA?AUStringLiteral@@W4Tokens@@@Z 0000000180055e50 f   libvcruntimed:undname.obj
 0001:00054ee0       ?composeDeclaration@UnDecorator@@CA?AVDName@@AEBV2@@Z 0000000180055ee0 f i libvcruntimed:undname.obj
 0001:000573e0       ?dbGetString@DName@@QEBAPEADXZ 00000001800583e0 f   libvcruntimed:undname.obj
 0001:00057410       ?doAccessSpecifiers@UnDecorator@@SAHXZ 0000000180058410 f i libvcruntimed:undname.obj
 0001:00057440       ?doAllocationLanguage@UnDecorator@@SAHXZ 0000000180058440 f i libvcruntimed:undname.obj
 0001:00057470       ?doAllocationModel@UnDecorator@@SAHXZ 0000000180058470 f i libvcruntimed:undname.obj
 0001:000574a0       ?doEcsu@UnDecorator@@SAHXZ 00000001800584a0 f i libvcruntimed:undname.obj
 0001:000574d0       ?doEllipsis@UnDecorator@@SAHXZ 00000001800584d0 f i libvcruntimed:undname.obj
 0001:00057500       ?doFunctionReturns@UnDecorator@@SAHXZ 0000000180058500 f i libvcruntimed:undname.obj
 0001:00057530       ?doMSKeywords@UnDecorator@@SAHXZ 0000000180058530 f i libvcruntimed:undname.obj
 0001:00057560       ?doMemberTypes@UnDecorator@@SAHXZ 0000000180058560 f i libvcruntimed:undname.obj
 0001:00057590       ?doNameOnly@UnDecorator@@SAHXZ 0000000180058590 f i libvcruntimed:undname.obj
 0001:000575a0       ?doNoIdentCharCheck@UnDecorator@@SAHXZ 00000001800585a0 f i libvcruntimed:undname.obj
 0001:000575b0       ?doPchar@DName@@AEAAXD@Z   00000001800585b0 f   libvcruntimed:undname.obj
 0001:00057640       ?doPtr64@UnDecorator@@SAHXZ 0000000180058640 f i libvcruntimed:undname.obj
 0001:00057670       ?doRestrictionSpec@UnDecorator@@SAHXZ 0000000180058670 f i libvcruntimed:undname.obj
 0001:000576a0       ?doThisTypes@UnDecorator@@SAHXZ 00000001800586a0 f i libvcruntimed:undname.obj
 0001:000576d0       ?doThrowTypes@UnDecorator@@SAHXZ 00000001800586d0 f i libvcruntimed:undname.obj
 0001:00057700       ?doTypeOnly@UnDecorator@@SAHXZ 0000000180058700 f i libvcruntimed:undname.obj
 0001:00057710       ?doUnderScore@UnDecorator@@SAHXZ 0000000180058710 f i libvcruntimed:undname.obj
 0001:00057740       ?getAddressOf@UnDecorator@@CA?AVDName@@XZ 0000000180058740 f   libvcruntimed:undname.obj
 0001:000577e0       ?getArgumentList@UnDecorator@@CA?AVDName@@XZ 00000001800587e0 f   libvcruntimed:undname.obj
 0001:00057980       ?getArgumentTypes@UnDecorator@@CA?AVDName@@XZ 0000000180058980 f   libvcruntimed:undname.obj
 0001:00057ce0       ?getArrayAccess@UnDecorator@@CA?AVDName@@XZ 0000000180058ce0 f   libvcruntimed:undname.obj
 0001:00057da0       ?getArrayObject@UnDecorator@@CA?AVDName@@XZ 0000000180058da0 f   libvcruntimed:undname.obj
 0001:00057ec0       ?getArrayType@UnDecorator@@CA?AVDName@@AEBV2@@Z 0000000180058ec0 f i libvcruntimed:undname.obj
 0001:00058280       ?getBasedType@UnDecorator@@CA?AVDName@@XZ 0000000180059280 f   libvcruntimed:undname.obj
 0001:000583f0       ?getBasicDataType@UnDecorator@@CA?AVDName@@AEBV2@@Z 00000001800593f0 f   libvcruntimed:undname.obj
 0001:00059190       ?getCHPEName@UnDecorator@@QEAAPEADPEADH@Z 000000018005a190 f i libvcruntimed:undname.obj
 0001:00059360       ?getCallIndex@UnDecorator@@CA?AVDName@@XZ 000000018005a360 f i libvcruntimed:undname.obj
 0001:00059380       ?getCallingConvention@UnDecorator@@CA?AVDName@@XZ 000000018005a380 f   libvcruntimed:undname.obj
 0001:00059720       ?getDataIndirectType@UnDecorator@@CA?AVDName@@AEBV2@W4IndirectionKind@@0H@Z 000000018005a720 f   libvcruntimed:undname.obj
 0001:0005a3c0       ?getDataIndirectType@UnDecorator@@CA?AVDName@@XZ 000000018005b3c0 f i libvcruntimed:undname.obj
 0001:0005a410       ?getDataType@UnDecorator@@CA?AVDName@@PEAV2@@Z 000000018005b410 f   libvcruntimed:undname.obj
 0001:0005a5f0       ?getDecoratedName@UnDecorator@@CA?AVDName@@XZ 000000018005b5f0 f   libvcruntimed:undname.obj
 0001:0005aae0       ?getDimension@UnDecorator@@CA?AVDName@@_N@Z 000000018005bae0 f   libvcruntimed:undname.obj
 0001:0005adf0       ?getDispatchTarget@UnDecorator@@CA?AVDName@@XZ 000000018005bdf0 f   libvcruntimed:undname.obj
 0001:0005aec0       ?getDisplacement@UnDecorator@@CA?AVDName@@XZ 000000018005bec0 f i libvcruntimed:undname.obj
 0001:0005aee0       ?getECSUDataType@UnDecorator@@CA?AVDName@@XZ 000000018005bee0 f   libvcruntimed:undname.obj
 0001:0005b270       ?getECSUName@UnDecorator@@CA?AVDName@@XZ 000000018005c270 f i libvcruntimed:undname.obj
 0001:0005b290       ?getEnumType@UnDecorator@@CA?AVDName@@XZ 000000018005c290 f i libvcruntimed:undname.obj
 0001:0005b520       ?getExtendedDataIndirectType@UnDecorator@@CA?AVDName@@AEAW4IndirectionKind@@AEA_NH@Z 000000018005c520 f   libvcruntimed:undname.obj
 0001:0005b840       ?getExternalDataType@UnDecorator@@CA?AVDName@@AEBV2@@Z 000000018005c840 f i libvcruntimed:undname.obj
 0001:0005b920       ?getFloatingPoint@UnDecorator@@CA?AVDName@@H@Z 000000018005c920 f   libvcruntimed:undname.obj
 0001:0005bba0       ?getFunctionIndirectType@UnDecorator@@CA?AVDName@@AEBV2@@Z 000000018005cba0 f   libvcruntimed:undname.obj
 0001:0005c1d0       ?getGuardNumber@UnDecorator@@CA?AVDName@@XZ 000000018005d1d0 f i libvcruntimed:undname.obj
 0001:0005c1f0       ?getLastChar@DName@@QEBADXZ 000000018005d1f0 f i libvcruntimed:undname.obj
 0001:0005c240       ?getLastChar@DNameStatusNode@@UEBADXZ 000000018005d240 f i libvcruntimed:undname.obj
 0001:0005c280       ?getLastChar@charNode@@UEBADXZ 000000018005d280 f i libvcruntimed:undname.obj
 0001:0005c290       ?getLastChar@pDNameNode@@UEBADXZ 000000018005d290 f i libvcruntimed:undname.obj
 0001:0005c2d0       ?getLastChar@pairNode@@UEBADXZ 000000018005d2d0 f i libvcruntimed:undname.obj
 0001:0005c350       ?getLastChar@pcharNode@@UEBADXZ 000000018005d350 f i libvcruntimed:undname.obj
 0001:0005c390       ?getLexicalFrame@UnDecorator@@CA?AVDName@@XZ 000000018005d390 f i libvcruntimed:undname.obj
 0001:0005c3e0       ?getMemberAccess@UnDecorator@@CA?AVDName@@XZ 000000018005d3e0 f   libvcruntimed:undname.obj
 0001:0005c490       ?getMemoryWithBuffer@_HeapManager@@QEAAPEAX_K@Z 000000018005d490 f   libvcruntimed:undname.obj
 0001:0005c5e0       ?getMemoryWithoutBuffer@_HeapManager@@QEAAPEAX_K@Z 000000018005d5e0 f   libvcruntimed:undname.obj
 0001:0005c630       ?getNoexcept@UnDecorator@@CA?AVDName@@XZ 000000018005d630 f   libvcruntimed:undname.obj
 0001:0005c6e0       ?getNumberOfDimensions@UnDecorator@@CAHXZ 000000018005d6e0 f   libvcruntimed:undname.obj
 0001:0005c800       ?getOperatorName@UnDecorator@@CA?AVDName@@_NPEA_N@Z 000000018005d800 f i libvcruntimed:undname.obj
 0001:0005d7f0       ?getPointerToMember@UnDecorator@@CA?AVDName@@XZ 000000018005e7f0 f   libvcruntimed:undname.obj
 0001:0005d940       ?getPointerType@UnDecorator@@CA?AVDName@@AEBV2@0@Z 000000018005e940 f i libvcruntimed:undname.obj
 0001:0005d980       ?getPointerTypeArray@UnDecorator@@CA?AVDName@@AEBV2@0@Z 000000018005e980 f i libvcruntimed:undname.obj
 0001:0005d9c0       ?getPrimaryDataType@UnDecorator@@CA?AVDName@@AEBV2@@Z 000000018005e9c0 f   libvcruntimed:undname.obj
 0001:0005dff0       ?getPtrRefDataType@UnDecorator@@CA?AVDName@@AEBV2@H@Z 000000018005eff0 f   libvcruntimed:undname.obj
 0001:0005e3e0       ?getPtrRefType@UnDecorator@@CA?AVDName@@AEBV2@0W4IndirectionKind@@@Z 000000018005f3e0 f   libvcruntimed:undname.obj
 0001:0005e620       ?getReferenceType@UnDecorator@@CA?AVDName@@AEBV2@0W4IndirectionKind@@@Z 000000018005f620 f i libvcruntimed:undname.obj
 0001:0005e660       ?getRestrictionSpec@UnDecorator@@CA?AVDName@@XZ 000000018005f660 f   libvcruntimed:undname.obj
 0001:0005e8f0       ?getReturnType@UnDecorator@@CA?AVDName@@PEAV2@@Z 000000018005f8f0 f   libvcruntimed:undname.obj
 0001:0005e950       ?getScope@UnDecorator@@CA?AVDName@@XZ 000000018005f950 f   libvcruntimed:undname.obj
 0001:0005f0b0       ?getScopedName@UnDecorator@@CA?AVDName@@XZ 00000001800600b0 f   libvcruntimed:undname.obj
 0001:0005f2b0       ?getSignedDimension@UnDecorator@@CA?AVDName@@XZ 00000001800602b0 f   libvcruntimed:undname.obj
 0001:0005f340       ?getStorageConvention@UnDecorator@@CA?AVDName@@XZ 0000000180060340 f i libvcruntimed:undname.obj
 0001:0005f360       ?getString@DName@@QEBAPEADPEAD0@Z 0000000180060360 f i libvcruntimed:undname.obj
 0001:0005f3e0       ?getString@DName@@QEBAPEADPEADH@Z 00000001800603e0 f i libvcruntimed:undname.obj
 0001:0005f4a0       ?getString@DNameStatusNode@@UEBAPEADPEAD0@Z 00000001800604a0 f i libvcruntimed:undname.obj
 0001:0005f4f0       ?getString@charNode@@UEBAPEADPEAD0@Z 00000001800604f0 f i libvcruntimed:undname.obj
 0001:0005f530       ?getString@pDNameNode@@UEBAPEADPEAD0@Z 0000000180060530 f i libvcruntimed:undname.obj
 0001:0005f590       ?getString@pairNode@@UEBAPEADPEAD0@Z 0000000180060590 f i libvcruntimed:undname.obj
 0001:0005f660       ?getString@pcharNode@@UEBAPEADPEAD0@Z 0000000180060660 f i libvcruntimed:undname.obj
 0001:0005f6a0       ?getStringEncoding@UnDecorator@@CA?AVDName@@W4PrefixKind@@H@Z 00000001800606a0 f   libvcruntimed:undname.obj
 0001:0005f800       ?getStringHelper@@YAPEADPEADPEBD1H@Z 0000000180060800 f i libvcruntimed:undname.obj
 0001:0005f870       ?getStringObject@UnDecorator@@CA?AVDName@@XZ 0000000180060870 f   libvcruntimed:undname.obj
 0001:0005f950       ?getSymbolName@UnDecorator@@CA?AVDName@@XZ 0000000180060950 f i libvcruntimed:undname.obj
 0001:0005f9f0       ?getTemplateArgumentList@UnDecorator@@CA?AVDName@@XZ 00000001800609f0 f   libvcruntimed:undname.obj
 0001:0005fd30       ?getTemplateName@UnDecorator@@CA?AVDName@@_N@Z 0000000180060d30 f   libvcruntimed:undname.obj
 0001:0005ff70       ?getTemplateNonTypeArgument@UnDecorator@@CA?AVDName@@XZ 0000000180060f70 f   libvcruntimed:undname.obj
 0001:000607a0       ?getTemplateTypeArgument@UnDecorator@@CA?AVDName@@XZ 00000001800617a0 f   libvcruntimed:undname.obj
 0001:00060a10       ?getThisType@UnDecorator@@CA?AVDName@@XZ 0000000180061a10 f i libvcruntimed:undname.obj
 0001:00060a60       ?getThrowTypes@UnDecorator@@CA?AVDName@@XZ 0000000180061a60 f   libvcruntimed:undname.obj
 0001:00060ab0       ?getTypeEncoding@UnDecorator@@CAHXZ 0000000180061ab0 f i libvcruntimed:undname.obj
 0001:00061710       ?getUndecoratedName@UnDecorator@@QEAAPEADPEADH@Z 0000000180062710 f i libvcruntimed:undname.obj
 0001:00061900       ?getUnionObject@UnDecorator@@CA?AVDName@@XZ 0000000180062900 f   libvcruntimed:undname.obj
 0001:00061a10       ?getVCallThunkType@UnDecorator@@CA?AVDName@@XZ 0000000180062a10 f i libvcruntimed:undname.obj
 0001:00061ac0       ?getValue@UnDecorator@@CA?AV?$optional@_K@std@@XZ 0000000180062ac0 f   libvcruntimed:undname.obj
 0001:00061b90       ?getValueObject@UnDecorator@@CA?AVDName@@XZ 0000000180062b90 f   libvcruntimed:undname.obj
 0001:00061db0       ?getVbTableType@UnDecorator@@CA?AVDName@@AEBV2@@Z 0000000180062db0 f i libvcruntimed:undname.obj
 0001:00061de0       ?getVdispMapType@UnDecorator@@CA?AVDName@@AEBV2@@Z 0000000180062de0 f i libvcruntimed:undname.obj
 0001:00061ea0       ?getVfTableType@UnDecorator@@CA?AVDName@@AEBV2@@Z 0000000180062ea0 f i libvcruntimed:undname.obj
 0001:00062140       ?getZName@UnDecorator@@CA?AVDName@@_N0@Z 0000000180063140 f   libvcruntimed:undname.obj
 0001:000625d0       ?haveTemplateParameters@UnDecorator@@SAHXZ 00000001800635d0 f i libvcruntimed:undname.obj
 0001:000625e0       ?isArray@DName@@QEBAHXZ    00000001800635e0 f i libvcruntimed:undname.obj
 0001:00062600       ?isComArray@DName@@QEBAHXZ 0000000180063600 f i libvcruntimed:undname.obj
 0001:00062620       ?isEmpty@DName@@QEBAHXZ    0000000180063620 f i libvcruntimed:undname.obj
 0001:00062650       ?isFull@Replicator@@QEBAHXZ 0000000180063650 f i libvcruntimed:undname.obj
 0001:00062680       ?isNoTE@DName@@QEBAHXZ     0000000180063680 f i libvcruntimed:undname.obj
 0001:000626a0       ?isPinPtr@DName@@QEBAHXZ   00000001800636a0 f i libvcruntimed:undname.obj
 0001:000626c0       ?isPtrRef@DName@@QEBAHXZ   00000001800636c0 f i libvcruntimed:undname.obj
 0001:000626e0       ?isUDC@DName@@QEBAHXZ      00000001800636e0 f i libvcruntimed:undname.obj
 0001:00062730       ?isUDTThunk@DName@@QEBAHXZ 0000000180063730 f i libvcruntimed:undname.obj
 0001:00062780       ?isVCallThunk@DName@@QEBAHXZ 0000000180063780 f i libvcruntimed:undname.obj
 0001:000627a0       ?isValid@DName@@QEBAHXZ    00000001800637a0 f i libvcruntimed:undname.obj
 0001:000627e0       ?length@DName@@QEBAHXZ     00000001800637e0 f i libvcruntimed:undname.obj
 0001:00062830       ?length@DNameStatusNode@@UEBAHXZ 0000000180063830 f i libvcruntimed:undname.obj
 0001:00062840       ?length@charNode@@UEBAHXZ  0000000180063840 f i libvcruntimed:undname.obj
 0001:00062850       ?length@pDNameNode@@UEBAHXZ 0000000180063850 f i libvcruntimed:undname.obj
 0001:00062890       ?length@pairNode@@UEBAHXZ  0000000180063890 f i libvcruntimed:undname.obj
 0001:00062920       ?length@pcharNode@@UEBAHXZ 0000000180063920 f i libvcruntimed:undname.obj
 0001:00062930       ?make@DNameStatusNode@@SAPEBV1@W4DNameStatus@@@Z 0000000180063930 f i libvcruntimed:undname.obj
 0001:00062980       ?parseDecoratedName@UnDecorator@@CA?AVDName@@XZ 0000000180063980 f   libvcruntimed:undname.obj
 0001:00062b70       ?raw_length@DNameStatusNode@@UEBAHXZ 0000000180063b70 f i libvcruntimed:undname.obj
 0001:00062b90       ?raw_length@charNode@@UEBAHXZ 0000000180063b90 f i libvcruntimed:undname.obj
 0001:00062bb0       ?raw_length@pDNameNode@@UEBAHXZ 0000000180063bb0 f i libvcruntimed:undname.obj
 0001:00062bc0       ?raw_length@pairNode@@UEBAHXZ 0000000180063bc0 f i libvcruntimed:undname.obj
 0001:00062bd0       ?raw_length@pcharNode@@UEBAHXZ 0000000180063bd0 f i libvcruntimed:undname.obj
 0001:00062bf0       ?setIsArray@DName@@QEAAXXZ 0000000180063bf0 f i libvcruntimed:undname.obj
 0001:00062c10       ?setIsComArray@DName@@QEAAXXZ 0000000180063c10 f i libvcruntimed:undname.obj
 0001:00062c30       ?setIsNoTE@DName@@QEAAXXZ  0000000180063c30 f i libvcruntimed:undname.obj
 0001:00062c50       ?setIsPinPtr@DName@@QEAAXXZ 0000000180063c50 f i libvcruntimed:undname.obj
 0001:00062c70       ?setIsUDC@DName@@QEAAXXZ   0000000180063c70 f i libvcruntimed:undname.obj
 0001:00062ca0       ?setIsVCallThunk@DName@@QEAAXXZ 0000000180063ca0 f i libvcruntimed:undname.obj
 0001:00062cc0       ?setPtrRef@DName@@QEAAAEAV1@XZ 0000000180063cc0 f i libvcruntimed:undname.obj
 0001:00062ce0       ?status@DName@@QEBA?AW4DNameStatus@@XZ 0000000180063ce0 f i libvcruntimed:undname.obj
 0001:00062e10       __unDName                  0000000180063e10 f   libvcruntimed:undname.obj
 0001:00062e70       __unDNameEx                0000000180063e70 f   libvcruntimed:undname.obj
 0001:00062f30       unDNameGenerateCHPE        0000000180063f30 f   libvcruntimed:undname.obj
 0001:00062ff0       _NLG_Notify                0000000180063ff0 f   libvcruntimed:notify.obj
 0001:00063010       __NLG_Dispatch2            0000000180064010 f   libvcruntimed:notify.obj
 0001:00063020       __NLG_Return2              0000000180064020 f   libvcruntimed:notify.obj
 0001:00063040       __except_validate_context_record 0000000180064040 f   libvcruntimed:jbcxrval.obj
 0001:000630a0       __except_validate_jump_buffer 00000001800640a0 f   libvcruntimed:jbcxrval.obj
 0001:000630c0       __except_validate_jump_buffer_common 00000001800640c0 f i libvcruntimed:jbcxrval.obj
 0001:00063140       ??$?RU__vcrt_ptd@@@__crt_internal_free_policy@@QEBAXQEBU__vcrt_ptd@@@Z 0000000180064140 f i libvcruntimed:per_thread_data.obj
 0001:00063170       ??0?$__crt_unique_heap_ptr@U__vcrt_ptd@@U__crt_internal_free_policy@@@@QEAA@QEAU__vcrt_ptd@@@Z 0000000180064170 f i libvcruntimed:per_thread_data.obj
 0001:000631b0       ??1?$__crt_unique_heap_ptr@U__vcrt_ptd@@U__crt_internal_free_policy@@@@QEAA@XZ 00000001800641b0 f i libvcruntimed:per_thread_data.obj
 0001:000631f0       ??B?$__crt_unique_heap_ptr@U__vcrt_ptd@@U__crt_internal_free_policy@@@@QEBA_NXZ 00000001800641f0 f i libvcruntimed:per_thread_data.obj
 0001:00063210       ?detach@?$__crt_unique_heap_ptr@U__vcrt_ptd@@U__crt_internal_free_policy@@@@QEAAPEAU__vcrt_ptd@@XZ 0000000180064210 f i libvcruntimed:per_thread_data.obj
 0001:00063240       ?get@?$__crt_unique_heap_ptr@U__vcrt_ptd@@U__crt_internal_free_policy@@@@QEBAPEAU__vcrt_ptd@@XZ 0000000180064240 f i libvcruntimed:per_thread_data.obj
 0001:00063250       ?is_valid@?$__crt_unique_heap_ptr@U__vcrt_ptd@@U__crt_internal_free_policy@@@@QEBA_NXZ 0000000180064250 f i libvcruntimed:per_thread_data.obj
 0001:00063280       ?release@?$__crt_unique_heap_ptr@U__vcrt_ptd@@U__crt_internal_free_policy@@@@QEAAXXZ 0000000180064280 f i libvcruntimed:per_thread_data.obj
 0001:000632f0       __vcrt_freefls             00000001800642f0 f   libvcruntimed:per_thread_data.obj
 0001:00063330       __vcrt_freeptd             0000000180064330 f   libvcruntimed:per_thread_data.obj
 0001:00063390       __vcrt_getptd              0000000180064390 f   libvcruntimed:per_thread_data.obj
 0001:000633c0       __vcrt_getptd_noexit       00000001800643c0 f   libvcruntimed:per_thread_data.obj
 0001:00063560       __vcrt_getptd_noinit       0000000180064560 f   libvcruntimed:per_thread_data.obj
 0001:000635c0       __vcrt_initialize_ptd      00000001800645c0 f   libvcruntimed:per_thread_data.obj
 0001:00063610       __vcrt_uninitialize_ptd    0000000180064610 f   libvcruntimed:per_thread_data.obj
 0001:00063640       __vcrt_initialize_locks    0000000180064640 f   libvcruntimed:locks.obj
 0001:000636b0       __vcrt_lock                00000001800646b0 f   libvcruntimed:locks.obj
 0001:000636e0       __vcrt_uninitialize_locks  00000001800646e0 f   libvcruntimed:locks.obj
 0001:00063740       __vcrt_unlock              0000000180064740 f   libvcruntimed:locks.obj
 0001:00063770       ??$?0AEAViterator@TryBlockMap4@FH4@@AEAV012@$0A@@?$pair@Viterator@TryBlockMap4@FH4@@V123@@std@@QEAA@AEAViterator@TryBlockMap4@FH4@@0@Z 0000000180064770 f i libvcruntimed:risctrnsctrl.obj
 0001:000637d0       ??$?0AEAViterator@TryBlockMap@__FrameHandler3@@AEAV012@$0A@@?$pair@Viterator@TryBlockMap@__FrameHandler3@@V123@@std@@QEAA@AEAViterator@TryBlockMap@__FrameHandler3@@0@Z 00000001800647d0 f i libvcruntimed:risctrnsctrl.obj
 0001:000639a0       ??$_CallSETranslator@V__FrameHandler3@@@@YAHPEAUEHExceptionRecord@@PEA_KPEAU_CONTEXT@@PEAU_xDISPATCHER_CONTEXT@@PEBU_s_FuncInfo@@K1H@Z 00000001800649a0 f i libvcruntimed:risctrnsctrl.obj
 0001:00063a30       ??$_CallSETranslator@V__FrameHandler4@@@@YAHPEAUEHExceptionRecord@@PEA_KPEAU_CONTEXT@@PEAU_xDISPATCHER_CONTEXT@@PEAUFuncInfo4@FH4@@K1H@Z 0000000180064a30 f i libvcruntimed:risctrnsctrl.obj
 0001:00063ac0       ??$forward@AEAViterator@TryBlockMap4@FH4@@@std@@YAAEAViterator@TryBlockMap4@FH4@@AEAV123@@Z 0000000180064ac0 f i libvcruntimed:risctrnsctrl.obj
 0001:00063ad0       ??$forward@AEAViterator@TryBlockMap@__FrameHandler3@@@std@@YAAEAViterator@TryBlockMap@__FrameHandler3@@AEAV123@@Z 0000000180064ad0 f i libvcruntimed:risctrnsctrl.obj
 0001:00063ae0       ??0FuncInfo4@FH4@@QEAA@XZ  0000000180064ae0 f i libvcruntimed:risctrnsctrl.obj
 0001:00063b50       ??0FuncInfoHeader@FH4@@QEAA@XZ 0000000180064b50 f i libvcruntimed:risctrnsctrl.obj
 0001:00063b70       ??0iterator@TryBlockMap4@FH4@@QEAA@AEAV12@I@Z 0000000180064b70 f i libvcruntimed:risctrnsctrl.obj
 0001:00063ba0       ??0iterator@TryBlockMap@__FrameHandler3@@QEAA@AEAV12@I@Z 0000000180064ba0 f i libvcruntimed:risctrnsctrl.obj
 0001:00063bd0       ??4iterator@TryBlockMap4@FH4@@QEAAAEAV012@AEBV012@@Z 0000000180064bd0 f i libvcruntimed:risctrnsctrl.obj
 0001:00063bf0       ??9iterator@TryBlockMap4@FH4@@QEBA_NAEBV012@@Z 0000000180064bf0 f i libvcruntimed:risctrnsctrl.obj
 0001:00063c30       ??Diterator@TryBlockMap4@FH4@@QEAA?AUTryBlockMapEntry4@2@XZ 0000000180064c30 f i libvcruntimed:risctrnsctrl.obj
 0001:00063c60       ??Eiterator@TryBlockMap4@FH4@@QEAAAEAV012@XZ 0000000180064c60 f i libvcruntimed:risctrnsctrl.obj
 0001:00063ca0       ?CatchTryBlock@__FrameHandler3@@SAPEBU_s_TryBlockMapEntry@@PEBU_s_FuncInfo@@H@Z 0000000180064ca0 f   libvcruntimed:risctrnsctrl.obj
 0001:00063d30       ?DecompFuncInfo@FH4@@YA_JPEAEAEAUFuncInfo4@1@_KH@Z 0000000180064d30 f i libvcruntimed:risctrnsctrl.obj
 0001:00063d70       ?DecompFuncInfo@FH4@@YA_JPEAEAEAUFuncInfo4@1@_KH_N@Z 0000000180064d70 f i libvcruntimed:risctrnsctrl.obj
 0001:00063f40       ?DecompTryBlock@TryBlockMap4@FH4@@AEAAXXZ 0000000180064f40 f i libvcruntimed:risctrnsctrl.obj
 0001:00063fc0       ?ExecutionInCatch@__FrameHandler3@@SA_NPEAU_xDISPATCHER_CONTEXT@@PEBU_s_FuncInfo@@@Z 0000000180064fc0 f   libvcruntimed:risctrnsctrl.obj
 0001:00064010       ?ExecutionInCatch@__FrameHandler4@@SA_NPEAU_xDISPATCHER_CONTEXT@@PEAUFuncInfo4@FH4@@@Z 0000000180065010 f   libvcruntimed:risctrnsctrl.obj
 0001:00064030       ?FrameUnwindToEmptyState@__FrameHandler3@@SAXPEA_KPEAU_xDISPATCHER_CONTEXT@@PEBU_s_FuncInfo@@@Z 0000000180065030 f   libvcruntimed:risctrnsctrl.obj
 0001:000640d0       ?FrameUnwindToEmptyState@__FrameHandler4@@SAXPEA_KPEAU_xDISPATCHER_CONTEXT@@PEAUFuncInfo4@FH4@@@Z 00000001800650d0 f   libvcruntimed:risctrnsctrl.obj
 0001:00064120       ?GetEstablisherFrame@__FrameHandler3@@SAPEA_KPEA_KPEAU_xDISPATCHER_CONTEXT@@PEBU_s_FuncInfo@@0@Z 0000000180065120 f   libvcruntimed:risctrnsctrl.obj
 0001:00064290       ?GetEstablisherFrame@__FrameHandler4@@SAPEA_KPEA_KPEAU_xDISPATCHER_CONTEXT@@PEAUFuncInfo4@FH4@@0@Z 0000000180065290 f   libvcruntimed:risctrnsctrl.obj
 0001:00064300       ?GetRangeOfTrysToCheck@__FrameHandler3@@SA?AU?$pair@Viterator@TryBlockMap@__FrameHandler3@@V123@@std@@AEAVTryBlockMap@1@HPEAU_xDISPATCHER_CONTEXT@@PEBU_s_FuncInfo@@H@Z 0000000180065300 f   libvcruntimed:risctrnsctrl.obj
 0001:00064540       ?GetRangeOfTrysToCheck@__FrameHandler4@@SA?AU?$pair@Viterator@TryBlockMap4@FH4@@V123@@std@@AEAVTryBlockMap4@FH4@@HPEAU_xDISPATCHER_CONTEXT@@PEAUFuncInfo4@5@H@Z 0000000180065540 f   libvcruntimed:risctrnsctrl.obj
 0001:000646f0       ?ReadInt@FH4@@YAHPEAPEAE@Z 00000001800656f0 f i libvcruntimed:risctrnsctrl.obj
 0001:00064730       ?ReadUnsigned@FH4@@YAIPEAPEAE@Z 0000000180065730 f i libvcruntimed:risctrnsctrl.obj
 0001:000647c0       ?UnwindNestedFrames@__FrameHandler3@@SAXPEA_KPEAUEHExceptionRecord@@PEAU_CONTEXT@@0PEAXPEBU_s_FuncInfo@@HHPEBU_s_HandlerType@@PEAU_xDISPATCHER_CONTEXT@@E@Z 00000001800657c0 f   libvcruntimed:risctrnsctrl.obj
 0001:00064930       ?UnwindNestedFrames@__FrameHandler4@@SAXPEA_KPEAUEHExceptionRecord@@PEAU_CONTEXT@@0PEAXPEAUFuncInfo4@FH4@@HHPEAUHandlerType4@5@PEAU_xDISPATCHER_CONTEXT@@E@Z 0000000180065930 f   libvcruntimed:risctrnsctrl.obj
 0001:00064b00       ?begin@TryBlockMap4@FH4@@QEAA?AViterator@12@XZ 0000000180065b00 f i libvcruntimed:risctrnsctrl.obj
 0001:00064b30       ?end@TryBlockMap4@FH4@@QEAA?AViterator@12@XZ 0000000180065b30 f i libvcruntimed:risctrnsctrl.obj
 0001:00064b60       ?imageRelToByteBuffer@FH4@@YAPEAE_KH@Z 0000000180065b60 f i libvcruntimed:risctrnsctrl.obj
 0001:00064b80       ?incrementToSentinel@iterator@TryBlockMap4@FH4@@QEAAXXZ 0000000180065b80 f i libvcruntimed:risctrnsctrl.obj
 0001:00064ba0       ?setBuffer@TryBlockMap4@FH4@@QEAAXViterator@12@@Z 0000000180065ba0 f i libvcruntimed:risctrnsctrl.obj
 0001:00064c10       _CreateFrameInfo           0000000180065c10 f   libvcruntimed:risctrnsctrl.obj
 0001:00064c80       _FindAndUnlinkFrame        0000000180065c80 f   libvcruntimed:risctrnsctrl.obj
 0001:00064d00       _GetImageBase              0000000180065d00 f   libvcruntimed:risctrnsctrl.obj
 0001:00064d20       _GetThrowImageBase         0000000180065d20 f   libvcruntimed:risctrnsctrl.obj
 0001:00064d40       _SetImageBase              0000000180065d40 f   libvcruntimed:risctrnsctrl.obj
 0001:00064d60       _SetThrowImageBase         0000000180065d60 f   libvcruntimed:risctrnsctrl.obj
 0001:00064d80       __CxxFrameHandler          0000000180065d80 f   libvcruntimed:risctrnsctrl.obj
 0001:00064dc0       __CxxFrameHandler2         0000000180065dc0 f   libvcruntimed:risctrnsctrl.obj
 0001:00064e00       __CxxFrameHandler3         0000000180065e00 f   libvcruntimed:risctrnsctrl.obj
 0001:00064ee0       __CxxFrameHandler4         0000000180065ee0 f   libvcruntimed:risctrnsctrl.obj
 0001:00064ff0       ??$__crt_interlocked_exchange_pointer@UHINSTANCE__@@PEAU1@@@YAPEAUHINSTANCE__@@PEDSEAU0@QEAU0@@Z 0000000180065ff0 f i libvcruntimed:winapi_downlevel.obj
 0001:00065010       ??$__crt_interlocked_exchange_pointer@UHINSTANCE__@@PEAX@@YAPEAUHINSTANCE__@@PEDSEAU0@QEAX@Z 0000000180066010 f i libvcruntimed:winapi_downlevel.obj
 0001:00065030       ??$__crt_interlocked_exchange_pointer@XPEAX@@YAPEAXPEDSEAXQEAX@Z 0000000180066030 f i libvcruntimed:winapi_downlevel.obj
 0001:00065050       ??$__crt_interlocked_read_pointer@UHINSTANCE__@@@@YAPEAUHINSTANCE__@@PEDSEAU0@@Z 0000000180066050 f i libvcruntimed:winapi_downlevel.obj
 0001:00065070       ??$__crt_interlocked_read_pointer@X@@YAPEAXPEDSEAX@Z 0000000180066070 f i libvcruntimed:winapi_downlevel.obj
 0001:00065580       __vcrt_FlsAlloc            0000000180066580 f   libvcruntimed:winapi_downlevel.obj
 0001:000655d0       __vcrt_FlsFree             00000001800665d0 f   libvcruntimed:winapi_downlevel.obj
 0001:00065620       __vcrt_FlsGetValue         0000000180066620 f   libvcruntimed:winapi_downlevel.obj
 0001:00065670       __vcrt_FlsSetValue         0000000180066670 f   libvcruntimed:winapi_downlevel.obj
 0001:000656d0       __vcrt_InitializeCriticalSectionEx 00000001800666d0 f   libvcruntimed:winapi_downlevel.obj
 0001:00065740       ?GetCurrentState@__FrameHandler3@@SAHPEA_KPEAU_xDISPATCHER_CONTEXT@@PEBU_s_FuncInfo@@@Z 0000000180066740 f   libvcruntimed:ehstate.obj
 0001:000657a0       ?GetUnwindTryBlock@__FrameHandler3@@SAHPEA_KPEAU_xDISPATCHER_CONTEXT@@PEBU_s_FuncInfo@@@Z 00000001800667a0 f   libvcruntimed:ehstate.obj
 0001:000657f0       ?SetState@__FrameHandler3@@SAXPEA_KPEBU_s_FuncInfo@@H@Z 00000001800667f0 f   libvcruntimed:ehstate.obj
 0001:00065820       ?SetUnwindTryBlock@__FrameHandler3@@SAXPEA_KPEAU_xDISPATCHER_CONTEXT@@PEBU_s_FuncInfo@@H@Z 0000000180066820 f   libvcruntimed:ehstate.obj
 0001:00065890       ?StateFromControlPc@__FrameHandler3@@SAHPEBU_s_FuncInfo@@PEAU_xDISPATCHER_CONTEXT@@@Z 0000000180066890 f   libvcruntimed:ehstate.obj
 0001:000658d0       ?StateFromControlPc@__FrameHandler4@@SAHPEAUFuncInfo4@FH4@@PEAU_xDISPATCHER_CONTEXT@@@Z 00000001800668d0 f   libvcruntimed:ehstate.obj
 0001:00065910       ?StateFromIp@__FrameHandler3@@SAHPEBU_s_FuncInfo@@PEAU_xDISPATCHER_CONTEXT@@_K@Z 0000000180066910 f   libvcruntimed:ehstate.obj
 0001:00065a00       ?StateFromIp@__FrameHandler4@@SAHPEAUFuncInfo4@FH4@@PEAU_xDISPATCHER_CONTEXT@@_K@Z 0000000180066a00 f   libvcruntimed:ehstate.obj
 0001:00065af0       ?__FuncRelToRealOffset@@YA_KPEAU_xDISPATCHER_CONTEXT@@I@Z 0000000180066af0 f i libvcruntimed:ehstate.obj
 0001:00065b20       ?__RVAtoRealOffset@@YA_KPEAU_xDISPATCHER_CONTEXT@@H@Z 0000000180066b20 f i libvcruntimed:ehstate.obj
 0001:00067d80       ??$TypeMatchHelper@V__FrameHandler3@@@@YAHPEBU_s_HandlerType@@PEBU_s_CatchableType@@PEBU_s_ThrowInfo@@@Z 0000000180068d80 f i libvcruntimed:frame.obj
 0001:00067f80       ??$TypeMatchHelper@V__FrameHandler4@@@@YAHPEAUHandlerType4@FH4@@PEBU_s_CatchableType@@PEBU_s_ThrowInfo@@@Z 0000000180068f80 f i libvcruntimed:frame.obj
 0001:00068190       ??$__InternalCxxFrameHandler@V__FrameHandler3@@@@YA?AW4_EXCEPTION_DISPOSITION@@PEAUEHExceptionRecord@@PEA_KPEAU_CONTEXT@@PEAU_xDISPATCHER_CONTEXT@@PEBU_s_FuncInfo@@H1E@Z 0000000180069190 f i libvcruntimed:frame.obj
 0001:00068600       ??$__InternalCxxFrameHandler@V__FrameHandler4@@@@YA?AW4_EXCEPTION_DISPOSITION@@PEAUEHExceptionRecord@@PEA_KPEAU_CONTEXT@@PEAU_xDISPATCHER_CONTEXT@@PEAUFuncInfo4@FH4@@H1E@Z 0000000180069600 f i libvcruntimed:frame.obj
 0001:00068a90       ??0HandlerMap4@FH4@@QEAA@PEBUTryBlockMapEntry4@1@_KH@Z 0000000180069a90 f i libvcruntimed:frame.obj
 0001:00068b50       ??0HandlerMap@__FrameHandler3@@QEAA@PEBU_s_TryBlockMapEntry@@_KI@Z 0000000180069b50 f i libvcruntimed:frame.obj
 0001:00068ba0       ??0HandlerType4@FH4@@QEAA@XZ 0000000180069ba0 f i libvcruntimed:frame.obj
 0001:00068bc0       ??0TryBlockMap4@FH4@@QEAA@PEBUFuncInfo4@1@_K@Z 0000000180069bc0 f i libvcruntimed:frame.obj
 0001:00068c50       ??0TryBlockMap@__FrameHandler3@@QEAA@PEBU_s_FuncInfo@@_K@Z 0000000180069c50 f i libvcruntimed:frame.obj
 0001:00068c80       ??0UWMap4@FH4@@QEAA@PEBUFuncInfo4@1@_K@Z 0000000180069c80 f i libvcruntimed:frame.obj
 0001:00068cf0       ??0bad_exception@std@@QEAA@AEBV01@@Z 0000000180069cf0 f i libvcruntimed:frame.obj
 0001:00068d30       ??0bad_exception@std@@QEAA@XZ 0000000180069d30 f i libvcruntimed:frame.obj
 0001:00068d70       ??0exception@std@@QEAA@AEBV01@@Z 0000000180069d70 f i libvcruntimed:frame.obj
 0001:00068dd0       ??0exception@std@@QEAA@QEBDH@Z 0000000180069dd0 f i libvcruntimed:frame.obj
 0001:00068e20       ??0iterator@HandlerMap4@FH4@@QEAA@AEAV12@I@Z 0000000180069e20 f i libvcruntimed:frame.obj
 0001:00068e50       ??0iterator@HandlerMap@__FrameHandler3@@QEAA@AEAV12@I@Z 0000000180069e50 f i libvcruntimed:frame.obj
 0001:00068e80       ??0iterator@UWMap4@FH4@@QEAA@AEAV12@PEAE@Z 0000000180069e80 f i libvcruntimed:frame.obj
 0001:00068eb0       ??1bad_exception@std@@UEAA@XZ 0000000180069eb0 f i libvcruntimed:frame.obj
 0001:00068ed0       ??1exception@std@@UEAA@XZ  0000000180069ed0 f i libvcruntimed:frame.obj
 0001:00068f00       ??4iterator@UWMap4@FH4@@QEAAAEAV012@AEBV012@@Z 0000000180069f00 f i libvcruntimed:frame.obj
 0001:00068f50       ??8iterator@HandlerMap4@FH4@@QEBA_NAEBV012@@Z 0000000180069f50 f i libvcruntimed:frame.obj
 0001:00068f90       ??8iterator@HandlerMap@__FrameHandler3@@QEBA_NAEBV012@@Z 0000000180069f90 f i libvcruntimed:frame.obj
 0001:00068fd0       ??8type_info@@QEBA_NAEBV0@@Z 0000000180069fd0 f i libvcruntimed:frame.obj
 0001:00069020       ??9iterator@HandlerMap4@FH4@@QEBA_NAEBV012@@Z 000000018006a020 f i libvcruntimed:frame.obj
 0001:00069060       ??9iterator@HandlerMap@__FrameHandler3@@QEBA_NAEBV012@@Z 000000018006a060 f i libvcruntimed:frame.obj
 0001:000690a0       ??Diterator@HandlerMap4@FH4@@QEAA?AUHandlerType4@2@XZ 000000018006a0a0 f i libvcruntimed:frame.obj
 0001:000690d0       ??Diterator@HandlerMap@__FrameHandler3@@QEAA?BU_s_HandlerType@@XZ 000000018006a0d0 f i libvcruntimed:frame.obj
 0001:00069110       ??Diterator@TryBlockMap@__FrameHandler3@@QEAA?BU_s_TryBlockMapEntry@@XZ 000000018006a110 f i libvcruntimed:frame.obj
 0001:00069160       ??Diterator@UWMap4@FH4@@QEAA?AUUnwindMapEntry4@2@XZ 000000018006a160 f i libvcruntimed:frame.obj
 0001:000691e0       ??Eiterator@HandlerMap4@FH4@@QEAAAEAV012@XZ 000000018006a1e0 f i libvcruntimed:frame.obj
 0001:00069220       ??Eiterator@HandlerMap@__FrameHandler3@@QEAAAEAV012@XZ 000000018006a220 f i libvcruntimed:frame.obj
 0001:00069240       ??Eiterator@TryBlockMap@__FrameHandler3@@QEAAAEAV012@XZ 000000018006a240 f i libvcruntimed:frame.obj
 0001:00069260       ??Eiterator@UWMap4@FH4@@QEAAAEAV012@XZ 000000018006a260 f i libvcruntimed:frame.obj
 0001:000692a0       ??Giterator@UWMap4@FH4@@QEBA_JAEBV012@@Z 000000018006a2a0 f i libvcruntimed:frame.obj
 0001:000692c0       ??Miterator@TryBlockMap4@FH4@@QEBA_NAEBV012@@Z 000000018006a2c0 f i libvcruntimed:frame.obj
 0001:00069300       ??Miterator@TryBlockMap@__FrameHandler3@@QEBA_NAEBV012@@Z 000000018006a300 f i libvcruntimed:frame.obj
 0001:00069340       ??Oiterator@UWMap4@FH4@@QEBA_NAEBV012@@Z 000000018006a340 f i libvcruntimed:frame.obj
 0001:00069380       ??Piterator@UWMap4@FH4@@QEBA_NAEBV012@@Z 000000018006a380 f i libvcruntimed:frame.obj
 0001:000693c0       ??_Ebad_exception@std@@UEAAPEAXI@Z 000000018006a3c0 f i libvcruntimed:frame.obj
 0001:000693c0       ??_Gbad_exception@std@@UEAAPEAXI@Z 000000018006a3c0 f i libvcruntimed:frame.obj
 0001:00069400       ??_Gexception@std@@UEAAPEAXI@Z 000000018006a400 f i libvcruntimed:frame.obj
 0001:00069400       ??_Eexception@std@@UEAAPEAXI@Z 000000018006a400 f i libvcruntimed:frame.obj
 0001:00069440       ?BuildCatchObject@__FrameHandler3@@SAXPEAUEHExceptionRecord@@PEAXPEBU_s_HandlerType@@PEBU_s_CatchableType@@@Z 000000018006a440 f   libvcruntimed:frame.obj
 0001:00069480       ?BuildCatchObject@__FrameHandler4@@SAXPEAUEHExceptionRecord@@PEAXPEAUHandlerType4@FH4@@PEBU_s_CatchableType@@@Z 000000018006a480 f   libvcruntimed:frame.obj
 0001:000694c0       ?BuildCatchObjectHelper@__FrameHandler3@@SAHPEAUEHExceptionRecord@@PEAXPEBU_s_HandlerType@@PEBU_s_CatchableType@@@Z 000000018006a4c0 f   libvcruntimed:frame.obj
 0001:00069500       ?BuildCatchObjectHelper@__FrameHandler4@@SAHPEAUEHExceptionRecord@@PEAXPEAUHandlerType4@FH4@@PEBU_s_CatchableType@@@Z 000000018006a500 f   libvcruntimed:frame.obj
 0001:00069540       ?CxxCallCatchBlock@__FrameHandler3@@SAPEAXPEAU_EXCEPTION_RECORD@@@Z 000000018006a540 f   libvcruntimed:frame.obj
 0001:000697a0       ?CxxCallCatchBlock@__FrameHandler4@@SAPEAXPEAU_EXCEPTION_RECORD@@@Z 000000018006a7a0 f   libvcruntimed:frame.obj
 0001:00069ad0       ?DecompHandler@HandlerMap4@FH4@@AEAAXXZ 000000018006aad0 f i libvcruntimed:frame.obj
 0001:00069ea0       ?FrameUnwindToState@__FrameHandler3@@SAXPEA_KPEAU_xDISPATCHER_CONTEXT@@PEBU_s_FuncInfo@@H@Z 000000018006aea0 f   libvcruntimed:frame.obj
 0001:0006a0f0       ?FrameUnwindToState@__FrameHandler4@@SAXPEA_KPEAU_xDISPATCHER_CONTEXT@@PEAUFuncInfo4@FH4@@H@Z 000000018006b0f0 f   libvcruntimed:frame.obj
 0001:0006a400       ?GetHandlerSearchState@__FrameHandler3@@SAHPEA_KPEAU_xDISPATCHER_CONTEXT@@PEBU_s_FuncInfo@@@Z 000000018006b400 f i libvcruntimed:frame.obj
 0001:0006a4b0       ?GetHandlerSearchState@__FrameHandler4@@SAHPEA_KPEAU_xDISPATCHER_CONTEXT@@PEAUFuncInfo4@FH4@@@Z 000000018006b4b0 f i libvcruntimed:frame.obj
 0001:0006a530       ?GetMaxState@__FrameHandler3@@SAHPEAU_xDISPATCHER_CONTEXT@@PEBU_s_FuncInfo@@@Z 000000018006b530 f i libvcruntimed:frame.obj
 0001:0006a550       ?GetMaxState@__FrameHandler4@@SAHPEAU_xDISPATCHER_CONTEXT@@PEAUFuncInfo4@FH4@@@Z 000000018006b550 f i libvcruntimed:frame.obj
 0001:0006a780       ?ReadEntry@UWMap4@FH4@@AEAAXPEAPEAE@Z 000000018006b780 f i libvcruntimed:frame.obj
 0001:0006a830       ?TypeMatch@__FrameHandler3@@SAHPEBU_s_HandlerType@@PEBU_s_CatchableType@@PEBU_s_ThrowInfo@@@Z 000000018006b830 f   libvcruntimed:frame.obj
 0001:0006a860       ?TypeMatch@__FrameHandler4@@SAHPEAUHandlerType4@FH4@@PEBU_s_CatchableType@@PEBU_s_ThrowInfo@@@Z 000000018006b860 f   libvcruntimed:frame.obj
 0001:0006a890       ?WalkBack@UWMap4@FH4@@AEAAXPEAPEAE@Z 000000018006b890 f i libvcruntimed:frame.obj
 0001:0006a8e0       ?WalkBack@iterator@UWMap4@FH4@@QEAAXXZ 000000018006b8e0 f i libvcruntimed:frame.obj
 0001:0006a920       ?WalkForward@UWMap4@FH4@@AEAAXPEAPEAE@Z 000000018006b920 f i libvcruntimed:frame.obj
 0001:0006a950       ?_CallMemberFunction1@@YAXQEAX00@Z 000000018006b950 f i libvcruntimed:frame.obj
 0001:0006a990       ?_CallMemberFunction2@@YAXQEAX00H@Z 000000018006b990 f i libvcruntimed:frame.obj
 0001:0006aa20       ?begin@HandlerMap4@FH4@@QEAA?AViterator@12@XZ 000000018006ba20 f i libvcruntimed:frame.obj
 0001:0006aa50       ?begin@HandlerMap@__FrameHandler3@@QEAA?AViterator@12@XZ 000000018006ba50 f i libvcruntimed:frame.obj
 0001:0006aa80       ?begin@UWMap4@FH4@@QEAA?AViterator@12@XZ 000000018006ba80 f i libvcruntimed:frame.obj
 0001:0006aab0       ?end@HandlerMap4@FH4@@QEAA?AViterator@12@XZ 000000018006bab0 f i libvcruntimed:frame.obj
 0001:0006aae0       ?end@HandlerMap@__FrameHandler3@@QEAA?AViterator@12@XZ 000000018006bae0 f i libvcruntimed:frame.obj
 0001:0006ab10       ?getESTypes@__FrameHandler3@@SAPEBU_s_ESTypeList@@PEBU_s_FuncInfo@@@Z 000000018006bb10 f i libvcruntimed:frame.obj
 0001:0006ab50       ?getESTypes@__FrameHandler4@@SAPEBU_s_ESTypeList@@PEAUFuncInfo4@FH4@@@Z 000000018006bb50 f i libvcruntimed:frame.obj
 0001:0006ab60       ?getLastEntry@HandlerMap4@FH4@@QEAAPEAUHandlerType4@2@XZ 000000018006bb60 f i libvcruntimed:frame.obj
 0001:0006aba0       ?getLastEntry@HandlerMap@__FrameHandler3@@QEAAPEBU_s_HandlerType@@XZ 000000018006bba0 f i libvcruntimed:frame.obj
 0001:0006abc0       ?getMagicNum@__FrameHandler3@@SAIPEBU_s_FuncInfo@@@Z 000000018006bbc0 f i libvcruntimed:frame.obj
 0001:0006abe0       ?getMagicNum@__FrameHandler4@@SAIPEAUFuncInfo4@FH4@@@Z 000000018006bbe0 f i libvcruntimed:frame.obj
 0001:0006abf0       ?getNumTryBlocks@TryBlockMap4@FH4@@QEAAIXZ 000000018006bbf0 f i libvcruntimed:frame.obj
 0001:0006ac00       ?getNumTryBlocks@TryBlockMap@__FrameHandler3@@QEAAIXZ 000000018006bc00 f i libvcruntimed:frame.obj
 0001:0006ac20       ?getStartStop@UWMap4@FH4@@QEAAXHHAEAViterator@12@0@Z 000000018006bc20 f i libvcruntimed:frame.obj
 0001:0006ad40       ?getStateFromIterators@UWMap4@FH4@@SAHAEBViterator@12@H0H0@Z 000000018006bd40 f i libvcruntimed:frame.obj
 0001:0006ae80       ?isEHs@__FrameHandler3@@SA_NPEBU_s_FuncInfo@@@Z 000000018006be80 f i libvcruntimed:frame.obj
 0001:0006aec0       ?isEHs@__FrameHandler4@@SA_NPEAUFuncInfo4@FH4@@@Z 000000018006bec0 f i libvcruntimed:frame.obj
 0001:0006aee0       ?isNoExcept@__FrameHandler3@@SA_NPEBU_s_FuncInfo@@@Z 000000018006bee0 f i libvcruntimed:frame.obj
 0001:0006af20       ?isNoExcept@__FrameHandler4@@SA_NPEAUFuncInfo4@FH4@@@Z 000000018006bf20 f i libvcruntimed:frame.obj
 0001:0006af40       ?reset@HandlerType4@FH4@@QEAAXXZ 000000018006bf40 f i libvcruntimed:frame.obj
 0001:0006afa0       ?resetBuffer@HandlerMap4@FH4@@QEAAXXZ 000000018006bfa0 f i libvcruntimed:frame.obj
 0001:0006afc0       ?setBuffer@HandlerMap4@FH4@@QEAAXI@Z 000000018006bfc0 f i libvcruntimed:frame.obj
 0001:0006b020       ?what@exception@std@@UEBAPEBDXZ 000000018006c020 f i libvcruntimed:frame.obj
 0001:0006b060       __BuildCatchObject         000000018006c060 f   libvcruntimed:frame.obj
 0001:0006b0a0       __BuildCatchObjectHelper   000000018006c0a0 f   libvcruntimed:frame.obj
 0001:0006b0e0       __TypeMatch                000000018006c0e0 f   libvcruntimed:frame.obj
 0001:0006b110       __vcrt_EncodePointer       000000018006c110 f i libvcruntimed:frame.obj
 0001:0006b140       _CallSettingFrame          000000018006c140 f   libvcruntimed:handlers.obj
 0001:0006b190       _CallSettingFrame_LookupContinuationIndex 000000018006c190 f   libvcruntimed:handlers.obj
 0001:0006b1c0       _CallSettingFrame_NotifyContinuationAddr 000000018006c1c0 f   libvcruntimed:handlers.obj
 0001:0006b1f0       _CallSettingFrameEncoded   000000018006c1f0 f   libvcruntimed:handlers.obj
 0001:0006b240       ??$?RD@__crt_public_free_policy@@QEBAXQEBD@Z 000000018006c240 f i libvcruntimed:std_exception.obj
 0001:0006b260       ??0?$__crt_unique_heap_ptr@DU__crt_public_free_policy@@@@QEAA@QEAD@Z 000000018006c260 f i libvcruntimed:std_exception.obj
 0001:0006b280       ??1?$__crt_unique_heap_ptr@DU__crt_public_free_policy@@@@QEAA@XZ 000000018006c280 f i libvcruntimed:std_exception.obj
 0001:0006b2a0       ??B?$__crt_unique_heap_ptr@DU__crt_public_free_policy@@@@QEBA_NXZ 000000018006c2a0 f i libvcruntimed:std_exception.obj
 0001:0006b2c0       ?detach@?$__crt_unique_heap_ptr@DU__crt_public_free_policy@@@@QEAAPEADXZ 000000018006c2c0 f i libvcruntimed:std_exception.obj
 0001:0006b2f0       ?get@?$__crt_unique_heap_ptr@DU__crt_public_free_policy@@@@QEBAPEADXZ 000000018006c2f0 f i libvcruntimed:std_exception.obj
 0001:0006b300       ?is_valid@?$__crt_unique_heap_ptr@DU__crt_public_free_policy@@@@QEBA_NXZ 000000018006c300 f i libvcruntimed:std_exception.obj
 0001:0006b330       ?release@?$__crt_unique_heap_ptr@DU__crt_public_free_policy@@@@QEAAXXZ 000000018006c330 f i libvcruntimed:std_exception.obj
 0001:0006b360       __std_exception_copy       000000018006c360 f   libvcruntimed:std_exception.obj
 0001:0006b4a0       __std_exception_destroy    000000018006c4a0 f   libvcruntimed:std_exception.obj
 0001:0006b4e0       _CxxThrowException         000000018006c4e0 f   libvcruntimed:throw.obj
 0001:0006b620       strcmp                     000000018006c620 f   libucrtd:strcmp.obj
 0001:0006b6b0       fabs                       000000018006c6b0 f   libucrtd:fabs.obj
 0001:0006b6d0       atan2f                     000000018006c6d0 f   libucrtd:atan2f.obj
 0001:0006c1d0       sqrtf                      000000018006d1d0 f   libucrtd:sqrtf.obj
 0001:0006c310       floorf                     000000018006d310 f   libucrtd:floorf.obj
 0001:0006c460       _fpclass                   000000018006d460 f   libucrtd:ieeemisc.obj
 0001:0006c620       _fpclassf                  000000018006d620 f   libucrtd:ieeemisc.obj
 0001:0006c750       _isnan                     000000018006d750 f   libucrtd:ieeemisc.obj
 0001:0006c7b0       _isnanf                    000000018006d7b0 f   libucrtd:ieeemisc.obj
 0001:0006c800       _nextafter                 000000018006d800 f   libucrtd:ieeemisc.obj
 0001:0006c830       _nextafterf                000000018006d830 f   libucrtd:ieeemisc.obj
 0001:0006c860       _scalb                     000000018006d860 f   libucrtd:ieeemisc.obj
 0001:0006cc70       _scalbf                    000000018006dc70 f   libucrtd:ieeemisc.obj
 0001:0006cfe0       ??$__crt_interlocked_read@J@@YAJPEDJ@Z 000000018006dfe0 f i libucrtd:assert.obj
 0001:0006f170       ??$ftprintf@PEAU_iobuf@@PEBDAEBQEBDAEBQEBDAEBI@?$__crt_char_traits@D@@SAH$$QEAPEAU_iobuf@@$$QEAPEBDAEBQEBD2AEBI@Z 0000000180070170 f i libucrtd:assert.obj
 0001:0006f1c0       ??$ftprintf@PEAU_iobuf@@PEB_WAEBQEB_WAEBQEB_WAEBI@?$__crt_char_traits@_W@@SAH$$QEAPEAU_iobuf@@$$QEAPEB_WAEBQEB_W2AEBI@Z 00000001800701c0 f i libucrtd:assert.obj
 0001:0006f210       ??$get_module_file_name@AEAPEAUHINSTANCE__@@AEAY0BAF@DK@?$__crt_char_traits@D@@SAKAEAPEAUHINSTANCE__@@AEAY0BAF@D$$QEAK@Z 0000000180070210 f i libucrtd:assert.obj
 0001:0006f250       ??$get_module_file_name@AEAPEAUHINSTANCE__@@AEAY0BAF@_WK@?$__crt_char_traits@_W@@SAKAEAPEAUHINSTANCE__@@AEAY0BAF@_W$$QEAK@Z 0000000180070250 f i libucrtd:assert.obj
 0001:0006f290       ??$itot_s@AEBIPEAD_KH@?$__crt_char_traits@D@@SAHAEBI$$QEAPEAD$$QEA_K$$QEAH@Z 0000000180070290 f i libucrtd:assert.obj
 0001:0006f2e0       ??$itot_s@AEBIPEA_W_KH@?$__crt_char_traits@_W@@SAHAEBI$$QEAPEA_W$$QEA_K$$QEAH@Z 00000001800702e0 f i libucrtd:assert.obj
 0001:0006f330       ??$show_message_box@AEAY0CEA@DPEBDJ@?$__crt_char_traits@D@@SAHAEAY0CEA@D$$QEAPEBD$$QEAJ@Z 0000000180070330 f i libucrtd:assert.obj
 0001:0006f370       ??$show_message_box@AEAY0CEA@_WPEB_WJ@?$__crt_char_traits@_W@@SAHAEAY0CEA@_W$$QEAPEB_W$$QEAJ@Z 0000000180070370 f i libucrtd:assert.obj
 0001:0006f3b0       ??$tcscat_s@AEBQEADAEB_KAEAPEAD@?$__crt_char_traits@D@@SAHAEBQEADAEB_KAEAPEAD@Z 00000001800703b0 f i libucrtd:assert.obj
 0001:0006f3f0       ??$tcscat_s@AEBQEADAEB_KAEBQEBD@?$__crt_char_traits@D@@SAHAEBQEADAEB_KAEBQEBD@Z 00000001800703f0 f i libucrtd:assert.obj
 0001:0006f430       ??$tcscat_s@AEBQEADAEB_KPEBD@?$__crt_char_traits@D@@SAHAEBQEADAEB_K$$QEAPEBD@Z 0000000180070430 f i libucrtd:assert.obj
 0001:0006f470       ??$tcscat_s@AEBQEA_WAEB_KAEAPEA_W@?$__crt_char_traits@_W@@SAHAEBQEA_WAEB_KAEAPEA_W@Z 0000000180070470 f i libucrtd:assert.obj
 0001:0006f4b0       ??$tcscat_s@AEBQEA_WAEB_KAEBQEB_W@?$__crt_char_traits@_W@@SAHAEBQEA_WAEB_KAEBQEB_W@Z 00000001800704b0 f i libucrtd:assert.obj
 0001:0006f4f0       ??$tcscat_s@AEBQEA_WAEB_KPEB_W@?$__crt_char_traits@_W@@SAHAEBQEA_WAEB_K$$QEAPEB_W@Z 00000001800704f0 f i libucrtd:assert.obj
 0001:0006f530       ??$tcscpy_s@AEAY0BAF@D_KPEBD@?$__crt_char_traits@D@@SAHAEAY0BAF@D$$QEA_K$$QEAPEBD@Z 0000000180070530 f i libucrtd:assert.obj
 0001:0006f570       ??$tcscpy_s@AEAY0BAF@_W_KPEB_W@?$__crt_char_traits@_W@@SAHAEAY0BAF@_W$$QEA_K$$QEAPEB_W@Z 0000000180070570 f i libucrtd:assert.obj
 0001:0006f5b0       ??$tcscpy_s@AEBQEADAEB_KPEBD@?$__crt_char_traits@D@@SAHAEBQEADAEB_K$$QEAPEBD@Z 00000001800705b0 f i libucrtd:assert.obj
 0001:0006f5f0       ??$tcscpy_s@AEBQEA_WAEB_KPEB_W@?$__crt_char_traits@_W@@SAHAEBQEA_WAEB_K$$QEAPEB_W@Z 00000001800705f0 f i libucrtd:assert.obj
 0001:0006f630       ??$tcslen@AEAY0BAF@D@?$__crt_char_traits@D@@SA_KAEAY0BAF@D@Z 0000000180070630 f i libucrtd:assert.obj
 0001:0006f650       ??$tcslen@AEAY0BAF@_W@?$__crt_char_traits@_W@@SA_KAEAY0BAF@_W@Z 0000000180070650 f i libucrtd:assert.obj
 0001:0006f670       ??$tcslen@AEBQEAD@?$__crt_char_traits@D@@SA_KAEBQEAD@Z 0000000180070670 f i libucrtd:assert.obj
 0001:0006f690       ??$tcslen@AEBQEA_W@?$__crt_char_traits@_W@@SA_KAEBQEA_W@Z 0000000180070690 f i libucrtd:assert.obj
 0001:0006f6b0       ??$tcslen@AEBQEBD@?$__crt_char_traits@D@@SA_KAEBQEBD@Z 00000001800706b0 f i libucrtd:assert.obj
 0001:0006f6d0       ??$tcslen@AEBQEB_W@?$__crt_char_traits@_W@@SA_KAEBQEB_W@Z 00000001800706d0 f i libucrtd:assert.obj
 0001:0006f6f0       ??$tcsncat_s@AEBQEADAEB_KAEAPEBD_K@?$__crt_char_traits@D@@SAHAEBQEADAEB_KAEAPEBD$$QEA_K@Z 00000001800706f0 f i libucrtd:assert.obj
 0001:0006f740       ??$tcsncat_s@AEBQEADAEB_KAEBQEBDAEB_K@?$__crt_char_traits@D@@SAHAEBQEADAEB_KAEBQEBD1@Z 0000000180070740 f i libucrtd:assert.obj
 0001:0006f790       ??$tcsncat_s@AEBQEADAEB_KPEBD_K@?$__crt_char_traits@D@@SAHAEBQEADAEB_K$$QEAPEBD$$QEA_K@Z 0000000180070790 f i libucrtd:assert.obj
 0001:0006f7e0       ??$tcsncat_s@AEBQEA_WAEB_KAEAPEB_W_K@?$__crt_char_traits@_W@@SAHAEBQEA_WAEB_KAEAPEB_W$$QEA_K@Z 00000001800707e0 f i libucrtd:assert.obj
 0001:0006f830       ??$tcsncat_s@AEBQEA_WAEB_KAEBQEB_WAEB_K@?$__crt_char_traits@_W@@SAHAEBQEA_WAEB_KAEBQEB_W1@Z 0000000180070830 f i libucrtd:assert.obj
 0001:0006f880       ??$tcsncat_s@AEBQEA_WAEB_KPEB_W_K@?$__crt_char_traits@_W@@SAHAEBQEA_WAEB_K$$QEAPEB_W$$QEA_K@Z 0000000180070880 f i libucrtd:assert.obj
 0001:0006f8d0       ??0__crt_stdio_stream@@QEAA@QEAU_iobuf@@@Z 00000001800708d0 f i libucrtd:assert.obj
 0001:0006f8f0       ?__crt_interlocked_read_32@@YAHPEDH@Z 00000001800708f0 f i libucrtd:assert.obj
 0001:0006fb00       ?get_flags@__crt_stdio_stream@@QEBAJXZ 0000000180070b00 f i libucrtd:assert.obj
 0001:0006fbf0       ?has_any_buffer@__crt_stdio_stream@@QEBA_NXZ 0000000180070bf0 f i libucrtd:assert.obj
 0001:0006fc10       ?has_any_of@__crt_stdio_stream@@QEBA_NJ@Z 0000000180070c10 f i libucrtd:assert.obj
 0001:0006fc50       _assert                    0000000180070c50 f   libucrtd:assert.obj
 0001:0006fc90       _invoke_watson_if_error    0000000180070c90 f i libucrtd:assert.obj
 0001:0006fce0       _vfprintf_l                0000000180070ce0 f i libucrtd:assert.obj
 0001:0006fd30       _vfwprintf_l               0000000180070d30 f i libucrtd:assert.obj
 0001:0006fd80       _vswprintf_c_l             0000000180070d80 f i libucrtd:assert.obj
 0001:0006fdf0       _wassert                   0000000180070df0 f   libucrtd:assert.obj
 0001:0006fe30       fprintf                    0000000180070e30 f i libucrtd:assert.obj
 0001:0006fe80       fwprintf                   0000000180070e80 f i libucrtd:assert.obj
 0001:00070010       swprintf                   0000000180071010 f i libucrtd:assert.obj
 0001:00070070       _abs64                     0000000180071070 f   libucrtd:abs.obj
 0001:000700b0       abs                        00000001800710b0 f   libucrtd:abs.obj
 0001:000700e0       powf                       00000001800710e0 f   libucrtd:powf.obj
 0001:00070fb0       cosf                       0000000180071fb0 f   libucrtd:cosf.obj
 0001:000714b0       sinf                       00000001800724b0 f   libucrtd:sinf.obj
 0001:00071bb0       ??$?RU?$__crt_report_hook_node@D@@@__crt_internal_free_policy@@QEBAXQEBU?$__crt_report_hook_node@D@@@Z 0000000180072bb0 f i libucrtd:dbgrpt.obj
 0001:00071be0       ??$?RU?$__crt_report_hook_node@_W@@@__crt_internal_free_policy@@QEBAXQEBU?$__crt_report_hook_node@_W@@@Z 0000000180072be0 f i libucrtd:dbgrpt.obj
 0001:00072f20       ??0?$__crt_unique_heap_ptr@U?$__crt_report_hook_node@D@@U__crt_internal_free_policy@@@@QEAA@QEAU?$__crt_report_hook_node@D@@@Z 0000000180073f20 f i libucrtd:dbgrpt.obj
 0001:00072f40       ??0?$__crt_unique_heap_ptr@U?$__crt_report_hook_node@_W@@U__crt_internal_free_policy@@@@QEAA@QEAU?$__crt_report_hook_node@_W@@@Z 0000000180073f40 f i libucrtd:dbgrpt.obj
 0001:00072f60       ??1?$__crt_unique_heap_ptr@U?$__crt_report_hook_node@D@@U__crt_internal_free_policy@@@@QEAA@XZ 0000000180073f60 f i libucrtd:dbgrpt.obj
 0001:00072f80       ??1?$__crt_unique_heap_ptr@U?$__crt_report_hook_node@_W@@U__crt_internal_free_policy@@@@QEAA@XZ 0000000180073f80 f i libucrtd:dbgrpt.obj
 0001:00072fa0       ??B?$__crt_unique_heap_ptr@U?$__crt_report_hook_node@D@@U__crt_internal_free_policy@@@@QEBA_NXZ 0000000180073fa0 f i libucrtd:dbgrpt.obj
 0001:00072fc0       ??B?$__crt_unique_heap_ptr@U?$__crt_report_hook_node@_W@@U__crt_internal_free_policy@@@@QEBA_NXZ 0000000180073fc0 f i libucrtd:dbgrpt.obj
 0001:000736e0       ?detach@?$__crt_unique_heap_ptr@U?$__crt_report_hook_node@D@@U__crt_internal_free_policy@@@@QEAAPEAU?$__crt_report_hook_node@D@@XZ 00000001800746e0 f i libucrtd:dbgrpt.obj
 0001:00073710       ?detach@?$__crt_unique_heap_ptr@U?$__crt_report_hook_node@_W@@U__crt_internal_free_policy@@@@QEAAPEAU?$__crt_report_hook_node@_W@@XZ 0000000180074710 f i libucrtd:dbgrpt.obj
 0001:00073740       ?get@?$__crt_unique_heap_ptr@U?$__crt_report_hook_node@D@@U__crt_internal_free_policy@@@@QEBAPEAU?$__crt_report_hook_node@D@@XZ 0000000180074740 f i libucrtd:dbgrpt.obj
 0001:00073750       ?get@?$__crt_unique_heap_ptr@U?$__crt_report_hook_node@_W@@U__crt_internal_free_policy@@@@QEBAPEAU?$__crt_report_hook_node@_W@@XZ 0000000180074750 f i libucrtd:dbgrpt.obj
 0001:000737c0       ?is_valid@?$__crt_unique_heap_ptr@U?$__crt_report_hook_node@D@@U__crt_internal_free_policy@@@@QEBA_NXZ 00000001800747c0 f i libucrtd:dbgrpt.obj
 0001:000737f0       ?is_valid@?$__crt_unique_heap_ptr@U?$__crt_report_hook_node@_W@@U__crt_internal_free_policy@@@@QEBA_NXZ 00000001800747f0 f i libucrtd:dbgrpt.obj
 0001:00073820       ?release@?$__crt_unique_heap_ptr@U?$__crt_report_hook_node@D@@U__crt_internal_free_policy@@@@QEAAXXZ 0000000180074820 f i libucrtd:dbgrpt.obj
 0001:00073850       ?release@?$__crt_unique_heap_ptr@U?$__crt_report_hook_node@_W@@U__crt_internal_free_policy@@@@QEAAXXZ 0000000180074850 f i libucrtd:dbgrpt.obj
 0001:00073880       _CrtDbgReport              0000000180074880 f   libucrtd:dbgrpt.obj
 0001:00073900       _CrtDbgReportW             0000000180074900 f   libucrtd:dbgrpt.obj
 0001:00073980       _CrtSetReportHook2         0000000180074980 f   libucrtd:dbgrpt.obj
 0001:000739a0       _CrtSetReportHookW2        00000001800749a0 f   libucrtd:dbgrpt.obj
 0001:000739c0       __acrt_MessageWindowA      00000001800749c0 f   libucrtd:dbgrpt.obj
 0001:00073a10       __acrt_MessageWindowW      0000000180074a10 f   libucrtd:dbgrpt.obj
 0001:00073a60       _invoke_watson_if_oneof    0000000180074a60 f i libucrtd:dbgrpt.obj
 0001:00073ac0       _snwprintf_s               0000000180074ac0 f i libucrtd:dbgrpt.obj
 0001:00073b30       _vsnwprintf_s_l            0000000180074b30 f i libucrtd:dbgrpt.obj
 0001:00073bb0       ??0_LocaleUpdate@@QEAA@QEAU__crt_locale_pointers@@@Z 0000000180074bb0 f i libucrtd:debug_heap.obj
 0001:00073cd0       ??1_LocaleUpdate@@QEAA@XZ  0000000180074cd0 f i libucrtd:debug_heap.obj
 0001:00073d00       ?GetLocaleT@_LocaleUpdate@@QEAAPEAU__crt_locale_pointers@@XZ 0000000180074d00 f i libucrtd:debug_heap.obj
 0001:000760b0       _CrtCheckMemory            00000001800770b0 f   libucrtd:debug_heap.obj
 0001:00076240       _CrtDoForAllClientObjects  0000000180077240 f   libucrtd:debug_heap.obj
 0001:00076390       _CrtDumpMemoryLeaks        0000000180077390 f   libucrtd:debug_heap.obj
 0001:00076450       _CrtGetAllocHook           0000000180077450 f   libucrtd:debug_heap.obj
 0001:00076460       _CrtGetDumpClient          0000000180077460 f   libucrtd:debug_heap.obj
 0001:00076470       _CrtIsMemoryBlock          0000000180077470 f   libucrtd:debug_heap.obj
 0001:000765b0       _CrtIsValidHeapPointer     00000001800775b0 f   libucrtd:debug_heap.obj
 0001:00076600       _CrtIsValidPointer         0000000180077600 f   libucrtd:debug_heap.obj
 0001:00076640       _CrtMemCheckpoint          0000000180077640 f   libucrtd:debug_heap.obj
 0001:000768c0       _CrtMemDifference          00000001800778c0 f   libucrtd:debug_heap.obj
 0001:00076c20       _CrtMemDumpAllObjectsSince 0000000180077c20 f   libucrtd:debug_heap.obj
 0001:00076c80       _CrtMemDumpStatistics      0000000180077c80 f   libucrtd:debug_heap.obj
 0001:00076e20       _CrtReportBlockType        0000000180077e20 f   libucrtd:debug_heap.obj
 0001:00076e50       _CrtSetAllocHook           0000000180077e50 f   libucrtd:debug_heap.obj
 0001:00076e80       _CrtSetBreakAlloc          0000000180077e80 f   libucrtd:debug_heap.obj
 0001:00076eb0       _CrtSetDbgBlockType        0000000180077eb0 f   libucrtd:debug_heap.obj
 0001:00076f50       _CrtSetDbgFlag             0000000180077f50 f   libucrtd:debug_heap.obj
 0001:000770b0       _CrtSetDumpClient          00000001800780b0 f   libucrtd:debug_heap.obj
 0001:000770e0       __acrt_disable_global_locale_sync 00000001800780e0 f i libucrtd:debug_heap.obj
 0001:00077110       __acrt_enable_global_locale_sync 0000000180078110 f i libucrtd:debug_heap.obj
 0001:00077140       __acrt_get_locale_data_prefix 0000000180078140 f i libucrtd:debug_heap.obj
 0001:00077160       __acrt_locale_changed      0000000180078160 f i libucrtd:debug_heap.obj
 0001:00077190       __p__crtBreakAlloc         0000000180078190 f   libucrtd:debug_heap.obj
 0001:000771a0       __p__crtDbgFlag            00000001800781a0 f   libucrtd:debug_heap.obj
 0001:000771b0       _aligned_free_dbg          00000001800781b0 f   libucrtd:debug_heap.obj
 0001:000772a0       _aligned_malloc_dbg        00000001800782a0 f   libucrtd:debug_heap.obj
 0001:000772e0       _aligned_msize_dbg         00000001800782e0 f   libucrtd:debug_heap.obj
 0001:000774b0       _aligned_offset_malloc_dbg 00000001800784b0 f   libucrtd:debug_heap.obj
 0001:000777a0       _aligned_offset_realloc_dbg 00000001800787a0 f   libucrtd:debug_heap.obj
 0001:00077c50       _aligned_offset_recalloc_dbg 0000000180078c50 f   libucrtd:debug_heap.obj
 0001:00077d70       _aligned_realloc_dbg       0000000180078d70 f   libucrtd:debug_heap.obj
 0001:00077dc0       _aligned_recalloc_dbg      0000000180078dc0 f   libucrtd:debug_heap.obj
 0001:00077e20       _calloc_dbg                0000000180078e20 f   libucrtd:debug_heap.obj
 0001:00077ec0       _chvalidchk_l              0000000180078ec0 f i libucrtd:debug_heap.obj
 0001:00077ef0       _expand_dbg                0000000180078ef0 f   libucrtd:debug_heap.obj
 0001:00078020       _free_dbg                  0000000180079020 f   libucrtd:debug_heap.obj
 0001:00078090       _ischartype_l              0000000180079090 f i libucrtd:debug_heap.obj
 0001:00078120       _malloc_dbg                0000000180079120 f   libucrtd:debug_heap.obj
 0001:00078160       _msize_dbg                 0000000180079160 f   libucrtd:debug_heap.obj
 0001:00078300       _realloc_dbg               0000000180079300 f   libucrtd:debug_heap.obj
 0001:00078370       _recalloc_dbg              0000000180079370 f   libucrtd:debug_heap.obj
 0001:00078470       _initterm                  0000000180079470 f   libucrtd:initterm.obj
 0001:000784e0       _initterm_e                00000001800794e0 f   libucrtd:initterm.obj
 0001:000785d0       _seh_filter_dll            00000001800795d0 f   libucrtd:exception_filter.obj
 0001:00078600       _seh_filter_exe            0000000180079600 f   libucrtd:exception_filter.obj
 0001:000788d0       ??$?B$$A6AXPEAXK0@Z@__crt_fast_encoded_nullptr_t@@QEBAP6AXPEAXK0@ZXZ 00000001800798d0 f i libucrtd:exit.obj
 0001:00078990       ??$__crt_fast_decode_pointer@P6AXPEAXK0@Z@@YAP6AXPEAXK0@ZQ6AX0K0@Z@Z 0000000180079990 f i libucrtd:exit.obj
 0001:000789d0       ??$__crt_fast_encode_pointer@P6AXPEAXK0@Z@@YAP6AXPEAXK0@ZQ6AX0K0@Z@Z 00000001800799d0 f i libucrtd:exit.obj
 0001:00078a10       ??$__crt_get_proc_address@P6AXI@Z@@YAP6AXI@ZQEAUHINSTANCE__@@QEBD@Z 0000000180079a10 f i libucrtd:exit.obj
 0001:00078ad0       ??0?$__crt_unique_handle_t@U__crt_hmodule_traits@@@@QEAA@QEAUHINSTANCE__@@@Z 0000000180079ad0 f i libucrtd:exit.obj
 0001:00078af0       ??1?$__crt_unique_handle_t@U__crt_hmodule_traits@@@@QEAA@XZ 0000000180079af0 f i libucrtd:exit.obj
 0001:00078c70       ?__acrt_select_exit_lock@@YA?AW4__acrt_lock_id@@XZ 0000000180079c70 f i libucrtd:exit.obj
 0001:00078c80       ?__crt_fast_encode_pointer@@YA?AU__crt_fast_encoded_nullptr_t@@$$T@Z 0000000180079c80 f i libucrtd:exit.obj
 0001:00078ca0       ?__crt_rotate_pointer_value@@YA_K_KH@Z 0000000180079ca0 f i libucrtd:exit.obj
 0001:00078ce0       ?close@?$__crt_unique_handle_t@U__crt_hmodule_traits@@@@QEAAXXZ 0000000180079ce0 f i libucrtd:exit.obj
 0001:00078d20       ?close@__crt_hmodule_traits@@SA_NPEAUHINSTANCE__@@@Z 0000000180079d20 f i libucrtd:exit.obj
 0001:00078e40       ?get@?$__crt_unique_handle_t@U__crt_hmodule_traits@@@@QEBAPEAUHINSTANCE__@@XZ 0000000180079e40 f i libucrtd:exit.obj
 0001:00078e50       ?get_address_of@?$__crt_unique_handle_t@U__crt_hmodule_traits@@@@QEAAPEAPEAUHINSTANCE__@@XZ 0000000180079e50 f i libucrtd:exit.obj
 0001:00078e60       ?get_invalid_value@__crt_hmodule_traits@@SAPEAUHINSTANCE__@@XZ 0000000180079e60 f i libucrtd:exit.obj
 0001:00079040       _Exit                      000000018007a040 f   libucrtd:exit.obj
 0001:00079060       __acrt_initialize_thread_local_exit_callback 000000018007a060 f   libucrtd:exit.obj
 0001:00079080       _c_exit                    000000018007a080 f   libucrtd:exit.obj
 0001:000790a0       _cexit                     000000018007a0a0 f   libucrtd:exit.obj
 0001:000790c0       _exit                      000000018007a0c0 f   libucrtd:exit.obj
 0001:000790e0       _is_c_termination_complete 000000018007a0e0 f   libucrtd:exit.obj
 0001:00079100       _register_thread_local_exe_atexit_callback 000000018007a100 f   libucrtd:exit.obj
 0001:00079150       exit                       000000018007a150 f   libucrtd:exit.obj
 0001:00079170       quick_exit                 000000018007a170 f   libucrtd:exit.obj
 0001:00079190       ??$?RE@__crt_internal_free_policy@@QEBAXQEBE@Z 000000018007a190 f i libucrtd:argv_parsing.obj
 0001:000791c0       ??$?RPEAD@__crt_internal_free_policy@@QEBAXQEBQEAD@Z 000000018007a1c0 f i libucrtd:argv_parsing.obj
 0001:000791f0       ??$?RPEA_W@__crt_internal_free_policy@@QEBAXQEBQEA_W@Z 000000018007a1f0 f i libucrtd:argv_parsing.obj
 0001:00079940       ??$get_module_file_name@$$TAEAY0BAF@DH@?$__crt_char_traits@D@@SAK$$QEA$$TAEAY0BAF@D$$QEAH@Z 000000018007a940 f i libucrtd:argv_parsing.obj
 0001:00079980       ??$get_module_file_name@$$TAEAY0BAF@_WH@?$__crt_char_traits@_W@@SAK$$QEA$$TAEAY0BAF@_W$$QEAH@Z 000000018007a980 f i libucrtd:argv_parsing.obj
 0001:0007a380       ??$set_program_name@PEAD@?$__crt_char_traits@D@@SAX$$QEAPEAD@Z 000000018007b380 f i libucrtd:argv_parsing.obj
 0001:0007a3a0       ??$set_program_name@PEA_W@?$__crt_char_traits@_W@@SAX$$QEAPEA_W@Z 000000018007b3a0 f i libucrtd:argv_parsing.obj
 0001:0007a400       ??0?$__crt_unique_heap_ptr@EU__crt_internal_free_policy@@@@QEAA@QEAE@Z 000000018007b400 f i libucrtd:argv_parsing.obj
 0001:0007a420       ??0?$__crt_unique_heap_ptr@PEADU__crt_internal_free_policy@@@@QEAA@QEAPEAD@Z 000000018007b420 f i libucrtd:argv_parsing.obj
 0001:0007a440       ??0?$__crt_unique_heap_ptr@PEA_WU__crt_internal_free_policy@@@@QEAA@QEAPEA_W@Z 000000018007b440 f i libucrtd:argv_parsing.obj
 0001:0007a460       ??1?$__crt_unique_heap_ptr@EU__crt_internal_free_policy@@@@QEAA@XZ 000000018007b460 f i libucrtd:argv_parsing.obj
 0001:0007a480       ??1?$__crt_unique_heap_ptr@PEADU__crt_internal_free_policy@@@@QEAA@XZ 000000018007b480 f i libucrtd:argv_parsing.obj
 0001:0007a4a0       ??1?$__crt_unique_heap_ptr@PEA_WU__crt_internal_free_policy@@@@QEAA@XZ 000000018007b4a0 f i libucrtd:argv_parsing.obj
 0001:0007a4c0       ??B?$__crt_unique_heap_ptr@EU__crt_internal_free_policy@@@@QEBA_NXZ 000000018007b4c0 f i libucrtd:argv_parsing.obj
 0001:0007a5a0       ?detach@?$__crt_unique_heap_ptr@EU__crt_internal_free_policy@@@@QEAAPEAEXZ 000000018007b5a0 f i libucrtd:argv_parsing.obj
 0001:0007a5d0       ?detach@?$__crt_unique_heap_ptr@PEADU__crt_internal_free_policy@@@@QEAAPEAPEADXZ 000000018007b5d0 f i libucrtd:argv_parsing.obj
 0001:0007a600       ?detach@?$__crt_unique_heap_ptr@PEA_WU__crt_internal_free_policy@@@@QEAAPEAPEA_WXZ 000000018007b600 f i libucrtd:argv_parsing.obj
 0001:0007a6c0       ?get@?$__crt_unique_heap_ptr@EU__crt_internal_free_policy@@@@QEBAPEAEXZ 000000018007b6c0 f i libucrtd:argv_parsing.obj
 0001:0007a6d0       ?get@?$__crt_unique_heap_ptr@PEADU__crt_internal_free_policy@@@@QEBAPEAPEADXZ 000000018007b6d0 f i libucrtd:argv_parsing.obj
 0001:0007a6e0       ?get@?$__crt_unique_heap_ptr@PEA_WU__crt_internal_free_policy@@@@QEBAPEAPEA_WXZ 000000018007b6e0 f i libucrtd:argv_parsing.obj
 0001:0007a6f0       ?get_address_of@?$__crt_unique_heap_ptr@PEADU__crt_internal_free_policy@@@@QEAAPEAPEAPEADXZ 000000018007b6f0 f i libucrtd:argv_parsing.obj
 0001:0007a700       ?get_address_of@?$__crt_unique_heap_ptr@PEA_WU__crt_internal_free_policy@@@@QEAAPEAPEAPEA_WXZ 000000018007b700 f i libucrtd:argv_parsing.obj
 0001:0007a750       ?is_valid@?$__crt_unique_heap_ptr@EU__crt_internal_free_policy@@@@QEBA_NXZ 000000018007b750 f i libucrtd:argv_parsing.obj
 0001:0007a780       ?release@?$__crt_unique_heap_ptr@EU__crt_internal_free_policy@@@@QEAAXXZ 000000018007b780 f i libucrtd:argv_parsing.obj
 0001:0007a7b0       ?release@?$__crt_unique_heap_ptr@PEADU__crt_internal_free_policy@@@@QEAAXXZ 000000018007b7b0 f i libucrtd:argv_parsing.obj
 0001:0007a7e0       ?release@?$__crt_unique_heap_ptr@PEA_WU__crt_internal_free_policy@@@@QEAAXXZ 000000018007b7e0 f i libucrtd:argv_parsing.obj
 0001:0007a860       __acrt_allocate_buffer_for_argv 000000018007b860 f   libucrtd:argv_parsing.obj
 0001:0007a980       _configure_narrow_argv     000000018007b980 f   libucrtd:argv_parsing.obj
 0001:0007a9a0       _configure_wide_argv       000000018007b9a0 f   libucrtd:argv_parsing.obj
 0001:0007a9c0       _set_pgmptr                000000018007b9c0 f i libucrtd:argv_parsing.obj
 0001:0007a9e0       _set_wpgmptr               000000018007b9e0 f i libucrtd:argv_parsing.obj
 0001:0007aa00       ??$?R_W@__crt_internal_free_policy@@QEBAXQEB_W@Z 000000018007ba00 f i libucrtd:environment_initialization.obj
 0001:0007b3c0       ??$get_environment_from_os@$$V@?$__crt_char_traits@D@@SAPEADXZ 000000018007c3c0 f i libucrtd:environment_initialization.obj
 0001:0007b3d0       ??$get_environment_from_os@$$V@?$__crt_char_traits@_W@@SAPEA_WXZ 000000018007c3d0 f i libucrtd:environment_initialization.obj
 0001:0007b6e0       ??$set_variable_in_environment_nolock@PEADH@?$__crt_char_traits@D@@SAH$$QEAPEAD$$QEAH@Z 000000018007c6e0 f i libucrtd:environment_initialization.obj
 0001:0007b710       ??$set_variable_in_environment_nolock@PEA_WH@?$__crt_char_traits@_W@@SAH$$QEAPEA_W$$QEAH@Z 000000018007c710 f i libucrtd:environment_initialization.obj
 0001:0007b740       ??$tcscpy_s@PEADAEB_KAEAPEAD@?$__crt_char_traits@D@@SAH$$QEAPEADAEB_KAEAPEAD@Z 000000018007c740 f i libucrtd:environment_initialization.obj
 0001:0007b780       ??$tcscpy_s@PEA_WAEB_KAEAPEA_W@?$__crt_char_traits@_W@@SAH$$QEAPEA_WAEB_KAEAPEA_W@Z 000000018007c780 f i libucrtd:environment_initialization.obj
 0001:0007b7c0       ??$tcslen@AEAPEAD@?$__crt_char_traits@D@@SA_KAEAPEAD@Z 000000018007c7c0 f i libucrtd:environment_initialization.obj
 0001:0007b7e0       ??$tcslen@AEAPEA_W@?$__crt_char_traits@_W@@SA_KAEAPEA_W@Z 000000018007c7e0 f i libucrtd:environment_initialization.obj
 0001:0007b800       ??$uninitialize@A6AXAEAPEAPEAD@_E@?$dual_state_global@PEAPEAD@__crt_state_management@@QEAAXA6AXAEAPEAPEAD@_E@Z 000000018007c800 f i libucrtd:environment_initialization.obj
 0001:0007b880       ??$uninitialize@A6AXAEAPEAPEA_W@_E@?$dual_state_global@PEAPEA_W@__crt_state_management@@QEAAXA6AXAEAPEAPEA_W@_E@Z 000000018007c880 f i libucrtd:environment_initialization.obj
 0001:0007b980       ??0?$__crt_unique_heap_ptr@_WU__crt_internal_free_policy@@@@QEAA@QEA_W@Z 000000018007c980 f i libucrtd:environment_initialization.obj
 0001:0007b9a0       ??1?$__crt_unique_heap_ptr@_WU__crt_internal_free_policy@@@@QEAA@XZ 000000018007c9a0 f i libucrtd:environment_initialization.obj
 0001:0007b9c0       ??B?$__crt_unique_heap_ptr@PEADU__crt_internal_free_policy@@@@QEBA_NXZ 000000018007c9c0 f i libucrtd:environment_initialization.obj
 0001:0007b9e0       ??B?$__crt_unique_heap_ptr@PEA_WU__crt_internal_free_policy@@@@QEBA_NXZ 000000018007c9e0 f i libucrtd:environment_initialization.obj
 0001:0007ba00       ??B?$__crt_unique_heap_ptr@_WU__crt_internal_free_policy@@@@QEBA_NXZ 000000018007ca00 f i libucrtd:environment_initialization.obj
 0001:0007ba20       ?__crt_compute_required_transform_buffer_count@@YA_KIQEBD@Z 000000018007ca20 f i libucrtd:environment_initialization.obj
 0001:0007ba60       ?__crt_compute_required_transform_buffer_count@@YA_KIQEB_W@Z 000000018007ca60 f i libucrtd:environment_initialization.obj
 0001:0007bab0       ?__crt_transform_string@@YA_KIQEBDQEA_W_K@Z 000000018007cab0 f i libucrtd:environment_initialization.obj
 0001:0007bb00       ?__crt_transform_string@@YA_KIQEB_WQEAD_K@Z 000000018007cb00 f i libucrtd:environment_initialization.obj
 0001:0007bb60       ?detach@?$__crt_unique_heap_ptr@DU__crt_internal_free_policy@@@@QEAAPEADXZ 000000018007cb60 f i libucrtd:environment_initialization.obj
 0001:0007bb90       ?detach@?$__crt_unique_heap_ptr@_WU__crt_internal_free_policy@@@@QEAAPEA_WXZ 000000018007cb90 f i libucrtd:environment_initialization.obj
 0001:0007bbc0       ?get@?$__crt_unique_heap_ptr@_WU__crt_internal_free_policy@@@@QEBAPEA_WXZ 000000018007cbc0 f i libucrtd:environment_initialization.obj
 0001:0007bbd0       ?get_current_state_index@__crt_state_management@@YA_KXZ 000000018007cbd0 f i libucrtd:environment_initialization.obj
 0001:0007bc60       ?initialize@?$dual_state_global@PEAPEAD@__crt_state_management@@QEAAXQEAPEAD@Z 000000018007cc60 f i libucrtd:environment_initialization.obj
 0001:0007bcb0       ?initialize@?$dual_state_global@PEAPEA_W@__crt_state_management@@QEAAXQEAPEA_W@Z 000000018007ccb0 f i libucrtd:environment_initialization.obj
 0001:0007bd00       ?is_valid@?$__crt_unique_heap_ptr@PEADU__crt_internal_free_policy@@@@QEBA_NXZ 000000018007cd00 f i libucrtd:environment_initialization.obj
 0001:0007bd30       ?is_valid@?$__crt_unique_heap_ptr@PEA_WU__crt_internal_free_policy@@@@QEBA_NXZ 000000018007cd30 f i libucrtd:environment_initialization.obj
 0001:0007bd60       ?is_valid@?$__crt_unique_heap_ptr@_WU__crt_internal_free_policy@@@@QEBA_NXZ 000000018007cd60 f i libucrtd:environment_initialization.obj
 0001:0007bdc0       ?release@?$__crt_unique_heap_ptr@_WU__crt_internal_free_policy@@@@QEAAXXZ 000000018007cdc0 f i libucrtd:environment_initialization.obj
 0001:0007bdf0       ?value@?$dual_state_global@PEAPEAD@__crt_state_management@@QEAAAEAPEAPEADXZ 000000018007cdf0 f i libucrtd:environment_initialization.obj
 0001:0007be10       ?value@?$dual_state_global@PEAPEA_W@__crt_state_management@@QEAAAEAPEAPEA_WXZ 000000018007ce10 f i libucrtd:environment_initialization.obj
 0001:0007be30       __dcrt_get_or_create_narrow_environment_nolock 000000018007ce30 f   libucrtd:environment_initialization.obj
 0001:0007be40       __dcrt_get_or_create_wide_environment_nolock 000000018007ce40 f   libucrtd:environment_initialization.obj
 0001:0007be50       __dcrt_uninitialize_environments_nolock 000000018007ce50 f   libucrtd:environment_initialization.obj
 0001:0007bea0       __p__environ               000000018007cea0 f   libucrtd:environment_initialization.obj
 0001:0007bec0       __p__wenviron              000000018007cec0 f   libucrtd:environment_initialization.obj
 0001:0007bee0       _get_initial_narrow_environment 000000018007cee0 f   libucrtd:environment_initialization.obj
 0001:0007bef0       _get_initial_wide_environment 000000018007cef0 f   libucrtd:environment_initialization.obj
 0001:0007bf00       _initialize_narrow_environment 000000018007cf00 f   libucrtd:environment_initialization.obj
 0001:0007bf10       _initialize_wide_environment 000000018007cf10 f   libucrtd:environment_initialization.obj
 0001:0007bf20       ??$?B$$A6AXXZ@__crt_fast_encoded_nullptr_t@@QEBAP6AXXZXZ 000000018007cf20 f i libucrtd:onexit.obj
 0001:0007bf40       ??$?BP6AXXZ@__crt_fast_encoded_nullptr_t@@QEBAPEAP6AXXZXZ 000000018007cf40 f i libucrtd:onexit.obj
 0001:0007bf60       ??$?RP6AXXZ@__crt_internal_free_policy@@QEBAXQEBQ6AXXZ@Z 000000018007cf60 f i libucrtd:onexit.obj
 0001:0007c0f0       ??$__crt_fast_decode_pointer@P6AXXZ@@YAP6AXXZQ6AXXZ@Z 000000018007d0f0 f i libucrtd:onexit.obj
 0001:0007c130       ??$__crt_fast_decode_pointer@PEAP6AXXZ@@YAPEAP6AXXZQEAP6AXXZ@Z 000000018007d130 f i libucrtd:onexit.obj
 0001:0007c170       ??$__crt_fast_encode_pointer@P6AHXZ@@YAP6AHXZQ6AHXZ@Z 000000018007d170 f i libucrtd:onexit.obj
 0001:0007c1b0       ??$__crt_fast_encode_pointer@P6AXXZ@@YAP6AXXZQ6AXXZ@Z 000000018007d1b0 f i libucrtd:onexit.obj
 0001:0007c1f0       ??$__crt_fast_encode_pointer@PEAP6AXXZ@@YAPEAP6AXXZQEAP6AXXZ@Z 000000018007d1f0 f i libucrtd:onexit.obj
 0001:0007c300       ??0?$__crt_unique_heap_ptr@P6AXXZU__crt_internal_free_policy@@@@QEAA@QEAP6AXXZ@Z 000000018007d300 f i libucrtd:onexit.obj
 0001:0007c320       ??1?$__crt_unique_heap_ptr@P6AXXZU__crt_internal_free_policy@@@@QEAA@XZ 000000018007d320 f i libucrtd:onexit.obj
 0001:0007c340       ??1scoped_global_state_reset@__crt_state_management@@QEAA@XZ 000000018007d340 f i libucrtd:onexit.obj
 0001:0007c940       ?detach@?$__crt_unique_heap_ptr@P6AXXZU__crt_internal_free_policy@@@@QEAAPEAP6AXXZXZ 000000018007d940 f i libucrtd:onexit.obj
 0001:0007c970       ?release@?$__crt_unique_heap_ptr@P6AXXZU__crt_internal_free_policy@@@@QEAAXXZ 000000018007d970 f i libucrtd:onexit.obj
 0001:0007c9a0       _crt_at_quick_exit         000000018007d9a0 f   libucrtd:onexit.obj
 0001:0007c9c0       _crt_atexit                000000018007d9c0 f   libucrtd:onexit.obj
 0001:0007c9e0       _execute_onexit_table      000000018007d9e0 f   libucrtd:onexit.obj
 0001:0007ca20       _initialize_onexit_table   000000018007da20 f   libucrtd:onexit.obj
 0001:0007caa0       _register_onexit_function  000000018007daa0 f   libucrtd:onexit.obj
 0001:0007cd20       ??$?BX@__crt_fast_encoded_nullptr_t@@QEBAPEAXXZ 000000018007dd20 f i libucrtd:initialization.obj
 0001:0007cd40       ??$__crt_fast_encode_pointer@PEAX@@YAPEAXQEAX@Z 000000018007dd40 f i libucrtd:initialization.obj
 0001:0007ce40       ?initialize@?$dual_state_global@PEAU__crt_locale_data@@@__crt_state_management@@QEAAXQEAU__crt_locale_data@@@Z 000000018007de40 f i libucrtd:initialization.obj
 0001:0007ce90       __acrt_initialize          000000018007de90 f   libucrtd:initialization.obj
 0001:0007cec0       __acrt_thread_attach       000000018007dec0 f   libucrtd:initialization.obj
 0001:0007cee0       __acrt_thread_detach       000000018007dee0 f   libucrtd:initialization.obj
 0001:0007cef0       __acrt_uninitialize        000000018007def0 f   libucrtd:initialization.obj
 0001:0007cf20       __acrt_uninitialize_critical 000000018007df20 f   libucrtd:initialization.obj
 0001:0007cf80       _get_terminate             000000018007df80 f   libucrtd:terminate.obj
 0001:0007cfa0       set_terminate              000000018007dfa0 f   libucrtd:terminate.obj
 0001:0007cfe0       terminate                  000000018007dfe0 f   libucrtd:terminate.obj
 0001:0007d510       strcpy_s                   000000018007e510 f   libucrtd:strcpy_s.obj
 0001:0007dbb0       strcat_s                   000000018007ebb0 f   libucrtd:strcat_s.obj
 0001:0007dbe0       ??$?0AEBV?$stream_output_adapter@D@__crt_stdio_output@@AEB_KAEBQEBDAEAV__crt_cached_ptd_host@@AEBQEAD@?$format_validation_base@DV?$stream_output_adapter@D@__crt_stdio_output@@@__crt_stdio_output@@IEAA@AEBV?$stream_output_adapter@D@1@AEB_KAEBQEBDAEAV__crt_cached_ptd_host@@AEBQEAD@Z 000000018007ebe0 f i libucrtd:output.obj
 0001:0007dc30       ??$?0AEBV?$stream_output_adapter@D@__crt_stdio_output@@AEB_KAEBQEBDAEAV__crt_cached_ptd_host@@AEBQEAD@?$positional_parameter_base@DV?$stream_output_adapter@D@__crt_stdio_output@@@__crt_stdio_output@@IEAA@AEBV?$stream_output_adapter@D@1@AEB_KAEBQEBDAEAV__crt_cached_ptd_host@@AEBQEAD@Z 000000018007ec30 f i libucrtd:output.obj
 0001:0007dcd0       ??$?0AEBV?$stream_output_adapter@D@__crt_stdio_output@@AEB_KAEBQEBDAEAV__crt_cached_ptd_host@@AEBQEAD@?$standard_base@DV?$stream_output_adapter@D@__crt_stdio_output@@@__crt_stdio_output@@IEAA@AEBV?$stream_output_adapter@D@1@AEB_KAEBQEBDAEAV__crt_cached_ptd_host@@AEBQEAD@Z 000000018007ecd0 f i libucrtd:output.obj
 0001:0007dd40       ??$?0AEBV?$stream_output_adapter@_W@__crt_stdio_output@@AEB_KAEBQEB_WAEAV__crt_cached_ptd_host@@AEBQEAD@?$format_validation_base@_WV?$stream_output_adapter@_W@__crt_stdio_output@@@__crt_stdio_output@@IEAA@AEBV?$stream_output_adapter@_W@1@AEB_KAEBQEB_WAEAV__crt_cached_ptd_host@@AEBQEAD@Z 000000018007ed40 f i libucrtd:output.obj
 0001:0007dd90       ??$?0AEBV?$stream_output_adapter@_W@__crt_stdio_output@@AEB_KAEBQEB_WAEAV__crt_cached_ptd_host@@AEBQEAD@?$positional_parameter_base@_WV?$stream_output_adapter@_W@__crt_stdio_output@@@__crt_stdio_output@@IEAA@AEBV?$stream_output_adapter@_W@1@AEB_KAEBQEB_WAEAV__crt_cached_ptd_host@@AEBQEAD@Z 000000018007ed90 f i libucrtd:output.obj
 0001:0007de30       ??$?0AEBV?$stream_output_adapter@_W@__crt_stdio_output@@AEB_KAEBQEB_WAEAV__crt_cached_ptd_host@@AEBQEAD@?$standard_base@_WV?$stream_output_adapter@_W@__crt_stdio_output@@@__crt_stdio_output@@IEAA@AEBV?$stream_output_adapter@_W@1@AEB_KAEBQEB_WAEAV__crt_cached_ptd_host@@AEBQEAD@Z 000000018007ee30 f i libucrtd:output.obj
 0001:0007dea0       ??$?0AEBV?$string_output_adapter@D@__crt_stdio_output@@AEB_KAEBQEBDAEAV__crt_cached_ptd_host@@AEBQEAD@?$format_validation_base@DV?$string_output_adapter@D@__crt_stdio_output@@@__crt_stdio_output@@IEAA@AEBV?$string_output_adapter@D@1@AEB_KAEBQEBDAEAV__crt_cached_ptd_host@@AEBQEAD@Z 000000018007eea0 f i libucrtd:output.obj
 0001:0007def0       ??$?0AEBV?$string_output_adapter@D@__crt_stdio_output@@AEB_KAEBQEBDAEAV__crt_cached_ptd_host@@AEBQEAD@?$positional_parameter_base@DV?$string_output_adapter@D@__crt_stdio_output@@@__crt_stdio_output@@IEAA@AEBV?$string_output_adapter@D@1@AEB_KAEBQEBDAEAV__crt_cached_ptd_host@@AEBQEAD@Z 000000018007eef0 f i libucrtd:output.obj
 0001:0007df90       ??$?0AEBV?$string_output_adapter@D@__crt_stdio_output@@AEB_KAEBQEBDAEAV__crt_cached_ptd_host@@AEBQEAD@?$standard_base@DV?$string_output_adapter@D@__crt_stdio_output@@@__crt_stdio_output@@IEAA@AEBV?$string_output_adapter@D@1@AEB_KAEBQEBDAEAV__crt_cached_ptd_host@@AEBQEAD@Z 000000018007ef90 f i libucrtd:output.obj
 0001:0007e000       ??$?0AEBV?$string_output_adapter@_W@__crt_stdio_output@@AEB_KAEBQEB_WAEAV__crt_cached_ptd_host@@AEBQEAD@?$format_validation_base@_WV?$string_output_adapter@_W@__crt_stdio_output@@@__crt_stdio_output@@IEAA@AEBV?$string_output_adapter@_W@1@AEB_KAEBQEB_WAEAV__crt_cached_ptd_host@@AEBQEAD@Z 000000018007f000 f i libucrtd:output.obj
 0001:0007e050       ??$?0AEBV?$string_output_adapter@_W@__crt_stdio_output@@AEB_KAEBQEB_WAEAV__crt_cached_ptd_host@@AEBQEAD@?$positional_parameter_base@_WV?$string_output_adapter@_W@__crt_stdio_output@@@__crt_stdio_output@@IEAA@AEBV?$string_output_adapter@_W@1@AEB_KAEBQEB_WAEAV__crt_cached_ptd_host@@AEBQEAD@Z 000000018007f050 f i libucrtd:output.obj
 0001:0007e0f0       ??$?0AEBV?$string_output_adapter@_W@__crt_stdio_output@@AEB_KAEBQEB_WAEAV__crt_cached_ptd_host@@AEBQEAD@?$standard_base@_WV?$string_output_adapter@_W@__crt_stdio_output@@@__crt_stdio_output@@IEAA@AEBV?$string_output_adapter@_W@1@AEB_KAEBQEB_WAEAV__crt_cached_ptd_host@@AEBQEAD@Z 000000018007f0f0 f i libucrtd:output.obj
 0001:0007e580       ??$_tcstol_internal@DPEAPEAD$0A@@@YAJAEAV__crt_cached_ptd_host@@QEBDQEAPEADH@Z 000000018007f580 f i libucrtd:output.obj
 0001:0007e5d0       ??$_tcstol_internal@_WPEAPEA_W$0A@@@YAJAEAV__crt_cached_ptd_host@@QEB_WQEAPEA_WH@Z 000000018007f5d0 f i libucrtd:output.obj
 0001:000825f0       ??$count@D@formatting_buffer@__crt_stdio_output@@QEBA_KXZ 00000001800835f0 f i libucrtd:output.obj
 0001:00082640       ??$count@_W@formatting_buffer@__crt_stdio_output@@QEBA_KXZ 0000000180083640 f i libucrtd:output.obj
 0001:00082690       ??$data@D@formatting_buffer@__crt_stdio_output@@QEAAPEADXZ 0000000180083690 f i libucrtd:output.obj
 0001:000826e0       ??$data@_W@formatting_buffer@__crt_stdio_output@@QEAAPEA_WXZ 00000001800836e0 f i libucrtd:output.obj
 0001:00082730       ??$ensure_buffer_is_big_enough@D@formatting_buffer@__crt_stdio_output@@QEAA_N_KAEAV__crt_cached_ptd_host@@@Z 0000000180083730 f i libucrtd:output.obj
 0001:00082870       ??$ensure_buffer_is_big_enough@_W@formatting_buffer@__crt_stdio_output@@QEAA_N_KAEAV__crt_cached_ptd_host@@@Z 0000000180083870 f i libucrtd:output.obj
 0001:000829b0       ??$extract_argument_from_va_list@C_J@?$positional_parameter_base@DV?$stream_output_adapter@D@__crt_stdio_output@@@__crt_stdio_output@@IEAA_NAEA_J@Z 00000001800839b0 f i libucrtd:output.obj
 0001:00082b70       ??$extract_argument_from_va_list@C_J@?$positional_parameter_base@DV?$string_output_adapter@D@__crt_stdio_output@@@__crt_stdio_output@@IEAA_NAEA_J@Z 0000000180083b70 f i libucrtd:output.obj
 0001:00082d30       ??$extract_argument_from_va_list@C_J@?$positional_parameter_base@_WV?$stream_output_adapter@_W@__crt_stdio_output@@@__crt_stdio_output@@IEAA_NAEA_J@Z 0000000180083d30 f i libucrtd:output.obj
 0001:00082ef0       ??$extract_argument_from_va_list@C_J@?$positional_parameter_base@_WV?$string_output_adapter@_W@__crt_stdio_output@@@__crt_stdio_output@@IEAA_NAEA_J@Z 0000000180083ef0 f i libucrtd:output.obj
 0001:000830b0       ??$extract_argument_from_va_list@C_J@?$standard_base@DV?$stream_output_adapter@D@__crt_stdio_output@@@__crt_stdio_output@@IEAA_NAEA_J@Z 00000001800840b0 f i libucrtd:output.obj
 0001:000830f0       ??$extract_argument_from_va_list@C_J@?$standard_base@DV?$string_output_adapter@D@__crt_stdio_output@@@__crt_stdio_output@@IEAA_NAEA_J@Z 00000001800840f0 f i libucrtd:output.obj
 0001:00083130       ??$extract_argument_from_va_list@C_J@?$standard_base@_WV?$stream_output_adapter@_W@__crt_stdio_output@@@__crt_stdio_output@@IEAA_NAEA_J@Z 0000000180084130 f i libucrtd:output.obj
 0001:00083170       ??$extract_argument_from_va_list@C_J@?$standard_base@_WV?$string_output_adapter@_W@__crt_stdio_output@@@__crt_stdio_output@@IEAA_NAEA_J@Z 0000000180084170 f i libucrtd:output.obj
 0001:000831b0       ??$extract_argument_from_va_list@E_J@?$positional_parameter_base@DV?$stream_output_adapter@D@__crt_stdio_output@@@__crt_stdio_output@@IEAA_NAEA_J@Z 00000001800841b0 f i libucrtd:output.obj
 0001:00083370       ??$extract_argument_from_va_list@E_J@?$positional_parameter_base@DV?$string_output_adapter@D@__crt_stdio_output@@@__crt_stdio_output@@IEAA_NAEA_J@Z 0000000180084370 f i libucrtd:output.obj
 0001:00083530       ??$extract_argument_from_va_list@E_J@?$positional_parameter_base@_WV?$stream_output_adapter@_W@__crt_stdio_output@@@__crt_stdio_output@@IEAA_NAEA_J@Z 0000000180084530 f i libucrtd:output.obj
 0001:000836f0       ??$extract_argument_from_va_list@E_J@?$positional_parameter_base@_WV?$string_output_adapter@_W@__crt_stdio_output@@@__crt_stdio_output@@IEAA_NAEA_J@Z 00000001800846f0 f i libucrtd:output.obj
 0001:000838b0       ??$extract_argument_from_va_list@E_J@?$standard_base@DV?$stream_output_adapter@D@__crt_stdio_output@@@__crt_stdio_output@@IEAA_NAEA_J@Z 00000001800848b0 f i libucrtd:output.obj
 0001:000838f0       ??$extract_argument_from_va_list@E_J@?$standard_base@DV?$string_output_adapter@D@__crt_stdio_output@@@__crt_stdio_output@@IEAA_NAEA_J@Z 00000001800848f0 f i libucrtd:output.obj
 0001:00083930       ??$extract_argument_from_va_list@E_J@?$standard_base@_WV?$stream_output_adapter@_W@__crt_stdio_output@@@__crt_stdio_output@@IEAA_NAEA_J@Z 0000000180084930 f i libucrtd:output.obj
 0001:00083970       ??$extract_argument_from_va_list@E_J@?$standard_base@_WV?$string_output_adapter@_W@__crt_stdio_output@@@__crt_stdio_output@@IEAA_NAEA_J@Z 0000000180084970 f i libucrtd:output.obj
 0001:000839b0       ??$extract_argument_from_va_list@F_J@?$positional_parameter_base@DV?$stream_output_adapter@D@__crt_stdio_output@@@__crt_stdio_output@@IEAA_NAEA_J@Z 00000001800849b0 f i libucrtd:output.obj
 0001:00083b70       ??$extract_argument_from_va_list@F_J@?$positional_parameter_base@DV?$string_output_adapter@D@__crt_stdio_output@@@__crt_stdio_output@@IEAA_NAEA_J@Z 0000000180084b70 f i libucrtd:output.obj
 0001:00083d30       ??$extract_argument_from_va_list@F_J@?$positional_parameter_base@_WV?$stream_output_adapter@_W@__crt_stdio_output@@@__crt_stdio_output@@IEAA_NAEA_J@Z 0000000180084d30 f i libucrtd:output.obj
 0001:00083ef0       ??$extract_argument_from_va_list@F_J@?$positional_parameter_base@_WV?$string_output_adapter@_W@__crt_stdio_output@@@__crt_stdio_output@@IEAA_NAEA_J@Z 0000000180084ef0 f i libucrtd:output.obj
 0001:000840b0       ??$extract_argument_from_va_list@F_J@?$standard_base@DV?$stream_output_adapter@D@__crt_stdio_output@@@__crt_stdio_output@@IEAA_NAEA_J@Z 00000001800850b0 f i libucrtd:output.obj
 0001:000840f0       ??$extract_argument_from_va_list@F_J@?$standard_base@DV?$string_output_adapter@D@__crt_stdio_output@@@__crt_stdio_output@@IEAA_NAEA_J@Z 00000001800850f0 f i libucrtd:output.obj
 0001:00084130       ??$extract_argument_from_va_list@F_J@?$standard_base@_WV?$stream_output_adapter@_W@__crt_stdio_output@@@__crt_stdio_output@@IEAA_NAEA_J@Z 0000000180085130 f i libucrtd:output.obj
 0001:00084170       ??$extract_argument_from_va_list@F_J@?$standard_base@_WV?$string_output_adapter@_W@__crt_stdio_output@@@__crt_stdio_output@@IEAA_NAEA_J@Z 0000000180085170 f i libucrtd:output.obj
 0001:000841b0       ??$extract_argument_from_va_list@GD@?$positional_parameter_base@DV?$stream_output_adapter@D@__crt_stdio_output@@@__crt_stdio_output@@IEAA_NAEAD@Z 00000001800851b0 f i libucrtd:output.obj
 0001:00084370       ??$extract_argument_from_va_list@GD@?$positional_parameter_base@DV?$string_output_adapter@D@__crt_stdio_output@@@__crt_stdio_output@@IEAA_NAEAD@Z 0000000180085370 f i libucrtd:output.obj
 0001:00084530       ??$extract_argument_from_va_list@GD@?$standard_base@DV?$stream_output_adapter@D@__crt_stdio_output@@@__crt_stdio_output@@IEAA_NAEAD@Z 0000000180085530 f i libucrtd:output.obj
 0001:00084560       ??$extract_argument_from_va_list@GD@?$standard_base@DV?$string_output_adapter@D@__crt_stdio_output@@@__crt_stdio_output@@IEAA_NAEAD@Z 0000000180085560 f i libucrtd:output.obj
 0001:00084590       ??$extract_argument_from_va_list@G_J@?$positional_parameter_base@DV?$stream_output_adapter@D@__crt_stdio_output@@@__crt_stdio_output@@IEAA_NAEA_J@Z 0000000180085590 f i libucrtd:output.obj
 0001:00084750       ??$extract_argument_from_va_list@G_J@?$positional_parameter_base@DV?$string_output_adapter@D@__crt_stdio_output@@@__crt_stdio_output@@IEAA_NAEA_J@Z 0000000180085750 f i libucrtd:output.obj
 0001:00084910       ??$extract_argument_from_va_list@G_J@?$positional_parameter_base@_WV?$stream_output_adapter@_W@__crt_stdio_output@@@__crt_stdio_output@@IEAA_NAEA_J@Z 0000000180085910 f i libucrtd:output.obj
 0001:00084ad0       ??$extract_argument_from_va_list@G_J@?$positional_parameter_base@_WV?$string_output_adapter@_W@__crt_stdio_output@@@__crt_stdio_output@@IEAA_NAEA_J@Z 0000000180085ad0 f i libucrtd:output.obj
 0001:00084c90       ??$extract_argument_from_va_list@G_J@?$standard_base@DV?$stream_output_adapter@D@__crt_stdio_output@@@__crt_stdio_output@@IEAA_NAEA_J@Z 0000000180085c90 f i libucrtd:output.obj
 0001:00084cd0       ??$extract_argument_from_va_list@G_J@?$standard_base@DV?$string_output_adapter@D@__crt_stdio_output@@@__crt_stdio_output@@IEAA_NAEA_J@Z 0000000180085cd0 f i libucrtd:output.obj
 0001:00084d10       ??$extract_argument_from_va_list@G_J@?$standard_base@_WV?$stream_output_adapter@_W@__crt_stdio_output@@@__crt_stdio_output@@IEAA_NAEA_J@Z 0000000180085d10 f i libucrtd:output.obj
 0001:00084d50       ??$extract_argument_from_va_list@G_J@?$standard_base@_WV?$string_output_adapter@_W@__crt_stdio_output@@@__crt_stdio_output@@IEAA_NAEA_J@Z 0000000180085d50 f i libucrtd:output.obj
 0001:00084d90       ??$extract_argument_from_va_list@H_J@?$positional_parameter_base@DV?$stream_output_adapter@D@__crt_stdio_output@@@__crt_stdio_output@@IEAA_NAEA_J@Z 0000000180085d90 f i libucrtd:output.obj
 0001:00084f50       ??$extract_argument_from_va_list@H_J@?$positional_parameter_base@DV?$string_output_adapter@D@__crt_stdio_output@@@__crt_stdio_output@@IEAA_NAEA_J@Z 0000000180085f50 f i libucrtd:output.obj
 0001:00085110       ??$extract_argument_from_va_list@H_J@?$positional_parameter_base@_WV?$stream_output_adapter@_W@__crt_stdio_output@@@__crt_stdio_output@@IEAA_NAEA_J@Z 0000000180086110 f i libucrtd:output.obj
 0001:000852d0       ??$extract_argument_from_va_list@H_J@?$positional_parameter_base@_WV?$string_output_adapter@_W@__crt_stdio_output@@@__crt_stdio_output@@IEAA_NAEA_J@Z 00000001800862d0 f i libucrtd:output.obj
 0001:00085490       ??$extract_argument_from_va_list@H_J@?$standard_base@DV?$stream_output_adapter@D@__crt_stdio_output@@@__crt_stdio_output@@IEAA_NAEA_J@Z 0000000180086490 f i libucrtd:output.obj
 0001:000854c0       ??$extract_argument_from_va_list@H_J@?$standard_base@DV?$string_output_adapter@D@__crt_stdio_output@@@__crt_stdio_output@@IEAA_NAEA_J@Z 00000001800864c0 f i libucrtd:output.obj
 0001:000854f0       ??$extract_argument_from_va_list@H_J@?$standard_base@_WV?$stream_output_adapter@_W@__crt_stdio_output@@@__crt_stdio_output@@IEAA_NAEA_J@Z 00000001800864f0 f i libucrtd:output.obj
 0001:00085520       ??$extract_argument_from_va_list@H_J@?$standard_base@_WV?$string_output_adapter@_W@__crt_stdio_output@@@__crt_stdio_output@@IEAA_NAEA_J@Z 0000000180086520 f i libucrtd:output.obj
 0001:00085550       ??$extract_argument_from_va_list@I_J@?$positional_parameter_base@DV?$stream_output_adapter@D@__crt_stdio_output@@@__crt_stdio_output@@IEAA_NAEA_J@Z 0000000180086550 f i libucrtd:output.obj
 0001:00085710       ??$extract_argument_from_va_list@I_J@?$positional_parameter_base@DV?$string_output_adapter@D@__crt_stdio_output@@@__crt_stdio_output@@IEAA_NAEA_J@Z 0000000180086710 f i libucrtd:output.obj
 0001:000858d0       ??$extract_argument_from_va_list@I_J@?$positional_parameter_base@_WV?$stream_output_adapter@_W@__crt_stdio_output@@@__crt_stdio_output@@IEAA_NAEA_J@Z 00000001800868d0 f i libucrtd:output.obj
 0001:00085a90       ??$extract_argument_from_va_list@I_J@?$positional_parameter_base@_WV?$string_output_adapter@_W@__crt_stdio_output@@@__crt_stdio_output@@IEAA_NAEA_J@Z 0000000180086a90 f i libucrtd:output.obj
 0001:00085c50       ??$extract_argument_from_va_list@I_J@?$standard_base@DV?$stream_output_adapter@D@__crt_stdio_output@@@__crt_stdio_output@@IEAA_NAEA_J@Z 0000000180086c50 f i libucrtd:output.obj
 0001:00085c80       ??$extract_argument_from_va_list@I_J@?$standard_base@DV?$string_output_adapter@D@__crt_stdio_output@@@__crt_stdio_output@@IEAA_NAEA_J@Z 0000000180086c80 f i libucrtd:output.obj
 0001:00085cb0       ??$extract_argument_from_va_list@I_J@?$standard_base@_WV?$stream_output_adapter@_W@__crt_stdio_output@@@__crt_stdio_output@@IEAA_NAEA_J@Z 0000000180086cb0 f i libucrtd:output.obj
 0001:00085ce0       ??$extract_argument_from_va_list@I_J@?$standard_base@_WV?$string_output_adapter@_W@__crt_stdio_output@@@__crt_stdio_output@@IEAA_NAEA_J@Z 0000000180086ce0 f i libucrtd:output.obj
 0001:00085d10       ??$extract_argument_from_va_list@PEADPEAD@?$positional_parameter_base@DV?$stream_output_adapter@D@__crt_stdio_output@@@__crt_stdio_output@@IEAA_NAEAPEAD@Z 0000000180086d10 f i libucrtd:output.obj
 0001:00085ed0       ??$extract_argument_from_va_list@PEADPEAD@?$positional_parameter_base@DV?$string_output_adapter@D@__crt_stdio_output@@@__crt_stdio_output@@IEAA_NAEAPEAD@Z 0000000180086ed0 f i libucrtd:output.obj
 0001:00086090       ??$extract_argument_from_va_list@PEADPEAD@?$positional_parameter_base@_WV?$stream_output_adapter@_W@__crt_stdio_output@@@__crt_stdio_output@@IEAA_NAEAPEAD@Z 0000000180087090 f i libucrtd:output.obj
 0001:00086250       ??$extract_argument_from_va_list@PEADPEAD@?$positional_parameter_base@_WV?$string_output_adapter@_W@__crt_stdio_output@@@__crt_stdio_output@@IEAA_NAEAPEAD@Z 0000000180087250 f i libucrtd:output.obj
 0001:00086410       ??$extract_argument_from_va_list@PEADPEAD@?$standard_base@DV?$stream_output_adapter@D@__crt_stdio_output@@@__crt_stdio_output@@IEAA_NAEAPEAD@Z 0000000180087410 f i libucrtd:output.obj
 0001:00086440       ??$extract_argument_from_va_list@PEADPEAD@?$standard_base@DV?$string_output_adapter@D@__crt_stdio_output@@@__crt_stdio_output@@IEAA_NAEAPEAD@Z 0000000180087440 f i libucrtd:output.obj
 0001:00086470       ??$extract_argument_from_va_list@PEADPEAD@?$standard_base@_WV?$stream_output_adapter@_W@__crt_stdio_output@@@__crt_stdio_output@@IEAA_NAEAPEAD@Z 0000000180087470 f i libucrtd:output.obj
 0001:000864a0       ??$extract_argument_from_va_list@PEADPEAD@?$standard_base@_WV?$string_output_adapter@_W@__crt_stdio_output@@@__crt_stdio_output@@IEAA_NAEAPEAD@Z 00000001800874a0 f i libucrtd:output.obj
 0001:000864d0       ??$extract_argument_from_va_list@PEAUansi_string@?1??type_case_Z@?$output_processor@DV?$stream_output_adapter@D@__crt_stdio_output@@V?$format_validation_base@DV?$stream_output_adapter@D@__crt_stdio_output@@@2@@__crt_stdio_output@@AEAA_NXZ@PEAU1?1??234@AEAA_NXZ@@?$standard_base@DV?$stream_output_adapter@D@__crt_stdio_output@@@__crt_stdio_output@@IEAA_NAEAPEAUansi_string@?1??type_case_Z@?$output_processor@DV?$stream_output_adapter@D@__crt_stdio_output@@V?$format_validation_base@DV?$stream_output_adapter@D@__crt_stdio_output@@@2@@1@AEAA_NXZ@@Z 00000001800874d0 f i libucrtd:output.obj
 0001:00086500       ??$extract_argument_from_va_list@PEAUansi_string@?1??type_case_Z@?$output_processor@DV?$stream_output_adapter@D@__crt_stdio_output@@V?$positional_parameter_base@DV?$stream_output_adapter@D@__crt_stdio_output@@@2@@__crt_stdio_output@@AEAA_NXZ@PEAU1?1??234@AEAA_NXZ@@?$positional_parameter_base@DV?$stream_output_adapter@D@__crt_stdio_output@@@__crt_stdio_output@@IEAA_NAEAPEAUansi_string@?1??type_case_Z@?$output_processor@DV?$stream_output_adapter@D@__crt_stdio_output@@V?$positional_parameter_base@DV?$stream_output_adapter@D@__crt_stdio_output@@@2@@1@AEAA_NXZ@@Z 0000000180087500 f i libucrtd:output.obj
 0001:000866c0       ??$extract_argument_from_va_list@PEAUansi_string@?1??type_case_Z@?$output_processor@DV?$stream_output_adapter@D@__crt_stdio_output@@V?$positional_parameter_base@DV?$stream_output_adapter@D@__crt_stdio_output@@@2@@__crt_stdio_output@@AEAA_NXZ@PEAU1?1??234@AEAA_NXZ@@?$standard_base@DV?$stream_output_adapter@D@__crt_stdio_output@@@__crt_stdio_output@@IEAA_NAEAPEAUansi_string@?1??type_case_Z@?$output_processor@DV?$stream_output_adapter@D@__crt_stdio_output@@V?$positional_parameter_base@DV?$stream_output_adapter@D@__crt_stdio_output@@@2@@1@AEAA_NXZ@@Z 00000001800876c0 f i libucrtd:output.obj
 0001:000866f0       ??$extract_argument_from_va_list@PEAUansi_string@?1??type_case_Z@?$output_processor@DV?$stream_output_adapter@D@__crt_stdio_output@@V?$standard_base@DV?$stream_output_adapter@D@__crt_stdio_output@@@2@@__crt_stdio_output@@AEAA_NXZ@PEAU1?1??234@AEAA_NXZ@@?$standard_base@DV?$stream_output_adapter@D@__crt_stdio_output@@@__crt_stdio_output@@IEAA_NAEAPEAUansi_string@?1??type_case_Z@?$output_processor@DV?$stream_output_adapter@D@__crt_stdio_output@@V?$standard_base@DV?$stream_output_adapter@D@__crt_stdio_output@@@2@@1@AEAA_NXZ@@Z 00000001800876f0 f i libucrtd:output.obj
 0001:00086720       ??$extract_argument_from_va_list@PEAUansi_string@?1??type_case_Z@?$output_processor@DV?$string_output_adapter@D@__crt_stdio_output@@V?$format_validation_base@DV?$string_output_adapter@D@__crt_stdio_output@@@2@@__crt_stdio_output@@AEAA_NXZ@PEAU1?1??234@AEAA_NXZ@@?$standard_base@DV?$string_output_adapter@D@__crt_stdio_output@@@__crt_stdio_output@@IEAA_NAEAPEAUansi_string@?1??type_case_Z@?$output_processor@DV?$string_output_adapter@D@__crt_stdio_output@@V?$format_validation_base@DV?$string_output_adapter@D@__crt_stdio_output@@@2@@1@AEAA_NXZ@@Z 0000000180087720 f i libucrtd:output.obj
 0001:00086750       ??$extract_argument_from_va_list@PEAUansi_string@?1??type_case_Z@?$output_processor@DV?$string_output_adapter@D@__crt_stdio_output@@V?$positional_parameter_base@DV?$string_output_adapter@D@__crt_stdio_output@@@2@@__crt_stdio_output@@AEAA_NXZ@PEAU1?1??234@AEAA_NXZ@@?$positional_parameter_base@DV?$string_output_adapter@D@__crt_stdio_output@@@__crt_stdio_output@@IEAA_NAEAPEAUansi_string@?1??type_case_Z@?$output_processor@DV?$string_output_adapter@D@__crt_stdio_output@@V?$positional_parameter_base@DV?$string_output_adapter@D@__crt_stdio_output@@@2@@1@AEAA_NXZ@@Z 0000000180087750 f i libucrtd:output.obj
 0001:00086910       ??$extract_argument_from_va_list@PEAUansi_string@?1??type_case_Z@?$output_processor@DV?$string_output_adapter@D@__crt_stdio_output@@V?$positional_parameter_base@DV?$string_output_adapter@D@__crt_stdio_output@@@2@@__crt_stdio_output@@AEAA_NXZ@PEAU1?1??234@AEAA_NXZ@@?$standard_base@DV?$string_output_adapter@D@__crt_stdio_output@@@__crt_stdio_output@@IEAA_NAEAPEAUansi_string@?1??type_case_Z@?$output_processor@DV?$string_output_adapter@D@__crt_stdio_output@@V?$positional_parameter_base@DV?$string_output_adapter@D@__crt_stdio_output@@@2@@1@AEAA_NXZ@@Z 0000000180087910 f i libucrtd:output.obj
 0001:00086940       ??$extract_argument_from_va_list@PEAUansi_string@?1??type_case_Z@?$output_processor@DV?$string_output_adapter@D@__crt_stdio_output@@V?$standard_base@DV?$string_output_adapter@D@__crt_stdio_output@@@2@@__crt_stdio_output@@AEAA_NXZ@PEAU1?1??234@AEAA_NXZ@@?$standard_base@DV?$string_output_adapter@D@__crt_stdio_output@@@__crt_stdio_output@@IEAA_NAEAPEAUansi_string@?1??type_case_Z@?$output_processor@DV?$string_output_adapter@D@__crt_stdio_output@@V?$standard_base@DV?$string_output_adapter@D@__crt_stdio_output@@@2@@1@AEAA_NXZ@@Z 0000000180087940 f i libucrtd:output.obj
 0001:00086970       ??$extract_argument_from_va_list@PEAUansi_string@?1??type_case_Z@?$output_processor@_WV?$stream_output_adapter@_W@__crt_stdio_output@@V?$format_validation_base@_WV?$stream_output_adapter@_W@__crt_stdio_output@@@2@@__crt_stdio_output@@AEAA_NXZ@PEAU1?1??234@AEAA_NXZ@@?$standard_base@_WV?$stream_output_adapter@_W@__crt_stdio_output@@@__crt_stdio_output@@IEAA_NAEAPEAUansi_string@?1??type_case_Z@?$output_processor@_WV?$stream_output_adapter@_W@__crt_stdio_output@@V?$format_validation_base@_WV?$stream_output_adapter@_W@__crt_stdio_output@@@2@@1@AEAA_NXZ@@Z 0000000180087970 f i libucrtd:output.obj
 0001:000869a0       ??$extract_argument_from_va_list@PEAUansi_string@?1??type_case_Z@?$output_processor@_WV?$stream_output_adapter@_W@__crt_stdio_output@@V?$positional_parameter_base@_WV?$stream_output_adapter@_W@__crt_stdio_output@@@2@@__crt_stdio_output@@AEAA_NXZ@PEAU1?1??234@AEAA_NXZ@@?$positional_parameter_base@_WV?$stream_output_adapter@_W@__crt_stdio_output@@@__crt_stdio_output@@IEAA_NAEAPEAUansi_string@?1??type_case_Z@?$output_processor@_WV?$stream_output_adapter@_W@__crt_stdio_output@@V?$positional_parameter_base@_WV?$stream_output_adapter@_W@__crt_stdio_output@@@2@@1@AEAA_NXZ@@Z 00000001800879a0 f i libucrtd:output.obj
 0001:00086b60       ??$extract_argument_from_va_list@PEAUansi_string@?1??type_case_Z@?$output_processor@_WV?$stream_output_adapter@_W@__crt_stdio_output@@V?$positional_parameter_base@_WV?$stream_output_adapter@_W@__crt_stdio_output@@@2@@__crt_stdio_output@@AEAA_NXZ@PEAU1?1??234@AEAA_NXZ@@?$standard_base@_WV?$stream_output_adapter@_W@__crt_stdio_output@@@__crt_stdio_output@@IEAA_NAEAPEAUansi_string@?1??type_case_Z@?$output_processor@_WV?$stream_output_adapter@_W@__crt_stdio_output@@V?$positional_parameter_base@_WV?$stream_output_adapter@_W@__crt_stdio_output@@@2@@1@AEAA_NXZ@@Z 0000000180087b60 f i libucrtd:output.obj
 0001:00086b90       ??$extract_argument_from_va_list@PEAUansi_string@?1??type_case_Z@?$output_processor@_WV?$stream_output_adapter@_W@__crt_stdio_output@@V?$standard_base@_WV?$stream_output_adapter@_W@__crt_stdio_output@@@2@@__crt_stdio_output@@AEAA_NXZ@PEAU1?1??234@AEAA_NXZ@@?$standard_base@_WV?$stream_output_adapter@_W@__crt_stdio_output@@@__crt_stdio_output@@IEAA_NAEAPEAUansi_string@?1??type_case_Z@?$output_processor@_WV?$stream_output_adapter@_W@__crt_stdio_output@@V?$standard_base@_WV?$stream_output_adapter@_W@__crt_stdio_output@@@2@@1@AEAA_NXZ@@Z 0000000180087b90 f i libucrtd:output.obj
 0001:00086bc0       ??$extract_argument_from_va_list@PEAUansi_string@?1??type_case_Z@?$output_processor@_WV?$string_output_adapter@_W@__crt_stdio_output@@V?$format_validation_base@_WV?$string_output_adapter@_W@__crt_stdio_output@@@2@@__crt_stdio_output@@AEAA_NXZ@PEAU1?1??234@AEAA_NXZ@@?$standard_base@_WV?$string_output_adapter@_W@__crt_stdio_output@@@__crt_stdio_output@@IEAA_NAEAPEAUansi_string@?1??type_case_Z@?$output_processor@_WV?$string_output_adapter@_W@__crt_stdio_output@@V?$format_validation_base@_WV?$string_output_adapter@_W@__crt_stdio_output@@@2@@1@AEAA_NXZ@@Z 0000000180087bc0 f i libucrtd:output.obj
 0001:00086bf0       ??$extract_argument_from_va_list@PEAUansi_string@?1??type_case_Z@?$output_processor@_WV?$string_output_adapter@_W@__crt_stdio_output@@V?$positional_parameter_base@_WV?$string_output_adapter@_W@__crt_stdio_output@@@2@@__crt_stdio_output@@AEAA_NXZ@PEAU1?1??234@AEAA_NXZ@@?$positional_parameter_base@_WV?$string_output_adapter@_W@__crt_stdio_output@@@__crt_stdio_output@@IEAA_NAEAPEAUansi_string@?1??type_case_Z@?$output_processor@_WV?$string_output_adapter@_W@__crt_stdio_output@@V?$positional_parameter_base@_WV?$string_output_adapter@_W@__crt_stdio_output@@@2@@1@AEAA_NXZ@@Z 0000000180087bf0 f i libucrtd:output.obj
 0001:00086db0       ??$extract_argument_from_va_list@PEAUansi_string@?1??type_case_Z@?$output_processor@_WV?$string_output_adapter@_W@__crt_stdio_output@@V?$positional_parameter_base@_WV?$string_output_adapter@_W@__crt_stdio_output@@@2@@__crt_stdio_output@@AEAA_NXZ@PEAU1?1??234@AEAA_NXZ@@?$standard_base@_WV?$string_output_adapter@_W@__crt_stdio_output@@@__crt_stdio_output@@IEAA_NAEAPEAUansi_string@?1??type_case_Z@?$output_processor@_WV?$string_output_adapter@_W@__crt_stdio_output@@V?$positional_parameter_base@_WV?$string_output_adapter@_W@__crt_stdio_output@@@2@@1@AEAA_NXZ@@Z 0000000180087db0 f i libucrtd:output.obj
 0001:00086de0       ??$extract_argument_from_va_list@PEAUansi_string@?1??type_case_Z@?$output_processor@_WV?$string_output_adapter@_W@__crt_stdio_output@@V?$standard_base@_WV?$string_output_adapter@_W@__crt_stdio_output@@@2@@__crt_stdio_output@@AEAA_NXZ@PEAU1?1??234@AEAA_NXZ@@?$standard_base@_WV?$string_output_adapter@_W@__crt_stdio_output@@@__crt_stdio_output@@IEAA_NAEAPEAUansi_string@?1??type_case_Z@?$output_processor@_WV?$string_output_adapter@_W@__crt_stdio_output@@V?$standard_base@_WV?$string_output_adapter@_W@__crt_stdio_output@@@2@@1@AEAA_NXZ@@Z 0000000180087de0 f i libucrtd:output.obj
 0001:00086e10       ??$extract_argument_from_va_list@PEAXPEAX@?$positional_parameter_base@DV?$stream_output_adapter@D@__crt_stdio_output@@@__crt_stdio_output@@IEAA_NAEAPEAX@Z 0000000180087e10 f i libucrtd:output.obj
 0001:00086fd0       ??$extract_argument_from_va_list@PEAXPEAX@?$positional_parameter_base@DV?$string_output_adapter@D@__crt_stdio_output@@@__crt_stdio_output@@IEAA_NAEAPEAX@Z 0000000180087fd0 f i libucrtd:output.obj
 0001:00087190       ??$extract_argument_from_va_list@PEAXPEAX@?$positional_parameter_base@_WV?$stream_output_adapter@_W@__crt_stdio_output@@@__crt_stdio_output@@IEAA_NAEAPEAX@Z 0000000180088190 f i libucrtd:output.obj
 0001:00087350       ??$extract_argument_from_va_list@PEAXPEAX@?$positional_parameter_base@_WV?$string_output_adapter@_W@__crt_stdio_output@@@__crt_stdio_output@@IEAA_NAEAPEAX@Z 0000000180088350 f i libucrtd:output.obj
 0001:00087510       ??$extract_argument_from_va_list@PEAXPEAX@?$standard_base@DV?$stream_output_adapter@D@__crt_stdio_output@@@__crt_stdio_output@@IEAA_NAEAPEAX@Z 0000000180088510 f i libucrtd:output.obj
 0001:00087540       ??$extract_argument_from_va_list@PEAXPEAX@?$standard_base@DV?$string_output_adapter@D@__crt_stdio_output@@@__crt_stdio_output@@IEAA_NAEAPEAX@Z 0000000180088540 f i libucrtd:output.obj
 0001:00087570       ??$extract_argument_from_va_list@PEAXPEAX@?$standard_base@_WV?$stream_output_adapter@_W@__crt_stdio_output@@@__crt_stdio_output@@IEAA_NAEAPEAX@Z 0000000180088570 f i libucrtd:output.obj
 0001:000875a0       ??$extract_argument_from_va_list@PEAXPEAX@?$standard_base@_WV?$string_output_adapter@_W@__crt_stdio_output@@@__crt_stdio_output@@IEAA_NAEAPEAX@Z 00000001800885a0 f i libucrtd:output.obj
 0001:000875d0       ??$extract_argument_from_va_list@U_CRT_DOUBLE@@U1@@?$positional_parameter_base@DV?$stream_output_adapter@D@__crt_stdio_output@@@__crt_stdio_output@@IEAA_NAEAU_CRT_DOUBLE@@@Z 00000001800885d0 f i libucrtd:output.obj
 0001:000877f0       ??$extract_argument_from_va_list@U_CRT_DOUBLE@@U1@@?$positional_parameter_base@DV?$string_output_adapter@D@__crt_stdio_output@@@__crt_stdio_output@@IEAA_NAEAU_CRT_DOUBLE@@@Z 00000001800887f0 f i libucrtd:output.obj
 0001:00087a10       ??$extract_argument_from_va_list@U_CRT_DOUBLE@@U1@@?$positional_parameter_base@_WV?$stream_output_adapter@_W@__crt_stdio_output@@@__crt_stdio_output@@IEAA_NAEAU_CRT_DOUBLE@@@Z 0000000180088a10 f i libucrtd:output.obj
 0001:00087c30       ??$extract_argument_from_va_list@U_CRT_DOUBLE@@U1@@?$positional_parameter_base@_WV?$string_output_adapter@_W@__crt_stdio_output@@@__crt_stdio_output@@IEAA_NAEAU_CRT_DOUBLE@@@Z 0000000180088c30 f i libucrtd:output.obj
 0001:00087e50       ??$extract_argument_from_va_list@U_CRT_DOUBLE@@U1@@?$standard_base@DV?$stream_output_adapter@D@__crt_stdio_output@@@__crt_stdio_output@@IEAA_NAEAU_CRT_DOUBLE@@@Z 0000000180088e50 f i libucrtd:output.obj
 0001:00087ea0       ??$extract_argument_from_va_list@U_CRT_DOUBLE@@U1@@?$standard_base@DV?$string_output_adapter@D@__crt_stdio_output@@@__crt_stdio_output@@IEAA_NAEAU_CRT_DOUBLE@@@Z 0000000180088ea0 f i libucrtd:output.obj
 0001:00087ef0       ??$extract_argument_from_va_list@U_CRT_DOUBLE@@U1@@?$standard_base@_WV?$stream_output_adapter@_W@__crt_stdio_output@@@__crt_stdio_output@@IEAA_NAEAU_CRT_DOUBLE@@@Z 0000000180088ef0 f i libucrtd:output.obj
 0001:00087f40       ??$extract_argument_from_va_list@U_CRT_DOUBLE@@U1@@?$standard_base@_WV?$string_output_adapter@_W@__crt_stdio_output@@@__crt_stdio_output@@IEAA_NAEAU_CRT_DOUBLE@@@Z 0000000180088f40 f i libucrtd:output.obj
 0001:00087f90       ??$extract_argument_from_va_list@_J_J@?$positional_parameter_base@DV?$stream_output_adapter@D@__crt_stdio_output@@@__crt_stdio_output@@IEAA_NAEA_J@Z 0000000180088f90 f i libucrtd:output.obj
 0001:00088150       ??$extract_argument_from_va_list@_J_J@?$positional_parameter_base@DV?$string_output_adapter@D@__crt_stdio_output@@@__crt_stdio_output@@IEAA_NAEA_J@Z 0000000180089150 f i libucrtd:output.obj
 0001:00088310       ??$extract_argument_from_va_list@_J_J@?$positional_parameter_base@_WV?$stream_output_adapter@_W@__crt_stdio_output@@@__crt_stdio_output@@IEAA_NAEA_J@Z 0000000180089310 f i libucrtd:output.obj
 0001:000884d0       ??$extract_argument_from_va_list@_J_J@?$positional_parameter_base@_WV?$string_output_adapter@_W@__crt_stdio_output@@@__crt_stdio_output@@IEAA_NAEA_J@Z 00000001800894d0 f i libucrtd:output.obj
 0001:00088690       ??$extract_argument_from_va_list@_J_J@?$standard_base@DV?$stream_output_adapter@D@__crt_stdio_output@@@__crt_stdio_output@@IEAA_NAEA_J@Z 0000000180089690 f i libucrtd:output.obj
 0001:000886c0       ??$extract_argument_from_va_list@_J_J@?$standard_base@DV?$string_output_adapter@D@__crt_stdio_output@@@__crt_stdio_output@@IEAA_NAEA_J@Z 00000001800896c0 f i libucrtd:output.obj
 0001:000886f0       ??$extract_argument_from_va_list@_J_J@?$standard_base@_WV?$stream_output_adapter@_W@__crt_stdio_output@@@__crt_stdio_output@@IEAA_NAEA_J@Z 00000001800896f0 f i libucrtd:output.obj
 0001:00088720       ??$extract_argument_from_va_list@_J_J@?$standard_base@_WV?$string_output_adapter@_W@__crt_stdio_output@@@__crt_stdio_output@@IEAA_NAEA_J@Z 0000000180089720 f i libucrtd:output.obj
 0001:00088750       ??$extract_argument_from_va_list@_K_J@?$positional_parameter_base@DV?$stream_output_adapter@D@__crt_stdio_output@@@__crt_stdio_output@@IEAA_NAEA_J@Z 0000000180089750 f i libucrtd:output.obj
 0001:00088910       ??$extract_argument_from_va_list@_K_J@?$positional_parameter_base@DV?$string_output_adapter@D@__crt_stdio_output@@@__crt_stdio_output@@IEAA_NAEA_J@Z 0000000180089910 f i libucrtd:output.obj
 0001:00088ad0       ??$extract_argument_from_va_list@_K_J@?$positional_parameter_base@_WV?$stream_output_adapter@_W@__crt_stdio_output@@@__crt_stdio_output@@IEAA_NAEA_J@Z 0000000180089ad0 f i libucrtd:output.obj
 0001:00088c90       ??$extract_argument_from_va_list@_K_J@?$positional_parameter_base@_WV?$string_output_adapter@_W@__crt_stdio_output@@@__crt_stdio_output@@IEAA_NAEA_J@Z 0000000180089c90 f i libucrtd:output.obj
 0001:00088e50       ??$extract_argument_from_va_list@_K_J@?$standard_base@DV?$stream_output_adapter@D@__crt_stdio_output@@@__crt_stdio_output@@IEAA_NAEA_J@Z 0000000180089e50 f i libucrtd:output.obj
 0001:00088e80       ??$extract_argument_from_va_list@_K_J@?$standard_base@DV?$string_output_adapter@D@__crt_stdio_output@@@__crt_stdio_output@@IEAA_NAEA_J@Z 0000000180089e80 f i libucrtd:output.obj
 0001:00088eb0       ??$extract_argument_from_va_list@_K_J@?$standard_base@_WV?$stream_output_adapter@_W@__crt_stdio_output@@@__crt_stdio_output@@IEAA_NAEA_J@Z 0000000180089eb0 f i libucrtd:output.obj
 0001:00088ee0       ??$extract_argument_from_va_list@_K_J@?$standard_base@_WV?$string_output_adapter@_W@__crt_stdio_output@@@__crt_stdio_output@@IEAA_NAEA_J@Z 0000000180089ee0 f i libucrtd:output.obj
 0001:00088f10       ??$extract_argument_from_va_list@_W_W@?$positional_parameter_base@DV?$stream_output_adapter@D@__crt_stdio_output@@@__crt_stdio_output@@IEAA_NAEA_W@Z 0000000180089f10 f i libucrtd:output.obj
 0001:000890d0       ??$extract_argument_from_va_list@_W_W@?$positional_parameter_base@DV?$string_output_adapter@D@__crt_stdio_output@@@__crt_stdio_output@@IEAA_NAEA_W@Z 000000018008a0d0 f i libucrtd:output.obj
 0001:00089290       ??$extract_argument_from_va_list@_W_W@?$positional_parameter_base@_WV?$stream_output_adapter@_W@__crt_stdio_output@@@__crt_stdio_output@@IEAA_NAEA_W@Z 000000018008a290 f i libucrtd:output.obj
 0001:00089450       ??$extract_argument_from_va_list@_W_W@?$positional_parameter_base@_WV?$string_output_adapter@_W@__crt_stdio_output@@@__crt_stdio_output@@IEAA_NAEA_W@Z 000000018008a450 f i libucrtd:output.obj
 0001:00089610       ??$extract_argument_from_va_list@_W_W@?$standard_base@DV?$stream_output_adapter@D@__crt_stdio_output@@@__crt_stdio_output@@IEAA_NAEA_W@Z 000000018008a610 f i libucrtd:output.obj
 0001:00089640       ??$extract_argument_from_va_list@_W_W@?$standard_base@DV?$string_output_adapter@D@__crt_stdio_output@@@__crt_stdio_output@@IEAA_NAEA_W@Z 000000018008a640 f i libucrtd:output.obj
 0001:00089670       ??$extract_argument_from_va_list@_W_W@?$standard_base@_WV?$stream_output_adapter@_W@__crt_stdio_output@@@__crt_stdio_output@@IEAA_NAEA_W@Z 000000018008a670 f i libucrtd:output.obj
 0001:000896a0       ??$extract_argument_from_va_list@_W_W@?$standard_base@_WV?$string_output_adapter@_W@__crt_stdio_output@@@__crt_stdio_output@@IEAA_NAEA_W@Z 000000018008a6a0 f i libucrtd:output.obj
 0001:000896d0       ??$get_parameter_type@D@?$positional_parameter_base@DV?$stream_output_adapter@D@__crt_stdio_output@@@__crt_stdio_output@@CA?AW4parameter_type@01@PEAD@Z 000000018008a6d0 f i libucrtd:output.obj
 0001:000896e0       ??$get_parameter_type@D@?$positional_parameter_base@DV?$string_output_adapter@D@__crt_stdio_output@@@__crt_stdio_output@@CA?AW4parameter_type@01@PEAD@Z 000000018008a6e0 f i libucrtd:output.obj
 0001:000896f0       ??$get_parameter_type@D@?$positional_parameter_base@_WV?$stream_output_adapter@_W@__crt_stdio_output@@@__crt_stdio_output@@CA?AW4parameter_type@01@PEAD@Z 000000018008a6f0 f i libucrtd:output.obj
 0001:00089700       ??$get_parameter_type@D@?$positional_parameter_base@_WV?$string_output_adapter@_W@__crt_stdio_output@@@__crt_stdio_output@@CA?AW4parameter_type@01@PEAD@Z 000000018008a700 f i libucrtd:output.obj
 0001:00089710       ??$get_parameter_type@Uansi_string@?1??type_case_Z@?$output_processor@DV?$stream_output_adapter@D@__crt_stdio_output@@V?$positional_parameter_base@DV?$stream_output_adapter@D@__crt_stdio_output@@@2@@__crt_stdio_output@@AEAA_NXZ@@?$positional_parameter_base@DV?$stream_output_adapter@D@__crt_stdio_output@@@__crt_stdio_output@@CA?AW4parameter_type@01@PEAUansi_string@?1??type_case_Z@?$output_processor@DV?$stream_output_adapter@D@__crt_stdio_output@@V?$positional_parameter_base@DV?$stream_output_adapter@D@__crt_stdio_output@@@2@@1@AEAA_NXZ@@Z 000000018008a710 f i libucrtd:output.obj
 0001:00089720       ??$get_parameter_type@Uansi_string@?1??type_case_Z@?$output_processor@DV?$string_output_adapter@D@__crt_stdio_output@@V?$positional_parameter_base@DV?$string_output_adapter@D@__crt_stdio_output@@@2@@__crt_stdio_output@@AEAA_NXZ@@?$positional_parameter_base@DV?$string_output_adapter@D@__crt_stdio_output@@@__crt_stdio_output@@CA?AW4parameter_type@01@PEAUansi_string@?1??type_case_Z@?$output_processor@DV?$string_output_adapter@D@__crt_stdio_output@@V?$positional_parameter_base@DV?$string_output_adapter@D@__crt_stdio_output@@@2@@1@AEAA_NXZ@@Z 000000018008a720 f i libucrtd:output.obj
 0001:00089730       ??$get_parameter_type@Uansi_string@?1??type_case_Z@?$output_processor@_WV?$stream_output_adapter@_W@__crt_stdio_output@@V?$positional_parameter_base@_WV?$stream_output_adapter@_W@__crt_stdio_output@@@2@@__crt_stdio_output@@AEAA_NXZ@@?$positional_parameter_base@_WV?$stream_output_adapter@_W@__crt_stdio_output@@@__crt_stdio_output@@CA?AW4parameter_type@01@PEAUansi_string@?1??type_case_Z@?$output_processor@_WV?$stream_output_adapter@_W@__crt_stdio_output@@V?$positional_parameter_base@_WV?$stream_output_adapter@_W@__crt_stdio_output@@@2@@1@AEAA_NXZ@@Z 000000018008a730 f i libucrtd:output.obj
 0001:00089740       ??$get_parameter_type@Uansi_string@?1??type_case_Z@?$output_processor@_WV?$string_output_adapter@_W@__crt_stdio_output@@V?$positional_parameter_base@_WV?$string_output_adapter@_W@__crt_stdio_output@@@2@@__crt_stdio_output@@AEAA_NXZ@@?$positional_parameter_base@_WV?$string_output_adapter@_W@__crt_stdio_output@@@__crt_stdio_output@@CA?AW4parameter_type@01@PEAUansi_string@?1??type_case_Z@?$output_processor@_WV?$string_output_adapter@_W@__crt_stdio_output@@V?$positional_parameter_base@_WV?$string_output_adapter@_W@__crt_stdio_output@@@2@@1@AEAA_NXZ@@Z 000000018008a740 f i libucrtd:output.obj
 0001:00089750       ??$get_parameter_type@X@?$positional_parameter_base@DV?$stream_output_adapter@D@__crt_stdio_output@@@__crt_stdio_output@@CA?AW4parameter_type@01@PEAX@Z 000000018008a750 f i libucrtd:output.obj
 0001:00089760       ??$get_parameter_type@X@?$positional_parameter_base@DV?$string_output_adapter@D@__crt_stdio_output@@@__crt_stdio_output@@CA?AW4parameter_type@01@PEAX@Z 000000018008a760 f i libucrtd:output.obj
 0001:00089770       ??$get_parameter_type@X@?$positional_parameter_base@_WV?$stream_output_adapter@_W@__crt_stdio_output@@@__crt_stdio_output@@CA?AW4parameter_type@01@PEAX@Z 000000018008a770 f i libucrtd:output.obj
 0001:00089780       ??$get_parameter_type@X@?$positional_parameter_base@_WV?$string_output_adapter@_W@__crt_stdio_output@@@__crt_stdio_output@@CA?AW4parameter_type@01@PEAX@Z 000000018008a780 f i libucrtd:output.obj
 0001:00089790       ??$is_character_specifier@D@?$positional_parameter_base@DV?$stream_output_adapter@D@__crt_stdio_output@@@__crt_stdio_output@@CA_ND@Z 000000018008a790 f i libucrtd:output.obj
 0001:000897d0       ??$is_character_specifier@D@?$positional_parameter_base@DV?$string_output_adapter@D@__crt_stdio_output@@@__crt_stdio_output@@CA_ND@Z 000000018008a7d0 f i libucrtd:output.obj
 0001:00089810       ??$is_character_specifier@_W@?$positional_parameter_base@_WV?$stream_output_adapter@_W@__crt_stdio_output@@@__crt_stdio_output@@CA_N_W@Z 000000018008a810 f i libucrtd:output.obj
 0001:00089850       ??$is_character_specifier@_W@?$positional_parameter_base@_WV?$string_output_adapter@_W@__crt_stdio_output@@@__crt_stdio_output@@CA_N_W@Z 000000018008a850 f i libucrtd:output.obj
 0001:00089890       ??$is_integral_specifier@D@?$positional_parameter_base@DV?$stream_output_adapter@D@__crt_stdio_output@@@__crt_stdio_output@@CA_ND@Z 000000018008a890 f i libucrtd:output.obj
 0001:00089900       ??$is_integral_specifier@D@?$positional_parameter_base@DV?$string_output_adapter@D@__crt_stdio_output@@@__crt_stdio_output@@CA_ND@Z 000000018008a900 f i libucrtd:output.obj
 0001:00089970       ??$is_integral_specifier@_W@?$positional_parameter_base@_WV?$stream_output_adapter@_W@__crt_stdio_output@@@__crt_stdio_output@@CA_N_W@Z 000000018008a970 f i libucrtd:output.obj
 0001:000899e0       ??$is_integral_specifier@_W@?$positional_parameter_base@_WV?$string_output_adapter@_W@__crt_stdio_output@@@__crt_stdio_output@@CA_N_W@Z 000000018008a9e0 f i libucrtd:output.obj
 0001:00089a50       ??$is_overflow_condition@K@__crt_strtox@@YA_NIK@Z 000000018008aa50 f i libucrtd:output.obj
 0001:00089ac0       ??$is_pointer_specifier@D@?$positional_parameter_base@DV?$stream_output_adapter@D@__crt_stdio_output@@@__crt_stdio_output@@CA_ND@Z 000000018008aac0 f i libucrtd:output.obj
 0001:00089af0       ??$is_pointer_specifier@D@?$positional_parameter_base@DV?$string_output_adapter@D@__crt_stdio_output@@@__crt_stdio_output@@CA_ND@Z 000000018008aaf0 f i libucrtd:output.obj
 0001:00089b20       ??$is_pointer_specifier@_W@?$positional_parameter_base@_WV?$stream_output_adapter@_W@__crt_stdio_output@@@__crt_stdio_output@@CA_N_W@Z 000000018008ab20 f i libucrtd:output.obj
 0001:00089b50       ??$is_pointer_specifier@_W@?$positional_parameter_base@_WV?$string_output_adapter@_W@__crt_stdio_output@@@__crt_stdio_output@@CA_N_W@Z 000000018008ab50 f i libucrtd:output.obj
 0001:00089b80       ??$is_string_specifier@D@?$positional_parameter_base@DV?$stream_output_adapter@D@__crt_stdio_output@@@__crt_stdio_output@@CA_ND@Z 000000018008ab80 f i libucrtd:output.obj
 0001:00089bc0       ??$is_string_specifier@D@?$positional_parameter_base@DV?$string_output_adapter@D@__crt_stdio_output@@@__crt_stdio_output@@CA_ND@Z 000000018008abc0 f i libucrtd:output.obj
 0001:00089c00       ??$is_string_specifier@_W@?$positional_parameter_base@_WV?$stream_output_adapter@_W@__crt_stdio_output@@@__crt_stdio_output@@CA_N_W@Z 000000018008ac00 f i libucrtd:output.obj
 0001:00089c40       ??$is_string_specifier@_W@?$positional_parameter_base@_WV?$string_output_adapter@_W@__crt_stdio_output@@@__crt_stdio_output@@CA_N_W@Z 000000018008ac40 f i libucrtd:output.obj
 0001:00089c80       ??$is_wide_character_specifier@D@__crt_stdio_output@@YA_N_KDW4length_modifier@0@@Z 000000018008ac80 f i libucrtd:output.obj
 0001:00089d20       ??$is_wide_character_specifier@_W@__crt_stdio_output@@YA_N_K_WW4length_modifier@0@@Z 000000018008ad20 f i libucrtd:output.obj
 0001:00089df0       ??$make_c_string_character_source@DPEAPEAD@__crt_strtox@@YA?AV?$c_string_character_source@D@0@QEBDQEAPEAD@Z 000000018008adf0 f i libucrtd:output.obj
 0001:00089e30       ??$make_c_string_character_source@_WPEAPEA_W@__crt_strtox@@YA?AV?$c_string_character_source@_W@0@QEB_WQEAPEA_W@Z 000000018008ae30 f i libucrtd:output.obj
 0001:00089e70       ??$parse_integer@KV?$c_string_character_source@D@__crt_strtox@@$0A@@__crt_strtox@@YAKAEAV__crt_cached_ptd_host@@V?$c_string_character_source@D@0@H_N@Z 000000018008ae70 f i libucrtd:output.obj
 0001:0008a2f0       ??$parse_integer@KV?$c_string_character_source@_W@__crt_strtox@@$0A@@__crt_strtox@@YAKAEAV__crt_cached_ptd_host@@V?$c_string_character_source@_W@0@H_N@Z 000000018008b2f0 f i libucrtd:output.obj
 0001:0008a770       ??$peek_va_arg@C@__crt_stdio_output@@YACPEAD@Z 000000018008b770 f i libucrtd:output.obj
 0001:0008a7d0       ??$peek_va_arg@E@__crt_stdio_output@@YAEPEAD@Z 000000018008b7d0 f i libucrtd:output.obj
 0001:0008a830       ??$peek_va_arg@F@__crt_stdio_output@@YAFPEAD@Z 000000018008b830 f i libucrtd:output.obj
 0001:0008a890       ??$peek_va_arg@G@__crt_stdio_output@@YAGPEAD@Z 000000018008b890 f i libucrtd:output.obj
 0001:0008a8f0       ??$peek_va_arg@H@__crt_stdio_output@@YAHPEAD@Z 000000018008b8f0 f i libucrtd:output.obj
 0001:0008a940       ??$peek_va_arg@I@__crt_stdio_output@@YAIPEAD@Z 000000018008b940 f i libucrtd:output.obj
 0001:0008a990       ??$peek_va_arg@PEAD@__crt_stdio_output@@YAPEADPEAD@Z 000000018008b990 f i libucrtd:output.obj
 0001:0008a9f0       ??$peek_va_arg@PEAUansi_string@?1??type_case_Z@?$output_processor@DV?$stream_output_adapter@D@__crt_stdio_output@@V?$positional_parameter_base@DV?$stream_output_adapter@D@__crt_stdio_output@@@2@@__crt_stdio_output@@AEAA_NXZ@@__crt_stdio_output@@YAPEAUansi_string@?1??type_case_Z@?$output_processor@DV?$stream_output_adapter@D@__crt_stdio_output@@V?$positional_parameter_base@DV?$stream_output_adapter@D@__crt_stdio_output@@@2@@0@AEAA_NXZ@PEAD@Z 000000018008b9f0 f i libucrtd:output.obj
 0001:0008aa50       ??$peek_va_arg@PEAUansi_string@?1??type_case_Z@?$output_processor@DV?$string_output_adapter@D@__crt_stdio_output@@V?$positional_parameter_base@DV?$string_output_adapter@D@__crt_stdio_output@@@2@@__crt_stdio_output@@AEAA_NXZ@@__crt_stdio_output@@YAPEAUansi_string@?1??type_case_Z@?$output_processor@DV?$string_output_adapter@D@__crt_stdio_output@@V?$positional_parameter_base@DV?$string_output_adapter@D@__crt_stdio_output@@@2@@0@AEAA_NXZ@PEAD@Z 000000018008ba50 f i libucrtd:output.obj
 0001:0008aab0       ??$peek_va_arg@PEAUansi_string@?1??type_case_Z@?$output_processor@_WV?$stream_output_adapter@_W@__crt_stdio_output@@V?$positional_parameter_base@_WV?$stream_output_adapter@_W@__crt_stdio_output@@@2@@__crt_stdio_output@@AEAA_NXZ@@__crt_stdio_output@@YAPEAUansi_string@?1??type_case_Z@?$output_processor@_WV?$stream_output_adapter@_W@__crt_stdio_output@@V?$positional_parameter_base@_WV?$stream_output_adapter@_W@__crt_stdio_output@@@2@@0@AEAA_NXZ@PEAD@Z 000000018008bab0 f i libucrtd:output.obj
 0001:0008ab10       ??$peek_va_arg@PEAUansi_string@?1??type_case_Z@?$output_processor@_WV?$string_output_adapter@_W@__crt_stdio_output@@V?$positional_parameter_base@_WV?$string_output_adapter@_W@__crt_stdio_output@@@2@@__crt_stdio_output@@AEAA_NXZ@@__crt_stdio_output@@YAPEAUansi_string@?1??type_case_Z@?$output_processor@_WV?$string_output_adapter@_W@__crt_stdio_output@@V?$positional_parameter_base@_WV?$string_output_adapter@_W@__crt_stdio_output@@@2@@0@AEAA_NXZ@PEAD@Z 000000018008bb10 f i libucrtd:output.obj
 0001:0008ab70       ??$peek_va_arg@PEAX@__crt_stdio_output@@YAPEAXPEAD@Z 000000018008bb70 f i libucrtd:output.obj
 0001:0008abd0       ??$peek_va_arg@U_CRT_DOUBLE@@@__crt_stdio_output@@YA?AU_CRT_DOUBLE@@PEAD@Z 000000018008bbd0 f i libucrtd:output.obj
 0001:0008ac30       ??$peek_va_arg@_J@__crt_stdio_output@@YA_JPEAD@Z 000000018008bc30 f i libucrtd:output.obj
 0001:0008ac90       ??$peek_va_arg@_K@__crt_stdio_output@@YA_KPEAD@Z 000000018008bc90 f i libucrtd:output.obj
 0001:0008acf0       ??$peek_va_arg@_W@__crt_stdio_output@@YA_WPEAD@Z 000000018008bcf0 f i libucrtd:output.obj
 0001:0008ad50       ??$puttc_nolock_internal@AEBDPEAU_iobuf@@AEAV__crt_cached_ptd_host@@@?$__crt_char_traits@D@@SAHAEBD$$QEAPEAU_iobuf@@AEAV__crt_cached_ptd_host@@@Z 000000018008bd50 f i libucrtd:output.obj
 0001:0008ad90       ??$puttc_nolock_internal@AEB_WPEAU_iobuf@@AEAV__crt_cached_ptd_host@@@?$__crt_char_traits@_W@@SAGAEB_W$$QEAPEAU_iobuf@@AEAV__crt_cached_ptd_host@@@Z 000000018008bd90 f i libucrtd:output.obj
 0001:0008add0       ??$read_va_arg@C@__crt_stdio_output@@YACAEAPEAD@Z 000000018008bdd0 f i libucrtd:output.obj
 0001:0008ae40       ??$read_va_arg@E@__crt_stdio_output@@YAEAEAPEAD@Z 000000018008be40 f i libucrtd:output.obj
 0001:0008aeb0       ??$read_va_arg@F@__crt_stdio_output@@YAFAEAPEAD@Z 000000018008beb0 f i libucrtd:output.obj
 0001:0008af20       ??$read_va_arg@G@__crt_stdio_output@@YAGAEAPEAD@Z 000000018008bf20 f i libucrtd:output.obj
 0001:0008af90       ??$read_va_arg@H@__crt_stdio_output@@YAHAEAPEAD@Z 000000018008bf90 f i libucrtd:output.obj
 0001:0008aff0       ??$read_va_arg@I@__crt_stdio_output@@YAIAEAPEAD@Z 000000018008bff0 f i libucrtd:output.obj
 0001:0008b050       ??$read_va_arg@PEAD@__crt_stdio_output@@YAPEADAEAPEAD@Z 000000018008c050 f i libucrtd:output.obj
 0001:0008b0c0       ??$read_va_arg@PEAUansi_string@?1??type_case_Z@?$output_processor@DV?$stream_output_adapter@D@__crt_stdio_output@@V?$format_validation_base@DV?$stream_output_adapter@D@__crt_stdio_output@@@2@@__crt_stdio_output@@AEAA_NXZ@@__crt_stdio_output@@YAPEAUansi_string@?1??type_case_Z@?$output_processor@DV?$stream_output_adapter@D@__crt_stdio_output@@V?$format_validation_base@DV?$stream_output_adapter@D@__crt_stdio_output@@@2@@0@AEAA_NXZ@AEAPEAD@Z 000000018008c0c0 f i libucrtd:output.obj
 0001:0008b130       ??$read_va_arg@PEAUansi_string@?1??type_case_Z@?$output_processor@DV?$stream_output_adapter@D@__crt_stdio_output@@V?$positional_parameter_base@DV?$stream_output_adapter@D@__crt_stdio_output@@@2@@__crt_stdio_output@@AEAA_NXZ@@__crt_stdio_output@@YAPEAUansi_string@?1??type_case_Z@?$output_processor@DV?$stream_output_adapter@D@__crt_stdio_output@@V?$positional_parameter_base@DV?$stream_output_adapter@D@__crt_stdio_output@@@2@@0@AEAA_NXZ@AEAPEAD@Z 000000018008c130 f i libucrtd:output.obj
 0001:0008b1a0       ??$read_va_arg@PEAUansi_string@?1??type_case_Z@?$output_processor@DV?$stream_output_adapter@D@__crt_stdio_output@@V?$standard_base@DV?$stream_output_adapter@D@__crt_stdio_output@@@2@@__crt_stdio_output@@AEAA_NXZ@@__crt_stdio_output@@YAPEAUansi_string@?1??type_case_Z@?$output_processor@DV?$stream_output_adapter@D@__crt_stdio_output@@V?$standard_base@DV?$stream_output_adapter@D@__crt_stdio_output@@@2@@0@AEAA_NXZ@AEAPEAD@Z 000000018008c1a0 f i libucrtd:output.obj
 0001:0008b210       ??$read_va_arg@PEAUansi_string@?1??type_case_Z@?$output_processor@DV?$string_output_adapter@D@__crt_stdio_output@@V?$format_validation_base@DV?$string_output_adapter@D@__crt_stdio_output@@@2@@__crt_stdio_output@@AEAA_NXZ@@__crt_stdio_output@@YAPEAUansi_string@?1??type_case_Z@?$output_processor@DV?$string_output_adapter@D@__crt_stdio_output@@V?$format_validation_base@DV?$string_output_adapter@D@__crt_stdio_output@@@2@@0@AEAA_NXZ@AEAPEAD@Z 000000018008c210 f i libucrtd:output.obj
 0001:0008b280       ??$read_va_arg@PEAUansi_string@?1??type_case_Z@?$output_processor@DV?$string_output_adapter@D@__crt_stdio_output@@V?$positional_parameter_base@DV?$string_output_adapter@D@__crt_stdio_output@@@2@@__crt_stdio_output@@AEAA_NXZ@@__crt_stdio_output@@YAPEAUansi_string@?1??type_case_Z@?$output_processor@DV?$string_output_adapter@D@__crt_stdio_output@@V?$positional_parameter_base@DV?$string_output_adapter@D@__crt_stdio_output@@@2@@0@AEAA_NXZ@AEAPEAD@Z 000000018008c280 f i libucrtd:output.obj
 0001:0008b2f0       ??$read_va_arg@PEAUansi_string@?1??type_case_Z@?$output_processor@DV?$string_output_adapter@D@__crt_stdio_output@@V?$standard_base@DV?$string_output_adapter@D@__crt_stdio_output@@@2@@__crt_stdio_output@@AEAA_NXZ@@__crt_stdio_output@@YAPEAUansi_string@?1??type_case_Z@?$output_processor@DV?$string_output_adapter@D@__crt_stdio_output@@V?$standard_base@DV?$string_output_adapter@D@__crt_stdio_output@@@2@@0@AEAA_NXZ@AEAPEAD@Z 000000018008c2f0 f i libucrtd:output.obj
 0001:0008b360       ??$read_va_arg@PEAUansi_string@?1??type_case_Z@?$output_processor@_WV?$stream_output_adapter@_W@__crt_stdio_output@@V?$format_validation_base@_WV?$stream_output_adapter@_W@__crt_stdio_output@@@2@@__crt_stdio_output@@AEAA_NXZ@@__crt_stdio_output@@YAPEAUansi_string@?1??type_case_Z@?$output_processor@_WV?$stream_output_adapter@_W@__crt_stdio_output@@V?$format_validation_base@_WV?$stream_output_adapter@_W@__crt_stdio_output@@@2@@0@AEAA_NXZ@AEAPEAD@Z 000000018008c360 f i libucrtd:output.obj
 0001:0008b3d0       ??$read_va_arg@PEAUansi_string@?1??type_case_Z@?$output_processor@_WV?$stream_output_adapter@_W@__crt_stdio_output@@V?$positional_parameter_base@_WV?$stream_output_adapter@_W@__crt_stdio_output@@@2@@__crt_stdio_output@@AEAA_NXZ@@__crt_stdio_output@@YAPEAUansi_string@?1??type_case_Z@?$output_processor@_WV?$stream_output_adapter@_W@__crt_stdio_output@@V?$positional_parameter_base@_WV?$stream_output_adapter@_W@__crt_stdio_output@@@2@@0@AEAA_NXZ@AEAPEAD@Z 000000018008c3d0 f i libucrtd:output.obj
 0001:0008b440       ??$read_va_arg@PEAUansi_string@?1??type_case_Z@?$output_processor@_WV?$stream_output_adapter@_W@__crt_stdio_output@@V?$standard_base@_WV?$stream_output_adapter@_W@__crt_stdio_output@@@2@@__crt_stdio_output@@AEAA_NXZ@@__crt_stdio_output@@YAPEAUansi_string@?1??type_case_Z@?$output_processor@_WV?$stream_output_adapter@_W@__crt_stdio_output@@V?$standard_base@_WV?$stream_output_adapter@_W@__crt_stdio_output@@@2@@0@AEAA_NXZ@AEAPEAD@Z 000000018008c440 f i libucrtd:output.obj
 0001:0008b4b0       ??$read_va_arg@PEAUansi_string@?1??type_case_Z@?$output_processor@_WV?$string_output_adapter@_W@__crt_stdio_output@@V?$format_validation_base@_WV?$string_output_adapter@_W@__crt_stdio_output@@@2@@__crt_stdio_output@@AEAA_NXZ@@__crt_stdio_output@@YAPEAUansi_string@?1??type_case_Z@?$output_processor@_WV?$string_output_adapter@_W@__crt_stdio_output@@V?$format_validation_base@_WV?$string_output_adapter@_W@__crt_stdio_output@@@2@@0@AEAA_NXZ@AEAPEAD@Z 000000018008c4b0 f i libucrtd:output.obj
 0001:0008b520       ??$read_va_arg@PEAUansi_string@?1??type_case_Z@?$output_processor@_WV?$string_output_adapter@_W@__crt_stdio_output@@V?$positional_parameter_base@_WV?$string_output_adapter@_W@__crt_stdio_output@@@2@@__crt_stdio_output@@AEAA_NXZ@@__crt_stdio_output@@YAPEAUansi_string@?1??type_case_Z@?$output_processor@_WV?$string_output_adapter@_W@__crt_stdio_output@@V?$positional_parameter_base@_WV?$string_output_adapter@_W@__crt_stdio_output@@@2@@0@AEAA_NXZ@AEAPEAD@Z 000000018008c520 f i libucrtd:output.obj
 0001:0008b590       ??$read_va_arg@PEAUansi_string@?1??type_case_Z@?$output_processor@_WV?$string_output_adapter@_W@__crt_stdio_output@@V?$standard_base@_WV?$string_output_adapter@_W@__crt_stdio_output@@@2@@__crt_stdio_output@@AEAA_NXZ@@__crt_stdio_output@@YAPEAUansi_string@?1??type_case_Z@?$output_processor@_WV?$string_output_adapter@_W@__crt_stdio_output@@V?$standard_base@_WV?$string_output_adapter@_W@__crt_stdio_output@@@2@@0@AEAA_NXZ@AEAPEAD@Z 000000018008c590 f i libucrtd:output.obj
 0001:0008b600       ??$read_va_arg@PEAX@__crt_stdio_output@@YAPEAXAEAPEAD@Z 000000018008c600 f i libucrtd:output.obj
 0001:0008b670       ??$read_va_arg@U_CRT_DOUBLE@@@__crt_stdio_output@@YA?AU_CRT_DOUBLE@@AEAPEAD@Z 000000018008c670 f i libucrtd:output.obj
 0001:0008b6e0       ??$read_va_arg@_J@__crt_stdio_output@@YA_JAEAPEAD@Z 000000018008c6e0 f i libucrtd:output.obj
 0001:0008b750       ??$read_va_arg@_K@__crt_stdio_output@@YA_KAEAPEAD@Z 000000018008c750 f i libucrtd:output.obj
 0001:0008b7c0       ??$read_va_arg@_W@__crt_stdio_output@@YA_WAEAPEAD@Z 000000018008c7c0 f i libucrtd:output.obj
 0001:0008b830       ??$scratch_count@D@formatting_buffer@__crt_stdio_output@@QEBA_KXZ 000000018008c830 f i libucrtd:output.obj
 0001:0008b850       ??$scratch_data@D@formatting_buffer@__crt_stdio_output@@QEAAPEADXZ 000000018008c850 f i libucrtd:output.obj
 0001:0008b8c0       ??$type_case_integer@$07@?$output_processor@DV?$stream_output_adapter@D@__crt_stdio_output@@V?$format_validation_base@DV?$stream_output_adapter@D@__crt_stdio_output@@@2@@__crt_stdio_output@@AEAA_N_N@Z 000000018008c8c0 f i libucrtd:output.obj
 0001:0008bd40       ??$type_case_integer@$07@?$output_processor@DV?$stream_output_adapter@D@__crt_stdio_output@@V?$positional_parameter_base@DV?$stream_output_adapter@D@__crt_stdio_output@@@2@@__crt_stdio_output@@AEAA_N_N@Z 000000018008cd40 f i libucrtd:output.obj
 0001:0008c1c0       ??$type_case_integer@$07@?$output_processor@DV?$stream_output_adapter@D@__crt_stdio_output@@V?$standard_base@DV?$stream_output_adapter@D@__crt_stdio_output@@@2@@__crt_stdio_output@@AEAA_N_N@Z 000000018008d1c0 f i libucrtd:output.obj
 0001:0008c640       ??$type_case_integer@$07@?$output_processor@DV?$string_output_adapter@D@__crt_stdio_output@@V?$format_validation_base@DV?$string_output_adapter@D@__crt_stdio_output@@@2@@__crt_stdio_output@@AEAA_N_N@Z 000000018008d640 f i libucrtd:output.obj
 0001:0008cac0       ??$type_case_integer@$07@?$output_processor@DV?$string_output_adapter@D@__crt_stdio_output@@V?$positional_parameter_base@DV?$string_output_adapter@D@__crt_stdio_output@@@2@@__crt_stdio_output@@AEAA_N_N@Z 000000018008dac0 f i libucrtd:output.obj
 0001:0008cf40       ??$type_case_integer@$07@?$output_processor@DV?$string_output_adapter@D@__crt_stdio_output@@V?$standard_base@DV?$string_output_adapter@D@__crt_stdio_output@@@2@@__crt_stdio_output@@AEAA_N_N@Z 000000018008df40 f i libucrtd:output.obj
 0001:0008d3c0       ??$type_case_integer@$07@?$output_processor@_WV?$stream_output_adapter@_W@__crt_stdio_output@@V?$format_validation_base@_WV?$stream_output_adapter@_W@__crt_stdio_output@@@2@@__crt_stdio_output@@AEAA_N_N@Z 000000018008e3c0 f i libucrtd:output.obj
 0001:0008d840       ??$type_case_integer@$07@?$output_processor@_WV?$stream_output_adapter@_W@__crt_stdio_output@@V?$positional_parameter_base@_WV?$stream_output_adapter@_W@__crt_stdio_output@@@2@@__crt_stdio_output@@AEAA_N_N@Z 000000018008e840 f i libucrtd:output.obj
 0001:0008dcc0       ??$type_case_integer@$07@?$output_processor@_WV?$stream_output_adapter@_W@__crt_stdio_output@@V?$standard_base@_WV?$stream_output_adapter@_W@__crt_stdio_output@@@2@@__crt_stdio_output@@AEAA_N_N@Z 000000018008ecc0 f i libucrtd:output.obj
 0001:0008e140       ??$type_case_integer@$07@?$output_processor@_WV?$string_output_adapter@_W@__crt_stdio_output@@V?$format_validation_base@_WV?$string_output_adapter@_W@__crt_stdio_output@@@2@@__crt_stdio_output@@AEAA_N_N@Z 000000018008f140 f i libucrtd:output.obj
 0001:0008e5c0       ??$type_case_integer@$07@?$output_processor@_WV?$string_output_adapter@_W@__crt_stdio_output@@V?$positional_parameter_base@_WV?$string_output_adapter@_W@__crt_stdio_output@@@2@@__crt_stdio_output@@AEAA_N_N@Z 000000018008f5c0 f i libucrtd:output.obj
 0001:0008ea40       ??$type_case_integer@$07@?$output_processor@_WV?$string_output_adapter@_W@__crt_stdio_output@@V?$standard_base@_WV?$string_output_adapter@_W@__crt_stdio_output@@@2@@__crt_stdio_output@@AEAA_N_N@Z 000000018008fa40 f i libucrtd:output.obj
 0001:0008eec0       ??$type_case_integer@$09@?$output_processor@DV?$stream_output_adapter@D@__crt_stdio_output@@V?$format_validation_base@DV?$stream_output_adapter@D@__crt_stdio_output@@@2@@__crt_stdio_output@@AEAA_N_N@Z 000000018008fec0 f i libucrtd:output.obj
 0001:0008f340       ??$type_case_integer@$09@?$output_processor@DV?$stream_output_adapter@D@__crt_stdio_output@@V?$positional_parameter_base@DV?$stream_output_adapter@D@__crt_stdio_output@@@2@@__crt_stdio_output@@AEAA_N_N@Z 0000000180090340 f i libucrtd:output.obj
 0001:0008f7c0       ??$type_case_integer@$09@?$output_processor@DV?$stream_output_adapter@D@__crt_stdio_output@@V?$standard_base@DV?$stream_output_adapter@D@__crt_stdio_output@@@2@@__crt_stdio_output@@AEAA_N_N@Z 00000001800907c0 f i libucrtd:output.obj
 0001:0008fc40       ??$type_case_integer@$09@?$output_processor@DV?$string_output_adapter@D@__crt_stdio_output@@V?$format_validation_base@DV?$string_output_adapter@D@__crt_stdio_output@@@2@@__crt_stdio_output@@AEAA_N_N@Z 0000000180090c40 f i libucrtd:output.obj
 0001:000900c0       ??$type_case_integer@$09@?$output_processor@DV?$string_output_adapter@D@__crt_stdio_output@@V?$positional_parameter_base@DV?$string_output_adapter@D@__crt_stdio_output@@@2@@__crt_stdio_output@@AEAA_N_N@Z 00000001800910c0 f i libucrtd:output.obj
 0001:00090540       ??$type_case_integer@$09@?$output_processor@DV?$string_output_adapter@D@__crt_stdio_output@@V?$standard_base@DV?$string_output_adapter@D@__crt_stdio_output@@@2@@__crt_stdio_output@@AEAA_N_N@Z 0000000180091540 f i libucrtd:output.obj
 0001:000909c0       ??$type_case_integer@$09@?$output_processor@_WV?$stream_output_adapter@_W@__crt_stdio_output@@V?$format_validation_base@_WV?$stream_output_adapter@_W@__crt_stdio_output@@@2@@__crt_stdio_output@@AEAA_N_N@Z 00000001800919c0 f i libucrtd:output.obj
 0001:00090e40       ??$type_case_integer@$09@?$output_processor@_WV?$stream_output_adapter@_W@__crt_stdio_output@@V?$positional_parameter_base@_WV?$stream_output_adapter@_W@__crt_stdio_output@@@2@@__crt_stdio_output@@AEAA_N_N@Z 0000000180091e40 f i libucrtd:output.obj
 0001:000912c0       ??$type_case_integer@$09@?$output_processor@_WV?$stream_output_adapter@_W@__crt_stdio_output@@V?$standard_base@_WV?$stream_output_adapter@_W@__crt_stdio_output@@@2@@__crt_stdio_output@@AEAA_N_N@Z 00000001800922c0 f i libucrtd:output.obj
 0001:00091740       ??$type_case_integer@$09@?$output_processor@_WV?$string_output_adapter@_W@__crt_stdio_output@@V?$format_validation_base@_WV?$string_output_adapter@_W@__crt_stdio_output@@@2@@__crt_stdio_output@@AEAA_N_N@Z 0000000180092740 f i libucrtd:output.obj
 0001:00091bc0       ??$type_case_integer@$09@?$output_processor@_WV?$string_output_adapter@_W@__crt_stdio_output@@V?$positional_parameter_base@_WV?$string_output_adapter@_W@__crt_stdio_output@@@2@@__crt_stdio_output@@AEAA_N_N@Z 0000000180092bc0 f i libucrtd:output.obj
 0001:00092040       ??$type_case_integer@$09@?$output_processor@_WV?$string_output_adapter@_W@__crt_stdio_output@@V?$standard_base@_WV?$string_output_adapter@_W@__crt_stdio_output@@@2@@__crt_stdio_output@@AEAA_N_N@Z 0000000180093040 f i libucrtd:output.obj
 0001:000924c0       ??$type_case_integer@$0BA@@?$output_processor@DV?$stream_output_adapter@D@__crt_stdio_output@@V?$format_validation_base@DV?$stream_output_adapter@D@__crt_stdio_output@@@2@@__crt_stdio_output@@AEAA_N_N@Z 00000001800934c0 f i libucrtd:output.obj
 0001:00092940       ??$type_case_integer@$0BA@@?$output_processor@DV?$stream_output_adapter@D@__crt_stdio_output@@V?$positional_parameter_base@DV?$stream_output_adapter@D@__crt_stdio_output@@@2@@__crt_stdio_output@@AEAA_N_N@Z 0000000180093940 f i libucrtd:output.obj
 0001:00092dc0       ??$type_case_integer@$0BA@@?$output_processor@DV?$stream_output_adapter@D@__crt_stdio_output@@V?$standard_base@DV?$stream_output_adapter@D@__crt_stdio_output@@@2@@__crt_stdio_output@@AEAA_N_N@Z 0000000180093dc0 f i libucrtd:output.obj
 0001:00093240       ??$type_case_integer@$0BA@@?$output_processor@DV?$string_output_adapter@D@__crt_stdio_output@@V?$format_validation_base@DV?$string_output_adapter@D@__crt_stdio_output@@@2@@__crt_stdio_output@@AEAA_N_N@Z 0000000180094240 f i libucrtd:output.obj
 0001:000936c0       ??$type_case_integer@$0BA@@?$output_processor@DV?$string_output_adapter@D@__crt_stdio_output@@V?$positional_parameter_base@DV?$string_output_adapter@D@__crt_stdio_output@@@2@@__crt_stdio_output@@AEAA_N_N@Z 00000001800946c0 f i libucrtd:output.obj
 0001:00093b40       ??$type_case_integer@$0BA@@?$output_processor@DV?$string_output_adapter@D@__crt_stdio_output@@V?$standard_base@DV?$string_output_adapter@D@__crt_stdio_output@@@2@@__crt_stdio_output@@AEAA_N_N@Z 0000000180094b40 f i libucrtd:output.obj
 0001:00093fc0       ??$type_case_integer@$0BA@@?$output_processor@_WV?$stream_output_adapter@_W@__crt_stdio_output@@V?$format_validation_base@_WV?$stream_output_adapter@_W@__crt_stdio_output@@@2@@__crt_stdio_output@@AEAA_N_N@Z 0000000180094fc0 f i libucrtd:output.obj
 0001:00094440       ??$type_case_integer@$0BA@@?$output_processor@_WV?$stream_output_adapter@_W@__crt_stdio_output@@V?$positional_parameter_base@_WV?$stream_output_adapter@_W@__crt_stdio_output@@@2@@__crt_stdio_output@@AEAA_N_N@Z 0000000180095440 f i libucrtd:output.obj
 0001:000948c0       ??$type_case_integer@$0BA@@?$output_processor@_WV?$stream_output_adapter@_W@__crt_stdio_output@@V?$standard_base@_WV?$stream_output_adapter@_W@__crt_stdio_output@@@2@@__crt_stdio_output@@AEAA_N_N@Z 00000001800958c0 f i libucrtd:output.obj
 0001:00094d40       ??$type_case_integer@$0BA@@?$output_processor@_WV?$string_output_adapter@_W@__crt_stdio_output@@V?$format_validation_base@_WV?$string_output_adapter@_W@__crt_stdio_output@@@2@@__crt_stdio_output@@AEAA_N_N@Z 0000000180095d40 f i libucrtd:output.obj
 0001:000951c0       ??$type_case_integer@$0BA@@?$output_processor@_WV?$string_output_adapter@_W@__crt_stdio_output@@V?$positional_parameter_base@_WV?$string_output_adapter@_W@__crt_stdio_output@@@2@@__crt_stdio_output@@AEAA_N_N@Z 00000001800961c0 f i libucrtd:output.obj
 0001:00095640       ??$type_case_integer@$0BA@@?$output_processor@_WV?$string_output_adapter@_W@__crt_stdio_output@@V?$standard_base@_WV?$string_output_adapter@_W@__crt_stdio_output@@@2@@__crt_stdio_output@@AEAA_N_N@Z 0000000180096640 f i libucrtd:output.obj
 0001:00095ac0       ??$type_case_integer_parse_into_buffer@I$07@?$output_processor@DV?$stream_output_adapter@D@__crt_stdio_output@@V?$format_validation_base@DV?$stream_output_adapter@D@__crt_stdio_output@@@2@@__crt_stdio_output@@AEAAXI_N@Z 0000000180096ac0 f i libucrtd:output.obj
 0001:00095bf0       ??$type_case_integer_parse_into_buffer@I$07@?$output_processor@DV?$stream_output_adapter@D@__crt_stdio_output@@V?$positional_parameter_base@DV?$stream_output_adapter@D@__crt_stdio_output@@@2@@__crt_stdio_output@@AEAAXI_N@Z 0000000180096bf0 f i libucrtd:output.obj
 0001:00095d20       ??$type_case_integer_parse_into_buffer@I$07@?$output_processor@DV?$stream_output_adapter@D@__crt_stdio_output@@V?$standard_base@DV?$stream_output_adapter@D@__crt_stdio_output@@@2@@__crt_stdio_output@@AEAAXI_N@Z 0000000180096d20 f i libucrtd:output.obj
 0001:00095e50       ??$type_case_integer_parse_into_buffer@I$07@?$output_processor@DV?$string_output_adapter@D@__crt_stdio_output@@V?$format_validation_base@DV?$string_output_adapter@D@__crt_stdio_output@@@2@@__crt_stdio_output@@AEAAXI_N@Z 0000000180096e50 f i libucrtd:output.obj
 0001:00095f80       ??$type_case_integer_parse_into_buffer@I$07@?$output_processor@DV?$string_output_adapter@D@__crt_stdio_output@@V?$positional_parameter_base@DV?$string_output_adapter@D@__crt_stdio_output@@@2@@__crt_stdio_output@@AEAAXI_N@Z 0000000180096f80 f i libucrtd:output.obj
 0001:000960b0       ??$type_case_integer_parse_into_buffer@I$07@?$output_processor@DV?$string_output_adapter@D@__crt_stdio_output@@V?$standard_base@DV?$string_output_adapter@D@__crt_stdio_output@@@2@@__crt_stdio_output@@AEAAXI_N@Z 00000001800970b0 f i libucrtd:output.obj
 0001:000961e0       ??$type_case_integer_parse_into_buffer@I$07@?$output_processor@_WV?$stream_output_adapter@_W@__crt_stdio_output@@V?$format_validation_base@_WV?$stream_output_adapter@_W@__crt_stdio_output@@@2@@__crt_stdio_output@@AEAAXI_N@Z 00000001800971e0 f i libucrtd:output.obj
 0001:00096320       ??$type_case_integer_parse_into_buffer@I$07@?$output_processor@_WV?$stream_output_adapter@_W@__crt_stdio_output@@V?$positional_parameter_base@_WV?$stream_output_adapter@_W@__crt_stdio_output@@@2@@__crt_stdio_output@@AEAAXI_N@Z 0000000180097320 f i libucrtd:output.obj
 0001:00096460       ??$type_case_integer_parse_into_buffer@I$07@?$output_processor@_WV?$stream_output_adapter@_W@__crt_stdio_output@@V?$standard_base@_WV?$stream_output_adapter@_W@__crt_stdio_output@@@2@@__crt_stdio_output@@AEAAXI_N@Z 0000000180097460 f i libucrtd:output.obj
 0001:000965a0       ??$type_case_integer_parse_into_buffer@I$07@?$output_processor@_WV?$string_output_adapter@_W@__crt_stdio_output@@V?$format_validation_base@_WV?$string_output_adapter@_W@__crt_stdio_output@@@2@@__crt_stdio_output@@AEAAXI_N@Z 00000001800975a0 f i libucrtd:output.obj
 0001:000966e0       ??$type_case_integer_parse_into_buffer@I$07@?$output_processor@_WV?$string_output_adapter@_W@__crt_stdio_output@@V?$positional_parameter_base@_WV?$string_output_adapter@_W@__crt_stdio_output@@@2@@__crt_stdio_output@@AEAAXI_N@Z 00000001800976e0 f i libucrtd:output.obj
 0001:00096820       ??$type_case_integer_parse_into_buffer@I$07@?$output_processor@_WV?$string_output_adapter@_W@__crt_stdio_output@@V?$standard_base@_WV?$string_output_adapter@_W@__crt_stdio_output@@@2@@__crt_stdio_output@@AEAAXI_N@Z 0000000180097820 f i libucrtd:output.obj
 0001:00096960       ??$type_case_integer_parse_into_buffer@I$09@?$output_processor@DV?$stream_output_adapter@D@__crt_stdio_output@@V?$format_validation_base@DV?$stream_output_adapter@D@__crt_stdio_output@@@2@@__crt_stdio_output@@AEAAXI_N@Z 0000000180097960 f i libucrtd:output.obj
 0001:00096a90       ??$type_case_integer_parse_into_buffer@I$09@?$output_processor@DV?$stream_output_adapter@D@__crt_stdio_output@@V?$positional_parameter_base@DV?$stream_output_adapter@D@__crt_stdio_output@@@2@@__crt_stdio_output@@AEAAXI_N@Z 0000000180097a90 f i libucrtd:output.obj
 0001:00096bc0       ??$type_case_integer_parse_into_buffer@I$09@?$output_processor@DV?$stream_output_adapter@D@__crt_stdio_output@@V?$standard_base@DV?$stream_output_adapter@D@__crt_stdio_output@@@2@@__crt_stdio_output@@AEAAXI_N@Z 0000000180097bc0 f i libucrtd:output.obj
 0001:00096cf0       ??$type_case_integer_parse_into_buffer@I$09@?$output_processor@DV?$string_output_adapter@D@__crt_stdio_output@@V?$format_validation_base@DV?$string_output_adapter@D@__crt_stdio_output@@@2@@__crt_stdio_output@@AEAAXI_N@Z 0000000180097cf0 f i libucrtd:output.obj
 0001:00096e20       ??$type_case_integer_parse_into_buffer@I$09@?$output_processor@DV?$string_output_adapter@D@__crt_stdio_output@@V?$positional_parameter_base@DV?$string_output_adapter@D@__crt_stdio_output@@@2@@__crt_stdio_output@@AEAAXI_N@Z 0000000180097e20 f i libucrtd:output.obj
 0001:00096f50       ??$type_case_integer_parse_into_buffer@I$09@?$output_processor@DV?$string_output_adapter@D@__crt_stdio_output@@V?$standard_base@DV?$string_output_adapter@D@__crt_stdio_output@@@2@@__crt_stdio_output@@AEAAXI_N@Z 0000000180097f50 f i libucrtd:output.obj
 0001:00097080       ??$type_case_integer_parse_into_buffer@I$09@?$output_processor@_WV?$stream_output_adapter@_W@__crt_stdio_output@@V?$format_validation_base@_WV?$stream_output_adapter@_W@__crt_stdio_output@@@2@@__crt_stdio_output@@AEAAXI_N@Z 0000000180098080 f i libucrtd:output.obj
 0001:000971c0       ??$type_case_integer_parse_into_buffer@I$09@?$output_processor@_WV?$stream_output_adapter@_W@__crt_stdio_output@@V?$positional_parameter_base@_WV?$stream_output_adapter@_W@__crt_stdio_output@@@2@@__crt_stdio_output@@AEAAXI_N@Z 00000001800981c0 f i libucrtd:output.obj
 0001:00097300       ??$type_case_integer_parse_into_buffer@I$09@?$output_processor@_WV?$stream_output_adapter@_W@__crt_stdio_output@@V?$standard_base@_WV?$stream_output_adapter@_W@__crt_stdio_output@@@2@@__crt_stdio_output@@AEAAXI_N@Z 0000000180098300 f i libucrtd:output.obj
 0001:00097440       ??$type_case_integer_parse_into_buffer@I$09@?$output_processor@_WV?$string_output_adapter@_W@__crt_stdio_output@@V?$format_validation_base@_WV?$string_output_adapter@_W@__crt_stdio_output@@@2@@__crt_stdio_output@@AEAAXI_N@Z 0000000180098440 f i libucrtd:output.obj
 0001:00097580       ??$type_case_integer_parse_into_buffer@I$09@?$output_processor@_WV?$string_output_adapter@_W@__crt_stdio_output@@V?$positional_parameter_base@_WV?$string_output_adapter@_W@__crt_stdio_output@@@2@@__crt_stdio_output@@AEAAXI_N@Z 0000000180098580 f i libucrtd:output.obj
 0001:000976c0       ??$type_case_integer_parse_into_buffer@I$09@?$output_processor@_WV?$string_output_adapter@_W@__crt_stdio_output@@V?$standard_base@_WV?$string_output_adapter@_W@__crt_stdio_output@@@2@@__crt_stdio_output@@AEAAXI_N@Z 00000001800986c0 f i libucrtd:output.obj
 0001:00097800       ??$type_case_integer_parse_into_buffer@I$0BA@@?$output_processor@DV?$stream_output_adapter@D@__crt_stdio_output@@V?$format_validation_base@DV?$stream_output_adapter@D@__crt_stdio_output@@@2@@__crt_stdio_output@@AEAAXI_N@Z 0000000180098800 f i libucrtd:output.obj
 0001:00097930       ??$type_case_integer_parse_into_buffer@I$0BA@@?$output_processor@DV?$stream_output_adapter@D@__crt_stdio_output@@V?$positional_parameter_base@DV?$stream_output_adapter@D@__crt_stdio_output@@@2@@__crt_stdio_output@@AEAAXI_N@Z 0000000180098930 f i libucrtd:output.obj
 0001:00097a60       ??$type_case_integer_parse_into_buffer@I$0BA@@?$output_processor@DV?$stream_output_adapter@D@__crt_stdio_output@@V?$standard_base@DV?$stream_output_adapter@D@__crt_stdio_output@@@2@@__crt_stdio_output@@AEAAXI_N@Z 0000000180098a60 f i libucrtd:output.obj
 0001:00097b90       ??$type_case_integer_parse_into_buffer@I$0BA@@?$output_processor@DV?$string_output_adapter@D@__crt_stdio_output@@V?$format_validation_base@DV?$string_output_adapter@D@__crt_stdio_output@@@2@@__crt_stdio_output@@AEAAXI_N@Z 0000000180098b90 f i libucrtd:output.obj
 0001:00097cc0       ??$type_case_integer_parse_into_buffer@I$0BA@@?$output_processor@DV?$string_output_adapter@D@__crt_stdio_output@@V?$positional_parameter_base@DV?$string_output_adapter@D@__crt_stdio_output@@@2@@__crt_stdio_output@@AEAAXI_N@Z 0000000180098cc0 f i libucrtd:output.obj
 0001:00097df0       ??$type_case_integer_parse_into_buffer@I$0BA@@?$output_processor@DV?$string_output_adapter@D@__crt_stdio_output@@V?$standard_base@DV?$string_output_adapter@D@__crt_stdio_output@@@2@@__crt_stdio_output@@AEAAXI_N@Z 0000000180098df0 f i libucrtd:output.obj
 0001:00097f20       ??$type_case_integer_parse_into_buffer@I$0BA@@?$output_processor@_WV?$stream_output_adapter@_W@__crt_stdio_output@@V?$format_validation_base@_WV?$stream_output_adapter@_W@__crt_stdio_output@@@2@@__crt_stdio_output@@AEAAXI_N@Z 0000000180098f20 f i libucrtd:output.obj
 0001:00098060       ??$type_case_integer_parse_into_buffer@I$0BA@@?$output_processor@_WV?$stream_output_adapter@_W@__crt_stdio_output@@V?$positional_parameter_base@_WV?$stream_output_adapter@_W@__crt_stdio_output@@@2@@__crt_stdio_output@@AEAAXI_N@Z 0000000180099060 f i libucrtd:output.obj
 0001:000981a0       ??$type_case_integer_parse_into_buffer@I$0BA@@?$output_processor@_WV?$stream_output_adapter@_W@__crt_stdio_output@@V?$standard_base@_WV?$stream_output_adapter@_W@__crt_stdio_output@@@2@@__crt_stdio_output@@AEAAXI_N@Z 00000001800991a0 f i libucrtd:output.obj
 0001:000982e0       ??$type_case_integer_parse_into_buffer@I$0BA@@?$output_processor@_WV?$string_output_adapter@_W@__crt_stdio_output@@V?$format_validation_base@_WV?$string_output_adapter@_W@__crt_stdio_output@@@2@@__crt_stdio_output@@AEAAXI_N@Z 00000001800992e0 f i libucrtd:output.obj
 0001:00098420       ??$type_case_integer_parse_into_buffer@I$0BA@@?$output_processor@_WV?$string_output_adapter@_W@__crt_stdio_output@@V?$positional_parameter_base@_WV?$string_output_adapter@_W@__crt_stdio_output@@@2@@__crt_stdio_output@@AEAAXI_N@Z 0000000180099420 f i libucrtd:output.obj
 0001:00098560       ??$type_case_integer_parse_into_buffer@I$0BA@@?$output_processor@_WV?$string_output_adapter@_W@__crt_stdio_output@@V?$standard_base@_WV?$string_output_adapter@_W@__crt_stdio_output@@@2@@__crt_stdio_output@@AEAAXI_N@Z 0000000180099560 f i libucrtd:output.obj
 0001:000986a0       ??$type_case_integer_parse_into_buffer@_K$07@?$output_processor@DV?$stream_output_adapter@D@__crt_stdio_output@@V?$format_validation_base@DV?$stream_output_adapter@D@__crt_stdio_output@@@2@@__crt_stdio_output@@AEAAX_K_N@Z 00000001800996a0 f i libucrtd:output.obj
 0001:000987e0       ??$type_case_integer_parse_into_buffer@_K$07@?$output_processor@DV?$stream_output_adapter@D@__crt_stdio_output@@V?$positional_parameter_base@DV?$stream_output_adapter@D@__crt_stdio_output@@@2@@__crt_stdio_output@@AEAAX_K_N@Z 00000001800997e0 f i libucrtd:output.obj
 0001:00098920       ??$type_case_integer_parse_into_buffer@_K$07@?$output_processor@DV?$stream_output_adapter@D@__crt_stdio_output@@V?$standard_base@DV?$stream_output_adapter@D@__crt_stdio_output@@@2@@__crt_stdio_output@@AEAAX_K_N@Z 0000000180099920 f i libucrtd:output.obj
 0001:00098a60       ??$type_case_integer_parse_into_buffer@_K$07@?$output_processor@DV?$string_output_adapter@D@__crt_stdio_output@@V?$format_validation_base@DV?$string_output_adapter@D@__crt_stdio_output@@@2@@__crt_stdio_output@@AEAAX_K_N@Z 0000000180099a60 f i libucrtd:output.obj
 0001:00098ba0       ??$type_case_integer_parse_into_buffer@_K$07@?$output_processor@DV?$string_output_adapter@D@__crt_stdio_output@@V?$positional_parameter_base@DV?$string_output_adapter@D@__crt_stdio_output@@@2@@__crt_stdio_output@@AEAAX_K_N@Z 0000000180099ba0 f i libucrtd:output.obj
 0001:00098ce0       ??$type_case_integer_parse_into_buffer@_K$07@?$output_processor@DV?$string_output_adapter@D@__crt_stdio_output@@V?$standard_base@DV?$string_output_adapter@D@__crt_stdio_output@@@2@@__crt_stdio_output@@AEAAX_K_N@Z 0000000180099ce0 f i libucrtd:output.obj
 0001:00098e20       ??$type_case_integer_parse_into_buffer@_K$07@?$output_processor@_WV?$stream_output_adapter@_W@__crt_stdio_output@@V?$format_validation_base@_WV?$stream_output_adapter@_W@__crt_stdio_output@@@2@@__crt_stdio_output@@AEAAX_K_N@Z 0000000180099e20 f i libucrtd:output.obj
 0001:00098f60       ??$type_case_integer_parse_into_buffer@_K$07@?$output_processor@_WV?$stream_output_adapter@_W@__crt_stdio_output@@V?$positional_parameter_base@_WV?$stream_output_adapter@_W@__crt_stdio_output@@@2@@__crt_stdio_output@@AEAAX_K_N@Z 0000000180099f60 f i libucrtd:output.obj
 0001:000990a0       ??$type_case_integer_parse_into_buffer@_K$07@?$output_processor@_WV?$stream_output_adapter@_W@__crt_stdio_output@@V?$standard_base@_WV?$stream_output_adapter@_W@__crt_stdio_output@@@2@@__crt_stdio_output@@AEAAX_K_N@Z 000000018009a0a0 f i libucrtd:output.obj
 0001:000991e0       ??$type_case_integer_parse_into_buffer@_K$07@?$output_processor@_WV?$string_output_adapter@_W@__crt_stdio_output@@V?$format_validation_base@_WV?$string_output_adapter@_W@__crt_stdio_output@@@2@@__crt_stdio_output@@AEAAX_K_N@Z 000000018009a1e0 f i libucrtd:output.obj
 0001:00099320       ??$type_case_integer_parse_into_buffer@_K$07@?$output_processor@_WV?$string_output_adapter@_W@__crt_stdio_output@@V?$positional_parameter_base@_WV?$string_output_adapter@_W@__crt_stdio_output@@@2@@__crt_stdio_output@@AEAAX_K_N@Z 000000018009a320 f i libucrtd:output.obj
 0001:00099460       ??$type_case_integer_parse_into_buffer@_K$07@?$output_processor@_WV?$string_output_adapter@_W@__crt_stdio_output@@V?$standard_base@_WV?$string_output_adapter@_W@__crt_stdio_output@@@2@@__crt_stdio_output@@AEAAX_K_N@Z 000000018009a460 f i libucrtd:output.obj
 0001:000995a0       ??$type_case_integer_parse_into_buffer@_K$09@?$output_processor@DV?$stream_output_adapter@D@__crt_stdio_output@@V?$format_validation_base@DV?$stream_output_adapter@D@__crt_stdio_output@@@2@@__crt_stdio_output@@AEAAX_K_N@Z 000000018009a5a0 f i libucrtd:output.obj
 0001:000996e0       ??$type_case_integer_parse_into_buffer@_K$09@?$output_processor@DV?$stream_output_adapter@D@__crt_stdio_output@@V?$positional_parameter_base@DV?$stream_output_adapter@D@__crt_stdio_output@@@2@@__crt_stdio_output@@AEAAX_K_N@Z 000000018009a6e0 f i libucrtd:output.obj
 0001:00099820       ??$type_case_integer_parse_into_buffer@_K$09@?$output_processor@DV?$stream_output_adapter@D@__crt_stdio_output@@V?$standard_base@DV?$stream_output_adapter@D@__crt_stdio_output@@@2@@__crt_stdio_output@@AEAAX_K_N@Z 000000018009a820 f i libucrtd:output.obj
 0001:00099960       ??$type_case_integer_parse_into_buffer@_K$09@?$output_processor@DV?$string_output_adapter@D@__crt_stdio_output@@V?$format_validation_base@DV?$string_output_adapter@D@__crt_stdio_output@@@2@@__crt_stdio_output@@AEAAX_K_N@Z 000000018009a960 f i libucrtd:output.obj
 0001:00099aa0       ??$type_case_integer_parse_into_buffer@_K$09@?$output_processor@DV?$string_output_adapter@D@__crt_stdio_output@@V?$positional_parameter_base@DV?$string_output_adapter@D@__crt_stdio_output@@@2@@__crt_stdio_output@@AEAAX_K_N@Z 000000018009aaa0 f i libucrtd:output.obj
 0001:00099be0       ??$type_case_integer_parse_into_buffer@_K$09@?$output_processor@DV?$string_output_adapter@D@__crt_stdio_output@@V?$standard_base@DV?$string_output_adapter@D@__crt_stdio_output@@@2@@__crt_stdio_output@@AEAAX_K_N@Z 000000018009abe0 f i libucrtd:output.obj
 0001:00099d20       ??$type_case_integer_parse_into_buffer@_K$09@?$output_processor@_WV?$stream_output_adapter@_W@__crt_stdio_output@@V?$format_validation_base@_WV?$stream_output_adapter@_W@__crt_stdio_output@@@2@@__crt_stdio_output@@AEAAX_K_N@Z 000000018009ad20 f i libucrtd:output.obj
 0001:00099e60       ??$type_case_integer_parse_into_buffer@_K$09@?$output_processor@_WV?$stream_output_adapter@_W@__crt_stdio_output@@V?$positional_parameter_base@_WV?$stream_output_adapter@_W@__crt_stdio_output@@@2@@__crt_stdio_output@@AEAAX_K_N@Z 000000018009ae60 f i libucrtd:output.obj
 0001:00099fa0       ??$type_case_integer_parse_into_buffer@_K$09@?$output_processor@_WV?$stream_output_adapter@_W@__crt_stdio_output@@V?$standard_base@_WV?$stream_output_adapter@_W@__crt_stdio_output@@@2@@__crt_stdio_output@@AEAAX_K_N@Z 000000018009afa0 f i libucrtd:output.obj
 0001:0009a0e0       ??$type_case_integer_parse_into_buffer@_K$09@?$output_processor@_WV?$string_output_adapter@_W@__crt_stdio_output@@V?$format_validation_base@_WV?$string_output_adapter@_W@__crt_stdio_output@@@2@@__crt_stdio_output@@AEAAX_K_N@Z 000000018009b0e0 f i libucrtd:output.obj
 0001:0009a220       ??$type_case_integer_parse_into_buffer@_K$09@?$output_processor@_WV?$string_output_adapter@_W@__crt_stdio_output@@V?$positional_parameter_base@_WV?$string_output_adapter@_W@__crt_stdio_output@@@2@@__crt_stdio_output@@AEAAX_K_N@Z 000000018009b220 f i libucrtd:output.obj
 0001:0009a360       ??$type_case_integer_parse_into_buffer@_K$09@?$output_processor@_WV?$string_output_adapter@_W@__crt_stdio_output@@V?$standard_base@_WV?$string_output_adapter@_W@__crt_stdio_output@@@2@@__crt_stdio_output@@AEAAX_K_N@Z 000000018009b360 f i libucrtd:output.obj
 0001:0009a4a0       ??$type_case_integer_parse_into_buffer@_K$0BA@@?$output_processor@DV?$stream_output_adapter@D@__crt_stdio_output@@V?$format_validation_base@DV?$stream_output_adapter@D@__crt_stdio_output@@@2@@__crt_stdio_output@@AEAAX_K_N@Z 000000018009b4a0 f i libucrtd:output.obj
 0001:0009a5e0       ??$type_case_integer_parse_into_buffer@_K$0BA@@?$output_processor@DV?$stream_output_adapter@D@__crt_stdio_output@@V?$positional_parameter_base@DV?$stream_output_adapter@D@__crt_stdio_output@@@2@@__crt_stdio_output@@AEAAX_K_N@Z 000000018009b5e0 f i libucrtd:output.obj
 0001:0009a720       ??$type_case_integer_parse_into_buffer@_K$0BA@@?$output_processor@DV?$stream_output_adapter@D@__crt_stdio_output@@V?$standard_base@DV?$stream_output_adapter@D@__crt_stdio_output@@@2@@__crt_stdio_output@@AEAAX_K_N@Z 000000018009b720 f i libucrtd:output.obj
 0001:0009a860       ??$type_case_integer_parse_into_buffer@_K$0BA@@?$output_processor@DV?$string_output_adapter@D@__crt_stdio_output@@V?$format_validation_base@DV?$string_output_adapter@D@__crt_stdio_output@@@2@@__crt_stdio_output@@AEAAX_K_N@Z 000000018009b860 f i libucrtd:output.obj
 0001:0009a9a0       ??$type_case_integer_parse_into_buffer@_K$0BA@@?$output_processor@DV?$string_output_adapter@D@__crt_stdio_output@@V?$positional_parameter_base@DV?$string_output_adapter@D@__crt_stdio_output@@@2@@__crt_stdio_output@@AEAAX_K_N@Z 000000018009b9a0 f i libucrtd:output.obj
 0001:0009aae0       ??$type_case_integer_parse_into_buffer@_K$0BA@@?$output_processor@DV?$string_output_adapter@D@__crt_stdio_output@@V?$standard_base@DV?$string_output_adapter@D@__crt_stdio_output@@@2@@__crt_stdio_output@@AEAAX_K_N@Z 000000018009bae0 f i libucrtd:output.obj
 0001:0009ac20       ??$type_case_integer_parse_into_buffer@_K$0BA@@?$output_processor@_WV?$stream_output_adapter@_W@__crt_stdio_output@@V?$format_validation_base@_WV?$stream_output_adapter@_W@__crt_stdio_output@@@2@@__crt_stdio_output@@AEAAX_K_N@Z 000000018009bc20 f i libucrtd:output.obj
 0001:0009ad60       ??$type_case_integer_parse_into_buffer@_K$0BA@@?$output_processor@_WV?$stream_output_adapter@_W@__crt_stdio_output@@V?$positional_parameter_base@_WV?$stream_output_adapter@_W@__crt_stdio_output@@@2@@__crt_stdio_output@@AEAAX_K_N@Z 000000018009bd60 f i libucrtd:output.obj
 0001:0009aea0       ??$type_case_integer_parse_into_buffer@_K$0BA@@?$output_processor@_WV?$stream_output_adapter@_W@__crt_stdio_output@@V?$standard_base@_WV?$stream_output_adapter@_W@__crt_stdio_output@@@2@@__crt_stdio_output@@AEAAX_K_N@Z 000000018009bea0 f i libucrtd:output.obj
 0001:0009afe0       ??$type_case_integer_parse_into_buffer@_K$0BA@@?$output_processor@_WV?$string_output_adapter@_W@__crt_stdio_output@@V?$format_validation_base@_WV?$string_output_adapter@_W@__crt_stdio_output@@@2@@__crt_stdio_output@@AEAAX_K_N@Z 000000018009bfe0 f i libucrtd:output.obj
 0001:0009b120       ??$type_case_integer_parse_into_buffer@_K$0BA@@?$output_processor@_WV?$string_output_adapter@_W@__crt_stdio_output@@V?$positional_parameter_base@_WV?$string_output_adapter@_W@__crt_stdio_output@@@2@@__crt_stdio_output@@AEAAX_K_N@Z 000000018009c120 f i libucrtd:output.obj
 0001:0009b260       ??$type_case_integer_parse_into_buffer@_K$0BA@@?$output_processor@_WV?$string_output_adapter@_W@__crt_stdio_output@@V?$standard_base@_WV?$string_output_adapter@_W@__crt_stdio_output@@@2@@__crt_stdio_output@@AEAAX_K_N@Z 000000018009c260 f i libucrtd:output.obj
 0001:0009b3a0       ??$write_multiple_characters@V?$stream_output_adapter@D@__crt_stdio_output@@D@__crt_stdio_output@@YAXAEBV?$stream_output_adapter@D@0@DHQEAHAEAV__crt_cached_ptd_host@@@Z 000000018009c3a0 f i libucrtd:output.obj
 0001:0009b410       ??$write_multiple_characters@V?$stream_output_adapter@_W@__crt_stdio_output@@D@__crt_stdio_output@@YAXAEBV?$stream_output_adapter@_W@0@DHQEAHAEAV__crt_cached_ptd_host@@@Z 000000018009c410 f i libucrtd:output.obj
 0001:0009b480       ??$write_multiple_characters@V?$string_output_adapter@D@__crt_stdio_output@@D@__crt_stdio_output@@YAXAEBV?$string_output_adapter@D@0@DHQEAHAEAV__crt_cached_ptd_host@@@Z 000000018009c480 f i libucrtd:output.obj
 0001:0009b4f0       ??$write_multiple_characters@V?$string_output_adapter@_W@__crt_stdio_output@@D@__crt_stdio_output@@YAXAEBV?$string_output_adapter@_W@0@DHQEAHAEAV__crt_cached_ptd_host@@@Z 000000018009c4f0 f i libucrtd:output.obj
 0001:0009b920       ??0?$c_string_character_source@D@__crt_strtox@@QEAA@QEBDQEAPEBD@Z 000000018009c920 f i libucrtd:output.obj
 0001:0009b970       ??0?$c_string_character_source@_W@__crt_strtox@@QEAA@QEB_WQEAPEB_W@Z 000000018009c970 f i libucrtd:output.obj
 0001:0009b9c0       ??0?$cached@H@__crt_cached_ptd_host@@QEAA@XZ 000000018009c9c0 f i libucrtd:output.obj
 0001:0009b9e0       ??0?$cached@K@__crt_cached_ptd_host@@QEAA@XZ 000000018009c9e0 f i libucrtd:output.obj
 0001:0009ba00       ??0?$common_data@D@__crt_stdio_output@@IEAA@AEAV__crt_cached_ptd_host@@@Z 000000018009ca00 f i libucrtd:output.obj
 0001:0009bac0       ??0?$common_data@_W@__crt_stdio_output@@IEAA@AEAV__crt_cached_ptd_host@@@Z 000000018009cac0 f i libucrtd:output.obj
 0001:0009bb80       ??0?$output_adapter_data@DV?$stream_output_adapter@D@__crt_stdio_output@@@__crt_stdio_output@@IEAA@AEBV?$stream_output_adapter@D@1@_KQEBDAEAV__crt_cached_ptd_host@@QEAD@Z 000000018009cb80 f i libucrtd:output.obj
 0001:0009bc00       ??0?$output_adapter_data@DV?$string_output_adapter@D@__crt_stdio_output@@@__crt_stdio_output@@IEAA@AEBV?$string_output_adapter@D@1@_KQEBDAEAV__crt_cached_ptd_host@@QEAD@Z 000000018009cc00 f i libucrtd:output.obj
 0001:0009bc80       ??0?$output_adapter_data@_WV?$stream_output_adapter@_W@__crt_stdio_output@@@__crt_stdio_output@@IEAA@AEBV?$stream_output_adapter@_W@1@_KQEB_WAEAV__crt_cached_ptd_host@@QEAD@Z 000000018009cc80 f i libucrtd:output.obj
 0001:0009bd00       ??0?$output_adapter_data@_WV?$string_output_adapter@_W@__crt_stdio_output@@@__crt_stdio_output@@IEAA@AEBV?$string_output_adapter@_W@1@_KQEB_WAEAV__crt_cached_ptd_host@@QEAD@Z 000000018009cd00 f i libucrtd:output.obj
 0001:0009bd80       ??0?$output_processor@DV?$stream_output_adapter@D@__crt_stdio_output@@V?$format_validation_base@DV?$stream_output_adapter@D@__crt_stdio_output@@@2@@__crt_stdio_output@@QEAA@AEBV?$stream_output_adapter@D@1@_KQEBDAEAV__crt_cached_ptd_host@@QEAD@Z 000000018009cd80 f i libucrtd:output.obj
 0001:0009bdd0       ??0?$output_processor@DV?$stream_output_adapter@D@__crt_stdio_output@@V?$positional_parameter_base@DV?$stream_output_adapter@D@__crt_stdio_output@@@2@@__crt_stdio_output@@QEAA@AEBV?$stream_output_adapter@D@1@_KQEBDAEAV__crt_cached_ptd_host@@QEAD@Z 000000018009cdd0 f i libucrtd:output.obj
 0001:0009be20       ??0?$output_processor@DV?$stream_output_adapter@D@__crt_stdio_output@@V?$standard_base@DV?$stream_output_adapter@D@__crt_stdio_output@@@2@@__crt_stdio_output@@QEAA@AEBV?$stream_output_adapter@D@1@_KQEBDAEAV__crt_cached_ptd_host@@QEAD@Z 000000018009ce20 f i libucrtd:output.obj
 0001:0009be70       ??0?$output_processor@DV?$string_output_adapter@D@__crt_stdio_output@@V?$format_validation_base@DV?$string_output_adapter@D@__crt_stdio_output@@@2@@__crt_stdio_output@@QEAA@AEBV?$string_output_adapter@D@1@_KQEBDAEAV__crt_cached_ptd_host@@QEAD@Z 000000018009ce70 f i libucrtd:output.obj
 0001:0009bec0       ??0?$output_processor@DV?$string_output_adapter@D@__crt_stdio_output@@V?$positional_parameter_base@DV?$string_output_adapter@D@__crt_stdio_output@@@2@@__crt_stdio_output@@QEAA@AEBV?$string_output_adapter@D@1@_KQEBDAEAV__crt_cached_ptd_host@@QEAD@Z 000000018009cec0 f i libucrtd:output.obj
 0001:0009bf10       ??0?$output_processor@DV?$string_output_adapter@D@__crt_stdio_output@@V?$standard_base@DV?$string_output_adapter@D@__crt_stdio_output@@@2@@__crt_stdio_output@@QEAA@AEBV?$string_output_adapter@D@1@_KQEBDAEAV__crt_cached_ptd_host@@QEAD@Z 000000018009cf10 f i libucrtd:output.obj
 0001:0009bf60       ??0?$output_processor@_WV?$stream_output_adapter@_W@__crt_stdio_output@@V?$format_validation_base@_WV?$stream_output_adapter@_W@__crt_stdio_output@@@2@@__crt_stdio_output@@QEAA@AEBV?$stream_output_adapter@_W@1@_KQEB_WAEAV__crt_cached_ptd_host@@QEAD@Z 000000018009cf60 f i libucrtd:output.obj
 0001:0009bfb0       ??0?$output_processor@_WV?$stream_output_adapter@_W@__crt_stdio_output@@V?$positional_parameter_base@_WV?$stream_output_adapter@_W@__crt_stdio_output@@@2@@__crt_stdio_output@@QEAA@AEBV?$stream_output_adapter@_W@1@_KQEB_WAEAV__crt_cached_ptd_host@@QEAD@Z 000000018009cfb0 f i libucrtd:output.obj
 0001:0009c000       ??0?$output_processor@_WV?$stream_output_adapter@_W@__crt_stdio_output@@V?$standard_base@_WV?$stream_output_adapter@_W@__crt_stdio_output@@@2@@__crt_stdio_output@@QEAA@AEBV?$stream_output_adapter@_W@1@_KQEB_WAEAV__crt_cached_ptd_host@@QEAD@Z 000000018009d000 f i libucrtd:output.obj
 0001:0009c050       ??0?$output_processor@_WV?$string_output_adapter@_W@__crt_stdio_output@@V?$format_validation_base@_WV?$string_output_adapter@_W@__crt_stdio_output@@@2@@__crt_stdio_output@@QEAA@AEBV?$string_output_adapter@_W@1@_KQEB_WAEAV__crt_cached_ptd_host@@QEAD@Z 000000018009d050 f i libucrtd:output.obj
 0001:0009c0a0       ??0?$output_processor@_WV?$string_output_adapter@_W@__crt_stdio_output@@V?$positional_parameter_base@_WV?$string_output_adapter@_W@__crt_stdio_output@@@2@@__crt_stdio_output@@QEAA@AEBV?$string_output_adapter@_W@1@_KQEB_WAEAV__crt_cached_ptd_host@@QEAD@Z 000000018009d0a0 f i libucrtd:output.obj
 0001:0009c0f0       ??0?$output_processor@_WV?$string_output_adapter@_W@__crt_stdio_output@@V?$standard_base@_WV?$string_output_adapter@_W@__crt_stdio_output@@@2@@__crt_stdio_output@@QEAA@AEBV?$string_output_adapter@_W@1@_KQEB_WAEAV__crt_cached_ptd_host@@QEAD@Z 000000018009d0f0 f i libucrtd:output.obj
 0001:0009c140       ??0?$stream_output_adapter@D@__crt_stdio_output@@QEAA@QEAU_iobuf@@@Z 000000018009d140 f i libucrtd:output.obj
 0001:0009c180       ??0?$stream_output_adapter@_W@__crt_stdio_output@@QEAA@QEAU_iobuf@@@Z 000000018009d180 f i libucrtd:output.obj
 0001:0009c1c0       ??0?$string_output_adapter@D@__crt_stdio_output@@QEAA@QEAU?$string_output_adapter_context@D@1@@Z 000000018009d1c0 f i libucrtd:output.obj
 0001:0009c1e0       ??0?$string_output_adapter@_W@__crt_stdio_output@@QEAA@QEAU?$string_output_adapter_context@_W@1@@Z 000000018009d1e0 f i libucrtd:output.obj
 0001:0009c200       ??0__acrt_stdio_temporary_buffering_guard@@QEAA@QEAU_iobuf@@AEAV__crt_cached_ptd_host@@@Z 000000018009d200 f i libucrtd:output.obj
 0001:0009c250       ??0__crt_cached_ptd_host@@QEAA@QEAU__crt_locale_pointers@@@Z 000000018009d250 f i libucrtd:output.obj
 0001:0009c310       ??0__crt_scoped_get_last_error_reset@@QEAA@XZ 000000018009d310 f i libucrtd:output.obj
 0001:0009c330       ??0formatting_buffer@__crt_stdio_output@@QEAA@XZ 000000018009d330 f i libucrtd:output.obj
 0001:0009c370       ??0guard@?$cached@H@__crt_cached_ptd_host@@QEAA@AEAU12@@Z 000000018009d370 f i libucrtd:output.obj
 0001:0009c3b0       ??1?$c_string_character_source@D@__crt_strtox@@QEAA@XZ 000000018009d3b0 f i libucrtd:output.obj
 0001:0009c3e0       ??1?$c_string_character_source@_W@__crt_strtox@@QEAA@XZ 000000018009d3e0 f i libucrtd:output.obj
 0001:0009c410       ??1?$common_data@D@__crt_stdio_output@@QEAA@XZ 000000018009d410 f i libucrtd:output.obj
 0001:0009c430       ??1?$common_data@_W@__crt_stdio_output@@QEAA@XZ 000000018009d430 f i libucrtd:output.obj
 0001:0009c450       ??1?$format_validation_base@DV?$stream_output_adapter@D@__crt_stdio_output@@@__crt_stdio_output@@QEAA@XZ 000000018009d450 f i libucrtd:output.obj
 0001:0009c470       ??1?$format_validation_base@DV?$string_output_adapter@D@__crt_stdio_output@@@__crt_stdio_output@@QEAA@XZ 000000018009d470 f i libucrtd:output.obj
 0001:0009c490       ??1?$format_validation_base@_WV?$stream_output_adapter@_W@__crt_stdio_output@@@__crt_stdio_output@@QEAA@XZ 000000018009d490 f i libucrtd:output.obj
 0001:0009c4b0       ??1?$format_validation_base@_WV?$string_output_adapter@_W@__crt_stdio_output@@@__crt_stdio_output@@QEAA@XZ 000000018009d4b0 f i libucrtd:output.obj
 0001:0009c4d0       ??1?$output_adapter_data@DV?$stream_output_adapter@D@__crt_stdio_output@@@__crt_stdio_output@@QEAA@XZ 000000018009d4d0 f i libucrtd:output.obj
 0001:0009c4f0       ??1?$output_adapter_data@DV?$string_output_adapter@D@__crt_stdio_output@@@__crt_stdio_output@@QEAA@XZ 000000018009d4f0 f i libucrtd:output.obj
 0001:0009c510       ??1?$output_adapter_data@_WV?$stream_output_adapter@_W@__crt_stdio_output@@@__crt_stdio_output@@QEAA@XZ 000000018009d510 f i libucrtd:output.obj
 0001:0009c530       ??1?$output_adapter_data@_WV?$string_output_adapter@_W@__crt_stdio_output@@@__crt_stdio_output@@QEAA@XZ 000000018009d530 f i libucrtd:output.obj
 0001:0009c550       ??1?$output_processor@DV?$stream_output_adapter@D@__crt_stdio_output@@V?$format_validation_base@DV?$stream_output_adapter@D@__crt_stdio_output@@@2@@__crt_stdio_output@@QEAA@XZ 000000018009d550 f i libucrtd:output.obj
 0001:0009c570       ??1?$output_processor@DV?$stream_output_adapter@D@__crt_stdio_output@@V?$positional_parameter_base@DV?$stream_output_adapter@D@__crt_stdio_output@@@2@@__crt_stdio_output@@QEAA@XZ 000000018009d570 f i libucrtd:output.obj
 0001:0009c590       ??1?$output_processor@DV?$stream_output_adapter@D@__crt_stdio_output@@V?$standard_base@DV?$stream_output_adapter@D@__crt_stdio_output@@@2@@__crt_stdio_output@@QEAA@XZ 000000018009d590 f i libucrtd:output.obj
 0001:0009c5b0       ??1?$output_processor@DV?$string_output_adapter@D@__crt_stdio_output@@V?$format_validation_base@DV?$string_output_adapter@D@__crt_stdio_output@@@2@@__crt_stdio_output@@QEAA@XZ 000000018009d5b0 f i libucrtd:output.obj
 0001:0009c5d0       ??1?$output_processor@DV?$string_output_adapter@D@__crt_stdio_output@@V?$positional_parameter_base@DV?$string_output_adapter@D@__crt_stdio_output@@@2@@__crt_stdio_output@@QEAA@XZ 000000018009d5d0 f i libucrtd:output.obj
 0001:0009c5f0       ??1?$output_processor@DV?$string_output_adapter@D@__crt_stdio_output@@V?$standard_base@DV?$string_output_adapter@D@__crt_stdio_output@@@2@@__crt_stdio_output@@QEAA@XZ 000000018009d5f0 f i libucrtd:output.obj
 0001:0009c610       ??1?$output_processor@_WV?$stream_output_adapter@_W@__crt_stdio_output@@V?$format_validation_base@_WV?$stream_output_adapter@_W@__crt_stdio_output@@@2@@__crt_stdio_output@@QEAA@XZ 000000018009d610 f i libucrtd:output.obj
 0001:0009c630       ??1?$output_processor@_WV?$stream_output_adapter@_W@__crt_stdio_output@@V?$positional_parameter_base@_WV?$stream_output_adapter@_W@__crt_stdio_output@@@2@@__crt_stdio_output@@QEAA@XZ 000000018009d630 f i libucrtd:output.obj
 0001:0009c650       ??1?$output_processor@_WV?$stream_output_adapter@_W@__crt_stdio_output@@V?$standard_base@_WV?$stream_output_adapter@_W@__crt_stdio_output@@@2@@__crt_stdio_output@@QEAA@XZ 000000018009d650 f i libucrtd:output.obj
 0001:0009c670       ??1?$output_processor@_WV?$string_output_adapter@_W@__crt_stdio_output@@V?$format_validation_base@_WV?$string_output_adapter@_W@__crt_stdio_output@@@2@@__crt_stdio_output@@QEAA@XZ 000000018009d670 f i libucrtd:output.obj
 0001:0009c690       ??1?$output_processor@_WV?$string_output_adapter@_W@__crt_stdio_output@@V?$positional_parameter_base@_WV?$string_output_adapter@_W@__crt_stdio_output@@@2@@__crt_stdio_output@@QEAA@XZ 000000018009d690 f i libucrtd:output.obj
 0001:0009c6b0       ??1?$output_processor@_WV?$string_output_adapter@_W@__crt_stdio_output@@V?$standard_base@_WV?$string_output_adapter@_W@__crt_stdio_output@@@2@@__crt_stdio_output@@QEAA@XZ 000000018009d6b0 f i libucrtd:output.obj
 0001:0009c6d0       ??1?$positional_parameter_base@DV?$stream_output_adapter@D@__crt_stdio_output@@@__crt_stdio_output@@QEAA@XZ 000000018009d6d0 f i libucrtd:output.obj
 0001:0009c6f0       ??1?$positional_parameter_base@DV?$string_output_adapter@D@__crt_stdio_output@@@__crt_stdio_output@@QEAA@XZ 000000018009d6f0 f i libucrtd:output.obj
 0001:0009c710       ??1?$positional_parameter_base@_WV?$stream_output_adapter@_W@__crt_stdio_output@@@__crt_stdio_output@@QEAA@XZ 000000018009d710 f i libucrtd:output.obj
 0001:0009c730       ??1?$positional_parameter_base@_WV?$string_output_adapter@_W@__crt_stdio_output@@@__crt_stdio_output@@QEAA@XZ 000000018009d730 f i libucrtd:output.obj
 0001:0009c750       ??1?$standard_base@DV?$stream_output_adapter@D@__crt_stdio_output@@@__crt_stdio_output@@QEAA@XZ 000000018009d750 f i libucrtd:output.obj
 0001:0009c770       ??1?$standard_base@DV?$string_output_adapter@D@__crt_stdio_output@@@__crt_stdio_output@@QEAA@XZ 000000018009d770 f i libucrtd:output.obj
 0001:0009c790       ??1?$standard_base@_WV?$stream_output_adapter@_W@__crt_stdio_output@@@__crt_stdio_output@@QEAA@XZ 000000018009d790 f i libucrtd:output.obj
 0001:0009c7b0       ??1?$standard_base@_WV?$string_output_adapter@_W@__crt_stdio_output@@@__crt_stdio_output@@QEAA@XZ 000000018009d7b0 f i libucrtd:output.obj
 0001:0009c7d0       ??1__acrt_stdio_temporary_buffering_guard@@QEAA@XZ 000000018009d7d0 f i libucrtd:output.obj
 0001:0009c800       ??1__crt_cached_ptd_host@@QEAA@XZ 000000018009d800 f i libucrtd:output.obj
 0001:0009c8b0       ??1__crt_scoped_get_last_error_reset@@QEAA@XZ 000000018009d8b0 f i libucrtd:output.obj
 0001:0009c8d0       ??1formatting_buffer@__crt_stdio_output@@QEAA@XZ 000000018009d8d0 f i libucrtd:output.obj
 0001:0009c900       ??1guard@?$cached@H@__crt_cached_ptd_host@@QEAA@XZ 000000018009d900 f i libucrtd:output.obj
 0001:0009c930       ??4?$__crt_unique_heap_ptr@DU__crt_internal_free_policy@@@@QEAAAEAV0@$$QEAV0@@Z 000000018009d930 f i libucrtd:output.obj
 0001:0009c970       ??A?$spectre_mitigated_lookup_table@Ustate_transition_pair@__crt_stdio_output@@$0IA@@__crt_stdio_output@@QEBAAEBUstate_transition_pair@1@_K@Z 000000018009d970 f i libucrtd:output.obj
 0001:0009c990       ??C__crt_stdio_stream@@QEBAPEAU__crt_stdio_stream_data@@XZ 000000018009d990 f i libucrtd:output.obj
 0001:0009d1e0       ?adjust_hexit@?$output_processor@DV?$stream_output_adapter@D@__crt_stdio_output@@V?$format_validation_base@DV?$stream_output_adapter@D@__crt_stdio_output@@@2@@__crt_stdio_output@@CADH_N@Z 000000018009e1e0 f i libucrtd:output.obj
 0001:0009d230       ?adjust_hexit@?$output_processor@DV?$stream_output_adapter@D@__crt_stdio_output@@V?$positional_parameter_base@DV?$stream_output_adapter@D@__crt_stdio_output@@@2@@__crt_stdio_output@@CADH_N@Z 000000018009e230 f i libucrtd:output.obj
 0001:0009d280       ?adjust_hexit@?$output_processor@DV?$stream_output_adapter@D@__crt_stdio_output@@V?$standard_base@DV?$stream_output_adapter@D@__crt_stdio_output@@@2@@__crt_stdio_output@@CADH_N@Z 000000018009e280 f i libucrtd:output.obj
 0001:0009d2d0       ?adjust_hexit@?$output_processor@DV?$string_output_adapter@D@__crt_stdio_output@@V?$format_validation_base@DV?$string_output_adapter@D@__crt_stdio_output@@@2@@__crt_stdio_output@@CADH_N@Z 000000018009e2d0 f i libucrtd:output.obj
 0001:0009d320       ?adjust_hexit@?$output_processor@DV?$string_output_adapter@D@__crt_stdio_output@@V?$positional_parameter_base@DV?$string_output_adapter@D@__crt_stdio_output@@@2@@__crt_stdio_output@@CADH_N@Z 000000018009e320 f i libucrtd:output.obj
 0001:0009d370       ?adjust_hexit@?$output_processor@DV?$string_output_adapter@D@__crt_stdio_output@@V?$standard_base@DV?$string_output_adapter@D@__crt_stdio_output@@@2@@__crt_stdio_output@@CADH_N@Z 000000018009e370 f i libucrtd:output.obj
 0001:0009d3c0       ?adjust_hexit@?$output_processor@_WV?$stream_output_adapter@_W@__crt_stdio_output@@V?$format_validation_base@_WV?$stream_output_adapter@_W@__crt_stdio_output@@@2@@__crt_stdio_output@@CADH_N@Z 000000018009e3c0 f i libucrtd:output.obj
 0001:0009d410       ?adjust_hexit@?$output_processor@_WV?$stream_output_adapter@_W@__crt_stdio_output@@V?$positional_parameter_base@_WV?$stream_output_adapter@_W@__crt_stdio_output@@@2@@__crt_stdio_output@@CADH_N@Z 000000018009e410 f i libucrtd:output.obj
 0001:0009d460       ?adjust_hexit@?$output_processor@_WV?$stream_output_adapter@_W@__crt_stdio_output@@V?$standard_base@_WV?$stream_output_adapter@_W@__crt_stdio_output@@@2@@__crt_stdio_output@@CADH_N@Z 000000018009e460 f i libucrtd:output.obj
 0001:0009d4b0       ?adjust_hexit@?$output_processor@_WV?$string_output_adapter@_W@__crt_stdio_output@@V?$format_validation_base@_WV?$string_output_adapter@_W@__crt_stdio_output@@@2@@__crt_stdio_output@@CADH_N@Z 000000018009e4b0 f i libucrtd:output.obj
 0001:0009d500       ?adjust_hexit@?$output_processor@_WV?$string_output_adapter@_W@__crt_stdio_output@@V?$positional_parameter_base@_WV?$string_output_adapter@_W@__crt_stdio_output@@@2@@__crt_stdio_output@@CADH_N@Z 000000018009e500 f i libucrtd:output.obj
 0001:0009d550       ?adjust_hexit@?$output_processor@_WV?$string_output_adapter@_W@__crt_stdio_output@@V?$standard_base@_WV?$string_output_adapter@_W@__crt_stdio_output@@@2@@__crt_stdio_output@@CADH_N@Z 000000018009e550 f i libucrtd:output.obj
 0001:0009d5a0       ?advance_to_next_pass@?$positional_parameter_base@DV?$stream_output_adapter@D@__crt_stdio_output@@@__crt_stdio_output@@IEAA_NXZ 000000018009e5a0 f i libucrtd:output.obj
 0001:0009d650       ?advance_to_next_pass@?$positional_parameter_base@DV?$string_output_adapter@D@__crt_stdio_output@@@__crt_stdio_output@@IEAA_NXZ 000000018009e650 f i libucrtd:output.obj
 0001:0009d700       ?advance_to_next_pass@?$positional_parameter_base@_WV?$stream_output_adapter@_W@__crt_stdio_output@@@__crt_stdio_output@@IEAA_NXZ 000000018009e700 f i libucrtd:output.obj
 0001:0009d7b0       ?advance_to_next_pass@?$positional_parameter_base@_WV?$string_output_adapter@_W@__crt_stdio_output@@@__crt_stdio_output@@IEAA_NXZ 000000018009e7b0 f i libucrtd:output.obj
 0001:0009d860       ?advance_to_next_pass@?$standard_base@DV?$stream_output_adapter@D@__crt_stdio_output@@@__crt_stdio_output@@IEAA_NXZ 000000018009e860 f i libucrtd:output.obj
 0001:0009d8b0       ?advance_to_next_pass@?$standard_base@DV?$string_output_adapter@D@__crt_stdio_output@@@__crt_stdio_output@@IEAA_NXZ 000000018009e8b0 f i libucrtd:output.obj
 0001:0009d900       ?advance_to_next_pass@?$standard_base@_WV?$stream_output_adapter@_W@__crt_stdio_output@@@__crt_stdio_output@@IEAA_NXZ 000000018009e900 f i libucrtd:output.obj
 0001:0009d950       ?advance_to_next_pass@?$standard_base@_WV?$string_output_adapter@_W@__crt_stdio_output@@@__crt_stdio_output@@IEAA_NXZ 000000018009e950 f i libucrtd:output.obj
 0001:0009d9a0       ?check@?$cached@H@__crt_cached_ptd_host@@QEBA_NH@Z 000000018009e9a0 f i libucrtd:output.obj
 0001:0009d9e0       ?check_synchronize_global_state_index@__crt_cached_ptd_host@@AEAA_KAEBV__crt_scoped_get_last_error_reset@@@Z 000000018009e9e0 f i libucrtd:output.obj
 0001:0009da20       ?check_synchronize_per_thread_data@__crt_cached_ptd_host@@AEAAPEAU__acrt_ptd@@XZ 000000018009ea20 f i libucrtd:output.obj
 0001:0009da60       ?create_guard@?$cached@H@__crt_cached_ptd_host@@QEAA?AVguard@12@XZ 000000018009ea60 f i libucrtd:output.obj
 0001:0009da90       ?crop_zeroes@__crt_stdio_output@@YAXPEADQEAU__crt_locale_pointers@@@Z 000000018009ea90 f i libucrtd:output.obj
 0001:0009dbe0       ?disable@guard@?$cached@H@__crt_cached_ptd_host@@QEAAXXZ 000000018009ebe0 f i libucrtd:output.obj
 0001:0009dbf0       ?enable@guard@?$cached@H@__crt_cached_ptd_host@@QEAAXXZ 000000018009ebf0 f i libucrtd:output.obj
 0001:0009dc00       ?find_next_state@?$output_processor@DV?$stream_output_adapter@D@__crt_stdio_output@@V?$format_validation_base@DV?$stream_output_adapter@D@__crt_stdio_output@@@2@@__crt_stdio_output@@AEBA?AW4state@2@DW432@@Z 000000018009ec00 f i libucrtd:output.obj
 0001:0009dca0       ?find_next_state@?$output_processor@DV?$stream_output_adapter@D@__crt_stdio_output@@V?$positional_parameter_base@DV?$stream_output_adapter@D@__crt_stdio_output@@@2@@__crt_stdio_output@@AEBA?AW4state@2@DW432@@Z 000000018009eca0 f i libucrtd:output.obj
 0001:0009dd40       ?find_next_state@?$output_processor@DV?$stream_output_adapter@D@__crt_stdio_output@@V?$standard_base@DV?$stream_output_adapter@D@__crt_stdio_output@@@2@@__crt_stdio_output@@AEBA?AW4state@2@DW432@@Z 000000018009ed40 f i libucrtd:output.obj
 0001:0009dde0       ?find_next_state@?$output_processor@DV?$string_output_adapter@D@__crt_stdio_output@@V?$format_validation_base@DV?$string_output_adapter@D@__crt_stdio_output@@@2@@__crt_stdio_output@@AEBA?AW4state@2@DW432@@Z 000000018009ede0 f i libucrtd:output.obj
 0001:0009de80       ?find_next_state@?$output_processor@DV?$string_output_adapter@D@__crt_stdio_output@@V?$positional_parameter_base@DV?$string_output_adapter@D@__crt_stdio_output@@@2@@__crt_stdio_output@@AEBA?AW4state@2@DW432@@Z 000000018009ee80 f i libucrtd:output.obj
 0001:0009df20       ?find_next_state@?$output_processor@DV?$string_output_adapter@D@__crt_stdio_output@@V?$standard_base@DV?$string_output_adapter@D@__crt_stdio_output@@@2@@__crt_stdio_output@@AEBA?AW4state@2@DW432@@Z 000000018009ef20 f i libucrtd:output.obj
 0001:0009dfc0       ?find_next_state@?$output_processor@_WV?$stream_output_adapter@_W@__crt_stdio_output@@V?$format_validation_base@_WV?$stream_output_adapter@_W@__crt_stdio_output@@@2@@__crt_stdio_output@@AEBA?AW4state@2@_WW432@@Z 000000018009efc0 f i libucrtd:output.obj
 0001:0009e060       ?find_next_state@?$output_processor@_WV?$stream_output_adapter@_W@__crt_stdio_output@@V?$positional_parameter_base@_WV?$stream_output_adapter@_W@__crt_stdio_output@@@2@@__crt_stdio_output@@AEBA?AW4state@2@_WW432@@Z 000000018009f060 f i libucrtd:output.obj
 0001:0009e100       ?find_next_state@?$output_processor@_WV?$stream_output_adapter@_W@__crt_stdio_output@@V?$standard_base@_WV?$stream_output_adapter@_W@__crt_stdio_output@@@2@@__crt_stdio_output@@AEBA?AW4state@2@_WW432@@Z 000000018009f100 f i libucrtd:output.obj
 0001:0009e1a0       ?find_next_state@?$output_processor@_WV?$string_output_adapter@_W@__crt_stdio_output@@V?$format_validation_base@_WV?$string_output_adapter@_W@__crt_stdio_output@@@2@@__crt_stdio_output@@AEBA?AW4state@2@_WW432@@Z 000000018009f1a0 f i libucrtd:output.obj
 0001:0009e240       ?find_next_state@?$output_processor@_WV?$string_output_adapter@_W@__crt_stdio_output@@V?$positional_parameter_base@_WV?$string_output_adapter@_W@__crt_stdio_output@@@2@@__crt_stdio_output@@AEBA?AW4state@2@_WW432@@Z 000000018009f240 f i libucrtd:output.obj
 0001:0009e2e0       ?find_next_state@?$output_processor@_WV?$string_output_adapter@_W@__crt_stdio_output@@V?$standard_base@_WV?$string_output_adapter@_W@__crt_stdio_output@@@2@@__crt_stdio_output@@AEBA?AW4state@2@_WW432@@Z 000000018009f2e0 f i libucrtd:output.obj
 0001:0009e380       ?force_decimal_point@__crt_stdio_output@@YAXPEADQEAU__crt_locale_pointers@@@Z 000000018009f380 f i libucrtd:output.obj
 0001:0009e480       ?force_synchronize_global_state_index@__crt_cached_ptd_host@@AEAA_KAEBV__crt_scoped_get_last_error_reset@@@Z 000000018009f480 f i libucrtd:output.obj
 0001:0009e4c0       ?force_synchronize_per_thread_data@__crt_cached_ptd_host@@AEAAPEAU__acrt_ptd@@XZ 000000018009f4c0 f i libucrtd:output.obj
 0001:0009e520       ?get@?$c_string_character_source@D@__crt_strtox@@QEAADXZ 000000018009f520 f i libucrtd:output.obj
 0001:0009e560       ?get@?$c_string_character_source@_W@__crt_strtox@@QEAA_WXZ 000000018009f560 f i libucrtd:output.obj
 0001:0009e5a0       ?get_current_state_index@__crt_state_management@@YA_KAEBV__crt_scoped_get_last_error_reset@@@Z 000000018009f5a0 f i libucrtd:output.obj
 0001:0009e5b0       ?get_errno@__crt_cached_ptd_host@@QEAAAEAU?$cached@H@1@XZ 000000018009f5b0 f i libucrtd:output.obj
 0001:0009e5c0       ?get_locale@__crt_cached_ptd_host@@QEAAPEAU__crt_locale_pointers@@XZ 000000018009f5c0 f i libucrtd:output.obj
 0001:0009e5f0       ?get_parameter_type@?$positional_parameter_base@DV?$stream_output_adapter@D@__crt_stdio_output@@@__crt_stdio_output@@CA?AW4parameter_type@12@F@Z 000000018009f5f0 f i libucrtd:output.obj
 0001:0009e600       ?get_parameter_type@?$positional_parameter_base@DV?$stream_output_adapter@D@__crt_stdio_output@@@__crt_stdio_output@@CA?AW4parameter_type@12@G@Z 000000018009f600 f i libucrtd:output.obj
 0001:0009e610       ?get_parameter_type@?$positional_parameter_base@DV?$stream_output_adapter@D@__crt_stdio_output@@@__crt_stdio_output@@CA?AW4parameter_type@12@H@Z 000000018009f610 f i libucrtd:output.obj
 0001:0009e620       ?get_parameter_type@?$positional_parameter_base@DV?$stream_output_adapter@D@__crt_stdio_output@@@__crt_stdio_output@@CA?AW4parameter_type@12@I@Z 000000018009f620 f i libucrtd:output.obj
 0001:0009e630       ?get_parameter_type@?$positional_parameter_base@DV?$stream_output_adapter@D@__crt_stdio_output@@@__crt_stdio_output@@CA?AW4parameter_type@12@U_CRT_DOUBLE@@@Z 000000018009f630 f i libucrtd:output.obj
 0001:0009e640       ?get_parameter_type@?$positional_parameter_base@DV?$stream_output_adapter@D@__crt_stdio_output@@@__crt_stdio_output@@CA?AW4parameter_type@12@_J@Z 000000018009f640 f i libucrtd:output.obj
 0001:0009e650       ?get_parameter_type@?$positional_parameter_base@DV?$stream_output_adapter@D@__crt_stdio_output@@@__crt_stdio_output@@CA?AW4parameter_type@12@_K@Z 000000018009f650 f i libucrtd:output.obj
 0001:0009e660       ?get_parameter_type@?$positional_parameter_base@DV?$stream_output_adapter@D@__crt_stdio_output@@@__crt_stdio_output@@CA?AW4parameter_type@12@_W@Z 000000018009f660 f i libucrtd:output.obj
 0001:0009e670       ?get_parameter_type@?$positional_parameter_base@DV?$string_output_adapter@D@__crt_stdio_output@@@__crt_stdio_output@@CA?AW4parameter_type@12@F@Z 000000018009f670 f i libucrtd:output.obj
 0001:0009e680       ?get_parameter_type@?$positional_parameter_base@DV?$string_output_adapter@D@__crt_stdio_output@@@__crt_stdio_output@@CA?AW4parameter_type@12@G@Z 000000018009f680 f i libucrtd:output.obj
 0001:0009e690       ?get_parameter_type@?$positional_parameter_base@DV?$string_output_adapter@D@__crt_stdio_output@@@__crt_stdio_output@@CA?AW4parameter_type@12@H@Z 000000018009f690 f i libucrtd:output.obj
 0001:0009e6a0       ?get_parameter_type@?$positional_parameter_base@DV?$string_output_adapter@D@__crt_stdio_output@@@__crt_stdio_output@@CA?AW4parameter_type@12@I@Z 000000018009f6a0 f i libucrtd:output.obj
 0001:0009e6b0       ?get_parameter_type@?$positional_parameter_base@DV?$string_output_adapter@D@__crt_stdio_output@@@__crt_stdio_output@@CA?AW4parameter_type@12@U_CRT_DOUBLE@@@Z 000000018009f6b0 f i libucrtd:output.obj
 0001:0009e6c0       ?get_parameter_type@?$positional_parameter_base@DV?$string_output_adapter@D@__crt_stdio_output@@@__crt_stdio_output@@CA?AW4parameter_type@12@_J@Z 000000018009f6c0 f i libucrtd:output.obj
 0001:0009e6d0       ?get_parameter_type@?$positional_parameter_base@DV?$string_output_adapter@D@__crt_stdio_output@@@__crt_stdio_output@@CA?AW4parameter_type@12@_K@Z 000000018009f6d0 f i libucrtd:output.obj
 0001:0009e6e0       ?get_parameter_type@?$positional_parameter_base@DV?$string_output_adapter@D@__crt_stdio_output@@@__crt_stdio_output@@CA?AW4parameter_type@12@_W@Z 000000018009f6e0 f i libucrtd:output.obj
 0001:0009e6f0       ?get_parameter_type@?$positional_parameter_base@_WV?$stream_output_adapter@_W@__crt_stdio_output@@@__crt_stdio_output@@CA?AW4parameter_type@12@F@Z 000000018009f6f0 f i libucrtd:output.obj
 0001:0009e700       ?get_parameter_type@?$positional_parameter_base@_WV?$stream_output_adapter@_W@__crt_stdio_output@@@__crt_stdio_output@@CA?AW4parameter_type@12@G@Z 000000018009f700 f i libucrtd:output.obj
 0001:0009e710       ?get_parameter_type@?$positional_parameter_base@_WV?$stream_output_adapter@_W@__crt_stdio_output@@@__crt_stdio_output@@CA?AW4parameter_type@12@H@Z 000000018009f710 f i libucrtd:output.obj
 0001:0009e720       ?get_parameter_type@?$positional_parameter_base@_WV?$stream_output_adapter@_W@__crt_stdio_output@@@__crt_stdio_output@@CA?AW4parameter_type@12@I@Z 000000018009f720 f i libucrtd:output.obj
 0001:0009e730       ?get_parameter_type@?$positional_parameter_base@_WV?$stream_output_adapter@_W@__crt_stdio_output@@@__crt_stdio_output@@CA?AW4parameter_type@12@U_CRT_DOUBLE@@@Z 000000018009f730 f i libucrtd:output.obj
 0001:0009e740       ?get_parameter_type@?$positional_parameter_base@_WV?$stream_output_adapter@_W@__crt_stdio_output@@@__crt_stdio_output@@CA?AW4parameter_type@12@_J@Z 000000018009f740 f i libucrtd:output.obj
 0001:0009e750       ?get_parameter_type@?$positional_parameter_base@_WV?$stream_output_adapter@_W@__crt_stdio_output@@@__crt_stdio_output@@CA?AW4parameter_type@12@_K@Z 000000018009f750 f i libucrtd:output.obj
 0001:0009e760       ?get_parameter_type@?$positional_parameter_base@_WV?$stream_output_adapter@_W@__crt_stdio_output@@@__crt_stdio_output@@CA?AW4parameter_type@12@_W@Z 000000018009f760 f i libucrtd:output.obj
 0001:0009e770       ?get_parameter_type@?$positional_parameter_base@_WV?$string_output_adapter@_W@__crt_stdio_output@@@__crt_stdio_output@@CA?AW4parameter_type@12@F@Z 000000018009f770 f i libucrtd:output.obj
 0001:0009e780       ?get_parameter_type@?$positional_parameter_base@_WV?$string_output_adapter@_W@__crt_stdio_output@@@__crt_stdio_output@@CA?AW4parameter_type@12@G@Z 000000018009f780 f i libucrtd:output.obj
 0001:0009e790       ?get_parameter_type@?$positional_parameter_base@_WV?$string_output_adapter@_W@__crt_stdio_output@@@__crt_stdio_output@@CA?AW4parameter_type@12@H@Z 000000018009f790 f i libucrtd:output.obj
 0001:0009e7a0       ?get_parameter_type@?$positional_parameter_base@_WV?$string_output_adapter@_W@__crt_stdio_output@@@__crt_stdio_output@@CA?AW4parameter_type@12@I@Z 000000018009f7a0 f i libucrtd:output.obj
 0001:0009e7b0       ?get_parameter_type@?$positional_parameter_base@_WV?$string_output_adapter@_W@__crt_stdio_output@@@__crt_stdio_output@@CA?AW4parameter_type@12@U_CRT_DOUBLE@@@Z 000000018009f7b0 f i libucrtd:output.obj
 0001:0009e7c0       ?get_parameter_type@?$positional_parameter_base@_WV?$string_output_adapter@_W@__crt_stdio_output@@@__crt_stdio_output@@CA?AW4parameter_type@12@_J@Z 000000018009f7c0 f i libucrtd:output.obj
 0001:0009e7d0       ?get_parameter_type@?$positional_parameter_base@_WV?$string_output_adapter@_W@__crt_stdio_output@@@__crt_stdio_output@@CA?AW4parameter_type@12@_K@Z 000000018009f7d0 f i libucrtd:output.obj
 0001:0009e7e0       ?get_parameter_type@?$positional_parameter_base@_WV?$string_output_adapter@_W@__crt_stdio_output@@@__crt_stdio_output@@CA?AW4parameter_type@12@_W@Z 000000018009f7e0 f i libucrtd:output.obj
 0001:0009e7f0       ?get_raw_ptd@__crt_cached_ptd_host@@QEAAPEAU__acrt_ptd@@XZ 000000018009f7f0 f i libucrtd:output.obj
 0001:0009e810       ?has_flag@?$output_processor@DV?$stream_output_adapter@D@__crt_stdio_output@@V?$format_validation_base@DV?$stream_output_adapter@D@__crt_stdio_output@@@2@@__crt_stdio_output@@AEBA_NI@Z 000000018009f810 f i libucrtd:output.obj
 0001:0009e850       ?has_flag@?$output_processor@DV?$stream_output_adapter@D@__crt_stdio_output@@V?$positional_parameter_base@DV?$stream_output_adapter@D@__crt_stdio_output@@@2@@__crt_stdio_output@@AEBA_NI@Z 000000018009f850 f i libucrtd:output.obj
 0001:0009e890       ?has_flag@?$output_processor@DV?$stream_output_adapter@D@__crt_stdio_output@@V?$standard_base@DV?$stream_output_adapter@D@__crt_stdio_output@@@2@@__crt_stdio_output@@AEBA_NI@Z 000000018009f890 f i libucrtd:output.obj
 0001:0009e8d0       ?has_flag@?$output_processor@DV?$string_output_adapter@D@__crt_stdio_output@@V?$format_validation_base@DV?$string_output_adapter@D@__crt_stdio_output@@@2@@__crt_stdio_output@@AEBA_NI@Z 000000018009f8d0 f i libucrtd:output.obj
 0001:0009e910       ?has_flag@?$output_processor@DV?$string_output_adapter@D@__crt_stdio_output@@V?$positional_parameter_base@DV?$string_output_adapter@D@__crt_stdio_output@@@2@@__crt_stdio_output@@AEBA_NI@Z 000000018009f910 f i libucrtd:output.obj
 0001:0009e950       ?has_flag@?$output_processor@DV?$string_output_adapter@D@__crt_stdio_output@@V?$standard_base@DV?$string_output_adapter@D@__crt_stdio_output@@@2@@__crt_stdio_output@@AEBA_NI@Z 000000018009f950 f i libucrtd:output.obj
 0001:0009e990       ?has_flag@?$output_processor@_WV?$stream_output_adapter@_W@__crt_stdio_output@@V?$format_validation_base@_WV?$stream_output_adapter@_W@__crt_stdio_output@@@2@@__crt_stdio_output@@AEBA_NI@Z 000000018009f990 f i libucrtd:output.obj
 0001:0009e9d0       ?has_flag@?$output_processor@_WV?$stream_output_adapter@_W@__crt_stdio_output@@V?$positional_parameter_base@_WV?$stream_output_adapter@_W@__crt_stdio_output@@@2@@__crt_stdio_output@@AEBA_NI@Z 000000018009f9d0 f i libucrtd:output.obj
 0001:0009ea10       ?has_flag@?$output_processor@_WV?$stream_output_adapter@_W@__crt_stdio_output@@V?$standard_base@_WV?$stream_output_adapter@_W@__crt_stdio_output@@@2@@__crt_stdio_output@@AEBA_NI@Z 000000018009fa10 f i libucrtd:output.obj
 0001:0009ea50       ?has_flag@?$output_processor@_WV?$string_output_adapter@_W@__crt_stdio_output@@V?$format_validation_base@_WV?$string_output_adapter@_W@__crt_stdio_output@@@2@@__crt_stdio_output@@AEBA_NI@Z 000000018009fa50 f i libucrtd:output.obj
 0001:0009ea90       ?has_flag@?$output_processor@_WV?$string_output_adapter@_W@__crt_stdio_output@@V?$positional_parameter_base@_WV?$string_output_adapter@_W@__crt_stdio_output@@@2@@__crt_stdio_output@@AEBA_NI@Z 000000018009fa90 f i libucrtd:output.obj
 0001:0009ead0       ?has_flag@?$output_processor@_WV?$string_output_adapter@_W@__crt_stdio_output@@V?$standard_base@_WV?$string_output_adapter@_W@__crt_stdio_output@@@2@@__crt_stdio_output@@AEBA_NI@Z 000000018009fad0 f i libucrtd:output.obj
 0001:0009eb10       ?is_positional_parameter_reappearance_consistent@?$positional_parameter_base@DV?$stream_output_adapter@D@__crt_stdio_output@@@__crt_stdio_output@@AEAA_NAEBUparameter_data@12@W4parameter_type@12@DW4length_modifier@2@@Z 000000018009fb10 f i libucrtd:output.obj
 0001:0009ed70       ?is_positional_parameter_reappearance_consistent@?$positional_parameter_base@DV?$string_output_adapter@D@__crt_stdio_output@@@__crt_stdio_output@@AEAA_NAEBUparameter_data@12@W4parameter_type@12@DW4length_modifier@2@@Z 000000018009fd70 f i libucrtd:output.obj
 0001:0009efd0       ?is_positional_parameter_reappearance_consistent@?$positional_parameter_base@_WV?$stream_output_adapter@_W@__crt_stdio_output@@@__crt_stdio_output@@AEAA_NAEBUparameter_data@12@W4parameter_type@12@_WW4length_modifier@2@@Z 000000018009ffd0 f i libucrtd:output.obj
 0001:0009f230       ?is_positional_parameter_reappearance_consistent@?$positional_parameter_base@_WV?$string_output_adapter@_W@__crt_stdio_output@@@__crt_stdio_output@@AEAA_NAEBUparameter_data@12@W4parameter_type@12@_WW4length_modifier@2@@Z 00000001800a0230 f i libucrtd:output.obj
 0001:0009f490       ?is_string_backed@__crt_stdio_stream@@QEBA_NXZ 00000001800a0490 f i libucrtd:output.obj
 0001:0009f4d0       ?maximum_signed_value@__crt_strtox@@YAJK@Z 00000001800a04d0 f i libucrtd:output.obj
 0001:0009f4e0       ?minimum_signed_value@__crt_strtox@@YAJK@Z 00000001800a04e0 f i libucrtd:output.obj
 0001:0009f4f0       ?narrow_null_string@?$output_processor@DV?$stream_output_adapter@D@__crt_stdio_output@@V?$format_validation_base@DV?$stream_output_adapter@D@__crt_stdio_output@@@2@@__crt_stdio_output@@CAPEADXZ 00000001800a04f0 f i libucrtd:output.obj
 0001:0009f500       ?narrow_null_string@?$output_processor@DV?$stream_output_adapter@D@__crt_stdio_output@@V?$positional_parameter_base@DV?$stream_output_adapter@D@__crt_stdio_output@@@2@@__crt_stdio_output@@CAPEADXZ 00000001800a0500 f i libucrtd:output.obj
 0001:0009f510       ?narrow_null_string@?$output_processor@DV?$stream_output_adapter@D@__crt_stdio_output@@V?$standard_base@DV?$stream_output_adapter@D@__crt_stdio_output@@@2@@__crt_stdio_output@@CAPEADXZ 00000001800a0510 f i libucrtd:output.obj
 0001:0009f520       ?narrow_null_string@?$output_processor@DV?$string_output_adapter@D@__crt_stdio_output@@V?$format_validation_base@DV?$string_output_adapter@D@__crt_stdio_output@@@2@@__crt_stdio_output@@CAPEADXZ 00000001800a0520 f i libucrtd:output.obj
 0001:0009f530       ?narrow_null_string@?$output_processor@DV?$string_output_adapter@D@__crt_stdio_output@@V?$positional_parameter_base@DV?$string_output_adapter@D@__crt_stdio_output@@@2@@__crt_stdio_output@@CAPEADXZ 00000001800a0530 f i libucrtd:output.obj
 0001:0009f540       ?narrow_null_string@?$output_processor@DV?$string_output_adapter@D@__crt_stdio_output@@V?$standard_base@DV?$string_output_adapter@D@__crt_stdio_output@@@2@@__crt_stdio_output@@CAPEADXZ 00000001800a0540 f i libucrtd:output.obj
 0001:0009f550       ?narrow_null_string@?$output_processor@_WV?$stream_output_adapter@_W@__crt_stdio_output@@V?$format_validation_base@_WV?$stream_output_adapter@_W@__crt_stdio_output@@@2@@__crt_stdio_output@@CAPEADXZ 00000001800a0550 f i libucrtd:output.obj
 0001:0009f560       ?narrow_null_string@?$output_processor@_WV?$stream_output_adapter@_W@__crt_stdio_output@@V?$positional_parameter_base@_WV?$stream_output_adapter@_W@__crt_stdio_output@@@2@@__crt_stdio_output@@CAPEADXZ 00000001800a0560 f i libucrtd:output.obj
 0001:0009f570       ?narrow_null_string@?$output_processor@_WV?$stream_output_adapter@_W@__crt_stdio_output@@V?$standard_base@_WV?$stream_output_adapter@_W@__crt_stdio_output@@@2@@__crt_stdio_output@@CAPEADXZ 00000001800a0570 f i libucrtd:output.obj
 0001:0009f580       ?narrow_null_string@?$output_processor@_WV?$string_output_adapter@_W@__crt_stdio_output@@V?$format_validation_base@_WV?$string_output_adapter@_W@__crt_stdio_output@@@2@@__crt_stdio_output@@CAPEADXZ 00000001800a0580 f i libucrtd:output.obj
 0001:0009f590       ?narrow_null_string@?$output_processor@_WV?$string_output_adapter@_W@__crt_stdio_output@@V?$positional_parameter_base@_WV?$string_output_adapter@_W@__crt_stdio_output@@@2@@__crt_stdio_output@@CAPEADXZ 00000001800a0590 f i libucrtd:output.obj
 0001:0009f5a0       ?narrow_null_string@?$output_processor@_WV?$string_output_adapter@_W@__crt_stdio_output@@V?$standard_base@_WV?$string_output_adapter@_W@__crt_stdio_output@@@2@@__crt_stdio_output@@CAPEADXZ 00000001800a05a0 f i libucrtd:output.obj
 0001:0009f5b0       ?parse_digit@__crt_strtox@@YAID@Z 00000001800a05b0 f i libucrtd:output.obj
 0001:0009f620       ?parse_digit@__crt_strtox@@YAI_W@Z 00000001800a0620 f i libucrtd:output.obj
 0001:0009f670       ?parse_int_from_format_string@?$output_processor@DV?$stream_output_adapter@D@__crt_stdio_output@@V?$format_validation_base@DV?$stream_output_adapter@D@__crt_stdio_output@@@2@@__crt_stdio_output@@AEAA_NQEAH@Z 00000001800a0670 f i libucrtd:output.obj
 0001:0009f770       ?parse_int_from_format_string@?$output_processor@DV?$stream_output_adapter@D@__crt_stdio_output@@V?$positional_parameter_base@DV?$stream_output_adapter@D@__crt_stdio_output@@@2@@__crt_stdio_output@@AEAA_NQEAH@Z 00000001800a0770 f i libucrtd:output.obj
 0001:0009f870       ?parse_int_from_format_string@?$output_processor@DV?$stream_output_adapter@D@__crt_stdio_output@@V?$standard_base@DV?$stream_output_adapter@D@__crt_stdio_output@@@2@@__crt_stdio_output@@AEAA_NQEAH@Z 00000001800a0870 f i libucrtd:output.obj
 0001:0009f970       ?parse_int_from_format_string@?$output_processor@DV?$string_output_adapter@D@__crt_stdio_output@@V?$format_validation_base@DV?$string_output_adapter@D@__crt_stdio_output@@@2@@__crt_stdio_output@@AEAA_NQEAH@Z 00000001800a0970 f i libucrtd:output.obj
 0001:0009fa70       ?parse_int_from_format_string@?$output_processor@DV?$string_output_adapter@D@__crt_stdio_output@@V?$positional_parameter_base@DV?$string_output_adapter@D@__crt_stdio_output@@@2@@__crt_stdio_output@@AEAA_NQEAH@Z 00000001800a0a70 f i libucrtd:output.obj
 0001:0009fb70       ?parse_int_from_format_string@?$output_processor@DV?$string_output_adapter@D@__crt_stdio_output@@V?$standard_base@DV?$string_output_adapter@D@__crt_stdio_output@@@2@@__crt_stdio_output@@AEAA_NQEAH@Z 00000001800a0b70 f i libucrtd:output.obj
 0001:0009fc70       ?parse_int_from_format_string@?$output_processor@_WV?$stream_output_adapter@_W@__crt_stdio_output@@V?$format_validation_base@_WV?$stream_output_adapter@_W@__crt_stdio_output@@@2@@__crt_stdio_output@@AEAA_NQEAH@Z 00000001800a0c70 f i libucrtd:output.obj
 0001:0009fd70       ?parse_int_from_format_string@?$output_processor@_WV?$stream_output_adapter@_W@__crt_stdio_output@@V?$positional_parameter_base@_WV?$stream_output_adapter@_W@__crt_stdio_output@@@2@@__crt_stdio_output@@AEAA_NQEAH@Z 00000001800a0d70 f i libucrtd:output.obj
 0001:0009fe70       ?parse_int_from_format_string@?$output_processor@_WV?$stream_output_adapter@_W@__crt_stdio_output@@V?$standard_base@_WV?$stream_output_adapter@_W@__crt_stdio_output@@@2@@__crt_stdio_output@@AEAA_NQEAH@Z 00000001800a0e70 f i libucrtd:output.obj
 0001:0009ff70       ?parse_int_from_format_string@?$output_processor@_WV?$string_output_adapter@_W@__crt_stdio_output@@V?$format_validation_base@_WV?$string_output_adapter@_W@__crt_stdio_output@@@2@@__crt_stdio_output@@AEAA_NQEAH@Z 00000001800a0f70 f i libucrtd:output.obj
 0001:000a0070       ?parse_int_from_format_string@?$output_processor@_WV?$string_output_adapter@_W@__crt_stdio_output@@V?$positional_parameter_base@_WV?$string_output_adapter@_W@__crt_stdio_output@@@2@@__crt_stdio_output@@AEAA_NQEAH@Z 00000001800a1070 f i libucrtd:output.obj
 0001:000a0170       ?parse_int_from_format_string@?$output_processor@_WV?$string_output_adapter@_W@__crt_stdio_output@@V?$standard_base@_WV?$string_output_adapter@_W@__crt_stdio_output@@@2@@__crt_stdio_output@@AEAA_NQEAH@Z 00000001800a1170 f i libucrtd:output.obj
 0001:000a0270       ?process@?$output_processor@DV?$stream_output_adapter@D@__crt_stdio_output@@V?$format_validation_base@DV?$stream_output_adapter@D@__crt_stdio_output@@@2@@__crt_stdio_output@@QEAAHXZ 00000001800a1270 f i libucrtd:output.obj
 0001:000a0630       ?process@?$output_processor@DV?$stream_output_adapter@D@__crt_stdio_output@@V?$positional_parameter_base@DV?$stream_output_adapter@D@__crt_stdio_output@@@2@@__crt_stdio_output@@QEAAHXZ 00000001800a1630 f i libucrtd:output.obj
 0001:000a09f0       ?process@?$output_processor@DV?$stream_output_adapter@D@__crt_stdio_output@@V?$standard_base@DV?$stream_output_adapter@D@__crt_stdio_output@@@2@@__crt_stdio_output@@QEAAHXZ 00000001800a19f0 f i libucrtd:output.obj
 0001:000a0db0       ?process@?$output_processor@DV?$string_output_adapter@D@__crt_stdio_output@@V?$format_validation_base@DV?$string_output_adapter@D@__crt_stdio_output@@@2@@__crt_stdio_output@@QEAAHXZ 00000001800a1db0 f i libucrtd:output.obj
 0001:000a1170       ?process@?$output_processor@DV?$string_output_adapter@D@__crt_stdio_output@@V?$positional_parameter_base@DV?$string_output_adapter@D@__crt_stdio_output@@@2@@__crt_stdio_output@@QEAAHXZ 00000001800a2170 f i libucrtd:output.obj
 0001:000a1530       ?process@?$output_processor@DV?$string_output_adapter@D@__crt_stdio_output@@V?$standard_base@DV?$string_output_adapter@D@__crt_stdio_output@@@2@@__crt_stdio_output@@QEAAHXZ 00000001800a2530 f i libucrtd:output.obj
 0001:000a18f0       ?process@?$output_processor@_WV?$stream_output_adapter@_W@__crt_stdio_output@@V?$format_validation_base@_WV?$stream_output_adapter@_W@__crt_stdio_output@@@2@@__crt_stdio_output@@QEAAHXZ 00000001800a28f0 f i libucrtd:output.obj
 0001:000a1cb0       ?process@?$output_processor@_WV?$stream_output_adapter@_W@__crt_stdio_output@@V?$positional_parameter_base@_WV?$stream_output_adapter@_W@__crt_stdio_output@@@2@@__crt_stdio_output@@QEAAHXZ 00000001800a2cb0 f i libucrtd:output.obj
 0001:000a2070       ?process@?$output_processor@_WV?$stream_output_adapter@_W@__crt_stdio_output@@V?$standard_base@_WV?$stream_output_adapter@_W@__crt_stdio_output@@@2@@__crt_stdio_output@@QEAAHXZ 00000001800a3070 f i libucrtd:output.obj
 0001:000a2430       ?process@?$output_processor@_WV?$string_output_adapter@_W@__crt_stdio_output@@V?$format_validation_base@_WV?$string_output_adapter@_W@__crt_stdio_output@@@2@@__crt_stdio_output@@QEAAHXZ 00000001800a3430 f i libucrtd:output.obj
 0001:000a27f0       ?process@?$output_processor@_WV?$string_output_adapter@_W@__crt_stdio_output@@V?$positional_parameter_base@_WV?$string_output_adapter@_W@__crt_stdio_output@@@2@@__crt_stdio_output@@QEAAHXZ 00000001800a37f0 f i libucrtd:output.obj
 0001:000a2bb0       ?process@?$output_processor@_WV?$string_output_adapter@_W@__crt_stdio_output@@V?$standard_base@_WV?$string_output_adapter@_W@__crt_stdio_output@@@2@@__crt_stdio_output@@QEAAHXZ 00000001800a3bb0 f i libucrtd:output.obj
 0001:000a2f70       ?public_stream@__crt_stdio_stream@@QEBAPEAU_iobuf@@XZ 00000001800a3f70 f i libucrtd:output.obj
 0001:000a2f80       ?restore_state@?$c_string_character_source@D@__crt_strtox@@QEAA_NQEBD@Z 00000001800a3f80 f i libucrtd:output.obj
 0001:000a2fa0       ?restore_state@?$c_string_character_source@_W@__crt_strtox@@QEAA_NQEB_W@Z 00000001800a3fa0 f i libucrtd:output.obj
 0001:000a2fc0       ?save_state@?$c_string_character_source@D@__crt_strtox@@QEBAPEBDXZ 00000001800a3fc0 f i libucrtd:output.obj
 0001:000a2fd0       ?save_state@?$c_string_character_source@_W@__crt_strtox@@QEBAPEB_WXZ 00000001800a3fd0 f i libucrtd:output.obj
 0001:000a2fe0       ?set@?$cached@H@__crt_cached_ptd_host@@QEAAHH@Z 00000001800a3fe0 f i libucrtd:output.obj
 0001:000a3010       ?set_flag@?$output_processor@DV?$stream_output_adapter@D@__crt_stdio_output@@V?$format_validation_base@DV?$stream_output_adapter@D@__crt_stdio_output@@@2@@__crt_stdio_output@@AEAAXI@Z 00000001800a4010 f i libucrtd:output.obj
 0001:000a3030       ?set_flag@?$output_processor@DV?$stream_output_adapter@D@__crt_stdio_output@@V?$positional_parameter_base@DV?$stream_output_adapter@D@__crt_stdio_output@@@2@@__crt_stdio_output@@AEAAXI@Z 00000001800a4030 f i libucrtd:output.obj
 0001:000a3050       ?set_flag@?$output_processor@DV?$stream_output_adapter@D@__crt_stdio_output@@V?$standard_base@DV?$stream_output_adapter@D@__crt_stdio_output@@@2@@__crt_stdio_output@@AEAAXI@Z 00000001800a4050 f i libucrtd:output.obj
 0001:000a3070       ?set_flag@?$output_processor@DV?$string_output_adapter@D@__crt_stdio_output@@V?$format_validation_base@DV?$string_output_adapter@D@__crt_stdio_output@@@2@@__crt_stdio_output@@AEAAXI@Z 00000001800a4070 f i libucrtd:output.obj
 0001:000a3090       ?set_flag@?$output_processor@DV?$string_output_adapter@D@__crt_stdio_output@@V?$positional_parameter_base@DV?$string_output_adapter@D@__crt_stdio_output@@@2@@__crt_stdio_output@@AEAAXI@Z 00000001800a4090 f i libucrtd:output.obj
 0001:000a30b0       ?set_flag@?$output_processor@DV?$string_output_adapter@D@__crt_stdio_output@@V?$standard_base@DV?$string_output_adapter@D@__crt_stdio_output@@@2@@__crt_stdio_output@@AEAAXI@Z 00000001800a40b0 f i libucrtd:output.obj
 0001:000a30d0       ?set_flag@?$output_processor@_WV?$stream_output_adapter@_W@__crt_stdio_output@@V?$format_validation_base@_WV?$stream_output_adapter@_W@__crt_stdio_output@@@2@@__crt_stdio_output@@AEAAXI@Z 00000001800a40d0 f i libucrtd:output.obj
 0001:000a30f0       ?set_flag@?$output_processor@_WV?$stream_output_adapter@_W@__crt_stdio_output@@V?$positional_parameter_base@_WV?$stream_output_adapter@_W@__crt_stdio_output@@@2@@__crt_stdio_output@@AEAAXI@Z 00000001800a40f0 f i libucrtd:output.obj
 0001:000a3110       ?set_flag@?$output_processor@_WV?$stream_output_adapter@_W@__crt_stdio_output@@V?$standard_base@_WV?$stream_output_adapter@_W@__crt_stdio_output@@@2@@__crt_stdio_output@@AEAAXI@Z 00000001800a4110 f i libucrtd:output.obj
 0001:000a3130       ?set_flag@?$output_processor@_WV?$string_output_adapter@_W@__crt_stdio_output@@V?$format_validation_base@_WV?$string_output_adapter@_W@__crt_stdio_output@@@2@@__crt_stdio_output@@AEAAXI@Z 00000001800a4130 f i libucrtd:output.obj
 0001:000a3150       ?set_flag@?$output_processor@_WV?$string_output_adapter@_W@__crt_stdio_output@@V?$positional_parameter_base@_WV?$string_output_adapter@_W@__crt_stdio_output@@@2@@__crt_stdio_output@@AEAAXI@Z 00000001800a4150 f i libucrtd:output.obj
 0001:000a3170       ?set_flag@?$output_processor@_WV?$string_output_adapter@_W@__crt_stdio_output@@V?$standard_base@_WV?$string_output_adapter@_W@__crt_stdio_output@@@2@@__crt_stdio_output@@AEAAXI@Z 00000001800a4170 f i libucrtd:output.obj
 0001:000a3190       ?should_format@?$positional_parameter_base@DV?$stream_output_adapter@D@__crt_stdio_output@@@__crt_stdio_output@@IEAA_NXZ 00000001800a4190 f i libucrtd:output.obj
 0001:000a31d0       ?should_format@?$positional_parameter_base@DV?$string_output_adapter@D@__crt_stdio_output@@@__crt_stdio_output@@IEAA_NXZ 00000001800a41d0 f i libucrtd:output.obj
 0001:000a3210       ?should_format@?$positional_parameter_base@_WV?$stream_output_adapter@_W@__crt_stdio_output@@@__crt_stdio_output@@IEAA_NXZ 00000001800a4210 f i libucrtd:output.obj
 0001:000a3250       ?should_format@?$positional_parameter_base@_WV?$string_output_adapter@_W@__crt_stdio_output@@@__crt_stdio_output@@IEAA_NXZ 00000001800a4250 f i libucrtd:output.obj
 0001:000a3290       ?should_format@?$standard_base@DV?$stream_output_adapter@D@__crt_stdio_output@@@__crt_stdio_output@@IEAA_NXZ 00000001800a4290 f i libucrtd:output.obj
 0001:000a32a0       ?should_format@?$standard_base@DV?$string_output_adapter@D@__crt_stdio_output@@@__crt_stdio_output@@IEAA_NXZ 00000001800a42a0 f i libucrtd:output.obj
 0001:000a32b0       ?should_format@?$standard_base@_WV?$stream_output_adapter@_W@__crt_stdio_output@@@__crt_stdio_output@@IEAA_NXZ 00000001800a42b0 f i libucrtd:output.obj
 0001:000a32c0       ?should_format@?$standard_base@_WV?$string_output_adapter@_W@__crt_stdio_output@@@__crt_stdio_output@@IEAA_NXZ 00000001800a42c0 f i libucrtd:output.obj
 0001:000a32d0       ?should_skip_normal_state_processing@?$positional_parameter_base@DV?$stream_output_adapter@D@__crt_stdio_output@@@__crt_stdio_output@@IEAA_NXZ 00000001800a42d0 f i libucrtd:output.obj
 0001:000a3320       ?should_skip_normal_state_processing@?$positional_parameter_base@DV?$string_output_adapter@D@__crt_stdio_output@@@__crt_stdio_output@@IEAA_NXZ 00000001800a4320 f i libucrtd:output.obj
 0001:000a3370       ?should_skip_normal_state_processing@?$positional_parameter_base@_WV?$stream_output_adapter@_W@__crt_stdio_output@@@__crt_stdio_output@@IEAA_NXZ 00000001800a4370 f i libucrtd:output.obj
 0001:000a33c0       ?should_skip_normal_state_processing@?$positional_parameter_base@_WV?$string_output_adapter@_W@__crt_stdio_output@@@__crt_stdio_output@@IEAA_NXZ 00000001800a43c0 f i libucrtd:output.obj
 0001:000a3410       ?should_skip_normal_state_processing@?$standard_base@DV?$stream_output_adapter@D@__crt_stdio_output@@@__crt_stdio_output@@IEAA_NXZ 00000001800a4410 f i libucrtd:output.obj
 0001:000a3420       ?should_skip_normal_state_processing@?$standard_base@DV?$string_output_adapter@D@__crt_stdio_output@@@__crt_stdio_output@@IEAA_NXZ 00000001800a4420 f i libucrtd:output.obj
 0001:000a3430       ?should_skip_normal_state_processing@?$standard_base@_WV?$stream_output_adapter@_W@__crt_stdio_output@@@__crt_stdio_output@@IEAA_NXZ 00000001800a4430 f i libucrtd:output.obj
 0001:000a3440       ?should_skip_normal_state_processing@?$standard_base@_WV?$string_output_adapter@_W@__crt_stdio_output@@@__crt_stdio_output@@IEAA_NXZ 00000001800a4440 f i libucrtd:output.obj
 0001:000a3450       ?should_skip_type_state_output@?$positional_parameter_base@DV?$stream_output_adapter@D@__crt_stdio_output@@@__crt_stdio_output@@IEBA_NXZ 00000001800a4450 f i libucrtd:output.obj
 0001:000a3490       ?should_skip_type_state_output@?$positional_parameter_base@DV?$string_output_adapter@D@__crt_stdio_output@@@__crt_stdio_output@@IEBA_NXZ 00000001800a4490 f i libucrtd:output.obj
 0001:000a34d0       ?should_skip_type_state_output@?$positional_parameter_base@_WV?$stream_output_adapter@_W@__crt_stdio_output@@@__crt_stdio_output@@IEBA_NXZ 00000001800a44d0 f i libucrtd:output.obj
 0001:000a3510       ?should_skip_type_state_output@?$positional_parameter_base@_WV?$string_output_adapter@_W@__crt_stdio_output@@@__crt_stdio_output@@IEBA_NXZ 00000001800a4510 f i libucrtd:output.obj
 0001:000a3550       ?should_skip_type_state_output@?$standard_base@DV?$stream_output_adapter@D@__crt_stdio_output@@@__crt_stdio_output@@IEBA_NXZ 00000001800a4550 f i libucrtd:output.obj
 0001:000a3560       ?should_skip_type_state_output@?$standard_base@DV?$string_output_adapter@D@__crt_stdio_output@@@__crt_stdio_output@@IEBA_NXZ 00000001800a4560 f i libucrtd:output.obj
 0001:000a3570       ?should_skip_type_state_output@?$standard_base@_WV?$stream_output_adapter@_W@__crt_stdio_output@@@__crt_stdio_output@@IEBA_NXZ 00000001800a4570 f i libucrtd:output.obj
 0001:000a3580       ?should_skip_type_state_output@?$standard_base@_WV?$string_output_adapter@_W@__crt_stdio_output@@@__crt_stdio_output@@IEBA_NXZ 00000001800a4580 f i libucrtd:output.obj
 0001:000a3590       ?state_case_dot@?$output_processor@DV?$stream_output_adapter@D@__crt_stdio_output@@V?$format_validation_base@DV?$stream_output_adapter@D@__crt_stdio_output@@@2@@__crt_stdio_output@@AEAA_NXZ 00000001800a4590 f i libucrtd:output.obj
 0001:000a35b0       ?state_case_dot@?$output_processor@DV?$stream_output_adapter@D@__crt_stdio_output@@V?$positional_parameter_base@DV?$stream_output_adapter@D@__crt_stdio_output@@@2@@__crt_stdio_output@@AEAA_NXZ 00000001800a45b0 f i libucrtd:output.obj
 0001:000a35d0       ?state_case_dot@?$output_processor@DV?$stream_output_adapter@D@__crt_stdio_output@@V?$standard_base@DV?$stream_output_adapter@D@__crt_stdio_output@@@2@@__crt_stdio_output@@AEAA_NXZ 00000001800a45d0 f i libucrtd:output.obj
 0001:000a35f0       ?state_case_dot@?$output_processor@DV?$string_output_adapter@D@__crt_stdio_output@@V?$format_validation_base@DV?$string_output_adapter@D@__crt_stdio_output@@@2@@__crt_stdio_output@@AEAA_NXZ 00000001800a45f0 f i libucrtd:output.obj
 0001:000a3610       ?state_case_dot@?$output_processor@DV?$string_output_adapter@D@__crt_stdio_output@@V?$positional_parameter_base@DV?$string_output_adapter@D@__crt_stdio_output@@@2@@__crt_stdio_output@@AEAA_NXZ 00000001800a4610 f i libucrtd:output.obj
 0001:000a3630       ?state_case_dot@?$output_processor@DV?$string_output_adapter@D@__crt_stdio_output@@V?$standard_base@DV?$string_output_adapter@D@__crt_stdio_output@@@2@@__crt_stdio_output@@AEAA_NXZ 00000001800a4630 f i libucrtd:output.obj
 0001:000a3650       ?state_case_dot@?$output_processor@_WV?$stream_output_adapter@_W@__crt_stdio_output@@V?$format_validation_base@_WV?$stream_output_adapter@_W@__crt_stdio_output@@@2@@__crt_stdio_output@@AEAA_NXZ 00000001800a4650 f i libucrtd:output.obj
 0001:000a3670       ?state_case_dot@?$output_processor@_WV?$stream_output_adapter@_W@__crt_stdio_output@@V?$positional_parameter_base@_WV?$stream_output_adapter@_W@__crt_stdio_output@@@2@@__crt_stdio_output@@AEAA_NXZ 00000001800a4670 f i libucrtd:output.obj
 0001:000a3690       ?state_case_dot@?$output_processor@_WV?$stream_output_adapter@_W@__crt_stdio_output@@V?$standard_base@_WV?$stream_output_adapter@_W@__crt_stdio_output@@@2@@__crt_stdio_output@@AEAA_NXZ 00000001800a4690 f i libucrtd:output.obj
 0001:000a36b0       ?state_case_dot@?$output_processor@_WV?$string_output_adapter@_W@__crt_stdio_output@@V?$format_validation_base@_WV?$string_output_adapter@_W@__crt_stdio_output@@@2@@__crt_stdio_output@@AEAA_NXZ 00000001800a46b0 f i libucrtd:output.obj
 0001:000a36d0       ?state_case_dot@?$output_processor@_WV?$string_output_adapter@_W@__crt_stdio_output@@V?$positional_parameter_base@_WV?$string_output_adapter@_W@__crt_stdio_output@@@2@@__crt_stdio_output@@AEAA_NXZ 00000001800a46d0 f i libucrtd:output.obj
 0001:000a36f0       ?state_case_dot@?$output_processor@_WV?$string_output_adapter@_W@__crt_stdio_output@@V?$standard_base@_WV?$string_output_adapter@_W@__crt_stdio_output@@@2@@__crt_stdio_output@@AEAA_NXZ 00000001800a46f0 f i libucrtd:output.obj
 0001:000a3710       ?state_case_flag@?$output_processor@DV?$stream_output_adapter@D@__crt_stdio_output@@V?$format_validation_base@DV?$stream_output_adapter@D@__crt_stdio_output@@@2@@__crt_stdio_output@@AEAA_NXZ 00000001800a4710 f i libucrtd:output.obj
 0001:000a37b0       ?state_case_flag@?$output_processor@DV?$stream_output_adapter@D@__crt_stdio_output@@V?$positional_parameter_base@DV?$stream_output_adapter@D@__crt_stdio_output@@@2@@__crt_stdio_output@@AEAA_NXZ 00000001800a47b0 f i libucrtd:output.obj
 0001:000a3850       ?state_case_flag@?$output_processor@DV?$stream_output_adapter@D@__crt_stdio_output@@V?$standard_base@DV?$stream_output_adapter@D@__crt_stdio_output@@@2@@__crt_stdio_output@@AEAA_NXZ 00000001800a4850 f i libucrtd:output.obj
 0001:000a38f0       ?state_case_flag@?$output_processor@DV?$string_output_adapter@D@__crt_stdio_output@@V?$format_validation_base@DV?$string_output_adapter@D@__crt_stdio_output@@@2@@__crt_stdio_output@@AEAA_NXZ 00000001800a48f0 f i libucrtd:output.obj
 0001:000a3990       ?state_case_flag@?$output_processor@DV?$string_output_adapter@D@__crt_stdio_output@@V?$positional_parameter_base@DV?$string_output_adapter@D@__crt_stdio_output@@@2@@__crt_stdio_output@@AEAA_NXZ 00000001800a4990 f i libucrtd:output.obj
 0001:000a3a30       ?state_case_flag@?$output_processor@DV?$string_output_adapter@D@__crt_stdio_output@@V?$standard_base@DV?$string_output_adapter@D@__crt_stdio_output@@@2@@__crt_stdio_output@@AEAA_NXZ 00000001800a4a30 f i libucrtd:output.obj
 0001:000a3ad0       ?state_case_flag@?$output_processor@_WV?$stream_output_adapter@_W@__crt_stdio_output@@V?$format_validation_base@_WV?$stream_output_adapter@_W@__crt_stdio_output@@@2@@__crt_stdio_output@@AEAA_NXZ 00000001800a4ad0 f i libucrtd:output.obj
 0001:000a3b70       ?state_case_flag@?$output_processor@_WV?$stream_output_adapter@_W@__crt_stdio_output@@V?$positional_parameter_base@_WV?$stream_output_adapter@_W@__crt_stdio_output@@@2@@__crt_stdio_output@@AEAA_NXZ 00000001800a4b70 f i libucrtd:output.obj
 0001:000a3c10       ?state_case_flag@?$output_processor@_WV?$stream_output_adapter@_W@__crt_stdio_output@@V?$standard_base@_WV?$stream_output_adapter@_W@__crt_stdio_output@@@2@@__crt_stdio_output@@AEAA_NXZ 00000001800a4c10 f i libucrtd:output.obj
 0001:000a3cb0       ?state_case_flag@?$output_processor@_WV?$string_output_adapter@_W@__crt_stdio_output@@V?$format_validation_base@_WV?$string_output_adapter@_W@__crt_stdio_output@@@2@@__crt_stdio_output@@AEAA_NXZ 00000001800a4cb0 f i libucrtd:output.obj
 0001:000a3d50       ?state_case_flag@?$output_processor@_WV?$string_output_adapter@_W@__crt_stdio_output@@V?$positional_parameter_base@_WV?$string_output_adapter@_W@__crt_stdio_output@@@2@@__crt_stdio_output@@AEAA_NXZ 00000001800a4d50 f i libucrtd:output.obj
 0001:000a3df0       ?state_case_flag@?$output_processor@_WV?$string_output_adapter@_W@__crt_stdio_output@@V?$standard_base@_WV?$string_output_adapter@_W@__crt_stdio_output@@@2@@__crt_stdio_output@@AEAA_NXZ 00000001800a4df0 f i libucrtd:output.obj
 0001:000a3e90       ?state_case_normal@?$output_processor@DV?$stream_output_adapter@D@__crt_stdio_output@@V?$format_validation_base@DV?$stream_output_adapter@D@__crt_stdio_output@@@2@@__crt_stdio_output@@AEAA_NXZ 00000001800a4e90 f i libucrtd:output.obj
 0001:000a3f90       ?state_case_normal@?$output_processor@DV?$stream_output_adapter@D@__crt_stdio_output@@V?$positional_parameter_base@DV?$stream_output_adapter@D@__crt_stdio_output@@@2@@__crt_stdio_output@@AEAA_NXZ 00000001800a4f90 f i libucrtd:output.obj
 0001:000a4090       ?state_case_normal@?$output_processor@DV?$stream_output_adapter@D@__crt_stdio_output@@V?$standard_base@DV?$stream_output_adapter@D@__crt_stdio_output@@@2@@__crt_stdio_output@@AEAA_NXZ 00000001800a5090 f i libucrtd:output.obj
 0001:000a4190       ?state_case_normal@?$output_processor@DV?$string_output_adapter@D@__crt_stdio_output@@V?$format_validation_base@DV?$string_output_adapter@D@__crt_stdio_output@@@2@@__crt_stdio_output@@AEAA_NXZ 00000001800a5190 f i libucrtd:output.obj
 0001:000a4290       ?state_case_normal@?$output_processor@DV?$string_output_adapter@D@__crt_stdio_output@@V?$positional_parameter_base@DV?$string_output_adapter@D@__crt_stdio_output@@@2@@__crt_stdio_output@@AEAA_NXZ 00000001800a5290 f i libucrtd:output.obj
 0001:000a4390       ?state_case_normal@?$output_processor@DV?$string_output_adapter@D@__crt_stdio_output@@V?$standard_base@DV?$string_output_adapter@D@__crt_stdio_output@@@2@@__crt_stdio_output@@AEAA_NXZ 00000001800a5390 f i libucrtd:output.obj
 0001:000a4490       ?state_case_normal@?$output_processor@_WV?$stream_output_adapter@_W@__crt_stdio_output@@V?$format_validation_base@_WV?$stream_output_adapter@_W@__crt_stdio_output@@@2@@__crt_stdio_output@@AEAA_NXZ 00000001800a5490 f i libucrtd:output.obj
 0001:000a4590       ?state_case_normal@?$output_processor@_WV?$stream_output_adapter@_W@__crt_stdio_output@@V?$positional_parameter_base@_WV?$stream_output_adapter@_W@__crt_stdio_output@@@2@@__crt_stdio_output@@AEAA_NXZ 00000001800a5590 f i libucrtd:output.obj
 0001:000a4690       ?state_case_normal@?$output_processor@_WV?$stream_output_adapter@_W@__crt_stdio_output@@V?$standard_base@_WV?$stream_output_adapter@_W@__crt_stdio_output@@@2@@__crt_stdio_output@@AEAA_NXZ 00000001800a5690 f i libucrtd:output.obj
 0001:000a4790       ?state_case_normal@?$output_processor@_WV?$string_output_adapter@_W@__crt_stdio_output@@V?$format_validation_base@_WV?$string_output_adapter@_W@__crt_stdio_output@@@2@@__crt_stdio_output@@AEAA_NXZ 00000001800a5790 f i libucrtd:output.obj
 0001:000a4890       ?state_case_normal@?$output_processor@_WV?$string_output_adapter@_W@__crt_stdio_output@@V?$positional_parameter_base@_WV?$string_output_adapter@_W@__crt_stdio_output@@@2@@__crt_stdio_output@@AEAA_NXZ 00000001800a5890 f i libucrtd:output.obj
 0001:000a4990       ?state_case_normal@?$output_processor@_WV?$string_output_adapter@_W@__crt_stdio_output@@V?$standard_base@_WV?$string_output_adapter@_W@__crt_stdio_output@@@2@@__crt_stdio_output@@AEAA_NXZ 00000001800a5990 f i libucrtd:output.obj
 0001:000a4a90       ?state_case_normal_common@?$output_processor@DV?$stream_output_adapter@D@__crt_stdio_output@@V?$format_validation_base@DV?$stream_output_adapter@D@__crt_stdio_output@@@2@@__crt_stdio_output@@AEAA_NXZ 00000001800a5a90 f i libucrtd:output.obj
 0001:000a4af0       ?state_case_normal_common@?$output_processor@DV?$stream_output_adapter@D@__crt_stdio_output@@V?$positional_parameter_base@DV?$stream_output_adapter@D@__crt_stdio_output@@@2@@__crt_stdio_output@@AEAA_NXZ 00000001800a5af0 f i libucrtd:output.obj
 0001:000a4b50       ?state_case_normal_common@?$output_processor@DV?$stream_output_adapter@D@__crt_stdio_output@@V?$standard_base@DV?$stream_output_adapter@D@__crt_stdio_output@@@2@@__crt_stdio_output@@AEAA_NXZ 00000001800a5b50 f i libucrtd:output.obj
 0001:000a4bb0       ?state_case_normal_common@?$output_processor@DV?$string_output_adapter@D@__crt_stdio_output@@V?$format_validation_base@DV?$string_output_adapter@D@__crt_stdio_output@@@2@@__crt_stdio_output@@AEAA_NXZ 00000001800a5bb0 f i libucrtd:output.obj
 0001:000a4c10       ?state_case_normal_common@?$output_processor@DV?$string_output_adapter@D@__crt_stdio_output@@V?$positional_parameter_base@DV?$string_output_adapter@D@__crt_stdio_output@@@2@@__crt_stdio_output@@AEAA_NXZ 00000001800a5c10 f i libucrtd:output.obj
 0001:000a4c70       ?state_case_normal_common@?$output_processor@DV?$string_output_adapter@D@__crt_stdio_output@@V?$standard_base@DV?$string_output_adapter@D@__crt_stdio_output@@@2@@__crt_stdio_output@@AEAA_NXZ 00000001800a5c70 f i libucrtd:output.obj
 0001:000a4cd0       ?state_case_normal_common@?$output_processor@_WV?$stream_output_adapter@_W@__crt_stdio_output@@V?$format_validation_base@_WV?$stream_output_adapter@_W@__crt_stdio_output@@@2@@__crt_stdio_output@@AEAA_NXZ 00000001800a5cd0 f i libucrtd:output.obj
 0001:000a4d30       ?state_case_normal_common@?$output_processor@_WV?$stream_output_adapter@_W@__crt_stdio_output@@V?$positional_parameter_base@_WV?$stream_output_adapter@_W@__crt_stdio_output@@@2@@__crt_stdio_output@@AEAA_NXZ 00000001800a5d30 f i libucrtd:output.obj
 0001:000a4d90       ?state_case_normal_common@?$output_processor@_WV?$stream_output_adapter@_W@__crt_stdio_output@@V?$standard_base@_WV?$stream_output_adapter@_W@__crt_stdio_output@@@2@@__crt_stdio_output@@AEAA_NXZ 00000001800a5d90 f i libucrtd:output.obj
 0001:000a4df0       ?state_case_normal_common@?$output_processor@_WV?$string_output_adapter@_W@__crt_stdio_output@@V?$format_validation_base@_WV?$string_output_adapter@_W@__crt_stdio_output@@@2@@__crt_stdio_output@@AEAA_NXZ 00000001800a5df0 f i libucrtd:output.obj
 0001:000a4e50       ?state_case_normal_common@?$output_processor@_WV?$string_output_adapter@_W@__crt_stdio_output@@V?$positional_parameter_base@_WV?$string_output_adapter@_W@__crt_stdio_output@@@2@@__crt_stdio_output@@AEAA_NXZ 00000001800a5e50 f i libucrtd:output.obj
 0001:000a4eb0       ?state_case_normal_common@?$output_processor@_WV?$string_output_adapter@_W@__crt_stdio_output@@V?$standard_base@_WV?$string_output_adapter@_W@__crt_stdio_output@@@2@@__crt_stdio_output@@AEAA_NXZ 00000001800a5eb0 f i libucrtd:output.obj
 0001:000a4f10       ?state_case_normal_tchar@?$output_processor@DV?$stream_output_adapter@D@__crt_stdio_output@@V?$format_validation_base@DV?$stream_output_adapter@D@__crt_stdio_output@@@2@@__crt_stdio_output@@AEAA_ND@Z 00000001800a5f10 f i libucrtd:output.obj
 0001:000a50a0       ?state_case_normal_tchar@?$output_processor@DV?$stream_output_adapter@D@__crt_stdio_output@@V?$positional_parameter_base@DV?$stream_output_adapter@D@__crt_stdio_output@@@2@@__crt_stdio_output@@AEAA_ND@Z 00000001800a60a0 f i libucrtd:output.obj
 0001:000a5230       ?state_case_normal_tchar@?$output_processor@DV?$stream_output_adapter@D@__crt_stdio_output@@V?$standard_base@DV?$stream_output_adapter@D@__crt_stdio_output@@@2@@__crt_stdio_output@@AEAA_ND@Z 00000001800a6230 f i libucrtd:output.obj
 0001:000a53c0       ?state_case_normal_tchar@?$output_processor@DV?$string_output_adapter@D@__crt_stdio_output@@V?$format_validation_base@DV?$string_output_adapter@D@__crt_stdio_output@@@2@@__crt_stdio_output@@AEAA_ND@Z 00000001800a63c0 f i libucrtd:output.obj
 0001:000a5550       ?state_case_normal_tchar@?$output_processor@DV?$string_output_adapter@D@__crt_stdio_output@@V?$positional_parameter_base@DV?$string_output_adapter@D@__crt_stdio_output@@@2@@__crt_stdio_output@@AEAA_ND@Z 00000001800a6550 f i libucrtd:output.obj
 0001:000a56e0       ?state_case_normal_tchar@?$output_processor@DV?$string_output_adapter@D@__crt_stdio_output@@V?$standard_base@DV?$string_output_adapter@D@__crt_stdio_output@@@2@@__crt_stdio_output@@AEAA_ND@Z 00000001800a66e0 f i libucrtd:output.obj
 0001:000a5870       ?state_case_normal_tchar@?$output_processor@_WV?$stream_output_adapter@_W@__crt_stdio_output@@V?$format_validation_base@_WV?$stream_output_adapter@_W@__crt_stdio_output@@@2@@__crt_stdio_output@@AEAA_N_W@Z 00000001800a6870 f i libucrtd:output.obj
 0001:000a5890       ?state_case_normal_tchar@?$output_processor@_WV?$stream_output_adapter@_W@__crt_stdio_output@@V?$positional_parameter_base@_WV?$stream_output_adapter@_W@__crt_stdio_output@@@2@@__crt_stdio_output@@AEAA_N_W@Z 00000001800a6890 f i libucrtd:output.obj
 0001:000a58b0       ?state_case_normal_tchar@?$output_processor@_WV?$stream_output_adapter@_W@__crt_stdio_output@@V?$standard_base@_WV?$stream_output_adapter@_W@__crt_stdio_output@@@2@@__crt_stdio_output@@AEAA_N_W@Z 00000001800a68b0 f i libucrtd:output.obj
 0001:000a58d0       ?state_case_normal_tchar@?$output_processor@_WV?$string_output_adapter@_W@__crt_stdio_output@@V?$format_validation_base@_WV?$string_output_adapter@_W@__crt_stdio_output@@@2@@__crt_stdio_output@@AEAA_N_W@Z 00000001800a68d0 f i libucrtd:output.obj
 0001:000a58f0       ?state_case_normal_tchar@?$output_processor@_WV?$string_output_adapter@_W@__crt_stdio_output@@V?$positional_parameter_base@_WV?$string_output_adapter@_W@__crt_stdio_output@@@2@@__crt_stdio_output@@AEAA_N_W@Z 00000001800a68f0 f i libucrtd:output.obj
 0001:000a5910       ?state_case_normal_tchar@?$output_processor@_WV?$string_output_adapter@_W@__crt_stdio_output@@V?$standard_base@_WV?$string_output_adapter@_W@__crt_stdio_output@@@2@@__crt_stdio_output@@AEAA_N_W@Z 00000001800a6910 f i libucrtd:output.obj
 0001:000a5930       ?state_case_percent@?$output_processor@DV?$stream_output_adapter@D@__crt_stdio_output@@V?$format_validation_base@DV?$stream_output_adapter@D@__crt_stdio_output@@@2@@__crt_stdio_output@@AEAA_NXZ 00000001800a6930 f i libucrtd:output.obj
 0001:000a5980       ?state_case_percent@?$output_processor@DV?$stream_output_adapter@D@__crt_stdio_output@@V?$positional_parameter_base@DV?$stream_output_adapter@D@__crt_stdio_output@@@2@@__crt_stdio_output@@AEAA_NXZ 00000001800a6980 f i libucrtd:output.obj
 0001:000a59d0       ?state_case_percent@?$output_processor@DV?$stream_output_adapter@D@__crt_stdio_output@@V?$standard_base@DV?$stream_output_adapter@D@__crt_stdio_output@@@2@@__crt_stdio_output@@AEAA_NXZ 00000001800a69d0 f i libucrtd:output.obj
 0001:000a5a20       ?state_case_percent@?$output_processor@DV?$string_output_adapter@D@__crt_stdio_output@@V?$format_validation_base@DV?$string_output_adapter@D@__crt_stdio_output@@@2@@__crt_stdio_output@@AEAA_NXZ 00000001800a6a20 f i libucrtd:output.obj
 0001:000a5a70       ?state_case_percent@?$output_processor@DV?$string_output_adapter@D@__crt_stdio_output@@V?$positional_parameter_base@DV?$string_output_adapter@D@__crt_stdio_output@@@2@@__crt_stdio_output@@AEAA_NXZ 00000001800a6a70 f i libucrtd:output.obj
 0001:000a5ac0       ?state_case_percent@?$output_processor@DV?$string_output_adapter@D@__crt_stdio_output@@V?$standard_base@DV?$string_output_adapter@D@__crt_stdio_output@@@2@@__crt_stdio_output@@AEAA_NXZ 00000001800a6ac0 f i libucrtd:output.obj
 0001:000a5b10       ?state_case_percent@?$output_processor@_WV?$stream_output_adapter@_W@__crt_stdio_output@@V?$format_validation_base@_WV?$stream_output_adapter@_W@__crt_stdio_output@@@2@@__crt_stdio_output@@AEAA_NXZ 00000001800a6b10 f i libucrtd:output.obj
 0001:000a5b60       ?state_case_percent@?$output_processor@_WV?$stream_output_adapter@_W@__crt_stdio_output@@V?$positional_parameter_base@_WV?$stream_output_adapter@_W@__crt_stdio_output@@@2@@__crt_stdio_output@@AEAA_NXZ 00000001800a6b60 f i libucrtd:output.obj
 0001:000a5bb0       ?state_case_percent@?$output_processor@_WV?$stream_output_adapter@_W@__crt_stdio_output@@V?$standard_base@_WV?$stream_output_adapter@_W@__crt_stdio_output@@@2@@__crt_stdio_output@@AEAA_NXZ 00000001800a6bb0 f i libucrtd:output.obj
 0001:000a5c00       ?state_case_percent@?$output_processor@_WV?$string_output_adapter@_W@__crt_stdio_output@@V?$format_validation_base@_WV?$string_output_adapter@_W@__crt_stdio_output@@@2@@__crt_stdio_output@@AEAA_NXZ 00000001800a6c00 f i libucrtd:output.obj
 0001:000a5c50       ?state_case_percent@?$output_processor@_WV?$string_output_adapter@_W@__crt_stdio_output@@V?$positional_parameter_base@_WV?$string_output_adapter@_W@__crt_stdio_output@@@2@@__crt_stdio_output@@AEAA_NXZ 00000001800a6c50 f i libucrtd:output.obj
 0001:000a5ca0       ?state_case_percent@?$output_processor@_WV?$string_output_adapter@_W@__crt_stdio_output@@V?$standard_base@_WV?$string_output_adapter@_W@__crt_stdio_output@@@2@@__crt_stdio_output@@AEAA_NXZ 00000001800a6ca0 f i libucrtd:output.obj
 0001:000a5cf0       ?state_case_precision@?$output_processor@DV?$stream_output_adapter@D@__crt_stdio_output@@V?$format_validation_base@DV?$stream_output_adapter@D@__crt_stdio_output@@@2@@__crt_stdio_output@@AEAA_NXZ 00000001800a6cf0 f i libucrtd:output.obj
 0001:000a5d70       ?state_case_precision@?$output_processor@DV?$stream_output_adapter@D@__crt_stdio_output@@V?$positional_parameter_base@DV?$stream_output_adapter@D@__crt_stdio_output@@@2@@__crt_stdio_output@@AEAA_NXZ 00000001800a6d70 f i libucrtd:output.obj
 0001:000a5df0       ?state_case_precision@?$output_processor@DV?$stream_output_adapter@D@__crt_stdio_output@@V?$standard_base@DV?$stream_output_adapter@D@__crt_stdio_output@@@2@@__crt_stdio_output@@AEAA_NXZ 00000001800a6df0 f i libucrtd:output.obj
 0001:000a5e70       ?state_case_precision@?$output_processor@DV?$string_output_adapter@D@__crt_stdio_output@@V?$format_validation_base@DV?$string_output_adapter@D@__crt_stdio_output@@@2@@__crt_stdio_output@@AEAA_NXZ 00000001800a6e70 f i libucrtd:output.obj
 0001:000a5ef0       ?state_case_precision@?$output_processor@DV?$string_output_adapter@D@__crt_stdio_output@@V?$positional_parameter_base@DV?$string_output_adapter@D@__crt_stdio_output@@@2@@__crt_stdio_output@@AEAA_NXZ 00000001800a6ef0 f i libucrtd:output.obj
 0001:000a5f70       ?state_case_precision@?$output_processor@DV?$string_output_adapter@D@__crt_stdio_output@@V?$standard_base@DV?$string_output_adapter@D@__crt_stdio_output@@@2@@__crt_stdio_output@@AEAA_NXZ 00000001800a6f70 f i libucrtd:output.obj
 0001:000a5ff0       ?state_case_precision@?$output_processor@_WV?$stream_output_adapter@_W@__crt_stdio_output@@V?$format_validation_base@_WV?$stream_output_adapter@_W@__crt_stdio_output@@@2@@__crt_stdio_output@@AEAA_NXZ 00000001800a6ff0 f i libucrtd:output.obj
 0001:000a6070       ?state_case_precision@?$output_processor@_WV?$stream_output_adapter@_W@__crt_stdio_output@@V?$positional_parameter_base@_WV?$stream_output_adapter@_W@__crt_stdio_output@@@2@@__crt_stdio_output@@AEAA_NXZ 00000001800a7070 f i libucrtd:output.obj
 0001:000a60f0       ?state_case_precision@?$output_processor@_WV?$stream_output_adapter@_W@__crt_stdio_output@@V?$standard_base@_WV?$stream_output_adapter@_W@__crt_stdio_output@@@2@@__crt_stdio_output@@AEAA_NXZ 00000001800a70f0 f i libucrtd:output.obj
 0001:000a6170       ?state_case_precision@?$output_processor@_WV?$string_output_adapter@_W@__crt_stdio_output@@V?$format_validation_base@_WV?$string_output_adapter@_W@__crt_stdio_output@@@2@@__crt_stdio_output@@AEAA_NXZ 00000001800a7170 f i libucrtd:output.obj
 0001:000a61f0       ?state_case_precision@?$output_processor@_WV?$string_output_adapter@_W@__crt_stdio_output@@V?$positional_parameter_base@_WV?$string_output_adapter@_W@__crt_stdio_output@@@2@@__crt_stdio_output@@AEAA_NXZ 00000001800a71f0 f i libucrtd:output.obj
 0001:000a6270       ?state_case_precision@?$output_processor@_WV?$string_output_adapter@_W@__crt_stdio_output@@V?$standard_base@_WV?$string_output_adapter@_W@__crt_stdio_output@@@2@@__crt_stdio_output@@AEAA_NXZ 00000001800a7270 f i libucrtd:output.obj
 0001:000a62f0       ?state_case_size@?$output_processor@DV?$stream_output_adapter@D@__crt_stdio_output@@V?$format_validation_base@DV?$stream_output_adapter@D@__crt_stdio_output@@@2@@__crt_stdio_output@@AEAA_NXZ 00000001800a72f0 f i libucrtd:output.obj
 0001:000a67b0       ?state_case_size@?$output_processor@DV?$stream_output_adapter@D@__crt_stdio_output@@V?$positional_parameter_base@DV?$stream_output_adapter@D@__crt_stdio_output@@@2@@__crt_stdio_output@@AEAA_NXZ 00000001800a77b0 f i libucrtd:output.obj
 0001:000a6c70       ?state_case_size@?$output_processor@DV?$stream_output_adapter@D@__crt_stdio_output@@V?$standard_base@DV?$stream_output_adapter@D@__crt_stdio_output@@@2@@__crt_stdio_output@@AEAA_NXZ 00000001800a7c70 f i libucrtd:output.obj
 0001:000a7130       ?state_case_size@?$output_processor@DV?$string_output_adapter@D@__crt_stdio_output@@V?$format_validation_base@DV?$string_output_adapter@D@__crt_stdio_output@@@2@@__crt_stdio_output@@AEAA_NXZ 00000001800a8130 f i libucrtd:output.obj
 0001:000a75f0       ?state_case_size@?$output_processor@DV?$string_output_adapter@D@__crt_stdio_output@@V?$positional_parameter_base@DV?$string_output_adapter@D@__crt_stdio_output@@@2@@__crt_stdio_output@@AEAA_NXZ 00000001800a85f0 f i libucrtd:output.obj
 0001:000a7ab0       ?state_case_size@?$output_processor@DV?$string_output_adapter@D@__crt_stdio_output@@V?$standard_base@DV?$string_output_adapter@D@__crt_stdio_output@@@2@@__crt_stdio_output@@AEAA_NXZ 00000001800a8ab0 f i libucrtd:output.obj
 0001:000a7f70       ?state_case_size@?$output_processor@_WV?$stream_output_adapter@_W@__crt_stdio_output@@V?$format_validation_base@_WV?$stream_output_adapter@_W@__crt_stdio_output@@@2@@__crt_stdio_output@@AEAA_NXZ 00000001800a8f70 f i libucrtd:output.obj
 0001:000a8430       ?state_case_size@?$output_processor@_WV?$stream_output_adapter@_W@__crt_stdio_output@@V?$positional_parameter_base@_WV?$stream_output_adapter@_W@__crt_stdio_output@@@2@@__crt_stdio_output@@AEAA_NXZ 00000001800a9430 f i libucrtd:output.obj
 0001:000a88f0       ?state_case_size@?$output_processor@_WV?$stream_output_adapter@_W@__crt_stdio_output@@V?$standard_base@_WV?$stream_output_adapter@_W@__crt_stdio_output@@@2@@__crt_stdio_output@@AEAA_NXZ 00000001800a98f0 f i libucrtd:output.obj
 0001:000a8db0       ?state_case_size@?$output_processor@_WV?$string_output_adapter@_W@__crt_stdio_output@@V?$format_validation_base@_WV?$string_output_adapter@_W@__crt_stdio_output@@@2@@__crt_stdio_output@@AEAA_NXZ 00000001800a9db0 f i libucrtd:output.obj
 0001:000a9270       ?state_case_size@?$output_processor@_WV?$string_output_adapter@_W@__crt_stdio_output@@V?$positional_parameter_base@_WV?$string_output_adapter@_W@__crt_stdio_output@@@2@@__crt_stdio_output@@AEAA_NXZ 00000001800aa270 f i libucrtd:output.obj
 0001:000a9730       ?state_case_size@?$output_processor@_WV?$string_output_adapter@_W@__crt_stdio_output@@V?$standard_base@_WV?$string_output_adapter@_W@__crt_stdio_output@@@2@@__crt_stdio_output@@AEAA_NXZ 00000001800aa730 f i libucrtd:output.obj
 0001:000a9bf0       ?state_case_type@?$output_processor@DV?$stream_output_adapter@D@__crt_stdio_output@@V?$format_validation_base@DV?$stream_output_adapter@D@__crt_stdio_output@@@2@@__crt_stdio_output@@AEAA_NXZ 00000001800aabf0 f i libucrtd:output.obj
 0001:000aa0b0       ?state_case_type@?$output_processor@DV?$stream_output_adapter@D@__crt_stdio_output@@V?$positional_parameter_base@DV?$stream_output_adapter@D@__crt_stdio_output@@@2@@__crt_stdio_output@@AEAA_NXZ 00000001800ab0b0 f i libucrtd:output.obj
 0001:000aa570       ?state_case_type@?$output_processor@DV?$stream_output_adapter@D@__crt_stdio_output@@V?$standard_base@DV?$stream_output_adapter@D@__crt_stdio_output@@@2@@__crt_stdio_output@@AEAA_NXZ 00000001800ab570 f i libucrtd:output.obj
 0001:000aaa30       ?state_case_type@?$output_processor@DV?$string_output_adapter@D@__crt_stdio_output@@V?$format_validation_base@DV?$string_output_adapter@D@__crt_stdio_output@@@2@@__crt_stdio_output@@AEAA_NXZ 00000001800aba30 f i libucrtd:output.obj
 0001:000aaef0       ?state_case_type@?$output_processor@DV?$string_output_adapter@D@__crt_stdio_output@@V?$positional_parameter_base@DV?$string_output_adapter@D@__crt_stdio_output@@@2@@__crt_stdio_output@@AEAA_NXZ 00000001800abef0 f i libucrtd:output.obj
 0001:000ab3b0       ?state_case_type@?$output_processor@DV?$string_output_adapter@D@__crt_stdio_output@@V?$standard_base@DV?$string_output_adapter@D@__crt_stdio_output@@@2@@__crt_stdio_output@@AEAA_NXZ 00000001800ac3b0 f i libucrtd:output.obj
 0001:000ab870       ?state_case_type@?$output_processor@_WV?$stream_output_adapter@_W@__crt_stdio_output@@V?$format_validation_base@_WV?$stream_output_adapter@_W@__crt_stdio_output@@@2@@__crt_stdio_output@@AEAA_NXZ 00000001800ac870 f i libucrtd:output.obj
 0001:000abe00       ?state_case_type@?$output_processor@_WV?$stream_output_adapter@_W@__crt_stdio_output@@V?$positional_parameter_base@_WV?$stream_output_adapter@_W@__crt_stdio_output@@@2@@__crt_stdio_output@@AEAA_NXZ 00000001800ace00 f i libucrtd:output.obj
 0001:000ac390       ?state_case_type@?$output_processor@_WV?$stream_output_adapter@_W@__crt_stdio_output@@V?$standard_base@_WV?$stream_output_adapter@_W@__crt_stdio_output@@@2@@__crt_stdio_output@@AEAA_NXZ 00000001800ad390 f i libucrtd:output.obj
 0001:000ac920       ?state_case_type@?$output_processor@_WV?$string_output_adapter@_W@__crt_stdio_output@@V?$format_validation_base@_WV?$string_output_adapter@_W@__crt_stdio_output@@@2@@__crt_stdio_output@@AEAA_NXZ 00000001800ad920 f i libucrtd:output.obj
 0001:000aceb0       ?state_case_type@?$output_processor@_WV?$string_output_adapter@_W@__crt_stdio_output@@V?$positional_parameter_base@_WV?$string_output_adapter@_W@__crt_stdio_output@@@2@@__crt_stdio_output@@AEAA_NXZ 00000001800adeb0 f i libucrtd:output.obj
 0001:000ad440       ?state_case_type@?$output_processor@_WV?$string_output_adapter@_W@__crt_stdio_output@@V?$standard_base@_WV?$string_output_adapter@_W@__crt_stdio_output@@@2@@__crt_stdio_output@@AEAA_NXZ 00000001800ae440 f i libucrtd:output.obj
 0001:000ad9d0       ?state_case_width@?$output_processor@DV?$stream_output_adapter@D@__crt_stdio_output@@V?$format_validation_base@DV?$stream_output_adapter@D@__crt_stdio_output@@@2@@__crt_stdio_output@@AEAA_NXZ 00000001800ae9d0 f i libucrtd:output.obj
 0001:000ada60       ?state_case_width@?$output_processor@DV?$stream_output_adapter@D@__crt_stdio_output@@V?$positional_parameter_base@DV?$stream_output_adapter@D@__crt_stdio_output@@@2@@__crt_stdio_output@@AEAA_NXZ 00000001800aea60 f i libucrtd:output.obj
 0001:000adaf0       ?state_case_width@?$output_processor@DV?$stream_output_adapter@D@__crt_stdio_output@@V?$standard_base@DV?$stream_output_adapter@D@__crt_stdio_output@@@2@@__crt_stdio_output@@AEAA_NXZ 00000001800aeaf0 f i libucrtd:output.obj
 0001:000adb80       ?state_case_width@?$output_processor@DV?$string_output_adapter@D@__crt_stdio_output@@V?$format_validation_base@DV?$string_output_adapter@D@__crt_stdio_output@@@2@@__crt_stdio_output@@AEAA_NXZ 00000001800aeb80 f i libucrtd:output.obj
 0001:000adc10       ?state_case_width@?$output_processor@DV?$string_output_adapter@D@__crt_stdio_output@@V?$positional_parameter_base@DV?$string_output_adapter@D@__crt_stdio_output@@@2@@__crt_stdio_output@@AEAA_NXZ 00000001800aec10 f i libucrtd:output.obj
 0001:000adca0       ?state_case_width@?$output_processor@DV?$string_output_adapter@D@__crt_stdio_output@@V?$standard_base@DV?$string_output_adapter@D@__crt_stdio_output@@@2@@__crt_stdio_output@@AEAA_NXZ 00000001800aeca0 f i libucrtd:output.obj
 0001:000add30       ?state_case_width@?$output_processor@_WV?$stream_output_adapter@_W@__crt_stdio_output@@V?$format_validation_base@_WV?$stream_output_adapter@_W@__crt_stdio_output@@@2@@__crt_stdio_output@@AEAA_NXZ 00000001800aed30 f i libucrtd:output.obj
 0001:000addc0       ?state_case_width@?$output_processor@_WV?$stream_output_adapter@_W@__crt_stdio_output@@V?$positional_parameter_base@_WV?$stream_output_adapter@_W@__crt_stdio_output@@@2@@__crt_stdio_output@@AEAA_NXZ 00000001800aedc0 f i libucrtd:output.obj
 0001:000ade50       ?state_case_width@?$output_processor@_WV?$stream_output_adapter@_W@__crt_stdio_output@@V?$standard_base@_WV?$stream_output_adapter@_W@__crt_stdio_output@@@2@@__crt_stdio_output@@AEAA_NXZ 00000001800aee50 f i libucrtd:output.obj
 0001:000adee0       ?state_case_width@?$output_processor@_WV?$string_output_adapter@_W@__crt_stdio_output@@V?$format_validation_base@_WV?$string_output_adapter@_W@__crt_stdio_output@@@2@@__crt_stdio_output@@AEAA_NXZ 00000001800aeee0 f i libucrtd:output.obj
 0001:000adf70       ?state_case_width@?$output_processor@_WV?$string_output_adapter@_W@__crt_stdio_output@@V?$positional_parameter_base@_WV?$string_output_adapter@_W@__crt_stdio_output@@@2@@__crt_stdio_output@@AEAA_NXZ 00000001800aef70 f i libucrtd:output.obj
 0001:000ae000       ?state_case_width@?$output_processor@_WV?$string_output_adapter@_W@__crt_stdio_output@@V?$standard_base@_WV?$string_output_adapter@_W@__crt_stdio_output@@@2@@__crt_stdio_output@@AEAA_NXZ 00000001800af000 f i libucrtd:output.obj
 0001:000ae090       ?state_count@?$format_validation_base@DV?$stream_output_adapter@D@__crt_stdio_output@@@__crt_stdio_output@@KAIXZ 00000001800af090 f i libucrtd:output.obj
 0001:000ae0a0       ?state_count@?$format_validation_base@DV?$string_output_adapter@D@__crt_stdio_output@@@__crt_stdio_output@@KAIXZ 00000001800af0a0 f i libucrtd:output.obj
 0001:000ae0b0       ?state_count@?$format_validation_base@_WV?$stream_output_adapter@_W@__crt_stdio_output@@@__crt_stdio_output@@KAIXZ 00000001800af0b0 f i libucrtd:output.obj
 0001:000ae0c0       ?state_count@?$format_validation_base@_WV?$string_output_adapter@_W@__crt_stdio_output@@@__crt_stdio_output@@KAIXZ 00000001800af0c0 f i libucrtd:output.obj
 0001:000ae0d0       ?state_count@?$standard_base@DV?$stream_output_adapter@D@__crt_stdio_output@@@__crt_stdio_output@@KAIXZ 00000001800af0d0 f i libucrtd:output.obj
 0001:000ae0e0       ?state_count@?$standard_base@DV?$string_output_adapter@D@__crt_stdio_output@@@__crt_stdio_output@@KAIXZ 00000001800af0e0 f i libucrtd:output.obj
 0001:000ae0f0       ?state_count@?$standard_base@_WV?$stream_output_adapter@_W@__crt_stdio_output@@@__crt_stdio_output@@KAIXZ 00000001800af0f0 f i libucrtd:output.obj
 0001:000ae100       ?state_count@?$standard_base@_WV?$string_output_adapter@_W@__crt_stdio_output@@@__crt_stdio_output@@KAIXZ 00000001800af100 f i libucrtd:output.obj
 0001:000ae110       ?state_transition_table@?$format_validation_base@DV?$stream_output_adapter@D@__crt_stdio_output@@@__crt_stdio_output@@KAAEBV?$spectre_mitigated_lookup_table@Ustate_transition_pair@__crt_stdio_output@@$0IA@@2@XZ 00000001800af110 f i libucrtd:output.obj
 0001:000ae120       ?state_transition_table@?$format_validation_base@DV?$string_output_adapter@D@__crt_stdio_output@@@__crt_stdio_output@@KAAEBV?$spectre_mitigated_lookup_table@Ustate_transition_pair@__crt_stdio_output@@$0IA@@2@XZ 00000001800af120 f i libucrtd:output.obj
 0001:000ae130       ?state_transition_table@?$format_validation_base@_WV?$stream_output_adapter@_W@__crt_stdio_output@@@__crt_stdio_output@@KAAEBV?$spectre_mitigated_lookup_table@Ustate_transition_pair@__crt_stdio_output@@$0IA@@2@XZ 00000001800af130 f i libucrtd:output.obj
 0001:000ae140       ?state_transition_table@?$format_validation_base@_WV?$string_output_adapter@_W@__crt_stdio_output@@@__crt_stdio_output@@KAAEBV?$spectre_mitigated_lookup_table@Ustate_transition_pair@__crt_stdio_output@@$0IA@@2@XZ 00000001800af140 f i libucrtd:output.obj
 0001:000ae150       ?state_transition_table@?$standard_base@DV?$stream_output_adapter@D@__crt_stdio_output@@@__crt_stdio_output@@KAAEBV?$spectre_mitigated_lookup_table@Ustate_transition_pair@__crt_stdio_output@@$0IA@@2@XZ 00000001800af150 f i libucrtd:output.obj
 0001:000ae160       ?state_transition_table@?$standard_base@DV?$string_output_adapter@D@__crt_stdio_output@@@__crt_stdio_output@@KAAEBV?$spectre_mitigated_lookup_table@Ustate_transition_pair@__crt_stdio_output@@$0IA@@2@XZ 00000001800af160 f i libucrtd:output.obj
 0001:000ae170       ?state_transition_table@?$standard_base@_WV?$stream_output_adapter@_W@__crt_stdio_output@@@__crt_stdio_output@@KAAEBV?$spectre_mitigated_lookup_table@Ustate_transition_pair@__crt_stdio_output@@$0IA@@2@XZ 00000001800af170 f i libucrtd:output.obj
 0001:000ae180       ?state_transition_table@?$standard_base@_WV?$string_output_adapter@_W@__crt_stdio_output@@@__crt_stdio_output@@KAAEBV?$spectre_mitigated_lookup_table@Ustate_transition_pair@__crt_stdio_output@@$0IA@@2@XZ 00000001800af180 f i libucrtd:output.obj
 0001:000ae190       ?tchar_string@?$common_data@D@__crt_stdio_output@@IEAAAEAPEADD@Z 00000001800af190 f i libucrtd:output.obj
 0001:000ae1b0       ?tchar_string@?$common_data@D@__crt_stdio_output@@IEAAAEAPEADXZ 00000001800af1b0 f i libucrtd:output.obj
 0001:000ae1d0       ?tchar_string@?$common_data@_W@__crt_stdio_output@@IEAAAEAPEA_WXZ 00000001800af1d0 f i libucrtd:output.obj
 0001:000ae1f0       ?tchar_string@?$common_data@_W@__crt_stdio_output@@IEAAAEAPEA_W_W@Z 00000001800af1f0 f i libucrtd:output.obj
 0001:000ae210       ?to_integer_size@__crt_stdio_output@@YA_KW4length_modifier@1@@Z 00000001800af210 f i libucrtd:output.obj
 0001:000ae2c0       ?type_case_X@?$output_processor@DV?$stream_output_adapter@D@__crt_stdio_output@@V?$format_validation_base@DV?$stream_output_adapter@D@__crt_stdio_output@@@2@@__crt_stdio_output@@AEAA_NXZ 00000001800af2c0 f i libucrtd:output.obj
 0001:000ae2e0       ?type_case_X@?$output_processor@DV?$stream_output_adapter@D@__crt_stdio_output@@V?$positional_parameter_base@DV?$stream_output_adapter@D@__crt_stdio_output@@@2@@__crt_stdio_output@@AEAA_NXZ 00000001800af2e0 f i libucrtd:output.obj
 0001:000ae300       ?type_case_X@?$output_processor@DV?$stream_output_adapter@D@__crt_stdio_output@@V?$standard_base@DV?$stream_output_adapter@D@__crt_stdio_output@@@2@@__crt_stdio_output@@AEAA_NXZ 00000001800af300 f i libucrtd:output.obj
 0001:000ae320       ?type_case_X@?$output_processor@DV?$string_output_adapter@D@__crt_stdio_output@@V?$format_validation_base@DV?$string_output_adapter@D@__crt_stdio_output@@@2@@__crt_stdio_output@@AEAA_NXZ 00000001800af320 f i libucrtd:output.obj
 0001:000ae340       ?type_case_X@?$output_processor@DV?$string_output_adapter@D@__crt_stdio_output@@V?$positional_parameter_base@DV?$string_output_adapter@D@__crt_stdio_output@@@2@@__crt_stdio_output@@AEAA_NXZ 00000001800af340 f i libucrtd:output.obj
 0001:000ae360       ?type_case_X@?$output_processor@DV?$string_output_adapter@D@__crt_stdio_output@@V?$standard_base@DV?$string_output_adapter@D@__crt_stdio_output@@@2@@__crt_stdio_output@@AEAA_NXZ 00000001800af360 f i libucrtd:output.obj
 0001:000ae380       ?type_case_X@?$output_processor@_WV?$stream_output_adapter@_W@__crt_stdio_output@@V?$format_validation_base@_WV?$stream_output_adapter@_W@__crt_stdio_output@@@2@@__crt_stdio_output@@AEAA_NXZ 00000001800af380 f i libucrtd:output.obj
 0001:000ae3a0       ?type_case_X@?$output_processor@_WV?$stream_output_adapter@_W@__crt_stdio_output@@V?$positional_parameter_base@_WV?$stream_output_adapter@_W@__crt_stdio_output@@@2@@__crt_stdio_output@@AEAA_NXZ 00000001800af3a0 f i libucrtd:output.obj
 0001:000ae3c0       ?type_case_X@?$output_processor@_WV?$stream_output_adapter@_W@__crt_stdio_output@@V?$standard_base@_WV?$stream_output_adapter@_W@__crt_stdio_output@@@2@@__crt_stdio_output@@AEAA_NXZ 00000001800af3c0 f i libucrtd:output.obj
 0001:000ae3e0       ?type_case_X@?$output_processor@_WV?$string_output_adapter@_W@__crt_stdio_output@@V?$format_validation_base@_WV?$string_output_adapter@_W@__crt_stdio_output@@@2@@__crt_stdio_output@@AEAA_NXZ 00000001800af3e0 f i libucrtd:output.obj
 0001:000ae400       ?type_case_X@?$output_processor@_WV?$string_output_adapter@_W@__crt_stdio_output@@V?$positional_parameter_base@_WV?$string_output_adapter@_W@__crt_stdio_output@@@2@@__crt_stdio_output@@AEAA_NXZ 00000001800af400 f i libucrtd:output.obj
 0001:000ae420       ?type_case_X@?$output_processor@_WV?$string_output_adapter@_W@__crt_stdio_output@@V?$standard_base@_WV?$string_output_adapter@_W@__crt_stdio_output@@@2@@__crt_stdio_output@@AEAA_NXZ 00000001800af420 f i libucrtd:output.obj
 0001:000ae440       ?type_case_Z@?$output_processor@DV?$stream_output_adapter@D@__crt_stdio_output@@V?$format_validation_base@DV?$stream_output_adapter@D@__crt_stdio_output@@@2@@__crt_stdio_output@@AEAA_NXZ 00000001800af440 f i libucrtd:output.obj
 0001:000ae560       ?type_case_Z@?$output_processor@DV?$stream_output_adapter@D@__crt_stdio_output@@V?$positional_parameter_base@DV?$stream_output_adapter@D@__crt_stdio_output@@@2@@__crt_stdio_output@@AEAA_NXZ 00000001800af560 f i libucrtd:output.obj
 0001:000ae680       ?type_case_Z@?$output_processor@DV?$stream_output_adapter@D@__crt_stdio_output@@V?$standard_base@DV?$stream_output_adapter@D@__crt_stdio_output@@@2@@__crt_stdio_output@@AEAA_NXZ 00000001800af680 f i libucrtd:output.obj
 0001:000ae7a0       ?type_case_Z@?$output_processor@DV?$string_output_adapter@D@__crt_stdio_output@@V?$format_validation_base@DV?$string_output_adapter@D@__crt_stdio_output@@@2@@__crt_stdio_output@@AEAA_NXZ 00000001800af7a0 f i libucrtd:output.obj
 0001:000ae8c0       ?type_case_Z@?$output_processor@DV?$string_output_adapter@D@__crt_stdio_output@@V?$positional_parameter_base@DV?$string_output_adapter@D@__crt_stdio_output@@@2@@__crt_stdio_output@@AEAA_NXZ 00000001800af8c0 f i libucrtd:output.obj
 0001:000ae9e0       ?type_case_Z@?$output_processor@DV?$string_output_adapter@D@__crt_stdio_output@@V?$standard_base@DV?$string_output_adapter@D@__crt_stdio_output@@@2@@__crt_stdio_output@@AEAA_NXZ 00000001800af9e0 f i libucrtd:output.obj
 0001:000aeb00       ?type_case_Z@?$output_processor@_WV?$stream_output_adapter@_W@__crt_stdio_output@@V?$format_validation_base@_WV?$stream_output_adapter@_W@__crt_stdio_output@@@2@@__crt_stdio_output@@AEAA_NXZ 00000001800afb00 f i libucrtd:output.obj
 0001:000aec20       ?type_case_Z@?$output_processor@_WV?$stream_output_adapter@_W@__crt_stdio_output@@V?$positional_parameter_base@_WV?$stream_output_adapter@_W@__crt_stdio_output@@@2@@__crt_stdio_output@@AEAA_NXZ 00000001800afc20 f i libucrtd:output.obj
 0001:000aed40       ?type_case_Z@?$output_processor@_WV?$stream_output_adapter@_W@__crt_stdio_output@@V?$standard_base@_WV?$stream_output_adapter@_W@__crt_stdio_output@@@2@@__crt_stdio_output@@AEAA_NXZ 00000001800afd40 f i libucrtd:output.obj
 0001:000aee60       ?type_case_Z@?$output_processor@_WV?$string_output_adapter@_W@__crt_stdio_output@@V?$format_validation_base@_WV?$string_output_adapter@_W@__crt_stdio_output@@@2@@__crt_stdio_output@@AEAA_NXZ 00000001800afe60 f i libucrtd:output.obj
 0001:000aef80       ?type_case_Z@?$output_processor@_WV?$string_output_adapter@_W@__crt_stdio_output@@V?$positional_parameter_base@_WV?$string_output_adapter@_W@__crt_stdio_output@@@2@@__crt_stdio_output@@AEAA_NXZ 00000001800aff80 f i libucrtd:output.obj
 0001:000af0a0       ?type_case_Z@?$output_processor@_WV?$string_output_adapter@_W@__crt_stdio_output@@V?$standard_base@_WV?$string_output_adapter@_W@__crt_stdio_output@@@2@@__crt_stdio_output@@AEAA_NXZ 00000001800b00a0 f i libucrtd:output.obj
 0001:000af1c0       ?type_case_a@?$output_processor@DV?$stream_output_adapter@D@__crt_stdio_output@@V?$format_validation_base@DV?$stream_output_adapter@D@__crt_stdio_output@@@2@@__crt_stdio_output@@AEAA_NXZ 00000001800b01c0 f i libucrtd:output.obj
 0001:000af620       ?type_case_a@?$output_processor@DV?$stream_output_adapter@D@__crt_stdio_output@@V?$positional_parameter_base@DV?$stream_output_adapter@D@__crt_stdio_output@@@2@@__crt_stdio_output@@AEAA_NXZ 00000001800b0620 f i libucrtd:output.obj
 0001:000afa80       ?type_case_a@?$output_processor@DV?$stream_output_adapter@D@__crt_stdio_output@@V?$standard_base@DV?$stream_output_adapter@D@__crt_stdio_output@@@2@@__crt_stdio_output@@AEAA_NXZ 00000001800b0a80 f i libucrtd:output.obj
 0001:000afee0       ?type_case_a@?$output_processor@DV?$string_output_adapter@D@__crt_stdio_output@@V?$format_validation_base@DV?$string_output_adapter@D@__crt_stdio_output@@@2@@__crt_stdio_output@@AEAA_NXZ 00000001800b0ee0 f i libucrtd:output.obj
 0001:000b0340       ?type_case_a@?$output_processor@DV?$string_output_adapter@D@__crt_stdio_output@@V?$positional_parameter_base@DV?$string_output_adapter@D@__crt_stdio_output@@@2@@__crt_stdio_output@@AEAA_NXZ 00000001800b1340 f i libucrtd:output.obj
 0001:000b07a0       ?type_case_a@?$output_processor@DV?$string_output_adapter@D@__crt_stdio_output@@V?$standard_base@DV?$string_output_adapter@D@__crt_stdio_output@@@2@@__crt_stdio_output@@AEAA_NXZ 00000001800b17a0 f i libucrtd:output.obj
 0001:000b0c00       ?type_case_a@?$output_processor@_WV?$stream_output_adapter@_W@__crt_stdio_output@@V?$format_validation_base@_WV?$stream_output_adapter@_W@__crt_stdio_output@@@2@@__crt_stdio_output@@AEAA_NXZ 00000001800b1c00 f i libucrtd:output.obj
 0001:000b1070       ?type_case_a@?$output_processor@_WV?$stream_output_adapter@_W@__crt_stdio_output@@V?$positional_parameter_base@_WV?$stream_output_adapter@_W@__crt_stdio_output@@@2@@__crt_stdio_output@@AEAA_NXZ 00000001800b2070 f i libucrtd:output.obj
 0001:000b14e0       ?type_case_a@?$output_processor@_WV?$stream_output_adapter@_W@__crt_stdio_output@@V?$standard_base@_WV?$stream_output_adapter@_W@__crt_stdio_output@@@2@@__crt_stdio_output@@AEAA_NXZ 00000001800b24e0 f i libucrtd:output.obj
 0001:000b1950       ?type_case_a@?$output_processor@_WV?$string_output_adapter@_W@__crt_stdio_output@@V?$format_validation_base@_WV?$string_output_adapter@_W@__crt_stdio_output@@@2@@__crt_stdio_output@@AEAA_NXZ 00000001800b2950 f i libucrtd:output.obj
 0001:000b1dc0       ?type_case_a@?$output_processor@_WV?$string_output_adapter@_W@__crt_stdio_output@@V?$positional_parameter_base@_WV?$string_output_adapter@_W@__crt_stdio_output@@@2@@__crt_stdio_output@@AEAA_NXZ 00000001800b2dc0 f i libucrtd:output.obj
 0001:000b2230       ?type_case_a@?$output_processor@_WV?$string_output_adapter@_W@__crt_stdio_output@@V?$standard_base@_WV?$string_output_adapter@_W@__crt_stdio_output@@@2@@__crt_stdio_output@@AEAA_NXZ 00000001800b3230 f i libucrtd:output.obj
 0001:000b26a0       ?type_case_c@?$output_processor@DV?$stream_output_adapter@D@__crt_stdio_output@@V?$format_validation_base@DV?$stream_output_adapter@D@__crt_stdio_output@@@2@@__crt_stdio_output@@AEAA_NXZ 00000001800b36a0 f i libucrtd:output.obj
 0001:000b26c0       ?type_case_c@?$output_processor@DV?$stream_output_adapter@D@__crt_stdio_output@@V?$positional_parameter_base@DV?$stream_output_adapter@D@__crt_stdio_output@@@2@@__crt_stdio_output@@AEAA_NXZ 00000001800b36c0 f i libucrtd:output.obj
 0001:000b26e0       ?type_case_c@?$output_processor@DV?$stream_output_adapter@D@__crt_stdio_output@@V?$standard_base@DV?$stream_output_adapter@D@__crt_stdio_output@@@2@@__crt_stdio_output@@AEAA_NXZ 00000001800b36e0 f i libucrtd:output.obj
 0001:000b2700       ?type_case_c@?$output_processor@DV?$string_output_adapter@D@__crt_stdio_output@@V?$format_validation_base@DV?$string_output_adapter@D@__crt_stdio_output@@@2@@__crt_stdio_output@@AEAA_NXZ 00000001800b3700 f i libucrtd:output.obj
 0001:000b2720       ?type_case_c@?$output_processor@DV?$string_output_adapter@D@__crt_stdio_output@@V?$positional_parameter_base@DV?$string_output_adapter@D@__crt_stdio_output@@@2@@__crt_stdio_output@@AEAA_NXZ 00000001800b3720 f i libucrtd:output.obj
 0001:000b2740       ?type_case_c@?$output_processor@DV?$string_output_adapter@D@__crt_stdio_output@@V?$standard_base@DV?$string_output_adapter@D@__crt_stdio_output@@@2@@__crt_stdio_output@@AEAA_NXZ 00000001800b3740 f i libucrtd:output.obj
 0001:000b2760       ?type_case_c@?$output_processor@_WV?$stream_output_adapter@_W@__crt_stdio_output@@V?$format_validation_base@_WV?$stream_output_adapter@_W@__crt_stdio_output@@@2@@__crt_stdio_output@@AEAA_NXZ 00000001800b3760 f i libucrtd:output.obj
 0001:000b2780       ?type_case_c@?$output_processor@_WV?$stream_output_adapter@_W@__crt_stdio_output@@V?$positional_parameter_base@_WV?$stream_output_adapter@_W@__crt_stdio_output@@@2@@__crt_stdio_output@@AEAA_NXZ 00000001800b3780 f i libucrtd:output.obj
 0001:000b27a0       ?type_case_c@?$output_processor@_WV?$stream_output_adapter@_W@__crt_stdio_output@@V?$standard_base@_WV?$stream_output_adapter@_W@__crt_stdio_output@@@2@@__crt_stdio_output@@AEAA_NXZ 00000001800b37a0 f i libucrtd:output.obj
 0001:000b27c0       ?type_case_c@?$output_processor@_WV?$string_output_adapter@_W@__crt_stdio_output@@V?$format_validation_base@_WV?$string_output_adapter@_W@__crt_stdio_output@@@2@@__crt_stdio_output@@AEAA_NXZ 00000001800b37c0 f i libucrtd:output.obj
 0001:000b27e0       ?type_case_c@?$output_processor@_WV?$string_output_adapter@_W@__crt_stdio_output@@V?$positional_parameter_base@_WV?$string_output_adapter@_W@__crt_stdio_output@@@2@@__crt_stdio_output@@AEAA_NXZ 00000001800b37e0 f i libucrtd:output.obj
 0001:000b2800       ?type_case_c@?$output_processor@_WV?$string_output_adapter@_W@__crt_stdio_output@@V?$standard_base@_WV?$string_output_adapter@_W@__crt_stdio_output@@@2@@__crt_stdio_output@@AEAA_NXZ 00000001800b3800 f i libucrtd:output.obj
 0001:000b2820       ?type_case_c_tchar@?$output_processor@DV?$stream_output_adapter@D@__crt_stdio_output@@V?$format_validation_base@DV?$stream_output_adapter@D@__crt_stdio_output@@@2@@__crt_stdio_output@@AEAA_ND@Z 00000001800b3820 f i libucrtd:output.obj
 0001:000b2990       ?type_case_c_tchar@?$output_processor@DV?$stream_output_adapter@D@__crt_stdio_output@@V?$positional_parameter_base@DV?$stream_output_adapter@D@__crt_stdio_output@@@2@@__crt_stdio_output@@AEAA_ND@Z 00000001800b3990 f i libucrtd:output.obj
 0001:000b2b00       ?type_case_c_tchar@?$output_processor@DV?$stream_output_adapter@D@__crt_stdio_output@@V?$standard_base@DV?$stream_output_adapter@D@__crt_stdio_output@@@2@@__crt_stdio_output@@AEAA_ND@Z 00000001800b3b00 f i libucrtd:output.obj
 0001:000b2c70       ?type_case_c_tchar@?$output_processor@DV?$string_output_adapter@D@__crt_stdio_output@@V?$format_validation_base@DV?$string_output_adapter@D@__crt_stdio_output@@@2@@__crt_stdio_output@@AEAA_ND@Z 00000001800b3c70 f i libucrtd:output.obj
 0001:000b2de0       ?type_case_c_tchar@?$output_processor@DV?$string_output_adapter@D@__crt_stdio_output@@V?$positional_parameter_base@DV?$string_output_adapter@D@__crt_stdio_output@@@2@@__crt_stdio_output@@AEAA_ND@Z 00000001800b3de0 f i libucrtd:output.obj
 0001:000b2f50       ?type_case_c_tchar@?$output_processor@DV?$string_output_adapter@D@__crt_stdio_output@@V?$standard_base@DV?$string_output_adapter@D@__crt_stdio_output@@@2@@__crt_stdio_output@@AEAA_ND@Z 00000001800b3f50 f i libucrtd:output.obj
 0001:000b30c0       ?type_case_c_tchar@?$output_processor@_WV?$stream_output_adapter@_W@__crt_stdio_output@@V?$format_validation_base@_WV?$stream_output_adapter@_W@__crt_stdio_output@@@2@@__crt_stdio_output@@AEAA_N_W@Z 00000001800b40c0 f i libucrtd:output.obj
 0001:000b3220       ?type_case_c_tchar@?$output_processor@_WV?$stream_output_adapter@_W@__crt_stdio_output@@V?$positional_parameter_base@_WV?$stream_output_adapter@_W@__crt_stdio_output@@@2@@__crt_stdio_output@@AEAA_N_W@Z 00000001800b4220 f i libucrtd:output.obj
 0001:000b3380       ?type_case_c_tchar@?$output_processor@_WV?$stream_output_adapter@_W@__crt_stdio_output@@V?$standard_base@_WV?$stream_output_adapter@_W@__crt_stdio_output@@@2@@__crt_stdio_output@@AEAA_N_W@Z 00000001800b4380 f i libucrtd:output.obj
 0001:000b34e0       ?type_case_c_tchar@?$output_processor@_WV?$string_output_adapter@_W@__crt_stdio_output@@V?$format_validation_base@_WV?$string_output_adapter@_W@__crt_stdio_output@@@2@@__crt_stdio_output@@AEAA_N_W@Z 00000001800b44e0 f i libucrtd:output.obj
 0001:000b3640       ?type_case_c_tchar@?$output_processor@_WV?$string_output_adapter@_W@__crt_stdio_output@@V?$positional_parameter_base@_WV?$string_output_adapter@_W@__crt_stdio_output@@@2@@__crt_stdio_output@@AEAA_N_W@Z 00000001800b4640 f i libucrtd:output.obj
 0001:000b37a0       ?type_case_c_tchar@?$output_processor@_WV?$string_output_adapter@_W@__crt_stdio_output@@V?$standard_base@_WV?$string_output_adapter@_W@__crt_stdio_output@@@2@@__crt_stdio_output@@AEAA_N_W@Z 00000001800b47a0 f i libucrtd:output.obj
 0001:000b3900       ?type_case_d@?$output_processor@DV?$stream_output_adapter@D@__crt_stdio_output@@V?$format_validation_base@DV?$stream_output_adapter@D@__crt_stdio_output@@@2@@__crt_stdio_output@@AEAA_NXZ 00000001800b4900 f i libucrtd:output.obj
 0001:000b3930       ?type_case_d@?$output_processor@DV?$stream_output_adapter@D@__crt_stdio_output@@V?$positional_parameter_base@DV?$stream_output_adapter@D@__crt_stdio_output@@@2@@__crt_stdio_output@@AEAA_NXZ 00000001800b4930 f i libucrtd:output.obj
 0001:000b3960       ?type_case_d@?$output_processor@DV?$stream_output_adapter@D@__crt_stdio_output@@V?$standard_base@DV?$stream_output_adapter@D@__crt_stdio_output@@@2@@__crt_stdio_output@@AEAA_NXZ 00000001800b4960 f i libucrtd:output.obj
 0001:000b3990       ?type_case_d@?$output_processor@DV?$string_output_adapter@D@__crt_stdio_output@@V?$format_validation_base@DV?$string_output_adapter@D@__crt_stdio_output@@@2@@__crt_stdio_output@@AEAA_NXZ 00000001800b4990 f i libucrtd:output.obj
 0001:000b39c0       ?type_case_d@?$output_processor@DV?$string_output_adapter@D@__crt_stdio_output@@V?$positional_parameter_base@DV?$string_output_adapter@D@__crt_stdio_output@@@2@@__crt_stdio_output@@AEAA_NXZ 00000001800b49c0 f i libucrtd:output.obj
 0001:000b39f0       ?type_case_d@?$output_processor@DV?$string_output_adapter@D@__crt_stdio_output@@V?$standard_base@DV?$string_output_adapter@D@__crt_stdio_output@@@2@@__crt_stdio_output@@AEAA_NXZ 00000001800b49f0 f i libucrtd:output.obj
 0001:000b3a20       ?type_case_d@?$output_processor@_WV?$stream_output_adapter@_W@__crt_stdio_output@@V?$format_validation_base@_WV?$stream_output_adapter@_W@__crt_stdio_output@@@2@@__crt_stdio_output@@AEAA_NXZ 00000001800b4a20 f i libucrtd:output.obj
 0001:000b3a50       ?type_case_d@?$output_processor@_WV?$stream_output_adapter@_W@__crt_stdio_output@@V?$positional_parameter_base@_WV?$stream_output_adapter@_W@__crt_stdio_output@@@2@@__crt_stdio_output@@AEAA_NXZ 00000001800b4a50 f i libucrtd:output.obj
 0001:000b3a80       ?type_case_d@?$output_processor@_WV?$stream_output_adapter@_W@__crt_stdio_output@@V?$standard_base@_WV?$stream_output_adapter@_W@__crt_stdio_output@@@2@@__crt_stdio_output@@AEAA_NXZ 00000001800b4a80 f i libucrtd:output.obj
 0001:000b3ab0       ?type_case_d@?$output_processor@_WV?$string_output_adapter@_W@__crt_stdio_output@@V?$format_validation_base@_WV?$string_output_adapter@_W@__crt_stdio_output@@@2@@__crt_stdio_output@@AEAA_NXZ 00000001800b4ab0 f i libucrtd:output.obj
 0001:000b3ae0       ?type_case_d@?$output_processor@_WV?$string_output_adapter@_W@__crt_stdio_output@@V?$positional_parameter_base@_WV?$string_output_adapter@_W@__crt_stdio_output@@@2@@__crt_stdio_output@@AEAA_NXZ 00000001800b4ae0 f i libucrtd:output.obj
 0001:000b3b10       ?type_case_d@?$output_processor@_WV?$string_output_adapter@_W@__crt_stdio_output@@V?$standard_base@_WV?$string_output_adapter@_W@__crt_stdio_output@@@2@@__crt_stdio_output@@AEAA_NXZ 00000001800b4b10 f i libucrtd:output.obj
 0001:000b3b40       ?type_case_n@?$output_processor@DV?$stream_output_adapter@D@__crt_stdio_output@@V?$format_validation_base@DV?$stream_output_adapter@D@__crt_stdio_output@@@2@@__crt_stdio_output@@AEAA_NXZ 00000001800b4b40 f i libucrtd:output.obj
 0001:000b3dd0       ?type_case_n@?$output_processor@DV?$stream_output_adapter@D@__crt_stdio_output@@V?$positional_parameter_base@DV?$stream_output_adapter@D@__crt_stdio_output@@@2@@__crt_stdio_output@@AEAA_NXZ 00000001800b4dd0 f i libucrtd:output.obj
 0001:000b4060       ?type_case_n@?$output_processor@DV?$stream_output_adapter@D@__crt_stdio_output@@V?$standard_base@DV?$stream_output_adapter@D@__crt_stdio_output@@@2@@__crt_stdio_output@@AEAA_NXZ 00000001800b5060 f i libucrtd:output.obj
 0001:000b42f0       ?type_case_n@?$output_processor@DV?$string_output_adapter@D@__crt_stdio_output@@V?$format_validation_base@DV?$string_output_adapter@D@__crt_stdio_output@@@2@@__crt_stdio_output@@AEAA_NXZ 00000001800b52f0 f i libucrtd:output.obj
 0001:000b4580       ?type_case_n@?$output_processor@DV?$string_output_adapter@D@__crt_stdio_output@@V?$positional_parameter_base@DV?$string_output_adapter@D@__crt_stdio_output@@@2@@__crt_stdio_output@@AEAA_NXZ 00000001800b5580 f i libucrtd:output.obj
 0001:000b4810       ?type_case_n@?$output_processor@DV?$string_output_adapter@D@__crt_stdio_output@@V?$standard_base@DV?$string_output_adapter@D@__crt_stdio_output@@@2@@__crt_stdio_output@@AEAA_NXZ 00000001800b5810 f i libucrtd:output.obj
 0001:000b4aa0       ?type_case_n@?$output_processor@_WV?$stream_output_adapter@_W@__crt_stdio_output@@V?$format_validation_base@_WV?$stream_output_adapter@_W@__crt_stdio_output@@@2@@__crt_stdio_output@@AEAA_NXZ 00000001800b5aa0 f i libucrtd:output.obj
 0001:000b4d30       ?type_case_n@?$output_processor@_WV?$stream_output_adapter@_W@__crt_stdio_output@@V?$positional_parameter_base@_WV?$stream_output_adapter@_W@__crt_stdio_output@@@2@@__crt_stdio_output@@AEAA_NXZ 00000001800b5d30 f i libucrtd:output.obj
 0001:000b4fc0       ?type_case_n@?$output_processor@_WV?$stream_output_adapter@_W@__crt_stdio_output@@V?$standard_base@_WV?$stream_output_adapter@_W@__crt_stdio_output@@@2@@__crt_stdio_output@@AEAA_NXZ 00000001800b5fc0 f i libucrtd:output.obj
 0001:000b5250       ?type_case_n@?$output_processor@_WV?$string_output_adapter@_W@__crt_stdio_output@@V?$format_validation_base@_WV?$string_output_adapter@_W@__crt_stdio_output@@@2@@__crt_stdio_output@@AEAA_NXZ 00000001800b6250 f i libucrtd:output.obj
 0001:000b54e0       ?type_case_n@?$output_processor@_WV?$string_output_adapter@_W@__crt_stdio_output@@V?$positional_parameter_base@_WV?$string_output_adapter@_W@__crt_stdio_output@@@2@@__crt_stdio_output@@AEAA_NXZ 00000001800b64e0 f i libucrtd:output.obj
 0001:000b5770       ?type_case_n@?$output_processor@_WV?$string_output_adapter@_W@__crt_stdio_output@@V?$standard_base@_WV?$string_output_adapter@_W@__crt_stdio_output@@@2@@__crt_stdio_output@@AEAA_NXZ 00000001800b6770 f i libucrtd:output.obj
 0001:000b5a00       ?type_case_o@?$output_processor@DV?$stream_output_adapter@D@__crt_stdio_output@@V?$format_validation_base@DV?$stream_output_adapter@D@__crt_stdio_output@@@2@@__crt_stdio_output@@AEAA_NXZ 00000001800b6a00 f i libucrtd:output.obj
 0001:000b5a40       ?type_case_o@?$output_processor@DV?$stream_output_adapter@D@__crt_stdio_output@@V?$positional_parameter_base@DV?$stream_output_adapter@D@__crt_stdio_output@@@2@@__crt_stdio_output@@AEAA_NXZ 00000001800b6a40 f i libucrtd:output.obj
 0001:000b5a80       ?type_case_o@?$output_processor@DV?$stream_output_adapter@D@__crt_stdio_output@@V?$standard_base@DV?$stream_output_adapter@D@__crt_stdio_output@@@2@@__crt_stdio_output@@AEAA_NXZ 00000001800b6a80 f i libucrtd:output.obj
 0001:000b5ac0       ?type_case_o@?$output_processor@DV?$string_output_adapter@D@__crt_stdio_output@@V?$format_validation_base@DV?$string_output_adapter@D@__crt_stdio_output@@@2@@__crt_stdio_output@@AEAA_NXZ 00000001800b6ac0 f i libucrtd:output.obj
 0001:000b5b00       ?type_case_o@?$output_processor@DV?$string_output_adapter@D@__crt_stdio_output@@V?$positional_parameter_base@DV?$string_output_adapter@D@__crt_stdio_output@@@2@@__crt_stdio_output@@AEAA_NXZ 00000001800b6b00 f i libucrtd:output.obj
 0001:000b5b40       ?type_case_o@?$output_processor@DV?$string_output_adapter@D@__crt_stdio_output@@V?$standard_base@DV?$string_output_adapter@D@__crt_stdio_output@@@2@@__crt_stdio_output@@AEAA_NXZ 00000001800b6b40 f i libucrtd:output.obj
 0001:000b5b80       ?type_case_o@?$output_processor@_WV?$stream_output_adapter@_W@__crt_stdio_output@@V?$format_validation_base@_WV?$stream_output_adapter@_W@__crt_stdio_output@@@2@@__crt_stdio_output@@AEAA_NXZ 00000001800b6b80 f i libucrtd:output.obj
 0001:000b5bc0       ?type_case_o@?$output_processor@_WV?$stream_output_adapter@_W@__crt_stdio_output@@V?$positional_parameter_base@_WV?$stream_output_adapter@_W@__crt_stdio_output@@@2@@__crt_stdio_output@@AEAA_NXZ 00000001800b6bc0 f i libucrtd:output.obj
 0001:000b5c00       ?type_case_o@?$output_processor@_WV?$stream_output_adapter@_W@__crt_stdio_output@@V?$standard_base@_WV?$stream_output_adapter@_W@__crt_stdio_output@@@2@@__crt_stdio_output@@AEAA_NXZ 00000001800b6c00 f i libucrtd:output.obj
 0001:000b5c40       ?type_case_o@?$output_processor@_WV?$string_output_adapter@_W@__crt_stdio_output@@V?$format_validation_base@_WV?$string_output_adapter@_W@__crt_stdio_output@@@2@@__crt_stdio_output@@AEAA_NXZ 00000001800b6c40 f i libucrtd:output.obj
 0001:000b5c80       ?type_case_o@?$output_processor@_WV?$string_output_adapter@_W@__crt_stdio_output@@V?$positional_parameter_base@_WV?$string_output_adapter@_W@__crt_stdio_output@@@2@@__crt_stdio_output@@AEAA_NXZ 00000001800b6c80 f i libucrtd:output.obj
 0001:000b5cc0       ?type_case_o@?$output_processor@_WV?$string_output_adapter@_W@__crt_stdio_output@@V?$standard_base@_WV?$string_output_adapter@_W@__crt_stdio_output@@@2@@__crt_stdio_output@@AEAA_NXZ 00000001800b6cc0 f i libucrtd:output.obj
 0001:000b5d00       ?type_case_p@?$output_processor@DV?$stream_output_adapter@D@__crt_stdio_output@@V?$format_validation_base@DV?$stream_output_adapter@D@__crt_stdio_output@@@2@@__crt_stdio_output@@AEAA_NXZ 00000001800b6d00 f i libucrtd:output.obj
 0001:000b5d40       ?type_case_p@?$output_processor@DV?$stream_output_adapter@D@__crt_stdio_output@@V?$positional_parameter_base@DV?$stream_output_adapter@D@__crt_stdio_output@@@2@@__crt_stdio_output@@AEAA_NXZ 00000001800b6d40 f i libucrtd:output.obj
 0001:000b5d80       ?type_case_p@?$output_processor@DV?$stream_output_adapter@D@__crt_stdio_output@@V?$standard_base@DV?$stream_output_adapter@D@__crt_stdio_output@@@2@@__crt_stdio_output@@AEAA_NXZ 00000001800b6d80 f i libucrtd:output.obj
 0001:000b5dc0       ?type_case_p@?$output_processor@DV?$string_output_adapter@D@__crt_stdio_output@@V?$format_validation_base@DV?$string_output_adapter@D@__crt_stdio_output@@@2@@__crt_stdio_output@@AEAA_NXZ 00000001800b6dc0 f i libucrtd:output.obj
 0001:000b5e00       ?type_case_p@?$output_processor@DV?$string_output_adapter@D@__crt_stdio_output@@V?$positional_parameter_base@DV?$string_output_adapter@D@__crt_stdio_output@@@2@@__crt_stdio_output@@AEAA_NXZ 00000001800b6e00 f i libucrtd:output.obj
 0001:000b5e40       ?type_case_p@?$output_processor@DV?$string_output_adapter@D@__crt_stdio_output@@V?$standard_base@DV?$string_output_adapter@D@__crt_stdio_output@@@2@@__crt_stdio_output@@AEAA_NXZ 00000001800b6e40 f i libucrtd:output.obj
 0001:000b5e80       ?type_case_p@?$output_processor@_WV?$stream_output_adapter@_W@__crt_stdio_output@@V?$format_validation_base@_WV?$stream_output_adapter@_W@__crt_stdio_output@@@2@@__crt_stdio_output@@AEAA_NXZ 00000001800b6e80 f i libucrtd:output.obj
 0001:000b5ec0       ?type_case_p@?$output_processor@_WV?$stream_output_adapter@_W@__crt_stdio_output@@V?$positional_parameter_base@_WV?$stream_output_adapter@_W@__crt_stdio_output@@@2@@__crt_stdio_output@@AEAA_NXZ 00000001800b6ec0 f i libucrtd:output.obj
 0001:000b5f00       ?type_case_p@?$output_processor@_WV?$stream_output_adapter@_W@__crt_stdio_output@@V?$standard_base@_WV?$stream_output_adapter@_W@__crt_stdio_output@@@2@@__crt_stdio_output@@AEAA_NXZ 00000001800b6f00 f i libucrtd:output.obj
 0001:000b5f40       ?type_case_p@?$output_processor@_WV?$string_output_adapter@_W@__crt_stdio_output@@V?$format_validation_base@_WV?$string_output_adapter@_W@__crt_stdio_output@@@2@@__crt_stdio_output@@AEAA_NXZ 00000001800b6f40 f i libucrtd:output.obj
 0001:000b5f80       ?type_case_p@?$output_processor@_WV?$string_output_adapter@_W@__crt_stdio_output@@V?$positional_parameter_base@_WV?$string_output_adapter@_W@__crt_stdio_output@@@2@@__crt_stdio_output@@AEAA_NXZ 00000001800b6f80 f i libucrtd:output.obj
 0001:000b5fc0       ?type_case_p@?$output_processor@_WV?$string_output_adapter@_W@__crt_stdio_output@@V?$standard_base@_WV?$string_output_adapter@_W@__crt_stdio_output@@@2@@__crt_stdio_output@@AEAA_NXZ 00000001800b6fc0 f i libucrtd:output.obj
 0001:000b6000       ?type_case_s@?$output_processor@DV?$stream_output_adapter@D@__crt_stdio_output@@V?$format_validation_base@DV?$stream_output_adapter@D@__crt_stdio_output@@@2@@__crt_stdio_output@@AEAA_NXZ 00000001800b7000 f i libucrtd:output.obj
 0001:000b6120       ?type_case_s@?$output_processor@DV?$stream_output_adapter@D@__crt_stdio_output@@V?$positional_parameter_base@DV?$stream_output_adapter@D@__crt_stdio_output@@@2@@__crt_stdio_output@@AEAA_NXZ 00000001800b7120 f i libucrtd:output.obj
 0001:000b6240       ?type_case_s@?$output_processor@DV?$stream_output_adapter@D@__crt_stdio_output@@V?$standard_base@DV?$stream_output_adapter@D@__crt_stdio_output@@@2@@__crt_stdio_output@@AEAA_NXZ 00000001800b7240 f i libucrtd:output.obj
 0001:000b6360       ?type_case_s@?$output_processor@DV?$string_output_adapter@D@__crt_stdio_output@@V?$format_validation_base@DV?$string_output_adapter@D@__crt_stdio_output@@@2@@__crt_stdio_output@@AEAA_NXZ 00000001800b7360 f i libucrtd:output.obj
 0001:000b6480       ?type_case_s@?$output_processor@DV?$string_output_adapter@D@__crt_stdio_output@@V?$positional_parameter_base@DV?$string_output_adapter@D@__crt_stdio_output@@@2@@__crt_stdio_output@@AEAA_NXZ 00000001800b7480 f i libucrtd:output.obj
 0001:000b65a0       ?type_case_s@?$output_processor@DV?$string_output_adapter@D@__crt_stdio_output@@V?$standard_base@DV?$string_output_adapter@D@__crt_stdio_output@@@2@@__crt_stdio_output@@AEAA_NXZ 00000001800b75a0 f i libucrtd:output.obj
 0001:000b66c0       ?type_case_s@?$output_processor@_WV?$stream_output_adapter@_W@__crt_stdio_output@@V?$format_validation_base@_WV?$stream_output_adapter@_W@__crt_stdio_output@@@2@@__crt_stdio_output@@AEAA_NXZ 00000001800b76c0 f i libucrtd:output.obj
 0001:000b67e0       ?type_case_s@?$output_processor@_WV?$stream_output_adapter@_W@__crt_stdio_output@@V?$positional_parameter_base@_WV?$stream_output_adapter@_W@__crt_stdio_output@@@2@@__crt_stdio_output@@AEAA_NXZ 00000001800b77e0 f i libucrtd:output.obj
 0001:000b6900       ?type_case_s@?$output_processor@_WV?$stream_output_adapter@_W@__crt_stdio_output@@V?$standard_base@_WV?$stream_output_adapter@_W@__crt_stdio_output@@@2@@__crt_stdio_output@@AEAA_NXZ 00000001800b7900 f i libucrtd:output.obj
 0001:000b6a20       ?type_case_s@?$output_processor@_WV?$string_output_adapter@_W@__crt_stdio_output@@V?$format_validation_base@_WV?$string_output_adapter@_W@__crt_stdio_output@@@2@@__crt_stdio_output@@AEAA_NXZ 00000001800b7a20 f i libucrtd:output.obj
 0001:000b6b40       ?type_case_s@?$output_processor@_WV?$string_output_adapter@_W@__crt_stdio_output@@V?$positional_parameter_base@_WV?$string_output_adapter@_W@__crt_stdio_output@@@2@@__crt_stdio_output@@AEAA_NXZ 00000001800b7b40 f i libucrtd:output.obj
 0001:000b6c60       ?type_case_s@?$output_processor@_WV?$string_output_adapter@_W@__crt_stdio_output@@V?$standard_base@_WV?$string_output_adapter@_W@__crt_stdio_output@@@2@@__crt_stdio_output@@AEAA_NXZ 00000001800b7c60 f i libucrtd:output.obj
 0001:000b6d80       ?type_case_s_compute_narrow_string_length@?$output_processor@DV?$stream_output_adapter@D@__crt_stdio_output@@V?$format_validation_base@DV?$stream_output_adapter@D@__crt_stdio_output@@@2@@__crt_stdio_output@@AEAAHHD@Z 00000001800b7d80 f i libucrtd:output.obj
 0001:000b6db0       ?type_case_s_compute_narrow_string_length@?$output_processor@DV?$stream_output_adapter@D@__crt_stdio_output@@V?$positional_parameter_base@DV?$stream_output_adapter@D@__crt_stdio_output@@@2@@__crt_stdio_output@@AEAAHHD@Z 00000001800b7db0 f i libucrtd:output.obj
 0001:000b6de0       ?type_case_s_compute_narrow_string_length@?$output_processor@DV?$stream_output_adapter@D@__crt_stdio_output@@V?$standard_base@DV?$stream_output_adapter@D@__crt_stdio_output@@@2@@__crt_stdio_output@@AEAAHHD@Z 00000001800b7de0 f i libucrtd:output.obj
 0001:000b6e10       ?type_case_s_compute_narrow_string_length@?$output_processor@DV?$string_output_adapter@D@__crt_stdio_output@@V?$format_validation_base@DV?$string_output_adapter@D@__crt_stdio_output@@@2@@__crt_stdio_output@@AEAAHHD@Z 00000001800b7e10 f i libucrtd:output.obj
 0001:000b6e40       ?type_case_s_compute_narrow_string_length@?$output_processor@DV?$string_output_adapter@D@__crt_stdio_output@@V?$positional_parameter_base@DV?$string_output_adapter@D@__crt_stdio_output@@@2@@__crt_stdio_output@@AEAAHHD@Z 00000001800b7e40 f i libucrtd:output.obj
 0001:000b6e70       ?type_case_s_compute_narrow_string_length@?$output_processor@DV?$string_output_adapter@D@__crt_stdio_output@@V?$standard_base@DV?$string_output_adapter@D@__crt_stdio_output@@@2@@__crt_stdio_output@@AEAAHHD@Z 00000001800b7e70 f i libucrtd:output.obj
 0001:000b6ea0       ?type_case_s_compute_narrow_string_length@?$output_processor@_WV?$stream_output_adapter@_W@__crt_stdio_output@@V?$format_validation_base@_WV?$stream_output_adapter@_W@__crt_stdio_output@@@2@@__crt_stdio_output@@AEAAHH_W@Z 00000001800b7ea0 f i libucrtd:output.obj
 0001:000b6f40       ?type_case_s_compute_narrow_string_length@?$output_processor@_WV?$stream_output_adapter@_W@__crt_stdio_output@@V?$positional_parameter_base@_WV?$stream_output_adapter@_W@__crt_stdio_output@@@2@@__crt_stdio_output@@AEAAHH_W@Z 00000001800b7f40 f i libucrtd:output.obj
 0001:000b6fe0       ?type_case_s_compute_narrow_string_length@?$output_processor@_WV?$stream_output_adapter@_W@__crt_stdio_output@@V?$standard_base@_WV?$stream_output_adapter@_W@__crt_stdio_output@@@2@@__crt_stdio_output@@AEAAHH_W@Z 00000001800b7fe0 f i libucrtd:output.obj
 0001:000b7080       ?type_case_s_compute_narrow_string_length@?$output_processor@_WV?$string_output_adapter@_W@__crt_stdio_output@@V?$format_validation_base@_WV?$string_output_adapter@_W@__crt_stdio_output@@@2@@__crt_stdio_output@@AEAAHH_W@Z 00000001800b8080 f i libucrtd:output.obj
 0001:000b7120       ?type_case_s_compute_narrow_string_length@?$output_processor@_WV?$string_output_adapter@_W@__crt_stdio_output@@V?$positional_parameter_base@_WV?$string_output_adapter@_W@__crt_stdio_output@@@2@@__crt_stdio_output@@AEAAHH_W@Z 00000001800b8120 f i libucrtd:output.obj
 0001:000b71c0       ?type_case_s_compute_narrow_string_length@?$output_processor@_WV?$string_output_adapter@_W@__crt_stdio_output@@V?$standard_base@_WV?$string_output_adapter@_W@__crt_stdio_output@@@2@@__crt_stdio_output@@AEAAHH_W@Z 00000001800b81c0 f i libucrtd:output.obj
 0001:000b7260       ?type_case_u@?$output_processor@DV?$stream_output_adapter@D@__crt_stdio_output@@V?$format_validation_base@DV?$stream_output_adapter@D@__crt_stdio_output@@@2@@__crt_stdio_output@@AEAA_NXZ 00000001800b8260 f i libucrtd:output.obj
 0001:000b7280       ?type_case_u@?$output_processor@DV?$stream_output_adapter@D@__crt_stdio_output@@V?$positional_parameter_base@DV?$stream_output_adapter@D@__crt_stdio_output@@@2@@__crt_stdio_output@@AEAA_NXZ 00000001800b8280 f i libucrtd:output.obj
 0001:000b72a0       ?type_case_u@?$output_processor@DV?$stream_output_adapter@D@__crt_stdio_output@@V?$standard_base@DV?$stream_output_adapter@D@__crt_stdio_output@@@2@@__crt_stdio_output@@AEAA_NXZ 00000001800b82a0 f i libucrtd:output.obj
 0001:000b72c0       ?type_case_u@?$output_processor@DV?$string_output_adapter@D@__crt_stdio_output@@V?$format_validation_base@DV?$string_output_adapter@D@__crt_stdio_output@@@2@@__crt_stdio_output@@AEAA_NXZ 00000001800b82c0 f i libucrtd:output.obj
 0001:000b72e0       ?type_case_u@?$output_processor@DV?$string_output_adapter@D@__crt_stdio_output@@V?$positional_parameter_base@DV?$string_output_adapter@D@__crt_stdio_output@@@2@@__crt_stdio_output@@AEAA_NXZ 00000001800b82e0 f i libucrtd:output.obj
 0001:000b7300       ?type_case_u@?$output_processor@DV?$string_output_adapter@D@__crt_stdio_output@@V?$standard_base@DV?$string_output_adapter@D@__crt_stdio_output@@@2@@__crt_stdio_output@@AEAA_NXZ 00000001800b8300 f i libucrtd:output.obj
 0001:000b7320       ?type_case_u@?$output_processor@_WV?$stream_output_adapter@_W@__crt_stdio_output@@V?$format_validation_base@_WV?$stream_output_adapter@_W@__crt_stdio_output@@@2@@__crt_stdio_output@@AEAA_NXZ 00000001800b8320 f i libucrtd:output.obj
 0001:000b7340       ?type_case_u@?$output_processor@_WV?$stream_output_adapter@_W@__crt_stdio_output@@V?$positional_parameter_base@_WV?$stream_output_adapter@_W@__crt_stdio_output@@@2@@__crt_stdio_output@@AEAA_NXZ 00000001800b8340 f i libucrtd:output.obj
 0001:000b7360       ?type_case_u@?$output_processor@_WV?$stream_output_adapter@_W@__crt_stdio_output@@V?$standard_base@_WV?$stream_output_adapter@_W@__crt_stdio_output@@@2@@__crt_stdio_output@@AEAA_NXZ 00000001800b8360 f i libucrtd:output.obj
 0001:000b7380       ?type_case_u@?$output_processor@_WV?$string_output_adapter@_W@__crt_stdio_output@@V?$format_validation_base@_WV?$string_output_adapter@_W@__crt_stdio_output@@@2@@__crt_stdio_output@@AEAA_NXZ 00000001800b8380 f i libucrtd:output.obj
 0001:000b73a0       ?type_case_u@?$output_processor@_WV?$string_output_adapter@_W@__crt_stdio_output@@V?$positional_parameter_base@_WV?$string_output_adapter@_W@__crt_stdio_output@@@2@@__crt_stdio_output@@AEAA_NXZ 00000001800b83a0 f i libucrtd:output.obj
 0001:000b73c0       ?type_case_u@?$output_processor@_WV?$string_output_adapter@_W@__crt_stdio_output@@V?$standard_base@_WV?$string_output_adapter@_W@__crt_stdio_output@@@2@@__crt_stdio_output@@AEAA_NXZ 00000001800b83c0 f i libucrtd:output.obj
 0001:000b73e0       ?type_case_x@?$output_processor@DV?$stream_output_adapter@D@__crt_stdio_output@@V?$format_validation_base@DV?$stream_output_adapter@D@__crt_stdio_output@@@2@@__crt_stdio_output@@AEAA_NXZ 00000001800b83e0 f i libucrtd:output.obj
 0001:000b7400       ?type_case_x@?$output_processor@DV?$stream_output_adapter@D@__crt_stdio_output@@V?$positional_parameter_base@DV?$stream_output_adapter@D@__crt_stdio_output@@@2@@__crt_stdio_output@@AEAA_NXZ 00000001800b8400 f i libucrtd:output.obj
 0001:000b7420       ?type_case_x@?$output_processor@DV?$stream_output_adapter@D@__crt_stdio_output@@V?$standard_base@DV?$stream_output_adapter@D@__crt_stdio_output@@@2@@__crt_stdio_output@@AEAA_NXZ 00000001800b8420 f i libucrtd:output.obj
 0001:000b7440       ?type_case_x@?$output_processor@DV?$string_output_adapter@D@__crt_stdio_output@@V?$format_validation_base@DV?$string_output_adapter@D@__crt_stdio_output@@@2@@__crt_stdio_output@@AEAA_NXZ 00000001800b8440 f i libucrtd:output.obj
 0001:000b7460       ?type_case_x@?$output_processor@DV?$string_output_adapter@D@__crt_stdio_output@@V?$positional_parameter_base@DV?$string_output_adapter@D@__crt_stdio_output@@@2@@__crt_stdio_output@@AEAA_NXZ 00000001800b8460 f i libucrtd:output.obj
 0001:000b7480       ?type_case_x@?$output_processor@DV?$string_output_adapter@D@__crt_stdio_output@@V?$standard_base@DV?$string_output_adapter@D@__crt_stdio_output@@@2@@__crt_stdio_output@@AEAA_NXZ 00000001800b8480 f i libucrtd:output.obj
 0001:000b74a0       ?type_case_x@?$output_processor@_WV?$stream_output_adapter@_W@__crt_stdio_output@@V?$format_validation_base@_WV?$stream_output_adapter@_W@__crt_stdio_output@@@2@@__crt_stdio_output@@AEAA_NXZ 00000001800b84a0 f i libucrtd:output.obj
 0001:000b74c0       ?type_case_x@?$output_processor@_WV?$stream_output_adapter@_W@__crt_stdio_output@@V?$positional_parameter_base@_WV?$stream_output_adapter@_W@__crt_stdio_output@@@2@@__crt_stdio_output@@AEAA_NXZ 00000001800b84c0 f i libucrtd:output.obj
 0001:000b74e0       ?type_case_x@?$output_processor@_WV?$stream_output_adapter@_W@__crt_stdio_output@@V?$standard_base@_WV?$stream_output_adapter@_W@__crt_stdio_output@@@2@@__crt_stdio_output@@AEAA_NXZ 00000001800b84e0 f i libucrtd:output.obj
 0001:000b7500       ?type_case_x@?$output_processor@_WV?$string_output_adapter@_W@__crt_stdio_output@@V?$format_validation_base@_WV?$string_output_adapter@_W@__crt_stdio_output@@@2@@__crt_stdio_output@@AEAA_NXZ 00000001800b8500 f i libucrtd:output.obj
 0001:000b7520       ?type_case_x@?$output_processor@_WV?$string_output_adapter@_W@__crt_stdio_output@@V?$positional_parameter_base@_WV?$string_output_adapter@_W@__crt_stdio_output@@@2@@__crt_stdio_output@@AEAA_NXZ 00000001800b8520 f i libucrtd:output.obj
 0001:000b7540       ?type_case_x@?$output_processor@_WV?$string_output_adapter@_W@__crt_stdio_output@@V?$standard_base@_WV?$string_output_adapter@_W@__crt_stdio_output@@@2@@__crt_stdio_output@@AEAA_NXZ 00000001800b8540 f i libucrtd:output.obj
 0001:000b7560       ?unget@?$c_string_character_source@D@__crt_strtox@@QEAAXD@Z 00000001800b8560 f i libucrtd:output.obj
 0001:000b7640       ?unget@?$c_string_character_source@_W@__crt_strtox@@QEAAX_W@Z 00000001800b8640 f i libucrtd:output.obj
 0001:000b7720       ?unsafe_value@?$cached@H@__crt_cached_ptd_host@@QEAAHXZ 00000001800b8720 f i libucrtd:output.obj
 0001:000b7730       ?unsafe_value@?$cached@K@__crt_cached_ptd_host@@QEAAKXZ 00000001800b8730 f i libucrtd:output.obj
 0001:000b7740       ?unset_flag@?$output_processor@DV?$stream_output_adapter@D@__crt_stdio_output@@V?$format_validation_base@DV?$stream_output_adapter@D@__crt_stdio_output@@@2@@__crt_stdio_output@@AEAAXI@Z 00000001800b8740 f i libucrtd:output.obj
 0001:000b7770       ?unset_flag@?$output_processor@DV?$stream_output_adapter@D@__crt_stdio_output@@V?$positional_parameter_base@DV?$stream_output_adapter@D@__crt_stdio_output@@@2@@__crt_stdio_output@@AEAAXI@Z 00000001800b8770 f i libucrtd:output.obj
 0001:000b77a0       ?unset_flag@?$output_processor@DV?$stream_output_adapter@D@__crt_stdio_output@@V?$standard_base@DV?$stream_output_adapter@D@__crt_stdio_output@@@2@@__crt_stdio_output@@AEAAXI@Z 00000001800b87a0 f i libucrtd:output.obj
 0001:000b77d0       ?unset_flag@?$output_processor@DV?$string_output_adapter@D@__crt_stdio_output@@V?$format_validation_base@DV?$string_output_adapter@D@__crt_stdio_output@@@2@@__crt_stdio_output@@AEAAXI@Z 00000001800b87d0 f i libucrtd:output.obj
 0001:000b7800       ?unset_flag@?$output_processor@DV?$string_output_adapter@D@__crt_stdio_output@@V?$positional_parameter_base@DV?$string_output_adapter@D@__crt_stdio_output@@@2@@__crt_stdio_output@@AEAAXI@Z 00000001800b8800 f i libucrtd:output.obj
 0001:000b7830       ?unset_flag@?$output_processor@DV?$string_output_adapter@D@__crt_stdio_output@@V?$standard_base@DV?$string_output_adapter@D@__crt_stdio_output@@@2@@__crt_stdio_output@@AEAAXI@Z 00000001800b8830 f i libucrtd:output.obj
 0001:000b7860       ?unset_flag@?$output_processor@_WV?$stream_output_adapter@_W@__crt_stdio_output@@V?$format_validation_base@_WV?$stream_output_adapter@_W@__crt_stdio_output@@@2@@__crt_stdio_output@@AEAAXI@Z 00000001800b8860 f i libucrtd:output.obj
 0001:000b7890       ?unset_flag@?$output_processor@_WV?$stream_output_adapter@_W@__crt_stdio_output@@V?$positional_parameter_base@_WV?$stream_output_adapter@_W@__crt_stdio_output@@@2@@__crt_stdio_output@@AEAAXI@Z 00000001800b8890 f i libucrtd:output.obj
 0001:000b78c0       ?unset_flag@?$output_processor@_WV?$stream_output_adapter@_W@__crt_stdio_output@@V?$standard_base@_WV?$stream_output_adapter@_W@__crt_stdio_output@@@2@@__crt_stdio_output@@AEAAXI@Z 00000001800b88c0 f i libucrtd:output.obj
 0001:000b78f0       ?unset_flag@?$output_processor@_WV?$string_output_adapter@_W@__crt_stdio_output@@V?$format_validation_base@_WV?$string_output_adapter@_W@__crt_stdio_output@@@2@@__crt_stdio_output@@AEAAXI@Z 00000001800b88f0 f i libucrtd:output.obj
 0001:000b7920       ?unset_flag@?$output_processor@_WV?$string_output_adapter@_W@__crt_stdio_output@@V?$positional_parameter_base@_WV?$string_output_adapter@_W@__crt_stdio_output@@@2@@__crt_stdio_output@@AEAAXI@Z 00000001800b8920 f i libucrtd:output.obj
 0001:000b7950       ?unset_flag@?$output_processor@_WV?$string_output_adapter@_W@__crt_stdio_output@@V?$standard_base@_WV?$string_output_adapter@_W@__crt_stdio_output@@@2@@__crt_stdio_output@@AEAAXI@Z 00000001800b8950 f i libucrtd:output.obj
 0001:000b7980       ?update_field_width@?$positional_parameter_base@DV?$stream_output_adapter@D@__crt_stdio_output@@@__crt_stdio_output@@IEAA_NXZ 00000001800b8980 f i libucrtd:output.obj
 0001:000b7b80       ?update_field_width@?$positional_parameter_base@DV?$string_output_adapter@D@__crt_stdio_output@@@__crt_stdio_output@@IEAA_NXZ 00000001800b8b80 f i libucrtd:output.obj
 0001:000b7d80       ?update_field_width@?$positional_parameter_base@_WV?$stream_output_adapter@_W@__crt_stdio_output@@@__crt_stdio_output@@IEAA_NXZ 00000001800b8d80 f i libucrtd:output.obj
 0001:000b7f80       ?update_field_width@?$positional_parameter_base@_WV?$string_output_adapter@_W@__crt_stdio_output@@@__crt_stdio_output@@IEAA_NXZ 00000001800b8f80 f i libucrtd:output.obj
